ARM GAS  /tmp/cctetIQd.s 			page 1


   1              		.cpu cortex-m0plus
   2              		.eabi_attribute 20, 1
   3              		.eabi_attribute 21, 1
   4              		.eabi_attribute 23, 3
   5              		.eabi_attribute 24, 1
   6              		.eabi_attribute 25, 1
   7              		.eabi_attribute 26, 1
   8              		.eabi_attribute 30, 6
   9              		.eabi_attribute 34, 0
  10              		.eabi_attribute 18, 4
  11              		.file	"adc.c"
  12              		.text
  13              	.Ltext0:
  14              		.cfi_sections	.debug_frame
  15              		.section	.text.__NVIC_EnableIRQ,"ax",%progbits
  16              		.align	1
  17              		.arch armv6s-m
  18              		.syntax unified
  19              		.code	16
  20              		.thumb_func
  21              		.fpu softvfp
  23              	__NVIC_EnableIRQ:
  24              	.LFB25:
  25              		.file 1 "../../dependencies/STM32CubeL0/Drivers/CMSIS/Include/core_cm0plus.h"
   1:../../dependencies/STM32CubeL0/Drivers/CMSIS/Include/core_cm0plus.h **** /**************************************************************************//**
   2:../../dependencies/STM32CubeL0/Drivers/CMSIS/Include/core_cm0plus.h ****  * @file     core_cm0plus.h
   3:../../dependencies/STM32CubeL0/Drivers/CMSIS/Include/core_cm0plus.h ****  * @brief    CMSIS Cortex-M0+ Core Peripheral Access Layer Header File
   4:../../dependencies/STM32CubeL0/Drivers/CMSIS/Include/core_cm0plus.h ****  * @version  V5.0.6
   5:../../dependencies/STM32CubeL0/Drivers/CMSIS/Include/core_cm0plus.h ****  * @date     28. May 2018
   6:../../dependencies/STM32CubeL0/Drivers/CMSIS/Include/core_cm0plus.h ****  ******************************************************************************/
   7:../../dependencies/STM32CubeL0/Drivers/CMSIS/Include/core_cm0plus.h **** /*
   8:../../dependencies/STM32CubeL0/Drivers/CMSIS/Include/core_cm0plus.h ****  * Copyright (c) 2009-2018 Arm Limited. All rights reserved.
   9:../../dependencies/STM32CubeL0/Drivers/CMSIS/Include/core_cm0plus.h ****  *
  10:../../dependencies/STM32CubeL0/Drivers/CMSIS/Include/core_cm0plus.h ****  * SPDX-License-Identifier: Apache-2.0
  11:../../dependencies/STM32CubeL0/Drivers/CMSIS/Include/core_cm0plus.h ****  *
  12:../../dependencies/STM32CubeL0/Drivers/CMSIS/Include/core_cm0plus.h ****  * Licensed under the Apache License, Version 2.0 (the License); you may
  13:../../dependencies/STM32CubeL0/Drivers/CMSIS/Include/core_cm0plus.h ****  * not use this file except in compliance with the License.
  14:../../dependencies/STM32CubeL0/Drivers/CMSIS/Include/core_cm0plus.h ****  * You may obtain a copy of the License at
  15:../../dependencies/STM32CubeL0/Drivers/CMSIS/Include/core_cm0plus.h ****  *
  16:../../dependencies/STM32CubeL0/Drivers/CMSIS/Include/core_cm0plus.h ****  * www.apache.org/licenses/LICENSE-2.0
  17:../../dependencies/STM32CubeL0/Drivers/CMSIS/Include/core_cm0plus.h ****  *
  18:../../dependencies/STM32CubeL0/Drivers/CMSIS/Include/core_cm0plus.h ****  * Unless required by applicable law or agreed to in writing, software
  19:../../dependencies/STM32CubeL0/Drivers/CMSIS/Include/core_cm0plus.h ****  * distributed under the License is distributed on an AS IS BASIS, WITHOUT
  20:../../dependencies/STM32CubeL0/Drivers/CMSIS/Include/core_cm0plus.h ****  * WARRANTIES OR CONDITIONS OF ANY KIND, either express or implied.
  21:../../dependencies/STM32CubeL0/Drivers/CMSIS/Include/core_cm0plus.h ****  * See the License for the specific language governing permissions and
  22:../../dependencies/STM32CubeL0/Drivers/CMSIS/Include/core_cm0plus.h ****  * limitations under the License.
  23:../../dependencies/STM32CubeL0/Drivers/CMSIS/Include/core_cm0plus.h ****  */
  24:../../dependencies/STM32CubeL0/Drivers/CMSIS/Include/core_cm0plus.h **** 
  25:../../dependencies/STM32CubeL0/Drivers/CMSIS/Include/core_cm0plus.h **** #if   defined ( __ICCARM__ )
  26:../../dependencies/STM32CubeL0/Drivers/CMSIS/Include/core_cm0plus.h ****   #pragma system_include         /* treat file as system include file for MISRA check */
  27:../../dependencies/STM32CubeL0/Drivers/CMSIS/Include/core_cm0plus.h **** #elif defined (__clang__)
  28:../../dependencies/STM32CubeL0/Drivers/CMSIS/Include/core_cm0plus.h ****   #pragma clang system_header   /* treat file as system include file */
  29:../../dependencies/STM32CubeL0/Drivers/CMSIS/Include/core_cm0plus.h **** #endif
  30:../../dependencies/STM32CubeL0/Drivers/CMSIS/Include/core_cm0plus.h **** 
  31:../../dependencies/STM32CubeL0/Drivers/CMSIS/Include/core_cm0plus.h **** #ifndef __CORE_CM0PLUS_H_GENERIC
  32:../../dependencies/STM32CubeL0/Drivers/CMSIS/Include/core_cm0plus.h **** #define __CORE_CM0PLUS_H_GENERIC
  33:../../dependencies/STM32CubeL0/Drivers/CMSIS/Include/core_cm0plus.h **** 
ARM GAS  /tmp/cctetIQd.s 			page 2


  34:../../dependencies/STM32CubeL0/Drivers/CMSIS/Include/core_cm0plus.h **** #include <stdint.h>
  35:../../dependencies/STM32CubeL0/Drivers/CMSIS/Include/core_cm0plus.h **** 
  36:../../dependencies/STM32CubeL0/Drivers/CMSIS/Include/core_cm0plus.h **** #ifdef __cplusplus
  37:../../dependencies/STM32CubeL0/Drivers/CMSIS/Include/core_cm0plus.h ****  extern "C" {
  38:../../dependencies/STM32CubeL0/Drivers/CMSIS/Include/core_cm0plus.h **** #endif
  39:../../dependencies/STM32CubeL0/Drivers/CMSIS/Include/core_cm0plus.h **** 
  40:../../dependencies/STM32CubeL0/Drivers/CMSIS/Include/core_cm0plus.h **** /**
  41:../../dependencies/STM32CubeL0/Drivers/CMSIS/Include/core_cm0plus.h ****   \page CMSIS_MISRA_Exceptions  MISRA-C:2004 Compliance Exceptions
  42:../../dependencies/STM32CubeL0/Drivers/CMSIS/Include/core_cm0plus.h ****   CMSIS violates the following MISRA-C:2004 rules:
  43:../../dependencies/STM32CubeL0/Drivers/CMSIS/Include/core_cm0plus.h **** 
  44:../../dependencies/STM32CubeL0/Drivers/CMSIS/Include/core_cm0plus.h ****    \li Required Rule 8.5, object/function definition in header file.<br>
  45:../../dependencies/STM32CubeL0/Drivers/CMSIS/Include/core_cm0plus.h ****      Function definitions in header files are used to allow 'inlining'.
  46:../../dependencies/STM32CubeL0/Drivers/CMSIS/Include/core_cm0plus.h **** 
  47:../../dependencies/STM32CubeL0/Drivers/CMSIS/Include/core_cm0plus.h ****    \li Required Rule 18.4, declaration of union type or object of union type: '{...}'.<br>
  48:../../dependencies/STM32CubeL0/Drivers/CMSIS/Include/core_cm0plus.h ****      Unions are used for effective representation of core registers.
  49:../../dependencies/STM32CubeL0/Drivers/CMSIS/Include/core_cm0plus.h **** 
  50:../../dependencies/STM32CubeL0/Drivers/CMSIS/Include/core_cm0plus.h ****    \li Advisory Rule 19.7, Function-like macro defined.<br>
  51:../../dependencies/STM32CubeL0/Drivers/CMSIS/Include/core_cm0plus.h ****      Function-like macros are used to allow more efficient code.
  52:../../dependencies/STM32CubeL0/Drivers/CMSIS/Include/core_cm0plus.h ****  */
  53:../../dependencies/STM32CubeL0/Drivers/CMSIS/Include/core_cm0plus.h **** 
  54:../../dependencies/STM32CubeL0/Drivers/CMSIS/Include/core_cm0plus.h **** 
  55:../../dependencies/STM32CubeL0/Drivers/CMSIS/Include/core_cm0plus.h **** /*******************************************************************************
  56:../../dependencies/STM32CubeL0/Drivers/CMSIS/Include/core_cm0plus.h ****  *                 CMSIS definitions
  57:../../dependencies/STM32CubeL0/Drivers/CMSIS/Include/core_cm0plus.h ****  ******************************************************************************/
  58:../../dependencies/STM32CubeL0/Drivers/CMSIS/Include/core_cm0plus.h **** /**
  59:../../dependencies/STM32CubeL0/Drivers/CMSIS/Include/core_cm0plus.h ****   \ingroup Cortex-M0+
  60:../../dependencies/STM32CubeL0/Drivers/CMSIS/Include/core_cm0plus.h ****   @{
  61:../../dependencies/STM32CubeL0/Drivers/CMSIS/Include/core_cm0plus.h ****  */
  62:../../dependencies/STM32CubeL0/Drivers/CMSIS/Include/core_cm0plus.h **** 
  63:../../dependencies/STM32CubeL0/Drivers/CMSIS/Include/core_cm0plus.h **** #include "cmsis_version.h"
  64:../../dependencies/STM32CubeL0/Drivers/CMSIS/Include/core_cm0plus.h ****  
  65:../../dependencies/STM32CubeL0/Drivers/CMSIS/Include/core_cm0plus.h **** /*  CMSIS CM0+ definitions */
  66:../../dependencies/STM32CubeL0/Drivers/CMSIS/Include/core_cm0plus.h **** #define __CM0PLUS_CMSIS_VERSION_MAIN (__CM_CMSIS_VERSION_MAIN)                  /*!< \deprecated [3
  67:../../dependencies/STM32CubeL0/Drivers/CMSIS/Include/core_cm0plus.h **** #define __CM0PLUS_CMSIS_VERSION_SUB  (__CM_CMSIS_VERSION_SUB)                   /*!< \deprecated [1
  68:../../dependencies/STM32CubeL0/Drivers/CMSIS/Include/core_cm0plus.h **** #define __CM0PLUS_CMSIS_VERSION      ((__CM0PLUS_CMSIS_VERSION_MAIN << 16U) | \
  69:../../dependencies/STM32CubeL0/Drivers/CMSIS/Include/core_cm0plus.h ****                                        __CM0PLUS_CMSIS_VERSION_SUB           )  /*!< \deprecated CM
  70:../../dependencies/STM32CubeL0/Drivers/CMSIS/Include/core_cm0plus.h **** 
  71:../../dependencies/STM32CubeL0/Drivers/CMSIS/Include/core_cm0plus.h **** #define __CORTEX_M                   (0U)                                       /*!< Cortex-M Core 
  72:../../dependencies/STM32CubeL0/Drivers/CMSIS/Include/core_cm0plus.h **** 
  73:../../dependencies/STM32CubeL0/Drivers/CMSIS/Include/core_cm0plus.h **** /** __FPU_USED indicates whether an FPU is used or not.
  74:../../dependencies/STM32CubeL0/Drivers/CMSIS/Include/core_cm0plus.h ****     This core does not support an FPU at all
  75:../../dependencies/STM32CubeL0/Drivers/CMSIS/Include/core_cm0plus.h **** */
  76:../../dependencies/STM32CubeL0/Drivers/CMSIS/Include/core_cm0plus.h **** #define __FPU_USED       0U
  77:../../dependencies/STM32CubeL0/Drivers/CMSIS/Include/core_cm0plus.h **** 
  78:../../dependencies/STM32CubeL0/Drivers/CMSIS/Include/core_cm0plus.h **** #if defined ( __CC_ARM )
  79:../../dependencies/STM32CubeL0/Drivers/CMSIS/Include/core_cm0plus.h ****   #if defined __TARGET_FPU_VFP
  80:../../dependencies/STM32CubeL0/Drivers/CMSIS/Include/core_cm0plus.h ****     #error "Compiler generates FPU instructions for a device without an FPU (check __FPU_PRESENT)"
  81:../../dependencies/STM32CubeL0/Drivers/CMSIS/Include/core_cm0plus.h ****   #endif
  82:../../dependencies/STM32CubeL0/Drivers/CMSIS/Include/core_cm0plus.h **** 
  83:../../dependencies/STM32CubeL0/Drivers/CMSIS/Include/core_cm0plus.h **** #elif defined (__ARMCC_VERSION) && (__ARMCC_VERSION >= 6010050)
  84:../../dependencies/STM32CubeL0/Drivers/CMSIS/Include/core_cm0plus.h ****   #if defined __ARM_PCS_VFP
  85:../../dependencies/STM32CubeL0/Drivers/CMSIS/Include/core_cm0plus.h ****     #error "Compiler generates FPU instructions for a device without an FPU (check __FPU_PRESENT)"
  86:../../dependencies/STM32CubeL0/Drivers/CMSIS/Include/core_cm0plus.h ****   #endif
  87:../../dependencies/STM32CubeL0/Drivers/CMSIS/Include/core_cm0plus.h **** 
  88:../../dependencies/STM32CubeL0/Drivers/CMSIS/Include/core_cm0plus.h **** #elif defined ( __GNUC__ )
  89:../../dependencies/STM32CubeL0/Drivers/CMSIS/Include/core_cm0plus.h ****   #if defined (__VFP_FP__) && !defined(__SOFTFP__)
  90:../../dependencies/STM32CubeL0/Drivers/CMSIS/Include/core_cm0plus.h ****     #error "Compiler generates FPU instructions for a device without an FPU (check __FPU_PRESENT)"
ARM GAS  /tmp/cctetIQd.s 			page 3


  91:../../dependencies/STM32CubeL0/Drivers/CMSIS/Include/core_cm0plus.h ****   #endif
  92:../../dependencies/STM32CubeL0/Drivers/CMSIS/Include/core_cm0plus.h **** 
  93:../../dependencies/STM32CubeL0/Drivers/CMSIS/Include/core_cm0plus.h **** #elif defined ( __ICCARM__ )
  94:../../dependencies/STM32CubeL0/Drivers/CMSIS/Include/core_cm0plus.h ****   #if defined __ARMVFP__
  95:../../dependencies/STM32CubeL0/Drivers/CMSIS/Include/core_cm0plus.h ****     #error "Compiler generates FPU instructions for a device without an FPU (check __FPU_PRESENT)"
  96:../../dependencies/STM32CubeL0/Drivers/CMSIS/Include/core_cm0plus.h ****   #endif
  97:../../dependencies/STM32CubeL0/Drivers/CMSIS/Include/core_cm0plus.h **** 
  98:../../dependencies/STM32CubeL0/Drivers/CMSIS/Include/core_cm0plus.h **** #elif defined ( __TI_ARM__ )
  99:../../dependencies/STM32CubeL0/Drivers/CMSIS/Include/core_cm0plus.h ****   #if defined __TI_VFP_SUPPORT__
 100:../../dependencies/STM32CubeL0/Drivers/CMSIS/Include/core_cm0plus.h ****     #error "Compiler generates FPU instructions for a device without an FPU (check __FPU_PRESENT)"
 101:../../dependencies/STM32CubeL0/Drivers/CMSIS/Include/core_cm0plus.h ****   #endif
 102:../../dependencies/STM32CubeL0/Drivers/CMSIS/Include/core_cm0plus.h **** 
 103:../../dependencies/STM32CubeL0/Drivers/CMSIS/Include/core_cm0plus.h **** #elif defined ( __TASKING__ )
 104:../../dependencies/STM32CubeL0/Drivers/CMSIS/Include/core_cm0plus.h ****   #if defined __FPU_VFP__
 105:../../dependencies/STM32CubeL0/Drivers/CMSIS/Include/core_cm0plus.h ****     #error "Compiler generates FPU instructions for a device without an FPU (check __FPU_PRESENT)"
 106:../../dependencies/STM32CubeL0/Drivers/CMSIS/Include/core_cm0plus.h ****   #endif
 107:../../dependencies/STM32CubeL0/Drivers/CMSIS/Include/core_cm0plus.h **** 
 108:../../dependencies/STM32CubeL0/Drivers/CMSIS/Include/core_cm0plus.h **** #elif defined ( __CSMC__ )
 109:../../dependencies/STM32CubeL0/Drivers/CMSIS/Include/core_cm0plus.h ****   #if ( __CSMC__ & 0x400U)
 110:../../dependencies/STM32CubeL0/Drivers/CMSIS/Include/core_cm0plus.h ****     #error "Compiler generates FPU instructions for a device without an FPU (check __FPU_PRESENT)"
 111:../../dependencies/STM32CubeL0/Drivers/CMSIS/Include/core_cm0plus.h ****   #endif
 112:../../dependencies/STM32CubeL0/Drivers/CMSIS/Include/core_cm0plus.h **** 
 113:../../dependencies/STM32CubeL0/Drivers/CMSIS/Include/core_cm0plus.h **** #endif
 114:../../dependencies/STM32CubeL0/Drivers/CMSIS/Include/core_cm0plus.h **** 
 115:../../dependencies/STM32CubeL0/Drivers/CMSIS/Include/core_cm0plus.h **** #include "cmsis_compiler.h"               /* CMSIS compiler specific defines */
 116:../../dependencies/STM32CubeL0/Drivers/CMSIS/Include/core_cm0plus.h **** 
 117:../../dependencies/STM32CubeL0/Drivers/CMSIS/Include/core_cm0plus.h **** 
 118:../../dependencies/STM32CubeL0/Drivers/CMSIS/Include/core_cm0plus.h **** #ifdef __cplusplus
 119:../../dependencies/STM32CubeL0/Drivers/CMSIS/Include/core_cm0plus.h **** }
 120:../../dependencies/STM32CubeL0/Drivers/CMSIS/Include/core_cm0plus.h **** #endif
 121:../../dependencies/STM32CubeL0/Drivers/CMSIS/Include/core_cm0plus.h **** 
 122:../../dependencies/STM32CubeL0/Drivers/CMSIS/Include/core_cm0plus.h **** #endif /* __CORE_CM0PLUS_H_GENERIC */
 123:../../dependencies/STM32CubeL0/Drivers/CMSIS/Include/core_cm0plus.h **** 
 124:../../dependencies/STM32CubeL0/Drivers/CMSIS/Include/core_cm0plus.h **** #ifndef __CMSIS_GENERIC
 125:../../dependencies/STM32CubeL0/Drivers/CMSIS/Include/core_cm0plus.h **** 
 126:../../dependencies/STM32CubeL0/Drivers/CMSIS/Include/core_cm0plus.h **** #ifndef __CORE_CM0PLUS_H_DEPENDANT
 127:../../dependencies/STM32CubeL0/Drivers/CMSIS/Include/core_cm0plus.h **** #define __CORE_CM0PLUS_H_DEPENDANT
 128:../../dependencies/STM32CubeL0/Drivers/CMSIS/Include/core_cm0plus.h **** 
 129:../../dependencies/STM32CubeL0/Drivers/CMSIS/Include/core_cm0plus.h **** #ifdef __cplusplus
 130:../../dependencies/STM32CubeL0/Drivers/CMSIS/Include/core_cm0plus.h ****  extern "C" {
 131:../../dependencies/STM32CubeL0/Drivers/CMSIS/Include/core_cm0plus.h **** #endif
 132:../../dependencies/STM32CubeL0/Drivers/CMSIS/Include/core_cm0plus.h **** 
 133:../../dependencies/STM32CubeL0/Drivers/CMSIS/Include/core_cm0plus.h **** /* check device defines and use defaults */
 134:../../dependencies/STM32CubeL0/Drivers/CMSIS/Include/core_cm0plus.h **** #if defined __CHECK_DEVICE_DEFINES
 135:../../dependencies/STM32CubeL0/Drivers/CMSIS/Include/core_cm0plus.h ****   #ifndef __CM0PLUS_REV
 136:../../dependencies/STM32CubeL0/Drivers/CMSIS/Include/core_cm0plus.h ****     #define __CM0PLUS_REV             0x0000U
 137:../../dependencies/STM32CubeL0/Drivers/CMSIS/Include/core_cm0plus.h ****     #warning "__CM0PLUS_REV not defined in device header file; using default!"
 138:../../dependencies/STM32CubeL0/Drivers/CMSIS/Include/core_cm0plus.h ****   #endif
 139:../../dependencies/STM32CubeL0/Drivers/CMSIS/Include/core_cm0plus.h **** 
 140:../../dependencies/STM32CubeL0/Drivers/CMSIS/Include/core_cm0plus.h ****   #ifndef __MPU_PRESENT
 141:../../dependencies/STM32CubeL0/Drivers/CMSIS/Include/core_cm0plus.h ****     #define __MPU_PRESENT             0U
 142:../../dependencies/STM32CubeL0/Drivers/CMSIS/Include/core_cm0plus.h ****     #warning "__MPU_PRESENT not defined in device header file; using default!"
 143:../../dependencies/STM32CubeL0/Drivers/CMSIS/Include/core_cm0plus.h ****   #endif
 144:../../dependencies/STM32CubeL0/Drivers/CMSIS/Include/core_cm0plus.h **** 
 145:../../dependencies/STM32CubeL0/Drivers/CMSIS/Include/core_cm0plus.h ****   #ifndef __VTOR_PRESENT
 146:../../dependencies/STM32CubeL0/Drivers/CMSIS/Include/core_cm0plus.h ****     #define __VTOR_PRESENT            0U
 147:../../dependencies/STM32CubeL0/Drivers/CMSIS/Include/core_cm0plus.h ****     #warning "__VTOR_PRESENT not defined in device header file; using default!"
ARM GAS  /tmp/cctetIQd.s 			page 4


 148:../../dependencies/STM32CubeL0/Drivers/CMSIS/Include/core_cm0plus.h ****   #endif
 149:../../dependencies/STM32CubeL0/Drivers/CMSIS/Include/core_cm0plus.h **** 
 150:../../dependencies/STM32CubeL0/Drivers/CMSIS/Include/core_cm0plus.h ****   #ifndef __NVIC_PRIO_BITS
 151:../../dependencies/STM32CubeL0/Drivers/CMSIS/Include/core_cm0plus.h ****     #define __NVIC_PRIO_BITS          2U
 152:../../dependencies/STM32CubeL0/Drivers/CMSIS/Include/core_cm0plus.h ****     #warning "__NVIC_PRIO_BITS not defined in device header file; using default!"
 153:../../dependencies/STM32CubeL0/Drivers/CMSIS/Include/core_cm0plus.h ****   #endif
 154:../../dependencies/STM32CubeL0/Drivers/CMSIS/Include/core_cm0plus.h **** 
 155:../../dependencies/STM32CubeL0/Drivers/CMSIS/Include/core_cm0plus.h ****   #ifndef __Vendor_SysTickConfig
 156:../../dependencies/STM32CubeL0/Drivers/CMSIS/Include/core_cm0plus.h ****     #define __Vendor_SysTickConfig    0U
 157:../../dependencies/STM32CubeL0/Drivers/CMSIS/Include/core_cm0plus.h ****     #warning "__Vendor_SysTickConfig not defined in device header file; using default!"
 158:../../dependencies/STM32CubeL0/Drivers/CMSIS/Include/core_cm0plus.h ****   #endif
 159:../../dependencies/STM32CubeL0/Drivers/CMSIS/Include/core_cm0plus.h **** #endif
 160:../../dependencies/STM32CubeL0/Drivers/CMSIS/Include/core_cm0plus.h **** 
 161:../../dependencies/STM32CubeL0/Drivers/CMSIS/Include/core_cm0plus.h **** /* IO definitions (access restrictions to peripheral registers) */
 162:../../dependencies/STM32CubeL0/Drivers/CMSIS/Include/core_cm0plus.h **** /**
 163:../../dependencies/STM32CubeL0/Drivers/CMSIS/Include/core_cm0plus.h ****     \defgroup CMSIS_glob_defs CMSIS Global Defines
 164:../../dependencies/STM32CubeL0/Drivers/CMSIS/Include/core_cm0plus.h **** 
 165:../../dependencies/STM32CubeL0/Drivers/CMSIS/Include/core_cm0plus.h ****     <strong>IO Type Qualifiers</strong> are used
 166:../../dependencies/STM32CubeL0/Drivers/CMSIS/Include/core_cm0plus.h ****     \li to specify the access to peripheral variables.
 167:../../dependencies/STM32CubeL0/Drivers/CMSIS/Include/core_cm0plus.h ****     \li for automatic generation of peripheral register debug information.
 168:../../dependencies/STM32CubeL0/Drivers/CMSIS/Include/core_cm0plus.h **** */
 169:../../dependencies/STM32CubeL0/Drivers/CMSIS/Include/core_cm0plus.h **** #ifdef __cplusplus
 170:../../dependencies/STM32CubeL0/Drivers/CMSIS/Include/core_cm0plus.h ****   #define   __I     volatile             /*!< Defines 'read only' permissions */
 171:../../dependencies/STM32CubeL0/Drivers/CMSIS/Include/core_cm0plus.h **** #else
 172:../../dependencies/STM32CubeL0/Drivers/CMSIS/Include/core_cm0plus.h ****   #define   __I     volatile const       /*!< Defines 'read only' permissions */
 173:../../dependencies/STM32CubeL0/Drivers/CMSIS/Include/core_cm0plus.h **** #endif
 174:../../dependencies/STM32CubeL0/Drivers/CMSIS/Include/core_cm0plus.h **** #define     __O     volatile             /*!< Defines 'write only' permissions */
 175:../../dependencies/STM32CubeL0/Drivers/CMSIS/Include/core_cm0plus.h **** #define     __IO    volatile             /*!< Defines 'read / write' permissions */
 176:../../dependencies/STM32CubeL0/Drivers/CMSIS/Include/core_cm0plus.h **** 
 177:../../dependencies/STM32CubeL0/Drivers/CMSIS/Include/core_cm0plus.h **** /* following defines should be used for structure members */
 178:../../dependencies/STM32CubeL0/Drivers/CMSIS/Include/core_cm0plus.h **** #define     __IM     volatile const      /*! Defines 'read only' structure member permissions */
 179:../../dependencies/STM32CubeL0/Drivers/CMSIS/Include/core_cm0plus.h **** #define     __OM     volatile            /*! Defines 'write only' structure member permissions */
 180:../../dependencies/STM32CubeL0/Drivers/CMSIS/Include/core_cm0plus.h **** #define     __IOM    volatile            /*! Defines 'read / write' structure member permissions */
 181:../../dependencies/STM32CubeL0/Drivers/CMSIS/Include/core_cm0plus.h **** 
 182:../../dependencies/STM32CubeL0/Drivers/CMSIS/Include/core_cm0plus.h **** /*@} end of group Cortex-M0+ */
 183:../../dependencies/STM32CubeL0/Drivers/CMSIS/Include/core_cm0plus.h **** 
 184:../../dependencies/STM32CubeL0/Drivers/CMSIS/Include/core_cm0plus.h **** 
 185:../../dependencies/STM32CubeL0/Drivers/CMSIS/Include/core_cm0plus.h **** 
 186:../../dependencies/STM32CubeL0/Drivers/CMSIS/Include/core_cm0plus.h **** /*******************************************************************************
 187:../../dependencies/STM32CubeL0/Drivers/CMSIS/Include/core_cm0plus.h ****  *                 Register Abstraction
 188:../../dependencies/STM32CubeL0/Drivers/CMSIS/Include/core_cm0plus.h ****   Core Register contain:
 189:../../dependencies/STM32CubeL0/Drivers/CMSIS/Include/core_cm0plus.h ****   - Core Register
 190:../../dependencies/STM32CubeL0/Drivers/CMSIS/Include/core_cm0plus.h ****   - Core NVIC Register
 191:../../dependencies/STM32CubeL0/Drivers/CMSIS/Include/core_cm0plus.h ****   - Core SCB Register
 192:../../dependencies/STM32CubeL0/Drivers/CMSIS/Include/core_cm0plus.h ****   - Core SysTick Register
 193:../../dependencies/STM32CubeL0/Drivers/CMSIS/Include/core_cm0plus.h ****   - Core MPU Register
 194:../../dependencies/STM32CubeL0/Drivers/CMSIS/Include/core_cm0plus.h ****  ******************************************************************************/
 195:../../dependencies/STM32CubeL0/Drivers/CMSIS/Include/core_cm0plus.h **** /**
 196:../../dependencies/STM32CubeL0/Drivers/CMSIS/Include/core_cm0plus.h ****   \defgroup CMSIS_core_register Defines and Type Definitions
 197:../../dependencies/STM32CubeL0/Drivers/CMSIS/Include/core_cm0plus.h ****   \brief Type definitions and defines for Cortex-M processor based devices.
 198:../../dependencies/STM32CubeL0/Drivers/CMSIS/Include/core_cm0plus.h **** */
 199:../../dependencies/STM32CubeL0/Drivers/CMSIS/Include/core_cm0plus.h **** 
 200:../../dependencies/STM32CubeL0/Drivers/CMSIS/Include/core_cm0plus.h **** /**
 201:../../dependencies/STM32CubeL0/Drivers/CMSIS/Include/core_cm0plus.h ****   \ingroup    CMSIS_core_register
 202:../../dependencies/STM32CubeL0/Drivers/CMSIS/Include/core_cm0plus.h ****   \defgroup   CMSIS_CORE  Status and Control Registers
 203:../../dependencies/STM32CubeL0/Drivers/CMSIS/Include/core_cm0plus.h ****   \brief      Core Register type definitions.
 204:../../dependencies/STM32CubeL0/Drivers/CMSIS/Include/core_cm0plus.h ****   @{
ARM GAS  /tmp/cctetIQd.s 			page 5


 205:../../dependencies/STM32CubeL0/Drivers/CMSIS/Include/core_cm0plus.h ****  */
 206:../../dependencies/STM32CubeL0/Drivers/CMSIS/Include/core_cm0plus.h **** 
 207:../../dependencies/STM32CubeL0/Drivers/CMSIS/Include/core_cm0plus.h **** /**
 208:../../dependencies/STM32CubeL0/Drivers/CMSIS/Include/core_cm0plus.h ****   \brief  Union type to access the Application Program Status Register (APSR).
 209:../../dependencies/STM32CubeL0/Drivers/CMSIS/Include/core_cm0plus.h ****  */
 210:../../dependencies/STM32CubeL0/Drivers/CMSIS/Include/core_cm0plus.h **** typedef union
 211:../../dependencies/STM32CubeL0/Drivers/CMSIS/Include/core_cm0plus.h **** {
 212:../../dependencies/STM32CubeL0/Drivers/CMSIS/Include/core_cm0plus.h ****   struct
 213:../../dependencies/STM32CubeL0/Drivers/CMSIS/Include/core_cm0plus.h ****   {
 214:../../dependencies/STM32CubeL0/Drivers/CMSIS/Include/core_cm0plus.h ****     uint32_t _reserved0:28;              /*!< bit:  0..27  Reserved */
 215:../../dependencies/STM32CubeL0/Drivers/CMSIS/Include/core_cm0plus.h ****     uint32_t V:1;                        /*!< bit:     28  Overflow condition code flag */
 216:../../dependencies/STM32CubeL0/Drivers/CMSIS/Include/core_cm0plus.h ****     uint32_t C:1;                        /*!< bit:     29  Carry condition code flag */
 217:../../dependencies/STM32CubeL0/Drivers/CMSIS/Include/core_cm0plus.h ****     uint32_t Z:1;                        /*!< bit:     30  Zero condition code flag */
 218:../../dependencies/STM32CubeL0/Drivers/CMSIS/Include/core_cm0plus.h ****     uint32_t N:1;                        /*!< bit:     31  Negative condition code flag */
 219:../../dependencies/STM32CubeL0/Drivers/CMSIS/Include/core_cm0plus.h ****   } b;                                   /*!< Structure used for bit  access */
 220:../../dependencies/STM32CubeL0/Drivers/CMSIS/Include/core_cm0plus.h ****   uint32_t w;                            /*!< Type      used for word access */
 221:../../dependencies/STM32CubeL0/Drivers/CMSIS/Include/core_cm0plus.h **** } APSR_Type;
 222:../../dependencies/STM32CubeL0/Drivers/CMSIS/Include/core_cm0plus.h **** 
 223:../../dependencies/STM32CubeL0/Drivers/CMSIS/Include/core_cm0plus.h **** /* APSR Register Definitions */
 224:../../dependencies/STM32CubeL0/Drivers/CMSIS/Include/core_cm0plus.h **** #define APSR_N_Pos                         31U                                            /*!< APSR
 225:../../dependencies/STM32CubeL0/Drivers/CMSIS/Include/core_cm0plus.h **** #define APSR_N_Msk                         (1UL << APSR_N_Pos)                            /*!< APSR
 226:../../dependencies/STM32CubeL0/Drivers/CMSIS/Include/core_cm0plus.h **** 
 227:../../dependencies/STM32CubeL0/Drivers/CMSIS/Include/core_cm0plus.h **** #define APSR_Z_Pos                         30U                                            /*!< APSR
 228:../../dependencies/STM32CubeL0/Drivers/CMSIS/Include/core_cm0plus.h **** #define APSR_Z_Msk                         (1UL << APSR_Z_Pos)                            /*!< APSR
 229:../../dependencies/STM32CubeL0/Drivers/CMSIS/Include/core_cm0plus.h **** 
 230:../../dependencies/STM32CubeL0/Drivers/CMSIS/Include/core_cm0plus.h **** #define APSR_C_Pos                         29U                                            /*!< APSR
 231:../../dependencies/STM32CubeL0/Drivers/CMSIS/Include/core_cm0plus.h **** #define APSR_C_Msk                         (1UL << APSR_C_Pos)                            /*!< APSR
 232:../../dependencies/STM32CubeL0/Drivers/CMSIS/Include/core_cm0plus.h **** 
 233:../../dependencies/STM32CubeL0/Drivers/CMSIS/Include/core_cm0plus.h **** #define APSR_V_Pos                         28U                                            /*!< APSR
 234:../../dependencies/STM32CubeL0/Drivers/CMSIS/Include/core_cm0plus.h **** #define APSR_V_Msk                         (1UL << APSR_V_Pos)                            /*!< APSR
 235:../../dependencies/STM32CubeL0/Drivers/CMSIS/Include/core_cm0plus.h **** 
 236:../../dependencies/STM32CubeL0/Drivers/CMSIS/Include/core_cm0plus.h **** 
 237:../../dependencies/STM32CubeL0/Drivers/CMSIS/Include/core_cm0plus.h **** /**
 238:../../dependencies/STM32CubeL0/Drivers/CMSIS/Include/core_cm0plus.h ****   \brief  Union type to access the Interrupt Program Status Register (IPSR).
 239:../../dependencies/STM32CubeL0/Drivers/CMSIS/Include/core_cm0plus.h ****  */
 240:../../dependencies/STM32CubeL0/Drivers/CMSIS/Include/core_cm0plus.h **** typedef union
 241:../../dependencies/STM32CubeL0/Drivers/CMSIS/Include/core_cm0plus.h **** {
 242:../../dependencies/STM32CubeL0/Drivers/CMSIS/Include/core_cm0plus.h ****   struct
 243:../../dependencies/STM32CubeL0/Drivers/CMSIS/Include/core_cm0plus.h ****   {
 244:../../dependencies/STM32CubeL0/Drivers/CMSIS/Include/core_cm0plus.h ****     uint32_t ISR:9;                      /*!< bit:  0.. 8  Exception number */
 245:../../dependencies/STM32CubeL0/Drivers/CMSIS/Include/core_cm0plus.h ****     uint32_t _reserved0:23;              /*!< bit:  9..31  Reserved */
 246:../../dependencies/STM32CubeL0/Drivers/CMSIS/Include/core_cm0plus.h ****   } b;                                   /*!< Structure used for bit  access */
 247:../../dependencies/STM32CubeL0/Drivers/CMSIS/Include/core_cm0plus.h ****   uint32_t w;                            /*!< Type      used for word access */
 248:../../dependencies/STM32CubeL0/Drivers/CMSIS/Include/core_cm0plus.h **** } IPSR_Type;
 249:../../dependencies/STM32CubeL0/Drivers/CMSIS/Include/core_cm0plus.h **** 
 250:../../dependencies/STM32CubeL0/Drivers/CMSIS/Include/core_cm0plus.h **** /* IPSR Register Definitions */
 251:../../dependencies/STM32CubeL0/Drivers/CMSIS/Include/core_cm0plus.h **** #define IPSR_ISR_Pos                        0U                                            /*!< IPSR
 252:../../dependencies/STM32CubeL0/Drivers/CMSIS/Include/core_cm0plus.h **** #define IPSR_ISR_Msk                       (0x1FFUL /*<< IPSR_ISR_Pos*/)                  /*!< IPSR
 253:../../dependencies/STM32CubeL0/Drivers/CMSIS/Include/core_cm0plus.h **** 
 254:../../dependencies/STM32CubeL0/Drivers/CMSIS/Include/core_cm0plus.h **** 
 255:../../dependencies/STM32CubeL0/Drivers/CMSIS/Include/core_cm0plus.h **** /**
 256:../../dependencies/STM32CubeL0/Drivers/CMSIS/Include/core_cm0plus.h ****   \brief  Union type to access the Special-Purpose Program Status Registers (xPSR).
 257:../../dependencies/STM32CubeL0/Drivers/CMSIS/Include/core_cm0plus.h ****  */
 258:../../dependencies/STM32CubeL0/Drivers/CMSIS/Include/core_cm0plus.h **** typedef union
 259:../../dependencies/STM32CubeL0/Drivers/CMSIS/Include/core_cm0plus.h **** {
 260:../../dependencies/STM32CubeL0/Drivers/CMSIS/Include/core_cm0plus.h ****   struct
 261:../../dependencies/STM32CubeL0/Drivers/CMSIS/Include/core_cm0plus.h ****   {
ARM GAS  /tmp/cctetIQd.s 			page 6


 262:../../dependencies/STM32CubeL0/Drivers/CMSIS/Include/core_cm0plus.h ****     uint32_t ISR:9;                      /*!< bit:  0.. 8  Exception number */
 263:../../dependencies/STM32CubeL0/Drivers/CMSIS/Include/core_cm0plus.h ****     uint32_t _reserved0:15;              /*!< bit:  9..23  Reserved */
 264:../../dependencies/STM32CubeL0/Drivers/CMSIS/Include/core_cm0plus.h ****     uint32_t T:1;                        /*!< bit:     24  Thumb bit        (read 0) */
 265:../../dependencies/STM32CubeL0/Drivers/CMSIS/Include/core_cm0plus.h ****     uint32_t _reserved1:3;               /*!< bit: 25..27  Reserved */
 266:../../dependencies/STM32CubeL0/Drivers/CMSIS/Include/core_cm0plus.h ****     uint32_t V:1;                        /*!< bit:     28  Overflow condition code flag */
 267:../../dependencies/STM32CubeL0/Drivers/CMSIS/Include/core_cm0plus.h ****     uint32_t C:1;                        /*!< bit:     29  Carry condition code flag */
 268:../../dependencies/STM32CubeL0/Drivers/CMSIS/Include/core_cm0plus.h ****     uint32_t Z:1;                        /*!< bit:     30  Zero condition code flag */
 269:../../dependencies/STM32CubeL0/Drivers/CMSIS/Include/core_cm0plus.h ****     uint32_t N:1;                        /*!< bit:     31  Negative condition code flag */
 270:../../dependencies/STM32CubeL0/Drivers/CMSIS/Include/core_cm0plus.h ****   } b;                                   /*!< Structure used for bit  access */
 271:../../dependencies/STM32CubeL0/Drivers/CMSIS/Include/core_cm0plus.h ****   uint32_t w;                            /*!< Type      used for word access */
 272:../../dependencies/STM32CubeL0/Drivers/CMSIS/Include/core_cm0plus.h **** } xPSR_Type;
 273:../../dependencies/STM32CubeL0/Drivers/CMSIS/Include/core_cm0plus.h **** 
 274:../../dependencies/STM32CubeL0/Drivers/CMSIS/Include/core_cm0plus.h **** /* xPSR Register Definitions */
 275:../../dependencies/STM32CubeL0/Drivers/CMSIS/Include/core_cm0plus.h **** #define xPSR_N_Pos                         31U                                            /*!< xPSR
 276:../../dependencies/STM32CubeL0/Drivers/CMSIS/Include/core_cm0plus.h **** #define xPSR_N_Msk                         (1UL << xPSR_N_Pos)                            /*!< xPSR
 277:../../dependencies/STM32CubeL0/Drivers/CMSIS/Include/core_cm0plus.h **** 
 278:../../dependencies/STM32CubeL0/Drivers/CMSIS/Include/core_cm0plus.h **** #define xPSR_Z_Pos                         30U                                            /*!< xPSR
 279:../../dependencies/STM32CubeL0/Drivers/CMSIS/Include/core_cm0plus.h **** #define xPSR_Z_Msk                         (1UL << xPSR_Z_Pos)                            /*!< xPSR
 280:../../dependencies/STM32CubeL0/Drivers/CMSIS/Include/core_cm0plus.h **** 
 281:../../dependencies/STM32CubeL0/Drivers/CMSIS/Include/core_cm0plus.h **** #define xPSR_C_Pos                         29U                                            /*!< xPSR
 282:../../dependencies/STM32CubeL0/Drivers/CMSIS/Include/core_cm0plus.h **** #define xPSR_C_Msk                         (1UL << xPSR_C_Pos)                            /*!< xPSR
 283:../../dependencies/STM32CubeL0/Drivers/CMSIS/Include/core_cm0plus.h **** 
 284:../../dependencies/STM32CubeL0/Drivers/CMSIS/Include/core_cm0plus.h **** #define xPSR_V_Pos                         28U                                            /*!< xPSR
 285:../../dependencies/STM32CubeL0/Drivers/CMSIS/Include/core_cm0plus.h **** #define xPSR_V_Msk                         (1UL << xPSR_V_Pos)                            /*!< xPSR
 286:../../dependencies/STM32CubeL0/Drivers/CMSIS/Include/core_cm0plus.h **** 
 287:../../dependencies/STM32CubeL0/Drivers/CMSIS/Include/core_cm0plus.h **** #define xPSR_T_Pos                         24U                                            /*!< xPSR
 288:../../dependencies/STM32CubeL0/Drivers/CMSIS/Include/core_cm0plus.h **** #define xPSR_T_Msk                         (1UL << xPSR_T_Pos)                            /*!< xPSR
 289:../../dependencies/STM32CubeL0/Drivers/CMSIS/Include/core_cm0plus.h **** 
 290:../../dependencies/STM32CubeL0/Drivers/CMSIS/Include/core_cm0plus.h **** #define xPSR_ISR_Pos                        0U                                            /*!< xPSR
 291:../../dependencies/STM32CubeL0/Drivers/CMSIS/Include/core_cm0plus.h **** #define xPSR_ISR_Msk                       (0x1FFUL /*<< xPSR_ISR_Pos*/)                  /*!< xPSR
 292:../../dependencies/STM32CubeL0/Drivers/CMSIS/Include/core_cm0plus.h **** 
 293:../../dependencies/STM32CubeL0/Drivers/CMSIS/Include/core_cm0plus.h **** 
 294:../../dependencies/STM32CubeL0/Drivers/CMSIS/Include/core_cm0plus.h **** /**
 295:../../dependencies/STM32CubeL0/Drivers/CMSIS/Include/core_cm0plus.h ****   \brief  Union type to access the Control Registers (CONTROL).
 296:../../dependencies/STM32CubeL0/Drivers/CMSIS/Include/core_cm0plus.h ****  */
 297:../../dependencies/STM32CubeL0/Drivers/CMSIS/Include/core_cm0plus.h **** typedef union
 298:../../dependencies/STM32CubeL0/Drivers/CMSIS/Include/core_cm0plus.h **** {
 299:../../dependencies/STM32CubeL0/Drivers/CMSIS/Include/core_cm0plus.h ****   struct
 300:../../dependencies/STM32CubeL0/Drivers/CMSIS/Include/core_cm0plus.h ****   {
 301:../../dependencies/STM32CubeL0/Drivers/CMSIS/Include/core_cm0plus.h ****     uint32_t nPRIV:1;                    /*!< bit:      0  Execution privilege in Thread mode */
 302:../../dependencies/STM32CubeL0/Drivers/CMSIS/Include/core_cm0plus.h ****     uint32_t SPSEL:1;                    /*!< bit:      1  Stack to be used */
 303:../../dependencies/STM32CubeL0/Drivers/CMSIS/Include/core_cm0plus.h ****     uint32_t _reserved1:30;              /*!< bit:  2..31  Reserved */
 304:../../dependencies/STM32CubeL0/Drivers/CMSIS/Include/core_cm0plus.h ****   } b;                                   /*!< Structure used for bit  access */
 305:../../dependencies/STM32CubeL0/Drivers/CMSIS/Include/core_cm0plus.h ****   uint32_t w;                            /*!< Type      used for word access */
 306:../../dependencies/STM32CubeL0/Drivers/CMSIS/Include/core_cm0plus.h **** } CONTROL_Type;
 307:../../dependencies/STM32CubeL0/Drivers/CMSIS/Include/core_cm0plus.h **** 
 308:../../dependencies/STM32CubeL0/Drivers/CMSIS/Include/core_cm0plus.h **** /* CONTROL Register Definitions */
 309:../../dependencies/STM32CubeL0/Drivers/CMSIS/Include/core_cm0plus.h **** #define CONTROL_SPSEL_Pos                   1U                                            /*!< CONT
 310:../../dependencies/STM32CubeL0/Drivers/CMSIS/Include/core_cm0plus.h **** #define CONTROL_SPSEL_Msk                  (1UL << CONTROL_SPSEL_Pos)                     /*!< CONT
 311:../../dependencies/STM32CubeL0/Drivers/CMSIS/Include/core_cm0plus.h **** 
 312:../../dependencies/STM32CubeL0/Drivers/CMSIS/Include/core_cm0plus.h **** #define CONTROL_nPRIV_Pos                   0U                                            /*!< CONT
 313:../../dependencies/STM32CubeL0/Drivers/CMSIS/Include/core_cm0plus.h **** #define CONTROL_nPRIV_Msk                  (1UL /*<< CONTROL_nPRIV_Pos*/)                 /*!< CONT
 314:../../dependencies/STM32CubeL0/Drivers/CMSIS/Include/core_cm0plus.h **** 
 315:../../dependencies/STM32CubeL0/Drivers/CMSIS/Include/core_cm0plus.h **** /*@} end of group CMSIS_CORE */
 316:../../dependencies/STM32CubeL0/Drivers/CMSIS/Include/core_cm0plus.h **** 
 317:../../dependencies/STM32CubeL0/Drivers/CMSIS/Include/core_cm0plus.h **** 
 318:../../dependencies/STM32CubeL0/Drivers/CMSIS/Include/core_cm0plus.h **** /**
ARM GAS  /tmp/cctetIQd.s 			page 7


 319:../../dependencies/STM32CubeL0/Drivers/CMSIS/Include/core_cm0plus.h ****   \ingroup    CMSIS_core_register
 320:../../dependencies/STM32CubeL0/Drivers/CMSIS/Include/core_cm0plus.h ****   \defgroup   CMSIS_NVIC  Nested Vectored Interrupt Controller (NVIC)
 321:../../dependencies/STM32CubeL0/Drivers/CMSIS/Include/core_cm0plus.h ****   \brief      Type definitions for the NVIC Registers
 322:../../dependencies/STM32CubeL0/Drivers/CMSIS/Include/core_cm0plus.h ****   @{
 323:../../dependencies/STM32CubeL0/Drivers/CMSIS/Include/core_cm0plus.h ****  */
 324:../../dependencies/STM32CubeL0/Drivers/CMSIS/Include/core_cm0plus.h **** 
 325:../../dependencies/STM32CubeL0/Drivers/CMSIS/Include/core_cm0plus.h **** /**
 326:../../dependencies/STM32CubeL0/Drivers/CMSIS/Include/core_cm0plus.h ****   \brief  Structure type to access the Nested Vectored Interrupt Controller (NVIC).
 327:../../dependencies/STM32CubeL0/Drivers/CMSIS/Include/core_cm0plus.h ****  */
 328:../../dependencies/STM32CubeL0/Drivers/CMSIS/Include/core_cm0plus.h **** typedef struct
 329:../../dependencies/STM32CubeL0/Drivers/CMSIS/Include/core_cm0plus.h **** {
 330:../../dependencies/STM32CubeL0/Drivers/CMSIS/Include/core_cm0plus.h ****   __IOM uint32_t ISER[1U];               /*!< Offset: 0x000 (R/W)  Interrupt Set Enable Register */
 331:../../dependencies/STM32CubeL0/Drivers/CMSIS/Include/core_cm0plus.h ****         uint32_t RESERVED0[31U];
 332:../../dependencies/STM32CubeL0/Drivers/CMSIS/Include/core_cm0plus.h ****   __IOM uint32_t ICER[1U];               /*!< Offset: 0x080 (R/W)  Interrupt Clear Enable Register 
 333:../../dependencies/STM32CubeL0/Drivers/CMSIS/Include/core_cm0plus.h ****         uint32_t RSERVED1[31U];
 334:../../dependencies/STM32CubeL0/Drivers/CMSIS/Include/core_cm0plus.h ****   __IOM uint32_t ISPR[1U];               /*!< Offset: 0x100 (R/W)  Interrupt Set Pending Register *
 335:../../dependencies/STM32CubeL0/Drivers/CMSIS/Include/core_cm0plus.h ****         uint32_t RESERVED2[31U];
 336:../../dependencies/STM32CubeL0/Drivers/CMSIS/Include/core_cm0plus.h ****   __IOM uint32_t ICPR[1U];               /*!< Offset: 0x180 (R/W)  Interrupt Clear Pending Register
 337:../../dependencies/STM32CubeL0/Drivers/CMSIS/Include/core_cm0plus.h ****         uint32_t RESERVED3[31U];
 338:../../dependencies/STM32CubeL0/Drivers/CMSIS/Include/core_cm0plus.h ****         uint32_t RESERVED4[64U];
 339:../../dependencies/STM32CubeL0/Drivers/CMSIS/Include/core_cm0plus.h ****   __IOM uint32_t IP[8U];                 /*!< Offset: 0x300 (R/W)  Interrupt Priority Register */
 340:../../dependencies/STM32CubeL0/Drivers/CMSIS/Include/core_cm0plus.h **** }  NVIC_Type;
 341:../../dependencies/STM32CubeL0/Drivers/CMSIS/Include/core_cm0plus.h **** 
 342:../../dependencies/STM32CubeL0/Drivers/CMSIS/Include/core_cm0plus.h **** /*@} end of group CMSIS_NVIC */
 343:../../dependencies/STM32CubeL0/Drivers/CMSIS/Include/core_cm0plus.h **** 
 344:../../dependencies/STM32CubeL0/Drivers/CMSIS/Include/core_cm0plus.h **** 
 345:../../dependencies/STM32CubeL0/Drivers/CMSIS/Include/core_cm0plus.h **** /**
 346:../../dependencies/STM32CubeL0/Drivers/CMSIS/Include/core_cm0plus.h ****   \ingroup  CMSIS_core_register
 347:../../dependencies/STM32CubeL0/Drivers/CMSIS/Include/core_cm0plus.h ****   \defgroup CMSIS_SCB     System Control Block (SCB)
 348:../../dependencies/STM32CubeL0/Drivers/CMSIS/Include/core_cm0plus.h ****   \brief    Type definitions for the System Control Block Registers
 349:../../dependencies/STM32CubeL0/Drivers/CMSIS/Include/core_cm0plus.h ****   @{
 350:../../dependencies/STM32CubeL0/Drivers/CMSIS/Include/core_cm0plus.h ****  */
 351:../../dependencies/STM32CubeL0/Drivers/CMSIS/Include/core_cm0plus.h **** 
 352:../../dependencies/STM32CubeL0/Drivers/CMSIS/Include/core_cm0plus.h **** /**
 353:../../dependencies/STM32CubeL0/Drivers/CMSIS/Include/core_cm0plus.h ****   \brief  Structure type to access the System Control Block (SCB).
 354:../../dependencies/STM32CubeL0/Drivers/CMSIS/Include/core_cm0plus.h ****  */
 355:../../dependencies/STM32CubeL0/Drivers/CMSIS/Include/core_cm0plus.h **** typedef struct
 356:../../dependencies/STM32CubeL0/Drivers/CMSIS/Include/core_cm0plus.h **** {
 357:../../dependencies/STM32CubeL0/Drivers/CMSIS/Include/core_cm0plus.h ****   __IM  uint32_t CPUID;                  /*!< Offset: 0x000 (R/ )  CPUID Base Register */
 358:../../dependencies/STM32CubeL0/Drivers/CMSIS/Include/core_cm0plus.h ****   __IOM uint32_t ICSR;                   /*!< Offset: 0x004 (R/W)  Interrupt Control and State Regi
 359:../../dependencies/STM32CubeL0/Drivers/CMSIS/Include/core_cm0plus.h **** #if defined (__VTOR_PRESENT) && (__VTOR_PRESENT == 1U)
 360:../../dependencies/STM32CubeL0/Drivers/CMSIS/Include/core_cm0plus.h ****   __IOM uint32_t VTOR;                   /*!< Offset: 0x008 (R/W)  Vector Table Offset Register */
 361:../../dependencies/STM32CubeL0/Drivers/CMSIS/Include/core_cm0plus.h **** #else
 362:../../dependencies/STM32CubeL0/Drivers/CMSIS/Include/core_cm0plus.h ****         uint32_t RESERVED0;
 363:../../dependencies/STM32CubeL0/Drivers/CMSIS/Include/core_cm0plus.h **** #endif
 364:../../dependencies/STM32CubeL0/Drivers/CMSIS/Include/core_cm0plus.h ****   __IOM uint32_t AIRCR;                  /*!< Offset: 0x00C (R/W)  Application Interrupt and Reset 
 365:../../dependencies/STM32CubeL0/Drivers/CMSIS/Include/core_cm0plus.h ****   __IOM uint32_t SCR;                    /*!< Offset: 0x010 (R/W)  System Control Register */
 366:../../dependencies/STM32CubeL0/Drivers/CMSIS/Include/core_cm0plus.h ****   __IOM uint32_t CCR;                    /*!< Offset: 0x014 (R/W)  Configuration Control Register *
 367:../../dependencies/STM32CubeL0/Drivers/CMSIS/Include/core_cm0plus.h ****         uint32_t RESERVED1;
 368:../../dependencies/STM32CubeL0/Drivers/CMSIS/Include/core_cm0plus.h ****   __IOM uint32_t SHP[2U];                /*!< Offset: 0x01C (R/W)  System Handlers Priority Registe
 369:../../dependencies/STM32CubeL0/Drivers/CMSIS/Include/core_cm0plus.h ****   __IOM uint32_t SHCSR;                  /*!< Offset: 0x024 (R/W)  System Handler Control and State
 370:../../dependencies/STM32CubeL0/Drivers/CMSIS/Include/core_cm0plus.h **** } SCB_Type;
 371:../../dependencies/STM32CubeL0/Drivers/CMSIS/Include/core_cm0plus.h **** 
 372:../../dependencies/STM32CubeL0/Drivers/CMSIS/Include/core_cm0plus.h **** /* SCB CPUID Register Definitions */
 373:../../dependencies/STM32CubeL0/Drivers/CMSIS/Include/core_cm0plus.h **** #define SCB_CPUID_IMPLEMENTER_Pos          24U                                            /*!< SCB 
 374:../../dependencies/STM32CubeL0/Drivers/CMSIS/Include/core_cm0plus.h **** #define SCB_CPUID_IMPLEMENTER_Msk          (0xFFUL << SCB_CPUID_IMPLEMENTER_Pos)          /*!< SCB 
 375:../../dependencies/STM32CubeL0/Drivers/CMSIS/Include/core_cm0plus.h **** 
ARM GAS  /tmp/cctetIQd.s 			page 8


 376:../../dependencies/STM32CubeL0/Drivers/CMSIS/Include/core_cm0plus.h **** #define SCB_CPUID_VARIANT_Pos              20U                                            /*!< SCB 
 377:../../dependencies/STM32CubeL0/Drivers/CMSIS/Include/core_cm0plus.h **** #define SCB_CPUID_VARIANT_Msk              (0xFUL << SCB_CPUID_VARIANT_Pos)               /*!< SCB 
 378:../../dependencies/STM32CubeL0/Drivers/CMSIS/Include/core_cm0plus.h **** 
 379:../../dependencies/STM32CubeL0/Drivers/CMSIS/Include/core_cm0plus.h **** #define SCB_CPUID_ARCHITECTURE_Pos         16U                                            /*!< SCB 
 380:../../dependencies/STM32CubeL0/Drivers/CMSIS/Include/core_cm0plus.h **** #define SCB_CPUID_ARCHITECTURE_Msk         (0xFUL << SCB_CPUID_ARCHITECTURE_Pos)          /*!< SCB 
 381:../../dependencies/STM32CubeL0/Drivers/CMSIS/Include/core_cm0plus.h **** 
 382:../../dependencies/STM32CubeL0/Drivers/CMSIS/Include/core_cm0plus.h **** #define SCB_CPUID_PARTNO_Pos                4U                                            /*!< SCB 
 383:../../dependencies/STM32CubeL0/Drivers/CMSIS/Include/core_cm0plus.h **** #define SCB_CPUID_PARTNO_Msk               (0xFFFUL << SCB_CPUID_PARTNO_Pos)              /*!< SCB 
 384:../../dependencies/STM32CubeL0/Drivers/CMSIS/Include/core_cm0plus.h **** 
 385:../../dependencies/STM32CubeL0/Drivers/CMSIS/Include/core_cm0plus.h **** #define SCB_CPUID_REVISION_Pos              0U                                            /*!< SCB 
 386:../../dependencies/STM32CubeL0/Drivers/CMSIS/Include/core_cm0plus.h **** #define SCB_CPUID_REVISION_Msk             (0xFUL /*<< SCB_CPUID_REVISION_Pos*/)          /*!< SCB 
 387:../../dependencies/STM32CubeL0/Drivers/CMSIS/Include/core_cm0plus.h **** 
 388:../../dependencies/STM32CubeL0/Drivers/CMSIS/Include/core_cm0plus.h **** /* SCB Interrupt Control State Register Definitions */
 389:../../dependencies/STM32CubeL0/Drivers/CMSIS/Include/core_cm0plus.h **** #define SCB_ICSR_NMIPENDSET_Pos            31U                                            /*!< SCB 
 390:../../dependencies/STM32CubeL0/Drivers/CMSIS/Include/core_cm0plus.h **** #define SCB_ICSR_NMIPENDSET_Msk            (1UL << SCB_ICSR_NMIPENDSET_Pos)               /*!< SCB 
 391:../../dependencies/STM32CubeL0/Drivers/CMSIS/Include/core_cm0plus.h **** 
 392:../../dependencies/STM32CubeL0/Drivers/CMSIS/Include/core_cm0plus.h **** #define SCB_ICSR_PENDSVSET_Pos             28U                                            /*!< SCB 
 393:../../dependencies/STM32CubeL0/Drivers/CMSIS/Include/core_cm0plus.h **** #define SCB_ICSR_PENDSVSET_Msk             (1UL << SCB_ICSR_PENDSVSET_Pos)                /*!< SCB 
 394:../../dependencies/STM32CubeL0/Drivers/CMSIS/Include/core_cm0plus.h **** 
 395:../../dependencies/STM32CubeL0/Drivers/CMSIS/Include/core_cm0plus.h **** #define SCB_ICSR_PENDSVCLR_Pos             27U                                            /*!< SCB 
 396:../../dependencies/STM32CubeL0/Drivers/CMSIS/Include/core_cm0plus.h **** #define SCB_ICSR_PENDSVCLR_Msk             (1UL << SCB_ICSR_PENDSVCLR_Pos)                /*!< SCB 
 397:../../dependencies/STM32CubeL0/Drivers/CMSIS/Include/core_cm0plus.h **** 
 398:../../dependencies/STM32CubeL0/Drivers/CMSIS/Include/core_cm0plus.h **** #define SCB_ICSR_PENDSTSET_Pos             26U                                            /*!< SCB 
 399:../../dependencies/STM32CubeL0/Drivers/CMSIS/Include/core_cm0plus.h **** #define SCB_ICSR_PENDSTSET_Msk             (1UL << SCB_ICSR_PENDSTSET_Pos)                /*!< SCB 
 400:../../dependencies/STM32CubeL0/Drivers/CMSIS/Include/core_cm0plus.h **** 
 401:../../dependencies/STM32CubeL0/Drivers/CMSIS/Include/core_cm0plus.h **** #define SCB_ICSR_PENDSTCLR_Pos             25U                                            /*!< SCB 
 402:../../dependencies/STM32CubeL0/Drivers/CMSIS/Include/core_cm0plus.h **** #define SCB_ICSR_PENDSTCLR_Msk             (1UL << SCB_ICSR_PENDSTCLR_Pos)                /*!< SCB 
 403:../../dependencies/STM32CubeL0/Drivers/CMSIS/Include/core_cm0plus.h **** 
 404:../../dependencies/STM32CubeL0/Drivers/CMSIS/Include/core_cm0plus.h **** #define SCB_ICSR_ISRPREEMPT_Pos            23U                                            /*!< SCB 
 405:../../dependencies/STM32CubeL0/Drivers/CMSIS/Include/core_cm0plus.h **** #define SCB_ICSR_ISRPREEMPT_Msk            (1UL << SCB_ICSR_ISRPREEMPT_Pos)               /*!< SCB 
 406:../../dependencies/STM32CubeL0/Drivers/CMSIS/Include/core_cm0plus.h **** 
 407:../../dependencies/STM32CubeL0/Drivers/CMSIS/Include/core_cm0plus.h **** #define SCB_ICSR_ISRPENDING_Pos            22U                                            /*!< SCB 
 408:../../dependencies/STM32CubeL0/Drivers/CMSIS/Include/core_cm0plus.h **** #define SCB_ICSR_ISRPENDING_Msk            (1UL << SCB_ICSR_ISRPENDING_Pos)               /*!< SCB 
 409:../../dependencies/STM32CubeL0/Drivers/CMSIS/Include/core_cm0plus.h **** 
 410:../../dependencies/STM32CubeL0/Drivers/CMSIS/Include/core_cm0plus.h **** #define SCB_ICSR_VECTPENDING_Pos           12U                                            /*!< SCB 
 411:../../dependencies/STM32CubeL0/Drivers/CMSIS/Include/core_cm0plus.h **** #define SCB_ICSR_VECTPENDING_Msk           (0x1FFUL << SCB_ICSR_VECTPENDING_Pos)          /*!< SCB 
 412:../../dependencies/STM32CubeL0/Drivers/CMSIS/Include/core_cm0plus.h **** 
 413:../../dependencies/STM32CubeL0/Drivers/CMSIS/Include/core_cm0plus.h **** #define SCB_ICSR_VECTACTIVE_Pos             0U                                            /*!< SCB 
 414:../../dependencies/STM32CubeL0/Drivers/CMSIS/Include/core_cm0plus.h **** #define SCB_ICSR_VECTACTIVE_Msk            (0x1FFUL /*<< SCB_ICSR_VECTACTIVE_Pos*/)       /*!< SCB 
 415:../../dependencies/STM32CubeL0/Drivers/CMSIS/Include/core_cm0plus.h **** 
 416:../../dependencies/STM32CubeL0/Drivers/CMSIS/Include/core_cm0plus.h **** #if defined (__VTOR_PRESENT) && (__VTOR_PRESENT == 1U)
 417:../../dependencies/STM32CubeL0/Drivers/CMSIS/Include/core_cm0plus.h **** /* SCB Interrupt Control State Register Definitions */
 418:../../dependencies/STM32CubeL0/Drivers/CMSIS/Include/core_cm0plus.h **** #define SCB_VTOR_TBLOFF_Pos                 8U                                            /*!< SCB 
 419:../../dependencies/STM32CubeL0/Drivers/CMSIS/Include/core_cm0plus.h **** #define SCB_VTOR_TBLOFF_Msk                (0xFFFFFFUL << SCB_VTOR_TBLOFF_Pos)            /*!< SCB 
 420:../../dependencies/STM32CubeL0/Drivers/CMSIS/Include/core_cm0plus.h **** #endif
 421:../../dependencies/STM32CubeL0/Drivers/CMSIS/Include/core_cm0plus.h **** 
 422:../../dependencies/STM32CubeL0/Drivers/CMSIS/Include/core_cm0plus.h **** /* SCB Application Interrupt and Reset Control Register Definitions */
 423:../../dependencies/STM32CubeL0/Drivers/CMSIS/Include/core_cm0plus.h **** #define SCB_AIRCR_VECTKEY_Pos              16U                                            /*!< SCB 
 424:../../dependencies/STM32CubeL0/Drivers/CMSIS/Include/core_cm0plus.h **** #define SCB_AIRCR_VECTKEY_Msk              (0xFFFFUL << SCB_AIRCR_VECTKEY_Pos)            /*!< SCB 
 425:../../dependencies/STM32CubeL0/Drivers/CMSIS/Include/core_cm0plus.h **** 
 426:../../dependencies/STM32CubeL0/Drivers/CMSIS/Include/core_cm0plus.h **** #define SCB_AIRCR_VECTKEYSTAT_Pos          16U                                            /*!< SCB 
 427:../../dependencies/STM32CubeL0/Drivers/CMSIS/Include/core_cm0plus.h **** #define SCB_AIRCR_VECTKEYSTAT_Msk          (0xFFFFUL << SCB_AIRCR_VECTKEYSTAT_Pos)        /*!< SCB 
 428:../../dependencies/STM32CubeL0/Drivers/CMSIS/Include/core_cm0plus.h **** 
 429:../../dependencies/STM32CubeL0/Drivers/CMSIS/Include/core_cm0plus.h **** #define SCB_AIRCR_ENDIANESS_Pos            15U                                            /*!< SCB 
 430:../../dependencies/STM32CubeL0/Drivers/CMSIS/Include/core_cm0plus.h **** #define SCB_AIRCR_ENDIANESS_Msk            (1UL << SCB_AIRCR_ENDIANESS_Pos)               /*!< SCB 
 431:../../dependencies/STM32CubeL0/Drivers/CMSIS/Include/core_cm0plus.h **** 
 432:../../dependencies/STM32CubeL0/Drivers/CMSIS/Include/core_cm0plus.h **** #define SCB_AIRCR_SYSRESETREQ_Pos           2U                                            /*!< SCB 
ARM GAS  /tmp/cctetIQd.s 			page 9


 433:../../dependencies/STM32CubeL0/Drivers/CMSIS/Include/core_cm0plus.h **** #define SCB_AIRCR_SYSRESETREQ_Msk          (1UL << SCB_AIRCR_SYSRESETREQ_Pos)             /*!< SCB 
 434:../../dependencies/STM32CubeL0/Drivers/CMSIS/Include/core_cm0plus.h **** 
 435:../../dependencies/STM32CubeL0/Drivers/CMSIS/Include/core_cm0plus.h **** #define SCB_AIRCR_VECTCLRACTIVE_Pos         1U                                            /*!< SCB 
 436:../../dependencies/STM32CubeL0/Drivers/CMSIS/Include/core_cm0plus.h **** #define SCB_AIRCR_VECTCLRACTIVE_Msk        (1UL << SCB_AIRCR_VECTCLRACTIVE_Pos)           /*!< SCB 
 437:../../dependencies/STM32CubeL0/Drivers/CMSIS/Include/core_cm0plus.h **** 
 438:../../dependencies/STM32CubeL0/Drivers/CMSIS/Include/core_cm0plus.h **** /* SCB System Control Register Definitions */
 439:../../dependencies/STM32CubeL0/Drivers/CMSIS/Include/core_cm0plus.h **** #define SCB_SCR_SEVONPEND_Pos               4U                                            /*!< SCB 
 440:../../dependencies/STM32CubeL0/Drivers/CMSIS/Include/core_cm0plus.h **** #define SCB_SCR_SEVONPEND_Msk              (1UL << SCB_SCR_SEVONPEND_Pos)                 /*!< SCB 
 441:../../dependencies/STM32CubeL0/Drivers/CMSIS/Include/core_cm0plus.h **** 
 442:../../dependencies/STM32CubeL0/Drivers/CMSIS/Include/core_cm0plus.h **** #define SCB_SCR_SLEEPDEEP_Pos               2U                                            /*!< SCB 
 443:../../dependencies/STM32CubeL0/Drivers/CMSIS/Include/core_cm0plus.h **** #define SCB_SCR_SLEEPDEEP_Msk              (1UL << SCB_SCR_SLEEPDEEP_Pos)                 /*!< SCB 
 444:../../dependencies/STM32CubeL0/Drivers/CMSIS/Include/core_cm0plus.h **** 
 445:../../dependencies/STM32CubeL0/Drivers/CMSIS/Include/core_cm0plus.h **** #define SCB_SCR_SLEEPONEXIT_Pos             1U                                            /*!< SCB 
 446:../../dependencies/STM32CubeL0/Drivers/CMSIS/Include/core_cm0plus.h **** #define SCB_SCR_SLEEPONEXIT_Msk            (1UL << SCB_SCR_SLEEPONEXIT_Pos)               /*!< SCB 
 447:../../dependencies/STM32CubeL0/Drivers/CMSIS/Include/core_cm0plus.h **** 
 448:../../dependencies/STM32CubeL0/Drivers/CMSIS/Include/core_cm0plus.h **** /* SCB Configuration Control Register Definitions */
 449:../../dependencies/STM32CubeL0/Drivers/CMSIS/Include/core_cm0plus.h **** #define SCB_CCR_STKALIGN_Pos                9U                                            /*!< SCB 
 450:../../dependencies/STM32CubeL0/Drivers/CMSIS/Include/core_cm0plus.h **** #define SCB_CCR_STKALIGN_Msk               (1UL << SCB_CCR_STKALIGN_Pos)                  /*!< SCB 
 451:../../dependencies/STM32CubeL0/Drivers/CMSIS/Include/core_cm0plus.h **** 
 452:../../dependencies/STM32CubeL0/Drivers/CMSIS/Include/core_cm0plus.h **** #define SCB_CCR_UNALIGN_TRP_Pos             3U                                            /*!< SCB 
 453:../../dependencies/STM32CubeL0/Drivers/CMSIS/Include/core_cm0plus.h **** #define SCB_CCR_UNALIGN_TRP_Msk            (1UL << SCB_CCR_UNALIGN_TRP_Pos)               /*!< SCB 
 454:../../dependencies/STM32CubeL0/Drivers/CMSIS/Include/core_cm0plus.h **** 
 455:../../dependencies/STM32CubeL0/Drivers/CMSIS/Include/core_cm0plus.h **** /* SCB System Handler Control and State Register Definitions */
 456:../../dependencies/STM32CubeL0/Drivers/CMSIS/Include/core_cm0plus.h **** #define SCB_SHCSR_SVCALLPENDED_Pos         15U                                            /*!< SCB 
 457:../../dependencies/STM32CubeL0/Drivers/CMSIS/Include/core_cm0plus.h **** #define SCB_SHCSR_SVCALLPENDED_Msk         (1UL << SCB_SHCSR_SVCALLPENDED_Pos)            /*!< SCB 
 458:../../dependencies/STM32CubeL0/Drivers/CMSIS/Include/core_cm0plus.h **** 
 459:../../dependencies/STM32CubeL0/Drivers/CMSIS/Include/core_cm0plus.h **** /*@} end of group CMSIS_SCB */
 460:../../dependencies/STM32CubeL0/Drivers/CMSIS/Include/core_cm0plus.h **** 
 461:../../dependencies/STM32CubeL0/Drivers/CMSIS/Include/core_cm0plus.h **** 
 462:../../dependencies/STM32CubeL0/Drivers/CMSIS/Include/core_cm0plus.h **** /**
 463:../../dependencies/STM32CubeL0/Drivers/CMSIS/Include/core_cm0plus.h ****   \ingroup  CMSIS_core_register
 464:../../dependencies/STM32CubeL0/Drivers/CMSIS/Include/core_cm0plus.h ****   \defgroup CMSIS_SysTick     System Tick Timer (SysTick)
 465:../../dependencies/STM32CubeL0/Drivers/CMSIS/Include/core_cm0plus.h ****   \brief    Type definitions for the System Timer Registers.
 466:../../dependencies/STM32CubeL0/Drivers/CMSIS/Include/core_cm0plus.h ****   @{
 467:../../dependencies/STM32CubeL0/Drivers/CMSIS/Include/core_cm0plus.h ****  */
 468:../../dependencies/STM32CubeL0/Drivers/CMSIS/Include/core_cm0plus.h **** 
 469:../../dependencies/STM32CubeL0/Drivers/CMSIS/Include/core_cm0plus.h **** /**
 470:../../dependencies/STM32CubeL0/Drivers/CMSIS/Include/core_cm0plus.h ****   \brief  Structure type to access the System Timer (SysTick).
 471:../../dependencies/STM32CubeL0/Drivers/CMSIS/Include/core_cm0plus.h ****  */
 472:../../dependencies/STM32CubeL0/Drivers/CMSIS/Include/core_cm0plus.h **** typedef struct
 473:../../dependencies/STM32CubeL0/Drivers/CMSIS/Include/core_cm0plus.h **** {
 474:../../dependencies/STM32CubeL0/Drivers/CMSIS/Include/core_cm0plus.h ****   __IOM uint32_t CTRL;                   /*!< Offset: 0x000 (R/W)  SysTick Control and Status Regis
 475:../../dependencies/STM32CubeL0/Drivers/CMSIS/Include/core_cm0plus.h ****   __IOM uint32_t LOAD;                   /*!< Offset: 0x004 (R/W)  SysTick Reload Value Register */
 476:../../dependencies/STM32CubeL0/Drivers/CMSIS/Include/core_cm0plus.h ****   __IOM uint32_t VAL;                    /*!< Offset: 0x008 (R/W)  SysTick Current Value Register *
 477:../../dependencies/STM32CubeL0/Drivers/CMSIS/Include/core_cm0plus.h ****   __IM  uint32_t CALIB;                  /*!< Offset: 0x00C (R/ )  SysTick Calibration Register */
 478:../../dependencies/STM32CubeL0/Drivers/CMSIS/Include/core_cm0plus.h **** } SysTick_Type;
 479:../../dependencies/STM32CubeL0/Drivers/CMSIS/Include/core_cm0plus.h **** 
 480:../../dependencies/STM32CubeL0/Drivers/CMSIS/Include/core_cm0plus.h **** /* SysTick Control / Status Register Definitions */
 481:../../dependencies/STM32CubeL0/Drivers/CMSIS/Include/core_cm0plus.h **** #define SysTick_CTRL_COUNTFLAG_Pos         16U                                            /*!< SysT
 482:../../dependencies/STM32CubeL0/Drivers/CMSIS/Include/core_cm0plus.h **** #define SysTick_CTRL_COUNTFLAG_Msk         (1UL << SysTick_CTRL_COUNTFLAG_Pos)            /*!< SysT
 483:../../dependencies/STM32CubeL0/Drivers/CMSIS/Include/core_cm0plus.h **** 
 484:../../dependencies/STM32CubeL0/Drivers/CMSIS/Include/core_cm0plus.h **** #define SysTick_CTRL_CLKSOURCE_Pos          2U                                            /*!< SysT
 485:../../dependencies/STM32CubeL0/Drivers/CMSIS/Include/core_cm0plus.h **** #define SysTick_CTRL_CLKSOURCE_Msk         (1UL << SysTick_CTRL_CLKSOURCE_Pos)            /*!< SysT
 486:../../dependencies/STM32CubeL0/Drivers/CMSIS/Include/core_cm0plus.h **** 
 487:../../dependencies/STM32CubeL0/Drivers/CMSIS/Include/core_cm0plus.h **** #define SysTick_CTRL_TICKINT_Pos            1U                                            /*!< SysT
 488:../../dependencies/STM32CubeL0/Drivers/CMSIS/Include/core_cm0plus.h **** #define SysTick_CTRL_TICKINT_Msk           (1UL << SysTick_CTRL_TICKINT_Pos)              /*!< SysT
 489:../../dependencies/STM32CubeL0/Drivers/CMSIS/Include/core_cm0plus.h **** 
ARM GAS  /tmp/cctetIQd.s 			page 10


 490:../../dependencies/STM32CubeL0/Drivers/CMSIS/Include/core_cm0plus.h **** #define SysTick_CTRL_ENABLE_Pos             0U                                            /*!< SysT
 491:../../dependencies/STM32CubeL0/Drivers/CMSIS/Include/core_cm0plus.h **** #define SysTick_CTRL_ENABLE_Msk            (1UL /*<< SysTick_CTRL_ENABLE_Pos*/)           /*!< SysT
 492:../../dependencies/STM32CubeL0/Drivers/CMSIS/Include/core_cm0plus.h **** 
 493:../../dependencies/STM32CubeL0/Drivers/CMSIS/Include/core_cm0plus.h **** /* SysTick Reload Register Definitions */
 494:../../dependencies/STM32CubeL0/Drivers/CMSIS/Include/core_cm0plus.h **** #define SysTick_LOAD_RELOAD_Pos             0U                                            /*!< SysT
 495:../../dependencies/STM32CubeL0/Drivers/CMSIS/Include/core_cm0plus.h **** #define SysTick_LOAD_RELOAD_Msk            (0xFFFFFFUL /*<< SysTick_LOAD_RELOAD_Pos*/)    /*!< SysT
 496:../../dependencies/STM32CubeL0/Drivers/CMSIS/Include/core_cm0plus.h **** 
 497:../../dependencies/STM32CubeL0/Drivers/CMSIS/Include/core_cm0plus.h **** /* SysTick Current Register Definitions */
 498:../../dependencies/STM32CubeL0/Drivers/CMSIS/Include/core_cm0plus.h **** #define SysTick_VAL_CURRENT_Pos             0U                                            /*!< SysT
 499:../../dependencies/STM32CubeL0/Drivers/CMSIS/Include/core_cm0plus.h **** #define SysTick_VAL_CURRENT_Msk            (0xFFFFFFUL /*<< SysTick_VAL_CURRENT_Pos*/)    /*!< SysT
 500:../../dependencies/STM32CubeL0/Drivers/CMSIS/Include/core_cm0plus.h **** 
 501:../../dependencies/STM32CubeL0/Drivers/CMSIS/Include/core_cm0plus.h **** /* SysTick Calibration Register Definitions */
 502:../../dependencies/STM32CubeL0/Drivers/CMSIS/Include/core_cm0plus.h **** #define SysTick_CALIB_NOREF_Pos            31U                                            /*!< SysT
 503:../../dependencies/STM32CubeL0/Drivers/CMSIS/Include/core_cm0plus.h **** #define SysTick_CALIB_NOREF_Msk            (1UL << SysTick_CALIB_NOREF_Pos)               /*!< SysT
 504:../../dependencies/STM32CubeL0/Drivers/CMSIS/Include/core_cm0plus.h **** 
 505:../../dependencies/STM32CubeL0/Drivers/CMSIS/Include/core_cm0plus.h **** #define SysTick_CALIB_SKEW_Pos             30U                                            /*!< SysT
 506:../../dependencies/STM32CubeL0/Drivers/CMSIS/Include/core_cm0plus.h **** #define SysTick_CALIB_SKEW_Msk             (1UL << SysTick_CALIB_SKEW_Pos)                /*!< SysT
 507:../../dependencies/STM32CubeL0/Drivers/CMSIS/Include/core_cm0plus.h **** 
 508:../../dependencies/STM32CubeL0/Drivers/CMSIS/Include/core_cm0plus.h **** #define SysTick_CALIB_TENMS_Pos             0U                                            /*!< SysT
 509:../../dependencies/STM32CubeL0/Drivers/CMSIS/Include/core_cm0plus.h **** #define SysTick_CALIB_TENMS_Msk            (0xFFFFFFUL /*<< SysTick_CALIB_TENMS_Pos*/)    /*!< SysT
 510:../../dependencies/STM32CubeL0/Drivers/CMSIS/Include/core_cm0plus.h **** 
 511:../../dependencies/STM32CubeL0/Drivers/CMSIS/Include/core_cm0plus.h **** /*@} end of group CMSIS_SysTick */
 512:../../dependencies/STM32CubeL0/Drivers/CMSIS/Include/core_cm0plus.h **** 
 513:../../dependencies/STM32CubeL0/Drivers/CMSIS/Include/core_cm0plus.h **** #if defined (__MPU_PRESENT) && (__MPU_PRESENT == 1U)
 514:../../dependencies/STM32CubeL0/Drivers/CMSIS/Include/core_cm0plus.h **** /**
 515:../../dependencies/STM32CubeL0/Drivers/CMSIS/Include/core_cm0plus.h ****   \ingroup  CMSIS_core_register
 516:../../dependencies/STM32CubeL0/Drivers/CMSIS/Include/core_cm0plus.h ****   \defgroup CMSIS_MPU     Memory Protection Unit (MPU)
 517:../../dependencies/STM32CubeL0/Drivers/CMSIS/Include/core_cm0plus.h ****   \brief    Type definitions for the Memory Protection Unit (MPU)
 518:../../dependencies/STM32CubeL0/Drivers/CMSIS/Include/core_cm0plus.h ****   @{
 519:../../dependencies/STM32CubeL0/Drivers/CMSIS/Include/core_cm0plus.h ****  */
 520:../../dependencies/STM32CubeL0/Drivers/CMSIS/Include/core_cm0plus.h **** 
 521:../../dependencies/STM32CubeL0/Drivers/CMSIS/Include/core_cm0plus.h **** /**
 522:../../dependencies/STM32CubeL0/Drivers/CMSIS/Include/core_cm0plus.h ****   \brief  Structure type to access the Memory Protection Unit (MPU).
 523:../../dependencies/STM32CubeL0/Drivers/CMSIS/Include/core_cm0plus.h ****  */
 524:../../dependencies/STM32CubeL0/Drivers/CMSIS/Include/core_cm0plus.h **** typedef struct
 525:../../dependencies/STM32CubeL0/Drivers/CMSIS/Include/core_cm0plus.h **** {
 526:../../dependencies/STM32CubeL0/Drivers/CMSIS/Include/core_cm0plus.h ****   __IM  uint32_t TYPE;                   /*!< Offset: 0x000 (R/ )  MPU Type Register */
 527:../../dependencies/STM32CubeL0/Drivers/CMSIS/Include/core_cm0plus.h ****   __IOM uint32_t CTRL;                   /*!< Offset: 0x004 (R/W)  MPU Control Register */
 528:../../dependencies/STM32CubeL0/Drivers/CMSIS/Include/core_cm0plus.h ****   __IOM uint32_t RNR;                    /*!< Offset: 0x008 (R/W)  MPU Region RNRber Register */
 529:../../dependencies/STM32CubeL0/Drivers/CMSIS/Include/core_cm0plus.h ****   __IOM uint32_t RBAR;                   /*!< Offset: 0x00C (R/W)  MPU Region Base Address Register
 530:../../dependencies/STM32CubeL0/Drivers/CMSIS/Include/core_cm0plus.h ****   __IOM uint32_t RASR;                   /*!< Offset: 0x010 (R/W)  MPU Region Attribute and Size Re
 531:../../dependencies/STM32CubeL0/Drivers/CMSIS/Include/core_cm0plus.h **** } MPU_Type;
 532:../../dependencies/STM32CubeL0/Drivers/CMSIS/Include/core_cm0plus.h **** 
 533:../../dependencies/STM32CubeL0/Drivers/CMSIS/Include/core_cm0plus.h **** #define MPU_TYPE_RALIASES                  1U
 534:../../dependencies/STM32CubeL0/Drivers/CMSIS/Include/core_cm0plus.h **** 
 535:../../dependencies/STM32CubeL0/Drivers/CMSIS/Include/core_cm0plus.h **** /* MPU Type Register Definitions */
 536:../../dependencies/STM32CubeL0/Drivers/CMSIS/Include/core_cm0plus.h **** #define MPU_TYPE_IREGION_Pos               16U                                            /*!< MPU 
 537:../../dependencies/STM32CubeL0/Drivers/CMSIS/Include/core_cm0plus.h **** #define MPU_TYPE_IREGION_Msk               (0xFFUL << MPU_TYPE_IREGION_Pos)               /*!< MPU 
 538:../../dependencies/STM32CubeL0/Drivers/CMSIS/Include/core_cm0plus.h **** 
 539:../../dependencies/STM32CubeL0/Drivers/CMSIS/Include/core_cm0plus.h **** #define MPU_TYPE_DREGION_Pos                8U                                            /*!< MPU 
 540:../../dependencies/STM32CubeL0/Drivers/CMSIS/Include/core_cm0plus.h **** #define MPU_TYPE_DREGION_Msk               (0xFFUL << MPU_TYPE_DREGION_Pos)               /*!< MPU 
 541:../../dependencies/STM32CubeL0/Drivers/CMSIS/Include/core_cm0plus.h **** 
 542:../../dependencies/STM32CubeL0/Drivers/CMSIS/Include/core_cm0plus.h **** #define MPU_TYPE_SEPARATE_Pos               0U                                            /*!< MPU 
 543:../../dependencies/STM32CubeL0/Drivers/CMSIS/Include/core_cm0plus.h **** #define MPU_TYPE_SEPARATE_Msk              (1UL /*<< MPU_TYPE_SEPARATE_Pos*/)             /*!< MPU 
 544:../../dependencies/STM32CubeL0/Drivers/CMSIS/Include/core_cm0plus.h **** 
 545:../../dependencies/STM32CubeL0/Drivers/CMSIS/Include/core_cm0plus.h **** /* MPU Control Register Definitions */
 546:../../dependencies/STM32CubeL0/Drivers/CMSIS/Include/core_cm0plus.h **** #define MPU_CTRL_PRIVDEFENA_Pos             2U                                            /*!< MPU 
ARM GAS  /tmp/cctetIQd.s 			page 11


 547:../../dependencies/STM32CubeL0/Drivers/CMSIS/Include/core_cm0plus.h **** #define MPU_CTRL_PRIVDEFENA_Msk            (1UL << MPU_CTRL_PRIVDEFENA_Pos)               /*!< MPU 
 548:../../dependencies/STM32CubeL0/Drivers/CMSIS/Include/core_cm0plus.h **** 
 549:../../dependencies/STM32CubeL0/Drivers/CMSIS/Include/core_cm0plus.h **** #define MPU_CTRL_HFNMIENA_Pos               1U                                            /*!< MPU 
 550:../../dependencies/STM32CubeL0/Drivers/CMSIS/Include/core_cm0plus.h **** #define MPU_CTRL_HFNMIENA_Msk              (1UL << MPU_CTRL_HFNMIENA_Pos)                 /*!< MPU 
 551:../../dependencies/STM32CubeL0/Drivers/CMSIS/Include/core_cm0plus.h **** 
 552:../../dependencies/STM32CubeL0/Drivers/CMSIS/Include/core_cm0plus.h **** #define MPU_CTRL_ENABLE_Pos                 0U                                            /*!< MPU 
 553:../../dependencies/STM32CubeL0/Drivers/CMSIS/Include/core_cm0plus.h **** #define MPU_CTRL_ENABLE_Msk                (1UL /*<< MPU_CTRL_ENABLE_Pos*/)               /*!< MPU 
 554:../../dependencies/STM32CubeL0/Drivers/CMSIS/Include/core_cm0plus.h **** 
 555:../../dependencies/STM32CubeL0/Drivers/CMSIS/Include/core_cm0plus.h **** /* MPU Region Number Register Definitions */
 556:../../dependencies/STM32CubeL0/Drivers/CMSIS/Include/core_cm0plus.h **** #define MPU_RNR_REGION_Pos                  0U                                            /*!< MPU 
 557:../../dependencies/STM32CubeL0/Drivers/CMSIS/Include/core_cm0plus.h **** #define MPU_RNR_REGION_Msk                 (0xFFUL /*<< MPU_RNR_REGION_Pos*/)             /*!< MPU 
 558:../../dependencies/STM32CubeL0/Drivers/CMSIS/Include/core_cm0plus.h **** 
 559:../../dependencies/STM32CubeL0/Drivers/CMSIS/Include/core_cm0plus.h **** /* MPU Region Base Address Register Definitions */
 560:../../dependencies/STM32CubeL0/Drivers/CMSIS/Include/core_cm0plus.h **** #define MPU_RBAR_ADDR_Pos                   8U                                            /*!< MPU 
 561:../../dependencies/STM32CubeL0/Drivers/CMSIS/Include/core_cm0plus.h **** #define MPU_RBAR_ADDR_Msk                  (0xFFFFFFUL << MPU_RBAR_ADDR_Pos)              /*!< MPU 
 562:../../dependencies/STM32CubeL0/Drivers/CMSIS/Include/core_cm0plus.h **** 
 563:../../dependencies/STM32CubeL0/Drivers/CMSIS/Include/core_cm0plus.h **** #define MPU_RBAR_VALID_Pos                  4U                                            /*!< MPU 
 564:../../dependencies/STM32CubeL0/Drivers/CMSIS/Include/core_cm0plus.h **** #define MPU_RBAR_VALID_Msk                 (1UL << MPU_RBAR_VALID_Pos)                    /*!< MPU 
 565:../../dependencies/STM32CubeL0/Drivers/CMSIS/Include/core_cm0plus.h **** 
 566:../../dependencies/STM32CubeL0/Drivers/CMSIS/Include/core_cm0plus.h **** #define MPU_RBAR_REGION_Pos                 0U                                            /*!< MPU 
 567:../../dependencies/STM32CubeL0/Drivers/CMSIS/Include/core_cm0plus.h **** #define MPU_RBAR_REGION_Msk                (0xFUL /*<< MPU_RBAR_REGION_Pos*/)             /*!< MPU 
 568:../../dependencies/STM32CubeL0/Drivers/CMSIS/Include/core_cm0plus.h **** 
 569:../../dependencies/STM32CubeL0/Drivers/CMSIS/Include/core_cm0plus.h **** /* MPU Region Attribute and Size Register Definitions */
 570:../../dependencies/STM32CubeL0/Drivers/CMSIS/Include/core_cm0plus.h **** #define MPU_RASR_ATTRS_Pos                 16U                                            /*!< MPU 
 571:../../dependencies/STM32CubeL0/Drivers/CMSIS/Include/core_cm0plus.h **** #define MPU_RASR_ATTRS_Msk                 (0xFFFFUL << MPU_RASR_ATTRS_Pos)               /*!< MPU 
 572:../../dependencies/STM32CubeL0/Drivers/CMSIS/Include/core_cm0plus.h **** 
 573:../../dependencies/STM32CubeL0/Drivers/CMSIS/Include/core_cm0plus.h **** #define MPU_RASR_XN_Pos                    28U                                            /*!< MPU 
 574:../../dependencies/STM32CubeL0/Drivers/CMSIS/Include/core_cm0plus.h **** #define MPU_RASR_XN_Msk                    (1UL << MPU_RASR_XN_Pos)                       /*!< MPU 
 575:../../dependencies/STM32CubeL0/Drivers/CMSIS/Include/core_cm0plus.h **** 
 576:../../dependencies/STM32CubeL0/Drivers/CMSIS/Include/core_cm0plus.h **** #define MPU_RASR_AP_Pos                    24U                                            /*!< MPU 
 577:../../dependencies/STM32CubeL0/Drivers/CMSIS/Include/core_cm0plus.h **** #define MPU_RASR_AP_Msk                    (0x7UL << MPU_RASR_AP_Pos)                     /*!< MPU 
 578:../../dependencies/STM32CubeL0/Drivers/CMSIS/Include/core_cm0plus.h **** 
 579:../../dependencies/STM32CubeL0/Drivers/CMSIS/Include/core_cm0plus.h **** #define MPU_RASR_TEX_Pos                   19U                                            /*!< MPU 
 580:../../dependencies/STM32CubeL0/Drivers/CMSIS/Include/core_cm0plus.h **** #define MPU_RASR_TEX_Msk                   (0x7UL << MPU_RASR_TEX_Pos)                    /*!< MPU 
 581:../../dependencies/STM32CubeL0/Drivers/CMSIS/Include/core_cm0plus.h **** 
 582:../../dependencies/STM32CubeL0/Drivers/CMSIS/Include/core_cm0plus.h **** #define MPU_RASR_S_Pos                     18U                                            /*!< MPU 
 583:../../dependencies/STM32CubeL0/Drivers/CMSIS/Include/core_cm0plus.h **** #define MPU_RASR_S_Msk                     (1UL << MPU_RASR_S_Pos)                        /*!< MPU 
 584:../../dependencies/STM32CubeL0/Drivers/CMSIS/Include/core_cm0plus.h **** 
 585:../../dependencies/STM32CubeL0/Drivers/CMSIS/Include/core_cm0plus.h **** #define MPU_RASR_C_Pos                     17U                                            /*!< MPU 
 586:../../dependencies/STM32CubeL0/Drivers/CMSIS/Include/core_cm0plus.h **** #define MPU_RASR_C_Msk                     (1UL << MPU_RASR_C_Pos)                        /*!< MPU 
 587:../../dependencies/STM32CubeL0/Drivers/CMSIS/Include/core_cm0plus.h **** 
 588:../../dependencies/STM32CubeL0/Drivers/CMSIS/Include/core_cm0plus.h **** #define MPU_RASR_B_Pos                     16U                                            /*!< MPU 
 589:../../dependencies/STM32CubeL0/Drivers/CMSIS/Include/core_cm0plus.h **** #define MPU_RASR_B_Msk                     (1UL << MPU_RASR_B_Pos)                        /*!< MPU 
 590:../../dependencies/STM32CubeL0/Drivers/CMSIS/Include/core_cm0plus.h **** 
 591:../../dependencies/STM32CubeL0/Drivers/CMSIS/Include/core_cm0plus.h **** #define MPU_RASR_SRD_Pos                    8U                                            /*!< MPU 
 592:../../dependencies/STM32CubeL0/Drivers/CMSIS/Include/core_cm0plus.h **** #define MPU_RASR_SRD_Msk                   (0xFFUL << MPU_RASR_SRD_Pos)                   /*!< MPU 
 593:../../dependencies/STM32CubeL0/Drivers/CMSIS/Include/core_cm0plus.h **** 
 594:../../dependencies/STM32CubeL0/Drivers/CMSIS/Include/core_cm0plus.h **** #define MPU_RASR_SIZE_Pos                   1U                                            /*!< MPU 
 595:../../dependencies/STM32CubeL0/Drivers/CMSIS/Include/core_cm0plus.h **** #define MPU_RASR_SIZE_Msk                  (0x1FUL << MPU_RASR_SIZE_Pos)                  /*!< MPU 
 596:../../dependencies/STM32CubeL0/Drivers/CMSIS/Include/core_cm0plus.h **** 
 597:../../dependencies/STM32CubeL0/Drivers/CMSIS/Include/core_cm0plus.h **** #define MPU_RASR_ENABLE_Pos                 0U                                            /*!< MPU 
 598:../../dependencies/STM32CubeL0/Drivers/CMSIS/Include/core_cm0plus.h **** #define MPU_RASR_ENABLE_Msk                (1UL /*<< MPU_RASR_ENABLE_Pos*/)               /*!< MPU 
 599:../../dependencies/STM32CubeL0/Drivers/CMSIS/Include/core_cm0plus.h **** 
 600:../../dependencies/STM32CubeL0/Drivers/CMSIS/Include/core_cm0plus.h **** /*@} end of group CMSIS_MPU */
 601:../../dependencies/STM32CubeL0/Drivers/CMSIS/Include/core_cm0plus.h **** #endif
 602:../../dependencies/STM32CubeL0/Drivers/CMSIS/Include/core_cm0plus.h **** 
 603:../../dependencies/STM32CubeL0/Drivers/CMSIS/Include/core_cm0plus.h **** 
ARM GAS  /tmp/cctetIQd.s 			page 12


 604:../../dependencies/STM32CubeL0/Drivers/CMSIS/Include/core_cm0plus.h **** /**
 605:../../dependencies/STM32CubeL0/Drivers/CMSIS/Include/core_cm0plus.h ****   \ingroup  CMSIS_core_register
 606:../../dependencies/STM32CubeL0/Drivers/CMSIS/Include/core_cm0plus.h ****   \defgroup CMSIS_CoreDebug       Core Debug Registers (CoreDebug)
 607:../../dependencies/STM32CubeL0/Drivers/CMSIS/Include/core_cm0plus.h ****   \brief    Cortex-M0+ Core Debug Registers (DCB registers, SHCSR, and DFSR) are only accessible ov
 608:../../dependencies/STM32CubeL0/Drivers/CMSIS/Include/core_cm0plus.h ****             Therefore they are not covered by the Cortex-M0+ header file.
 609:../../dependencies/STM32CubeL0/Drivers/CMSIS/Include/core_cm0plus.h ****   @{
 610:../../dependencies/STM32CubeL0/Drivers/CMSIS/Include/core_cm0plus.h ****  */
 611:../../dependencies/STM32CubeL0/Drivers/CMSIS/Include/core_cm0plus.h **** /*@} end of group CMSIS_CoreDebug */
 612:../../dependencies/STM32CubeL0/Drivers/CMSIS/Include/core_cm0plus.h **** 
 613:../../dependencies/STM32CubeL0/Drivers/CMSIS/Include/core_cm0plus.h **** 
 614:../../dependencies/STM32CubeL0/Drivers/CMSIS/Include/core_cm0plus.h **** /**
 615:../../dependencies/STM32CubeL0/Drivers/CMSIS/Include/core_cm0plus.h ****   \ingroup    CMSIS_core_register
 616:../../dependencies/STM32CubeL0/Drivers/CMSIS/Include/core_cm0plus.h ****   \defgroup   CMSIS_core_bitfield     Core register bit field macros
 617:../../dependencies/STM32CubeL0/Drivers/CMSIS/Include/core_cm0plus.h ****   \brief      Macros for use with bit field definitions (xxx_Pos, xxx_Msk).
 618:../../dependencies/STM32CubeL0/Drivers/CMSIS/Include/core_cm0plus.h ****   @{
 619:../../dependencies/STM32CubeL0/Drivers/CMSIS/Include/core_cm0plus.h ****  */
 620:../../dependencies/STM32CubeL0/Drivers/CMSIS/Include/core_cm0plus.h **** 
 621:../../dependencies/STM32CubeL0/Drivers/CMSIS/Include/core_cm0plus.h **** /**
 622:../../dependencies/STM32CubeL0/Drivers/CMSIS/Include/core_cm0plus.h ****   \brief   Mask and shift a bit field value for use in a register bit range.
 623:../../dependencies/STM32CubeL0/Drivers/CMSIS/Include/core_cm0plus.h ****   \param[in] field  Name of the register bit field.
 624:../../dependencies/STM32CubeL0/Drivers/CMSIS/Include/core_cm0plus.h ****   \param[in] value  Value of the bit field. This parameter is interpreted as an uint32_t type.
 625:../../dependencies/STM32CubeL0/Drivers/CMSIS/Include/core_cm0plus.h ****   \return           Masked and shifted value.
 626:../../dependencies/STM32CubeL0/Drivers/CMSIS/Include/core_cm0plus.h **** */
 627:../../dependencies/STM32CubeL0/Drivers/CMSIS/Include/core_cm0plus.h **** #define _VAL2FLD(field, value)    (((uint32_t)(value) << field ## _Pos) & field ## _Msk)
 628:../../dependencies/STM32CubeL0/Drivers/CMSIS/Include/core_cm0plus.h **** 
 629:../../dependencies/STM32CubeL0/Drivers/CMSIS/Include/core_cm0plus.h **** /**
 630:../../dependencies/STM32CubeL0/Drivers/CMSIS/Include/core_cm0plus.h ****   \brief     Mask and shift a register value to extract a bit filed value.
 631:../../dependencies/STM32CubeL0/Drivers/CMSIS/Include/core_cm0plus.h ****   \param[in] field  Name of the register bit field.
 632:../../dependencies/STM32CubeL0/Drivers/CMSIS/Include/core_cm0plus.h ****   \param[in] value  Value of register. This parameter is interpreted as an uint32_t type.
 633:../../dependencies/STM32CubeL0/Drivers/CMSIS/Include/core_cm0plus.h ****   \return           Masked and shifted bit field value.
 634:../../dependencies/STM32CubeL0/Drivers/CMSIS/Include/core_cm0plus.h **** */
 635:../../dependencies/STM32CubeL0/Drivers/CMSIS/Include/core_cm0plus.h **** #define _FLD2VAL(field, value)    (((uint32_t)(value) & field ## _Msk) >> field ## _Pos)
 636:../../dependencies/STM32CubeL0/Drivers/CMSIS/Include/core_cm0plus.h **** 
 637:../../dependencies/STM32CubeL0/Drivers/CMSIS/Include/core_cm0plus.h **** /*@} end of group CMSIS_core_bitfield */
 638:../../dependencies/STM32CubeL0/Drivers/CMSIS/Include/core_cm0plus.h **** 
 639:../../dependencies/STM32CubeL0/Drivers/CMSIS/Include/core_cm0plus.h **** 
 640:../../dependencies/STM32CubeL0/Drivers/CMSIS/Include/core_cm0plus.h **** /**
 641:../../dependencies/STM32CubeL0/Drivers/CMSIS/Include/core_cm0plus.h ****   \ingroup    CMSIS_core_register
 642:../../dependencies/STM32CubeL0/Drivers/CMSIS/Include/core_cm0plus.h ****   \defgroup   CMSIS_core_base     Core Definitions
 643:../../dependencies/STM32CubeL0/Drivers/CMSIS/Include/core_cm0plus.h ****   \brief      Definitions for base addresses, unions, and structures.
 644:../../dependencies/STM32CubeL0/Drivers/CMSIS/Include/core_cm0plus.h ****   @{
 645:../../dependencies/STM32CubeL0/Drivers/CMSIS/Include/core_cm0plus.h ****  */
 646:../../dependencies/STM32CubeL0/Drivers/CMSIS/Include/core_cm0plus.h **** 
 647:../../dependencies/STM32CubeL0/Drivers/CMSIS/Include/core_cm0plus.h **** /* Memory mapping of Core Hardware */
 648:../../dependencies/STM32CubeL0/Drivers/CMSIS/Include/core_cm0plus.h **** #define SCS_BASE            (0xE000E000UL)                            /*!< System Control Space Bas
 649:../../dependencies/STM32CubeL0/Drivers/CMSIS/Include/core_cm0plus.h **** #define SysTick_BASE        (SCS_BASE +  0x0010UL)                    /*!< SysTick Base Address */
 650:../../dependencies/STM32CubeL0/Drivers/CMSIS/Include/core_cm0plus.h **** #define NVIC_BASE           (SCS_BASE +  0x0100UL)                    /*!< NVIC Base Address */
 651:../../dependencies/STM32CubeL0/Drivers/CMSIS/Include/core_cm0plus.h **** #define SCB_BASE            (SCS_BASE +  0x0D00UL)                    /*!< System Control Block Bas
 652:../../dependencies/STM32CubeL0/Drivers/CMSIS/Include/core_cm0plus.h **** 
 653:../../dependencies/STM32CubeL0/Drivers/CMSIS/Include/core_cm0plus.h **** #define SCB                 ((SCB_Type       *)     SCB_BASE      )   /*!< SCB configuration struct
 654:../../dependencies/STM32CubeL0/Drivers/CMSIS/Include/core_cm0plus.h **** #define SysTick             ((SysTick_Type   *)     SysTick_BASE  )   /*!< SysTick configuration st
 655:../../dependencies/STM32CubeL0/Drivers/CMSIS/Include/core_cm0plus.h **** #define NVIC                ((NVIC_Type      *)     NVIC_BASE     )   /*!< NVIC configuration struc
 656:../../dependencies/STM32CubeL0/Drivers/CMSIS/Include/core_cm0plus.h **** 
 657:../../dependencies/STM32CubeL0/Drivers/CMSIS/Include/core_cm0plus.h **** #if defined (__MPU_PRESENT) && (__MPU_PRESENT == 1U)
 658:../../dependencies/STM32CubeL0/Drivers/CMSIS/Include/core_cm0plus.h ****   #define MPU_BASE          (SCS_BASE +  0x0D90UL)                    /*!< Memory Protection Unit *
 659:../../dependencies/STM32CubeL0/Drivers/CMSIS/Include/core_cm0plus.h ****   #define MPU               ((MPU_Type       *)     MPU_BASE      )   /*!< Memory Protection Unit *
 660:../../dependencies/STM32CubeL0/Drivers/CMSIS/Include/core_cm0plus.h **** #endif
ARM GAS  /tmp/cctetIQd.s 			page 13


 661:../../dependencies/STM32CubeL0/Drivers/CMSIS/Include/core_cm0plus.h **** 
 662:../../dependencies/STM32CubeL0/Drivers/CMSIS/Include/core_cm0plus.h **** /*@} */
 663:../../dependencies/STM32CubeL0/Drivers/CMSIS/Include/core_cm0plus.h **** 
 664:../../dependencies/STM32CubeL0/Drivers/CMSIS/Include/core_cm0plus.h **** 
 665:../../dependencies/STM32CubeL0/Drivers/CMSIS/Include/core_cm0plus.h **** 
 666:../../dependencies/STM32CubeL0/Drivers/CMSIS/Include/core_cm0plus.h **** /*******************************************************************************
 667:../../dependencies/STM32CubeL0/Drivers/CMSIS/Include/core_cm0plus.h ****  *                Hardware Abstraction Layer
 668:../../dependencies/STM32CubeL0/Drivers/CMSIS/Include/core_cm0plus.h ****   Core Function Interface contains:
 669:../../dependencies/STM32CubeL0/Drivers/CMSIS/Include/core_cm0plus.h ****   - Core NVIC Functions
 670:../../dependencies/STM32CubeL0/Drivers/CMSIS/Include/core_cm0plus.h ****   - Core SysTick Functions
 671:../../dependencies/STM32CubeL0/Drivers/CMSIS/Include/core_cm0plus.h ****   - Core Register Access Functions
 672:../../dependencies/STM32CubeL0/Drivers/CMSIS/Include/core_cm0plus.h ****  ******************************************************************************/
 673:../../dependencies/STM32CubeL0/Drivers/CMSIS/Include/core_cm0plus.h **** /**
 674:../../dependencies/STM32CubeL0/Drivers/CMSIS/Include/core_cm0plus.h ****   \defgroup CMSIS_Core_FunctionInterface Functions and Instructions Reference
 675:../../dependencies/STM32CubeL0/Drivers/CMSIS/Include/core_cm0plus.h **** */
 676:../../dependencies/STM32CubeL0/Drivers/CMSIS/Include/core_cm0plus.h **** 
 677:../../dependencies/STM32CubeL0/Drivers/CMSIS/Include/core_cm0plus.h **** 
 678:../../dependencies/STM32CubeL0/Drivers/CMSIS/Include/core_cm0plus.h **** 
 679:../../dependencies/STM32CubeL0/Drivers/CMSIS/Include/core_cm0plus.h **** /* ##########################   NVIC functions  #################################### */
 680:../../dependencies/STM32CubeL0/Drivers/CMSIS/Include/core_cm0plus.h **** /**
 681:../../dependencies/STM32CubeL0/Drivers/CMSIS/Include/core_cm0plus.h ****   \ingroup  CMSIS_Core_FunctionInterface
 682:../../dependencies/STM32CubeL0/Drivers/CMSIS/Include/core_cm0plus.h ****   \defgroup CMSIS_Core_NVICFunctions NVIC Functions
 683:../../dependencies/STM32CubeL0/Drivers/CMSIS/Include/core_cm0plus.h ****   \brief    Functions that manage interrupts and exceptions via the NVIC.
 684:../../dependencies/STM32CubeL0/Drivers/CMSIS/Include/core_cm0plus.h ****   @{
 685:../../dependencies/STM32CubeL0/Drivers/CMSIS/Include/core_cm0plus.h ****  */
 686:../../dependencies/STM32CubeL0/Drivers/CMSIS/Include/core_cm0plus.h **** 
 687:../../dependencies/STM32CubeL0/Drivers/CMSIS/Include/core_cm0plus.h **** #ifdef CMSIS_NVIC_VIRTUAL
 688:../../dependencies/STM32CubeL0/Drivers/CMSIS/Include/core_cm0plus.h ****   #ifndef CMSIS_NVIC_VIRTUAL_HEADER_FILE
 689:../../dependencies/STM32CubeL0/Drivers/CMSIS/Include/core_cm0plus.h ****     #define CMSIS_NVIC_VIRTUAL_HEADER_FILE "cmsis_nvic_virtual.h"
 690:../../dependencies/STM32CubeL0/Drivers/CMSIS/Include/core_cm0plus.h ****   #endif
 691:../../dependencies/STM32CubeL0/Drivers/CMSIS/Include/core_cm0plus.h ****   #include CMSIS_NVIC_VIRTUAL_HEADER_FILE
 692:../../dependencies/STM32CubeL0/Drivers/CMSIS/Include/core_cm0plus.h **** #else
 693:../../dependencies/STM32CubeL0/Drivers/CMSIS/Include/core_cm0plus.h ****   #define NVIC_SetPriorityGrouping    __NVIC_SetPriorityGrouping
 694:../../dependencies/STM32CubeL0/Drivers/CMSIS/Include/core_cm0plus.h ****   #define NVIC_GetPriorityGrouping    __NVIC_GetPriorityGrouping
 695:../../dependencies/STM32CubeL0/Drivers/CMSIS/Include/core_cm0plus.h ****   #define NVIC_EnableIRQ              __NVIC_EnableIRQ
 696:../../dependencies/STM32CubeL0/Drivers/CMSIS/Include/core_cm0plus.h ****   #define NVIC_GetEnableIRQ           __NVIC_GetEnableIRQ
 697:../../dependencies/STM32CubeL0/Drivers/CMSIS/Include/core_cm0plus.h ****   #define NVIC_DisableIRQ             __NVIC_DisableIRQ
 698:../../dependencies/STM32CubeL0/Drivers/CMSIS/Include/core_cm0plus.h ****   #define NVIC_GetPendingIRQ          __NVIC_GetPendingIRQ
 699:../../dependencies/STM32CubeL0/Drivers/CMSIS/Include/core_cm0plus.h ****   #define NVIC_SetPendingIRQ          __NVIC_SetPendingIRQ
 700:../../dependencies/STM32CubeL0/Drivers/CMSIS/Include/core_cm0plus.h ****   #define NVIC_ClearPendingIRQ        __NVIC_ClearPendingIRQ
 701:../../dependencies/STM32CubeL0/Drivers/CMSIS/Include/core_cm0plus.h **** /*#define NVIC_GetActive              __NVIC_GetActive             not available for Cortex-M0+ */
 702:../../dependencies/STM32CubeL0/Drivers/CMSIS/Include/core_cm0plus.h ****   #define NVIC_SetPriority            __NVIC_SetPriority
 703:../../dependencies/STM32CubeL0/Drivers/CMSIS/Include/core_cm0plus.h ****   #define NVIC_GetPriority            __NVIC_GetPriority
 704:../../dependencies/STM32CubeL0/Drivers/CMSIS/Include/core_cm0plus.h ****   #define NVIC_SystemReset            __NVIC_SystemReset
 705:../../dependencies/STM32CubeL0/Drivers/CMSIS/Include/core_cm0plus.h **** #endif /* CMSIS_NVIC_VIRTUAL */
 706:../../dependencies/STM32CubeL0/Drivers/CMSIS/Include/core_cm0plus.h **** 
 707:../../dependencies/STM32CubeL0/Drivers/CMSIS/Include/core_cm0plus.h **** #ifdef CMSIS_VECTAB_VIRTUAL
 708:../../dependencies/STM32CubeL0/Drivers/CMSIS/Include/core_cm0plus.h ****   #ifndef CMSIS_VECTAB_VIRTUAL_HEADER_FILE
 709:../../dependencies/STM32CubeL0/Drivers/CMSIS/Include/core_cm0plus.h ****     #define CMSIS_VECTAB_VIRTUAL_HEADER_FILE "cmsis_vectab_virtual.h"
 710:../../dependencies/STM32CubeL0/Drivers/CMSIS/Include/core_cm0plus.h ****   #endif
 711:../../dependencies/STM32CubeL0/Drivers/CMSIS/Include/core_cm0plus.h ****   #include CMSIS_VECTAB_VIRTUAL_HEADER_FILE
 712:../../dependencies/STM32CubeL0/Drivers/CMSIS/Include/core_cm0plus.h **** #else
 713:../../dependencies/STM32CubeL0/Drivers/CMSIS/Include/core_cm0plus.h ****   #define NVIC_SetVector              __NVIC_SetVector
 714:../../dependencies/STM32CubeL0/Drivers/CMSIS/Include/core_cm0plus.h ****   #define NVIC_GetVector              __NVIC_GetVector
 715:../../dependencies/STM32CubeL0/Drivers/CMSIS/Include/core_cm0plus.h **** #endif  /* (CMSIS_VECTAB_VIRTUAL) */
 716:../../dependencies/STM32CubeL0/Drivers/CMSIS/Include/core_cm0plus.h **** 
 717:../../dependencies/STM32CubeL0/Drivers/CMSIS/Include/core_cm0plus.h **** #define NVIC_USER_IRQ_OFFSET          16
ARM GAS  /tmp/cctetIQd.s 			page 14


 718:../../dependencies/STM32CubeL0/Drivers/CMSIS/Include/core_cm0plus.h **** 
 719:../../dependencies/STM32CubeL0/Drivers/CMSIS/Include/core_cm0plus.h **** 
 720:../../dependencies/STM32CubeL0/Drivers/CMSIS/Include/core_cm0plus.h **** /* The following EXC_RETURN values are saved the LR on exception entry */
 721:../../dependencies/STM32CubeL0/Drivers/CMSIS/Include/core_cm0plus.h **** #define EXC_RETURN_HANDLER         (0xFFFFFFF1UL)     /* return to Handler mode, uses MSP after ret
 722:../../dependencies/STM32CubeL0/Drivers/CMSIS/Include/core_cm0plus.h **** #define EXC_RETURN_THREAD_MSP      (0xFFFFFFF9UL)     /* return to Thread mode, uses MSP after retu
 723:../../dependencies/STM32CubeL0/Drivers/CMSIS/Include/core_cm0plus.h **** #define EXC_RETURN_THREAD_PSP      (0xFFFFFFFDUL)     /* return to Thread mode, uses PSP after retu
 724:../../dependencies/STM32CubeL0/Drivers/CMSIS/Include/core_cm0plus.h **** 
 725:../../dependencies/STM32CubeL0/Drivers/CMSIS/Include/core_cm0plus.h **** 
 726:../../dependencies/STM32CubeL0/Drivers/CMSIS/Include/core_cm0plus.h **** /* Interrupt Priorities are WORD accessible only under Armv6-M                  */
 727:../../dependencies/STM32CubeL0/Drivers/CMSIS/Include/core_cm0plus.h **** /* The following MACROS handle generation of the register offset and byte masks */
 728:../../dependencies/STM32CubeL0/Drivers/CMSIS/Include/core_cm0plus.h **** #define _BIT_SHIFT(IRQn)         (  ((((uint32_t)(int32_t)(IRQn))         )      &  0x03UL) * 8UL)
 729:../../dependencies/STM32CubeL0/Drivers/CMSIS/Include/core_cm0plus.h **** #define _SHP_IDX(IRQn)           ( (((((uint32_t)(int32_t)(IRQn)) & 0x0FUL)-8UL) >>    2UL)      )
 730:../../dependencies/STM32CubeL0/Drivers/CMSIS/Include/core_cm0plus.h **** #define _IP_IDX(IRQn)            (   (((uint32_t)(int32_t)(IRQn))                >>    2UL)      )
 731:../../dependencies/STM32CubeL0/Drivers/CMSIS/Include/core_cm0plus.h **** 
 732:../../dependencies/STM32CubeL0/Drivers/CMSIS/Include/core_cm0plus.h **** #define __NVIC_SetPriorityGrouping(X) (void)(X)
 733:../../dependencies/STM32CubeL0/Drivers/CMSIS/Include/core_cm0plus.h **** #define __NVIC_GetPriorityGrouping()  (0U)
 734:../../dependencies/STM32CubeL0/Drivers/CMSIS/Include/core_cm0plus.h **** 
 735:../../dependencies/STM32CubeL0/Drivers/CMSIS/Include/core_cm0plus.h **** /**
 736:../../dependencies/STM32CubeL0/Drivers/CMSIS/Include/core_cm0plus.h ****   \brief   Enable Interrupt
 737:../../dependencies/STM32CubeL0/Drivers/CMSIS/Include/core_cm0plus.h ****   \details Enables a device specific interrupt in the NVIC interrupt controller.
 738:../../dependencies/STM32CubeL0/Drivers/CMSIS/Include/core_cm0plus.h ****   \param [in]      IRQn  Device specific interrupt number.
 739:../../dependencies/STM32CubeL0/Drivers/CMSIS/Include/core_cm0plus.h ****   \note    IRQn must not be negative.
 740:../../dependencies/STM32CubeL0/Drivers/CMSIS/Include/core_cm0plus.h ****  */
 741:../../dependencies/STM32CubeL0/Drivers/CMSIS/Include/core_cm0plus.h **** __STATIC_INLINE void __NVIC_EnableIRQ(IRQn_Type IRQn)
 742:../../dependencies/STM32CubeL0/Drivers/CMSIS/Include/core_cm0plus.h **** {
  26              		.loc 1 742 1
  27              		.cfi_startproc
  28              		@ args = 0, pretend = 0, frame = 8
  29              		@ frame_needed = 1, uses_anonymous_args = 0
  30 0000 80B5     		push	{r7, lr}
  31              		.cfi_def_cfa_offset 8
  32              		.cfi_offset 7, -8
  33              		.cfi_offset 14, -4
  34 0002 82B0     		sub	sp, sp, #8
  35              		.cfi_def_cfa_offset 16
  36 0004 00AF     		add	r7, sp, #0
  37              		.cfi_def_cfa_register 7
  38 0006 0200     		movs	r2, r0
  39 0008 FB1D     		adds	r3, r7, #7
  40 000a 1A70     		strb	r2, [r3]
 743:../../dependencies/STM32CubeL0/Drivers/CMSIS/Include/core_cm0plus.h ****   if ((int32_t)(IRQn) >= 0)
  41              		.loc 1 743 6
  42 000c FB1D     		adds	r3, r7, #7
  43 000e 1B78     		ldrb	r3, [r3]
  44 0010 7F2B     		cmp	r3, #127
  45 0012 09D8     		bhi	.L3
 744:../../dependencies/STM32CubeL0/Drivers/CMSIS/Include/core_cm0plus.h ****   {
 745:../../dependencies/STM32CubeL0/Drivers/CMSIS/Include/core_cm0plus.h ****     NVIC->ISER[0U] = (uint32_t)(1UL << (((uint32_t)IRQn) & 0x1FUL));
  46              		.loc 1 745 58
  47 0014 FB1D     		adds	r3, r7, #7
  48 0016 1B78     		ldrb	r3, [r3]
  49 0018 1A00     		movs	r2, r3
  50 001a 1F23     		movs	r3, #31
  51 001c 1A40     		ands	r2, r3
  52              		.loc 1 745 9
  53 001e 044B     		ldr	r3, .L4
  54              		.loc 1 745 22
ARM GAS  /tmp/cctetIQd.s 			page 15


  55 0020 0121     		movs	r1, #1
  56 0022 9140     		lsls	r1, r1, r2
  57 0024 0A00     		movs	r2, r1
  58              		.loc 1 745 20
  59 0026 1A60     		str	r2, [r3]
  60              	.L3:
 746:../../dependencies/STM32CubeL0/Drivers/CMSIS/Include/core_cm0plus.h ****   }
 747:../../dependencies/STM32CubeL0/Drivers/CMSIS/Include/core_cm0plus.h **** }
  61              		.loc 1 747 1
  62 0028 C046     		nop
  63 002a BD46     		mov	sp, r7
  64 002c 02B0     		add	sp, sp, #8
  65              		@ sp needed
  66 002e 80BD     		pop	{r7, pc}
  67              	.L5:
  68              		.align	2
  69              	.L4:
  70 0030 00E100E0 		.word	-536813312
  71              		.cfi_endproc
  72              	.LFE25:
  74              		.section	.text.__NVIC_SetPriority,"ax",%progbits
  75              		.align	1
  76              		.syntax unified
  77              		.code	16
  78              		.thumb_func
  79              		.fpu softvfp
  81              	__NVIC_SetPriority:
  82              	.LFB31:
 748:../../dependencies/STM32CubeL0/Drivers/CMSIS/Include/core_cm0plus.h **** 
 749:../../dependencies/STM32CubeL0/Drivers/CMSIS/Include/core_cm0plus.h **** 
 750:../../dependencies/STM32CubeL0/Drivers/CMSIS/Include/core_cm0plus.h **** /**
 751:../../dependencies/STM32CubeL0/Drivers/CMSIS/Include/core_cm0plus.h ****   \brief   Get Interrupt Enable status
 752:../../dependencies/STM32CubeL0/Drivers/CMSIS/Include/core_cm0plus.h ****   \details Returns a device specific interrupt enable status from the NVIC interrupt controller.
 753:../../dependencies/STM32CubeL0/Drivers/CMSIS/Include/core_cm0plus.h ****   \param [in]      IRQn  Device specific interrupt number.
 754:../../dependencies/STM32CubeL0/Drivers/CMSIS/Include/core_cm0plus.h ****   \return             0  Interrupt is not enabled.
 755:../../dependencies/STM32CubeL0/Drivers/CMSIS/Include/core_cm0plus.h ****   \return             1  Interrupt is enabled.
 756:../../dependencies/STM32CubeL0/Drivers/CMSIS/Include/core_cm0plus.h ****   \note    IRQn must not be negative.
 757:../../dependencies/STM32CubeL0/Drivers/CMSIS/Include/core_cm0plus.h ****  */
 758:../../dependencies/STM32CubeL0/Drivers/CMSIS/Include/core_cm0plus.h **** __STATIC_INLINE uint32_t __NVIC_GetEnableIRQ(IRQn_Type IRQn)
 759:../../dependencies/STM32CubeL0/Drivers/CMSIS/Include/core_cm0plus.h **** {
 760:../../dependencies/STM32CubeL0/Drivers/CMSIS/Include/core_cm0plus.h ****   if ((int32_t)(IRQn) >= 0)
 761:../../dependencies/STM32CubeL0/Drivers/CMSIS/Include/core_cm0plus.h ****   {
 762:../../dependencies/STM32CubeL0/Drivers/CMSIS/Include/core_cm0plus.h ****     return((uint32_t)(((NVIC->ISER[0U] & (1UL << (((uint32_t)IRQn) & 0x1FUL))) != 0UL) ? 1UL : 0UL)
 763:../../dependencies/STM32CubeL0/Drivers/CMSIS/Include/core_cm0plus.h ****   }
 764:../../dependencies/STM32CubeL0/Drivers/CMSIS/Include/core_cm0plus.h ****   else
 765:../../dependencies/STM32CubeL0/Drivers/CMSIS/Include/core_cm0plus.h ****   {
 766:../../dependencies/STM32CubeL0/Drivers/CMSIS/Include/core_cm0plus.h ****     return(0U);
 767:../../dependencies/STM32CubeL0/Drivers/CMSIS/Include/core_cm0plus.h ****   }
 768:../../dependencies/STM32CubeL0/Drivers/CMSIS/Include/core_cm0plus.h **** }
 769:../../dependencies/STM32CubeL0/Drivers/CMSIS/Include/core_cm0plus.h **** 
 770:../../dependencies/STM32CubeL0/Drivers/CMSIS/Include/core_cm0plus.h **** 
 771:../../dependencies/STM32CubeL0/Drivers/CMSIS/Include/core_cm0plus.h **** /**
 772:../../dependencies/STM32CubeL0/Drivers/CMSIS/Include/core_cm0plus.h ****   \brief   Disable Interrupt
 773:../../dependencies/STM32CubeL0/Drivers/CMSIS/Include/core_cm0plus.h ****   \details Disables a device specific interrupt in the NVIC interrupt controller.
 774:../../dependencies/STM32CubeL0/Drivers/CMSIS/Include/core_cm0plus.h ****   \param [in]      IRQn  Device specific interrupt number.
 775:../../dependencies/STM32CubeL0/Drivers/CMSIS/Include/core_cm0plus.h ****   \note    IRQn must not be negative.
 776:../../dependencies/STM32CubeL0/Drivers/CMSIS/Include/core_cm0plus.h ****  */
ARM GAS  /tmp/cctetIQd.s 			page 16


 777:../../dependencies/STM32CubeL0/Drivers/CMSIS/Include/core_cm0plus.h **** __STATIC_INLINE void __NVIC_DisableIRQ(IRQn_Type IRQn)
 778:../../dependencies/STM32CubeL0/Drivers/CMSIS/Include/core_cm0plus.h **** {
 779:../../dependencies/STM32CubeL0/Drivers/CMSIS/Include/core_cm0plus.h ****   if ((int32_t)(IRQn) >= 0)
 780:../../dependencies/STM32CubeL0/Drivers/CMSIS/Include/core_cm0plus.h ****   {
 781:../../dependencies/STM32CubeL0/Drivers/CMSIS/Include/core_cm0plus.h ****     NVIC->ICER[0U] = (uint32_t)(1UL << (((uint32_t)IRQn) & 0x1FUL));
 782:../../dependencies/STM32CubeL0/Drivers/CMSIS/Include/core_cm0plus.h ****     __DSB();
 783:../../dependencies/STM32CubeL0/Drivers/CMSIS/Include/core_cm0plus.h ****     __ISB();
 784:../../dependencies/STM32CubeL0/Drivers/CMSIS/Include/core_cm0plus.h ****   }
 785:../../dependencies/STM32CubeL0/Drivers/CMSIS/Include/core_cm0plus.h **** }
 786:../../dependencies/STM32CubeL0/Drivers/CMSIS/Include/core_cm0plus.h **** 
 787:../../dependencies/STM32CubeL0/Drivers/CMSIS/Include/core_cm0plus.h **** 
 788:../../dependencies/STM32CubeL0/Drivers/CMSIS/Include/core_cm0plus.h **** /**
 789:../../dependencies/STM32CubeL0/Drivers/CMSIS/Include/core_cm0plus.h ****   \brief   Get Pending Interrupt
 790:../../dependencies/STM32CubeL0/Drivers/CMSIS/Include/core_cm0plus.h ****   \details Reads the NVIC pending register and returns the pending bit for the specified device spe
 791:../../dependencies/STM32CubeL0/Drivers/CMSIS/Include/core_cm0plus.h ****   \param [in]      IRQn  Device specific interrupt number.
 792:../../dependencies/STM32CubeL0/Drivers/CMSIS/Include/core_cm0plus.h ****   \return             0  Interrupt status is not pending.
 793:../../dependencies/STM32CubeL0/Drivers/CMSIS/Include/core_cm0plus.h ****   \return             1  Interrupt status is pending.
 794:../../dependencies/STM32CubeL0/Drivers/CMSIS/Include/core_cm0plus.h ****   \note    IRQn must not be negative.
 795:../../dependencies/STM32CubeL0/Drivers/CMSIS/Include/core_cm0plus.h ****  */
 796:../../dependencies/STM32CubeL0/Drivers/CMSIS/Include/core_cm0plus.h **** __STATIC_INLINE uint32_t __NVIC_GetPendingIRQ(IRQn_Type IRQn)
 797:../../dependencies/STM32CubeL0/Drivers/CMSIS/Include/core_cm0plus.h **** {
 798:../../dependencies/STM32CubeL0/Drivers/CMSIS/Include/core_cm0plus.h ****   if ((int32_t)(IRQn) >= 0)
 799:../../dependencies/STM32CubeL0/Drivers/CMSIS/Include/core_cm0plus.h ****   {
 800:../../dependencies/STM32CubeL0/Drivers/CMSIS/Include/core_cm0plus.h ****     return((uint32_t)(((NVIC->ISPR[0U] & (1UL << (((uint32_t)IRQn) & 0x1FUL))) != 0UL) ? 1UL : 0UL)
 801:../../dependencies/STM32CubeL0/Drivers/CMSIS/Include/core_cm0plus.h ****   }
 802:../../dependencies/STM32CubeL0/Drivers/CMSIS/Include/core_cm0plus.h ****   else
 803:../../dependencies/STM32CubeL0/Drivers/CMSIS/Include/core_cm0plus.h ****   {
 804:../../dependencies/STM32CubeL0/Drivers/CMSIS/Include/core_cm0plus.h ****     return(0U);
 805:../../dependencies/STM32CubeL0/Drivers/CMSIS/Include/core_cm0plus.h ****   }
 806:../../dependencies/STM32CubeL0/Drivers/CMSIS/Include/core_cm0plus.h **** }
 807:../../dependencies/STM32CubeL0/Drivers/CMSIS/Include/core_cm0plus.h **** 
 808:../../dependencies/STM32CubeL0/Drivers/CMSIS/Include/core_cm0plus.h **** 
 809:../../dependencies/STM32CubeL0/Drivers/CMSIS/Include/core_cm0plus.h **** /**
 810:../../dependencies/STM32CubeL0/Drivers/CMSIS/Include/core_cm0plus.h ****   \brief   Set Pending Interrupt
 811:../../dependencies/STM32CubeL0/Drivers/CMSIS/Include/core_cm0plus.h ****   \details Sets the pending bit of a device specific interrupt in the NVIC pending register.
 812:../../dependencies/STM32CubeL0/Drivers/CMSIS/Include/core_cm0plus.h ****   \param [in]      IRQn  Device specific interrupt number.
 813:../../dependencies/STM32CubeL0/Drivers/CMSIS/Include/core_cm0plus.h ****   \note    IRQn must not be negative.
 814:../../dependencies/STM32CubeL0/Drivers/CMSIS/Include/core_cm0plus.h ****  */
 815:../../dependencies/STM32CubeL0/Drivers/CMSIS/Include/core_cm0plus.h **** __STATIC_INLINE void __NVIC_SetPendingIRQ(IRQn_Type IRQn)
 816:../../dependencies/STM32CubeL0/Drivers/CMSIS/Include/core_cm0plus.h **** {
 817:../../dependencies/STM32CubeL0/Drivers/CMSIS/Include/core_cm0plus.h ****   if ((int32_t)(IRQn) >= 0)
 818:../../dependencies/STM32CubeL0/Drivers/CMSIS/Include/core_cm0plus.h ****   {
 819:../../dependencies/STM32CubeL0/Drivers/CMSIS/Include/core_cm0plus.h ****     NVIC->ISPR[0U] = (uint32_t)(1UL << (((uint32_t)IRQn) & 0x1FUL));
 820:../../dependencies/STM32CubeL0/Drivers/CMSIS/Include/core_cm0plus.h ****   }
 821:../../dependencies/STM32CubeL0/Drivers/CMSIS/Include/core_cm0plus.h **** }
 822:../../dependencies/STM32CubeL0/Drivers/CMSIS/Include/core_cm0plus.h **** 
 823:../../dependencies/STM32CubeL0/Drivers/CMSIS/Include/core_cm0plus.h **** 
 824:../../dependencies/STM32CubeL0/Drivers/CMSIS/Include/core_cm0plus.h **** /**
 825:../../dependencies/STM32CubeL0/Drivers/CMSIS/Include/core_cm0plus.h ****   \brief   Clear Pending Interrupt
 826:../../dependencies/STM32CubeL0/Drivers/CMSIS/Include/core_cm0plus.h ****   \details Clears the pending bit of a device specific interrupt in the NVIC pending register.
 827:../../dependencies/STM32CubeL0/Drivers/CMSIS/Include/core_cm0plus.h ****   \param [in]      IRQn  Device specific interrupt number.
 828:../../dependencies/STM32CubeL0/Drivers/CMSIS/Include/core_cm0plus.h ****   \note    IRQn must not be negative.
 829:../../dependencies/STM32CubeL0/Drivers/CMSIS/Include/core_cm0plus.h ****  */
 830:../../dependencies/STM32CubeL0/Drivers/CMSIS/Include/core_cm0plus.h **** __STATIC_INLINE void __NVIC_ClearPendingIRQ(IRQn_Type IRQn)
 831:../../dependencies/STM32CubeL0/Drivers/CMSIS/Include/core_cm0plus.h **** {
 832:../../dependencies/STM32CubeL0/Drivers/CMSIS/Include/core_cm0plus.h ****   if ((int32_t)(IRQn) >= 0)
 833:../../dependencies/STM32CubeL0/Drivers/CMSIS/Include/core_cm0plus.h ****   {
ARM GAS  /tmp/cctetIQd.s 			page 17


 834:../../dependencies/STM32CubeL0/Drivers/CMSIS/Include/core_cm0plus.h ****     NVIC->ICPR[0U] = (uint32_t)(1UL << (((uint32_t)IRQn) & 0x1FUL));
 835:../../dependencies/STM32CubeL0/Drivers/CMSIS/Include/core_cm0plus.h ****   }
 836:../../dependencies/STM32CubeL0/Drivers/CMSIS/Include/core_cm0plus.h **** }
 837:../../dependencies/STM32CubeL0/Drivers/CMSIS/Include/core_cm0plus.h **** 
 838:../../dependencies/STM32CubeL0/Drivers/CMSIS/Include/core_cm0plus.h **** 
 839:../../dependencies/STM32CubeL0/Drivers/CMSIS/Include/core_cm0plus.h **** /**
 840:../../dependencies/STM32CubeL0/Drivers/CMSIS/Include/core_cm0plus.h ****   \brief   Set Interrupt Priority
 841:../../dependencies/STM32CubeL0/Drivers/CMSIS/Include/core_cm0plus.h ****   \details Sets the priority of a device specific interrupt or a processor exception.
 842:../../dependencies/STM32CubeL0/Drivers/CMSIS/Include/core_cm0plus.h ****            The interrupt number can be positive to specify a device specific interrupt,
 843:../../dependencies/STM32CubeL0/Drivers/CMSIS/Include/core_cm0plus.h ****            or negative to specify a processor exception.
 844:../../dependencies/STM32CubeL0/Drivers/CMSIS/Include/core_cm0plus.h ****   \param [in]      IRQn  Interrupt number.
 845:../../dependencies/STM32CubeL0/Drivers/CMSIS/Include/core_cm0plus.h ****   \param [in]  priority  Priority to set.
 846:../../dependencies/STM32CubeL0/Drivers/CMSIS/Include/core_cm0plus.h ****   \note    The priority cannot be set for every processor exception.
 847:../../dependencies/STM32CubeL0/Drivers/CMSIS/Include/core_cm0plus.h ****  */
 848:../../dependencies/STM32CubeL0/Drivers/CMSIS/Include/core_cm0plus.h **** __STATIC_INLINE void __NVIC_SetPriority(IRQn_Type IRQn, uint32_t priority)
 849:../../dependencies/STM32CubeL0/Drivers/CMSIS/Include/core_cm0plus.h **** {
  83              		.loc 1 849 1
  84              		.cfi_startproc
  85              		@ args = 0, pretend = 0, frame = 8
  86              		@ frame_needed = 1, uses_anonymous_args = 0
  87 0000 90B5     		push	{r4, r7, lr}
  88              		.cfi_def_cfa_offset 12
  89              		.cfi_offset 4, -12
  90              		.cfi_offset 7, -8
  91              		.cfi_offset 14, -4
  92 0002 83B0     		sub	sp, sp, #12
  93              		.cfi_def_cfa_offset 24
  94 0004 00AF     		add	r7, sp, #0
  95              		.cfi_def_cfa_register 7
  96 0006 0200     		movs	r2, r0
  97 0008 3960     		str	r1, [r7]
  98 000a FB1D     		adds	r3, r7, #7
  99 000c 1A70     		strb	r2, [r3]
 850:../../dependencies/STM32CubeL0/Drivers/CMSIS/Include/core_cm0plus.h ****   if ((int32_t)(IRQn) >= 0)
 100              		.loc 1 850 6
 101 000e FB1D     		adds	r3, r7, #7
 102 0010 1B78     		ldrb	r3, [r3]
 103 0012 7F2B     		cmp	r3, #127
 104 0014 28D8     		bhi	.L7
 851:../../dependencies/STM32CubeL0/Drivers/CMSIS/Include/core_cm0plus.h ****   {
 852:../../dependencies/STM32CubeL0/Drivers/CMSIS/Include/core_cm0plus.h ****     NVIC->IP[_IP_IDX(IRQn)]  = ((uint32_t)(NVIC->IP[_IP_IDX(IRQn)]  & ~(0xFFUL << _BIT_SHIFT(IRQn))
 105              		.loc 1 852 48
 106 0016 2F4A     		ldr	r2, .L10
 107              		.loc 1 852 53
 108 0018 FB1D     		adds	r3, r7, #7
 109 001a 1B78     		ldrb	r3, [r3]
 110 001c 5BB2     		sxtb	r3, r3
 111 001e 9B08     		lsrs	r3, r3, #2
 112              		.loc 1 852 52
 113 0020 C033     		adds	r3, r3, #192
 114 0022 9B00     		lsls	r3, r3, #2
 115 0024 9B58     		ldr	r3, [r3, r2]
 116              		.loc 1 852 83
 117 0026 FA1D     		adds	r2, r7, #7
 118 0028 1278     		ldrb	r2, [r2]
 119 002a 1100     		movs	r1, r2
 120 002c 0322     		movs	r2, #3
ARM GAS  /tmp/cctetIQd.s 			page 18


 121 002e 0A40     		ands	r2, r1
 122 0030 D200     		lsls	r2, r2, #3
 123              		.loc 1 852 80
 124 0032 FF21     		movs	r1, #255
 125 0034 9140     		lsls	r1, r1, r2
 126 0036 0A00     		movs	r2, r1
 127              		.loc 1 852 71
 128 0038 D243     		mvns	r2, r2
 129              		.loc 1 852 33
 130 003a 1A40     		ands	r2, r3
 131 003c 1100     		movs	r1, r2
 853:../../dependencies/STM32CubeL0/Drivers/CMSIS/Include/core_cm0plus.h ****        (((priority << (8U - __NVIC_PRIO_BITS)) & (uint32_t)0xFFUL) << _BIT_SHIFT(IRQn)));
 132              		.loc 1 853 20
 133 003e 3B68     		ldr	r3, [r7]
 134 0040 9B01     		lsls	r3, r3, #6
 135              		.loc 1 853 48
 136 0042 FF22     		movs	r2, #255
 137 0044 1A40     		ands	r2, r3
 138              		.loc 1 853 71
 139 0046 FB1D     		adds	r3, r7, #7
 140 0048 1B78     		ldrb	r3, [r3]
 141 004a 1800     		movs	r0, r3
 142 004c 0323     		movs	r3, #3
 143 004e 0340     		ands	r3, r0
 144 0050 DB00     		lsls	r3, r3, #3
 145              		.loc 1 853 68
 146 0052 9A40     		lsls	r2, r2, r3
 852:../../dependencies/STM32CubeL0/Drivers/CMSIS/Include/core_cm0plus.h ****        (((priority << (8U - __NVIC_PRIO_BITS)) & (uint32_t)0xFFUL) << _BIT_SHIFT(IRQn)));
 147              		.loc 1 852 9
 148 0054 1F48     		ldr	r0, .L10
 852:../../dependencies/STM32CubeL0/Drivers/CMSIS/Include/core_cm0plus.h ****        (((priority << (8U - __NVIC_PRIO_BITS)) & (uint32_t)0xFFUL) << _BIT_SHIFT(IRQn)));
 149              		.loc 1 852 14
 150 0056 FB1D     		adds	r3, r7, #7
 151 0058 1B78     		ldrb	r3, [r3]
 152 005a 5BB2     		sxtb	r3, r3
 153 005c 9B08     		lsrs	r3, r3, #2
 852:../../dependencies/STM32CubeL0/Drivers/CMSIS/Include/core_cm0plus.h ****        (((priority << (8U - __NVIC_PRIO_BITS)) & (uint32_t)0xFFUL) << _BIT_SHIFT(IRQn)));
 154              		.loc 1 852 102
 155 005e 0A43     		orrs	r2, r1
 852:../../dependencies/STM32CubeL0/Drivers/CMSIS/Include/core_cm0plus.h ****        (((priority << (8U - __NVIC_PRIO_BITS)) & (uint32_t)0xFFUL) << _BIT_SHIFT(IRQn)));
 156              		.loc 1 852 30
 157 0060 C033     		adds	r3, r3, #192
 158 0062 9B00     		lsls	r3, r3, #2
 159 0064 1A50     		str	r2, [r3, r0]
 854:../../dependencies/STM32CubeL0/Drivers/CMSIS/Include/core_cm0plus.h ****   }
 855:../../dependencies/STM32CubeL0/Drivers/CMSIS/Include/core_cm0plus.h ****   else
 856:../../dependencies/STM32CubeL0/Drivers/CMSIS/Include/core_cm0plus.h ****   {
 857:../../dependencies/STM32CubeL0/Drivers/CMSIS/Include/core_cm0plus.h ****     SCB->SHP[_SHP_IDX(IRQn)] = ((uint32_t)(SCB->SHP[_SHP_IDX(IRQn)] & ~(0xFFUL << _BIT_SHIFT(IRQn))
 858:../../dependencies/STM32CubeL0/Drivers/CMSIS/Include/core_cm0plus.h ****        (((priority << (8U - __NVIC_PRIO_BITS)) & (uint32_t)0xFFUL) << _BIT_SHIFT(IRQn)));
 859:../../dependencies/STM32CubeL0/Drivers/CMSIS/Include/core_cm0plus.h ****   }
 860:../../dependencies/STM32CubeL0/Drivers/CMSIS/Include/core_cm0plus.h **** }
 160              		.loc 1 860 1
 161 0066 31E0     		b	.L9
 162              	.L7:
 857:../../dependencies/STM32CubeL0/Drivers/CMSIS/Include/core_cm0plus.h ****        (((priority << (8U - __NVIC_PRIO_BITS)) & (uint32_t)0xFFUL) << _BIT_SHIFT(IRQn)));
 163              		.loc 1 857 47
 164 0068 1B4A     		ldr	r2, .L10+4
ARM GAS  /tmp/cctetIQd.s 			page 19


 857:../../dependencies/STM32CubeL0/Drivers/CMSIS/Include/core_cm0plus.h ****        (((priority << (8U - __NVIC_PRIO_BITS)) & (uint32_t)0xFFUL) << _BIT_SHIFT(IRQn)));
 165              		.loc 1 857 53
 166 006a FB1D     		adds	r3, r7, #7
 167 006c 1B78     		ldrb	r3, [r3]
 168 006e 1900     		movs	r1, r3
 169 0070 0F23     		movs	r3, #15
 170 0072 0B40     		ands	r3, r1
 171 0074 083B     		subs	r3, r3, #8
 172 0076 9B08     		lsrs	r3, r3, #2
 857:../../dependencies/STM32CubeL0/Drivers/CMSIS/Include/core_cm0plus.h ****        (((priority << (8U - __NVIC_PRIO_BITS)) & (uint32_t)0xFFUL) << _BIT_SHIFT(IRQn)));
 173              		.loc 1 857 52
 174 0078 0633     		adds	r3, r3, #6
 175 007a 9B00     		lsls	r3, r3, #2
 176 007c D318     		adds	r3, r2, r3
 177 007e 0433     		adds	r3, r3, #4
 178 0080 1B68     		ldr	r3, [r3]
 857:../../dependencies/STM32CubeL0/Drivers/CMSIS/Include/core_cm0plus.h ****        (((priority << (8U - __NVIC_PRIO_BITS)) & (uint32_t)0xFFUL) << _BIT_SHIFT(IRQn)));
 179              		.loc 1 857 83
 180 0082 FA1D     		adds	r2, r7, #7
 181 0084 1278     		ldrb	r2, [r2]
 182 0086 1100     		movs	r1, r2
 183 0088 0322     		movs	r2, #3
 184 008a 0A40     		ands	r2, r1
 185 008c D200     		lsls	r2, r2, #3
 857:../../dependencies/STM32CubeL0/Drivers/CMSIS/Include/core_cm0plus.h ****        (((priority << (8U - __NVIC_PRIO_BITS)) & (uint32_t)0xFFUL) << _BIT_SHIFT(IRQn)));
 186              		.loc 1 857 80
 187 008e FF21     		movs	r1, #255
 188 0090 9140     		lsls	r1, r1, r2
 189 0092 0A00     		movs	r2, r1
 857:../../dependencies/STM32CubeL0/Drivers/CMSIS/Include/core_cm0plus.h ****        (((priority << (8U - __NVIC_PRIO_BITS)) & (uint32_t)0xFFUL) << _BIT_SHIFT(IRQn)));
 190              		.loc 1 857 71
 191 0094 D243     		mvns	r2, r2
 857:../../dependencies/STM32CubeL0/Drivers/CMSIS/Include/core_cm0plus.h ****        (((priority << (8U - __NVIC_PRIO_BITS)) & (uint32_t)0xFFUL) << _BIT_SHIFT(IRQn)));
 192              		.loc 1 857 33
 193 0096 1A40     		ands	r2, r3
 194 0098 1100     		movs	r1, r2
 858:../../dependencies/STM32CubeL0/Drivers/CMSIS/Include/core_cm0plus.h ****   }
 195              		.loc 1 858 20
 196 009a 3B68     		ldr	r3, [r7]
 197 009c 9B01     		lsls	r3, r3, #6
 858:../../dependencies/STM32CubeL0/Drivers/CMSIS/Include/core_cm0plus.h ****   }
 198              		.loc 1 858 48
 199 009e FF22     		movs	r2, #255
 200 00a0 1A40     		ands	r2, r3
 858:../../dependencies/STM32CubeL0/Drivers/CMSIS/Include/core_cm0plus.h ****   }
 201              		.loc 1 858 71
 202 00a2 FB1D     		adds	r3, r7, #7
 203 00a4 1B78     		ldrb	r3, [r3]
 204 00a6 1800     		movs	r0, r3
 205 00a8 0323     		movs	r3, #3
 206 00aa 0340     		ands	r3, r0
 207 00ac DB00     		lsls	r3, r3, #3
 858:../../dependencies/STM32CubeL0/Drivers/CMSIS/Include/core_cm0plus.h ****   }
 208              		.loc 1 858 68
 209 00ae 9A40     		lsls	r2, r2, r3
 857:../../dependencies/STM32CubeL0/Drivers/CMSIS/Include/core_cm0plus.h ****        (((priority << (8U - __NVIC_PRIO_BITS)) & (uint32_t)0xFFUL) << _BIT_SHIFT(IRQn)));
 210              		.loc 1 857 8
ARM GAS  /tmp/cctetIQd.s 			page 20


 211 00b0 0948     		ldr	r0, .L10+4
 857:../../dependencies/STM32CubeL0/Drivers/CMSIS/Include/core_cm0plus.h ****        (((priority << (8U - __NVIC_PRIO_BITS)) & (uint32_t)0xFFUL) << _BIT_SHIFT(IRQn)));
 212              		.loc 1 857 14
 213 00b2 FB1D     		adds	r3, r7, #7
 214 00b4 1B78     		ldrb	r3, [r3]
 215 00b6 1C00     		movs	r4, r3
 216 00b8 0F23     		movs	r3, #15
 217 00ba 2340     		ands	r3, r4
 218 00bc 083B     		subs	r3, r3, #8
 219 00be 9B08     		lsrs	r3, r3, #2
 857:../../dependencies/STM32CubeL0/Drivers/CMSIS/Include/core_cm0plus.h ****        (((priority << (8U - __NVIC_PRIO_BITS)) & (uint32_t)0xFFUL) << _BIT_SHIFT(IRQn)));
 220              		.loc 1 857 102
 221 00c0 0A43     		orrs	r2, r1
 857:../../dependencies/STM32CubeL0/Drivers/CMSIS/Include/core_cm0plus.h ****        (((priority << (8U - __NVIC_PRIO_BITS)) & (uint32_t)0xFFUL) << _BIT_SHIFT(IRQn)));
 222              		.loc 1 857 30
 223 00c2 0633     		adds	r3, r3, #6
 224 00c4 9B00     		lsls	r3, r3, #2
 225 00c6 C318     		adds	r3, r0, r3
 226 00c8 0433     		adds	r3, r3, #4
 227 00ca 1A60     		str	r2, [r3]
 228              	.L9:
 229              		.loc 1 860 1
 230 00cc C046     		nop
 231 00ce BD46     		mov	sp, r7
 232 00d0 03B0     		add	sp, sp, #12
 233              		@ sp needed
 234 00d2 90BD     		pop	{r4, r7, pc}
 235              	.L11:
 236              		.align	2
 237              	.L10:
 238 00d4 00E100E0 		.word	-536813312
 239 00d8 00ED00E0 		.word	-536810240
 240              		.cfi_endproc
 241              	.LFE31:
 243              		.section	.text.LL_ADC_SetClock,"ax",%progbits
 244              		.align	1
 245              		.syntax unified
 246              		.code	16
 247              		.thumb_func
 248              		.fpu softvfp
 250              	LL_ADC_SetClock:
 251              	.LFB54:
 252              		.file 2 "../../dependencies/STM32CubeL0/Drivers/STM32L0xx_HAL_Driver/Inc/stm32l0xx_ll_adc.h"
   1:../../dependencies/STM32CubeL0/Drivers/STM32L0xx_HAL_Driver/Inc/stm32l0xx_ll_adc.h **** /**
   2:../../dependencies/STM32CubeL0/Drivers/STM32L0xx_HAL_Driver/Inc/stm32l0xx_ll_adc.h ****   ******************************************************************************
   3:../../dependencies/STM32CubeL0/Drivers/STM32L0xx_HAL_Driver/Inc/stm32l0xx_ll_adc.h ****   * @file    stm32l0xx_ll_adc.h
   4:../../dependencies/STM32CubeL0/Drivers/STM32L0xx_HAL_Driver/Inc/stm32l0xx_ll_adc.h ****   * @author  MCD Application Team
   5:../../dependencies/STM32CubeL0/Drivers/STM32L0xx_HAL_Driver/Inc/stm32l0xx_ll_adc.h ****   * @brief   Header file of ADC LL module.
   6:../../dependencies/STM32CubeL0/Drivers/STM32L0xx_HAL_Driver/Inc/stm32l0xx_ll_adc.h ****   ******************************************************************************
   7:../../dependencies/STM32CubeL0/Drivers/STM32L0xx_HAL_Driver/Inc/stm32l0xx_ll_adc.h ****   * @attention
   8:../../dependencies/STM32CubeL0/Drivers/STM32L0xx_HAL_Driver/Inc/stm32l0xx_ll_adc.h ****   *
   9:../../dependencies/STM32CubeL0/Drivers/STM32L0xx_HAL_Driver/Inc/stm32l0xx_ll_adc.h ****   * <h2><center>&copy; Copyright(c) 2016 STMicroelectronics.
  10:../../dependencies/STM32CubeL0/Drivers/STM32L0xx_HAL_Driver/Inc/stm32l0xx_ll_adc.h ****   * All rights reserved.</center></h2>
  11:../../dependencies/STM32CubeL0/Drivers/STM32L0xx_HAL_Driver/Inc/stm32l0xx_ll_adc.h ****   *
  12:../../dependencies/STM32CubeL0/Drivers/STM32L0xx_HAL_Driver/Inc/stm32l0xx_ll_adc.h ****   * This software component is licensed by ST under BSD 3-Clause license,
  13:../../dependencies/STM32CubeL0/Drivers/STM32L0xx_HAL_Driver/Inc/stm32l0xx_ll_adc.h ****   * the "License"; You may not use this file except in compliance with the
  14:../../dependencies/STM32CubeL0/Drivers/STM32L0xx_HAL_Driver/Inc/stm32l0xx_ll_adc.h ****   * License. You may obtain a copy of the License at:
ARM GAS  /tmp/cctetIQd.s 			page 21


  15:../../dependencies/STM32CubeL0/Drivers/STM32L0xx_HAL_Driver/Inc/stm32l0xx_ll_adc.h ****   *                        opensource.org/licenses/BSD-3-Clause
  16:../../dependencies/STM32CubeL0/Drivers/STM32L0xx_HAL_Driver/Inc/stm32l0xx_ll_adc.h ****   *
  17:../../dependencies/STM32CubeL0/Drivers/STM32L0xx_HAL_Driver/Inc/stm32l0xx_ll_adc.h ****   ******************************************************************************
  18:../../dependencies/STM32CubeL0/Drivers/STM32L0xx_HAL_Driver/Inc/stm32l0xx_ll_adc.h ****   */
  19:../../dependencies/STM32CubeL0/Drivers/STM32L0xx_HAL_Driver/Inc/stm32l0xx_ll_adc.h **** 
  20:../../dependencies/STM32CubeL0/Drivers/STM32L0xx_HAL_Driver/Inc/stm32l0xx_ll_adc.h **** /* Define to prevent recursive inclusion -------------------------------------*/
  21:../../dependencies/STM32CubeL0/Drivers/STM32L0xx_HAL_Driver/Inc/stm32l0xx_ll_adc.h **** #ifndef __STM32L0xx_LL_ADC_H
  22:../../dependencies/STM32CubeL0/Drivers/STM32L0xx_HAL_Driver/Inc/stm32l0xx_ll_adc.h **** #define __STM32L0xx_LL_ADC_H
  23:../../dependencies/STM32CubeL0/Drivers/STM32L0xx_HAL_Driver/Inc/stm32l0xx_ll_adc.h **** 
  24:../../dependencies/STM32CubeL0/Drivers/STM32L0xx_HAL_Driver/Inc/stm32l0xx_ll_adc.h **** #ifdef __cplusplus
  25:../../dependencies/STM32CubeL0/Drivers/STM32L0xx_HAL_Driver/Inc/stm32l0xx_ll_adc.h **** extern "C" {
  26:../../dependencies/STM32CubeL0/Drivers/STM32L0xx_HAL_Driver/Inc/stm32l0xx_ll_adc.h **** #endif
  27:../../dependencies/STM32CubeL0/Drivers/STM32L0xx_HAL_Driver/Inc/stm32l0xx_ll_adc.h **** 
  28:../../dependencies/STM32CubeL0/Drivers/STM32L0xx_HAL_Driver/Inc/stm32l0xx_ll_adc.h **** /* Includes ------------------------------------------------------------------*/
  29:../../dependencies/STM32CubeL0/Drivers/STM32L0xx_HAL_Driver/Inc/stm32l0xx_ll_adc.h **** #include "stm32l0xx.h"
  30:../../dependencies/STM32CubeL0/Drivers/STM32L0xx_HAL_Driver/Inc/stm32l0xx_ll_adc.h **** 
  31:../../dependencies/STM32CubeL0/Drivers/STM32L0xx_HAL_Driver/Inc/stm32l0xx_ll_adc.h **** /** @addtogroup STM32L0xx_LL_Driver
  32:../../dependencies/STM32CubeL0/Drivers/STM32L0xx_HAL_Driver/Inc/stm32l0xx_ll_adc.h ****   * @{
  33:../../dependencies/STM32CubeL0/Drivers/STM32L0xx_HAL_Driver/Inc/stm32l0xx_ll_adc.h ****   */
  34:../../dependencies/STM32CubeL0/Drivers/STM32L0xx_HAL_Driver/Inc/stm32l0xx_ll_adc.h **** 
  35:../../dependencies/STM32CubeL0/Drivers/STM32L0xx_HAL_Driver/Inc/stm32l0xx_ll_adc.h **** #if defined (ADC1)
  36:../../dependencies/STM32CubeL0/Drivers/STM32L0xx_HAL_Driver/Inc/stm32l0xx_ll_adc.h **** 
  37:../../dependencies/STM32CubeL0/Drivers/STM32L0xx_HAL_Driver/Inc/stm32l0xx_ll_adc.h **** /** @defgroup ADC_LL ADC
  38:../../dependencies/STM32CubeL0/Drivers/STM32L0xx_HAL_Driver/Inc/stm32l0xx_ll_adc.h ****   * @{
  39:../../dependencies/STM32CubeL0/Drivers/STM32L0xx_HAL_Driver/Inc/stm32l0xx_ll_adc.h ****   */
  40:../../dependencies/STM32CubeL0/Drivers/STM32L0xx_HAL_Driver/Inc/stm32l0xx_ll_adc.h **** 
  41:../../dependencies/STM32CubeL0/Drivers/STM32L0xx_HAL_Driver/Inc/stm32l0xx_ll_adc.h **** /* Private types -------------------------------------------------------------*/
  42:../../dependencies/STM32CubeL0/Drivers/STM32L0xx_HAL_Driver/Inc/stm32l0xx_ll_adc.h **** /* Private variables ---------------------------------------------------------*/
  43:../../dependencies/STM32CubeL0/Drivers/STM32L0xx_HAL_Driver/Inc/stm32l0xx_ll_adc.h **** 
  44:../../dependencies/STM32CubeL0/Drivers/STM32L0xx_HAL_Driver/Inc/stm32l0xx_ll_adc.h **** /* Private constants ---------------------------------------------------------*/
  45:../../dependencies/STM32CubeL0/Drivers/STM32L0xx_HAL_Driver/Inc/stm32l0xx_ll_adc.h **** /** @defgroup ADC_LL_Private_Constants ADC Private Constants
  46:../../dependencies/STM32CubeL0/Drivers/STM32L0xx_HAL_Driver/Inc/stm32l0xx_ll_adc.h ****   * @{
  47:../../dependencies/STM32CubeL0/Drivers/STM32L0xx_HAL_Driver/Inc/stm32l0xx_ll_adc.h ****   */
  48:../../dependencies/STM32CubeL0/Drivers/STM32L0xx_HAL_Driver/Inc/stm32l0xx_ll_adc.h **** 
  49:../../dependencies/STM32CubeL0/Drivers/STM32L0xx_HAL_Driver/Inc/stm32l0xx_ll_adc.h **** /* Internal mask for ADC group regular trigger:                               */
  50:../../dependencies/STM32CubeL0/Drivers/STM32L0xx_HAL_Driver/Inc/stm32l0xx_ll_adc.h **** /* To select into literal LL_ADC_REG_TRIG_x the relevant bits for:            */
  51:../../dependencies/STM32CubeL0/Drivers/STM32L0xx_HAL_Driver/Inc/stm32l0xx_ll_adc.h **** /* - regular trigger source                                                   */
  52:../../dependencies/STM32CubeL0/Drivers/STM32L0xx_HAL_Driver/Inc/stm32l0xx_ll_adc.h **** /* - regular trigger edge                                                     */
  53:../../dependencies/STM32CubeL0/Drivers/STM32L0xx_HAL_Driver/Inc/stm32l0xx_ll_adc.h **** #define ADC_REG_TRIG_EXT_EDGE_DEFAULT       (ADC_CFGR1_EXTEN_0) /* Trigger edge set to rising edge 
  54:../../dependencies/STM32CubeL0/Drivers/STM32L0xx_HAL_Driver/Inc/stm32l0xx_ll_adc.h **** 
  55:../../dependencies/STM32CubeL0/Drivers/STM32L0xx_HAL_Driver/Inc/stm32l0xx_ll_adc.h **** /* Mask containing trigger source masks for each of possible                  */
  56:../../dependencies/STM32CubeL0/Drivers/STM32L0xx_HAL_Driver/Inc/stm32l0xx_ll_adc.h **** /* trigger edge selection duplicated with shifts [0; 4; 8; 12]                */
  57:../../dependencies/STM32CubeL0/Drivers/STM32L0xx_HAL_Driver/Inc/stm32l0xx_ll_adc.h **** /* corresponding to {SW start; ext trigger; ext trigger; ext trigger}.        */
  58:../../dependencies/STM32CubeL0/Drivers/STM32L0xx_HAL_Driver/Inc/stm32l0xx_ll_adc.h **** #define ADC_REG_TRIG_SOURCE_MASK            (((LL_ADC_REG_TRIG_SOFTWARE & ADC_CFGR1_EXTSEL) << (4U 
  59:../../dependencies/STM32CubeL0/Drivers/STM32L0xx_HAL_Driver/Inc/stm32l0xx_ll_adc.h ****                                              ((ADC_CFGR1_EXTSEL)                            << (4U 
  60:../../dependencies/STM32CubeL0/Drivers/STM32L0xx_HAL_Driver/Inc/stm32l0xx_ll_adc.h ****                                              ((ADC_CFGR1_EXTSEL)                            << (4U 
  61:../../dependencies/STM32CubeL0/Drivers/STM32L0xx_HAL_Driver/Inc/stm32l0xx_ll_adc.h ****                                              ((ADC_CFGR1_EXTSEL)                            << (4U 
  62:../../dependencies/STM32CubeL0/Drivers/STM32L0xx_HAL_Driver/Inc/stm32l0xx_ll_adc.h **** 
  63:../../dependencies/STM32CubeL0/Drivers/STM32L0xx_HAL_Driver/Inc/stm32l0xx_ll_adc.h **** /* Mask containing trigger edge masks for each of possible                    */
  64:../../dependencies/STM32CubeL0/Drivers/STM32L0xx_HAL_Driver/Inc/stm32l0xx_ll_adc.h **** /* trigger edge selection duplicated with shifts [0; 4; 8; 12]                */
  65:../../dependencies/STM32CubeL0/Drivers/STM32L0xx_HAL_Driver/Inc/stm32l0xx_ll_adc.h **** /* corresponding to {SW start; ext trigger; ext trigger; ext trigger}.        */
  66:../../dependencies/STM32CubeL0/Drivers/STM32L0xx_HAL_Driver/Inc/stm32l0xx_ll_adc.h **** #define ADC_REG_TRIG_EDGE_MASK              (((LL_ADC_REG_TRIG_SOFTWARE & ADC_CFGR1_EXTEN) << (4U *
  67:../../dependencies/STM32CubeL0/Drivers/STM32L0xx_HAL_Driver/Inc/stm32l0xx_ll_adc.h ****                                              ((ADC_REG_TRIG_EXT_EDGE_DEFAULT)              << (4U *
  68:../../dependencies/STM32CubeL0/Drivers/STM32L0xx_HAL_Driver/Inc/stm32l0xx_ll_adc.h ****                                              ((ADC_REG_TRIG_EXT_EDGE_DEFAULT)              << (4U *
  69:../../dependencies/STM32CubeL0/Drivers/STM32L0xx_HAL_Driver/Inc/stm32l0xx_ll_adc.h ****                                              ((ADC_REG_TRIG_EXT_EDGE_DEFAULT)              << (4U *
  70:../../dependencies/STM32CubeL0/Drivers/STM32L0xx_HAL_Driver/Inc/stm32l0xx_ll_adc.h **** 
  71:../../dependencies/STM32CubeL0/Drivers/STM32L0xx_HAL_Driver/Inc/stm32l0xx_ll_adc.h **** /* Definition of ADC group regular trigger bits information.                  */
ARM GAS  /tmp/cctetIQd.s 			page 22


  72:../../dependencies/STM32CubeL0/Drivers/STM32L0xx_HAL_Driver/Inc/stm32l0xx_ll_adc.h **** #define ADC_REG_TRIG_EXTSEL_BITOFFSET_POS  (6U) /* Value equivalent to POSITION_VAL(ADC_CFGR1_EXTSE
  73:../../dependencies/STM32CubeL0/Drivers/STM32L0xx_HAL_Driver/Inc/stm32l0xx_ll_adc.h **** #define ADC_REG_TRIG_EXTEN_BITOFFSET_POS   (10U) /* Value equivalent to POSITION_VAL(ADC_CFGR1_EXTE
  74:../../dependencies/STM32CubeL0/Drivers/STM32L0xx_HAL_Driver/Inc/stm32l0xx_ll_adc.h **** 
  75:../../dependencies/STM32CubeL0/Drivers/STM32L0xx_HAL_Driver/Inc/stm32l0xx_ll_adc.h **** 
  76:../../dependencies/STM32CubeL0/Drivers/STM32L0xx_HAL_Driver/Inc/stm32l0xx_ll_adc.h **** 
  77:../../dependencies/STM32CubeL0/Drivers/STM32L0xx_HAL_Driver/Inc/stm32l0xx_ll_adc.h **** /* Internal mask for ADC channel:                                             */
  78:../../dependencies/STM32CubeL0/Drivers/STM32L0xx_HAL_Driver/Inc/stm32l0xx_ll_adc.h **** /* To select into literal LL_ADC_CHANNEL_x the relevant bits for:             */
  79:../../dependencies/STM32CubeL0/Drivers/STM32L0xx_HAL_Driver/Inc/stm32l0xx_ll_adc.h **** /* - channel identifier defined by number                                     */
  80:../../dependencies/STM32CubeL0/Drivers/STM32L0xx_HAL_Driver/Inc/stm32l0xx_ll_adc.h **** /* - channel identifier defined by bitfield                                   */
  81:../../dependencies/STM32CubeL0/Drivers/STM32L0xx_HAL_Driver/Inc/stm32l0xx_ll_adc.h **** /* - channel differentiation between external channels (connected to          */
  82:../../dependencies/STM32CubeL0/Drivers/STM32L0xx_HAL_Driver/Inc/stm32l0xx_ll_adc.h **** /*   GPIO pins) and internal channels (connected to internal paths)           */
  83:../../dependencies/STM32CubeL0/Drivers/STM32L0xx_HAL_Driver/Inc/stm32l0xx_ll_adc.h **** #define ADC_CHANNEL_ID_NUMBER_MASK         (ADC_CFGR1_AWDCH)
  84:../../dependencies/STM32CubeL0/Drivers/STM32L0xx_HAL_Driver/Inc/stm32l0xx_ll_adc.h **** #define ADC_CHANNEL_ID_BITFIELD_MASK       (ADC_CHSELR_CHSEL)
  85:../../dependencies/STM32CubeL0/Drivers/STM32L0xx_HAL_Driver/Inc/stm32l0xx_ll_adc.h **** #define ADC_CHANNEL_ID_NUMBER_BITOFFSET_POS (26U)/* Value equivalent to POSITION_VAL(ADC_CHANNEL_ID
  86:../../dependencies/STM32CubeL0/Drivers/STM32L0xx_HAL_Driver/Inc/stm32l0xx_ll_adc.h **** #define ADC_CHANNEL_ID_MASK                (ADC_CHANNEL_ID_NUMBER_MASK | ADC_CHANNEL_ID_BITFIELD_MA
  87:../../dependencies/STM32CubeL0/Drivers/STM32L0xx_HAL_Driver/Inc/stm32l0xx_ll_adc.h **** /* Equivalent mask of ADC_CHANNEL_NUMBER_MASK aligned on register LSB (bit 0) */
  88:../../dependencies/STM32CubeL0/Drivers/STM32L0xx_HAL_Driver/Inc/stm32l0xx_ll_adc.h **** #define ADC_CHANNEL_ID_NUMBER_MASK_POSBIT0 (0x0000001FU) /* Equivalent to shift: (ADC_CHANNEL_NUMBE
  89:../../dependencies/STM32CubeL0/Drivers/STM32L0xx_HAL_Driver/Inc/stm32l0xx_ll_adc.h **** 
  90:../../dependencies/STM32CubeL0/Drivers/STM32L0xx_HAL_Driver/Inc/stm32l0xx_ll_adc.h **** /* Channel differentiation between external and internal channels */
  91:../../dependencies/STM32CubeL0/Drivers/STM32L0xx_HAL_Driver/Inc/stm32l0xx_ll_adc.h **** #define ADC_CHANNEL_ID_INTERNAL_CH         (0x80000000U) /* Marker of internal channel */
  92:../../dependencies/STM32CubeL0/Drivers/STM32L0xx_HAL_Driver/Inc/stm32l0xx_ll_adc.h **** #define ADC_CHANNEL_ID_INTERNAL_CH_MASK    (ADC_CHANNEL_ID_INTERNAL_CH)
  93:../../dependencies/STM32CubeL0/Drivers/STM32L0xx_HAL_Driver/Inc/stm32l0xx_ll_adc.h **** 
  94:../../dependencies/STM32CubeL0/Drivers/STM32L0xx_HAL_Driver/Inc/stm32l0xx_ll_adc.h **** /* Definition of channels ID number information to be inserted into           */
  95:../../dependencies/STM32CubeL0/Drivers/STM32L0xx_HAL_Driver/Inc/stm32l0xx_ll_adc.h **** /* channels literals definition.                                              */
  96:../../dependencies/STM32CubeL0/Drivers/STM32L0xx_HAL_Driver/Inc/stm32l0xx_ll_adc.h **** #define ADC_CHANNEL_0_NUMBER               (0x00000000U)
  97:../../dependencies/STM32CubeL0/Drivers/STM32L0xx_HAL_Driver/Inc/stm32l0xx_ll_adc.h **** #define ADC_CHANNEL_1_NUMBER               (                                                       
  98:../../dependencies/STM32CubeL0/Drivers/STM32L0xx_HAL_Driver/Inc/stm32l0xx_ll_adc.h **** #define ADC_CHANNEL_2_NUMBER               (                                                       
  99:../../dependencies/STM32CubeL0/Drivers/STM32L0xx_HAL_Driver/Inc/stm32l0xx_ll_adc.h **** #define ADC_CHANNEL_3_NUMBER               (                                                       
 100:../../dependencies/STM32CubeL0/Drivers/STM32L0xx_HAL_Driver/Inc/stm32l0xx_ll_adc.h **** #define ADC_CHANNEL_4_NUMBER               (                                        ADC_CFGR1_AWDCH
 101:../../dependencies/STM32CubeL0/Drivers/STM32L0xx_HAL_Driver/Inc/stm32l0xx_ll_adc.h **** #define ADC_CHANNEL_5_NUMBER               (                                        ADC_CFGR1_AWDCH
 102:../../dependencies/STM32CubeL0/Drivers/STM32L0xx_HAL_Driver/Inc/stm32l0xx_ll_adc.h **** #define ADC_CHANNEL_6_NUMBER               (                                        ADC_CFGR1_AWDCH
 103:../../dependencies/STM32CubeL0/Drivers/STM32L0xx_HAL_Driver/Inc/stm32l0xx_ll_adc.h **** #define ADC_CHANNEL_7_NUMBER               (                                        ADC_CFGR1_AWDCH
 104:../../dependencies/STM32CubeL0/Drivers/STM32L0xx_HAL_Driver/Inc/stm32l0xx_ll_adc.h **** #define ADC_CHANNEL_8_NUMBER               (                    ADC_CFGR1_AWDCH_3                  
 105:../../dependencies/STM32CubeL0/Drivers/STM32L0xx_HAL_Driver/Inc/stm32l0xx_ll_adc.h **** #define ADC_CHANNEL_9_NUMBER               (                    ADC_CFGR1_AWDCH_3                  
 106:../../dependencies/STM32CubeL0/Drivers/STM32L0xx_HAL_Driver/Inc/stm32l0xx_ll_adc.h **** #define ADC_CHANNEL_10_NUMBER              (                    ADC_CFGR1_AWDCH_3                  
 107:../../dependencies/STM32CubeL0/Drivers/STM32L0xx_HAL_Driver/Inc/stm32l0xx_ll_adc.h **** #define ADC_CHANNEL_11_NUMBER              (                    ADC_CFGR1_AWDCH_3                  
 108:../../dependencies/STM32CubeL0/Drivers/STM32L0xx_HAL_Driver/Inc/stm32l0xx_ll_adc.h **** #define ADC_CHANNEL_12_NUMBER              (                    ADC_CFGR1_AWDCH_3 | ADC_CFGR1_AWDCH
 109:../../dependencies/STM32CubeL0/Drivers/STM32L0xx_HAL_Driver/Inc/stm32l0xx_ll_adc.h **** #define ADC_CHANNEL_13_NUMBER              (                    ADC_CFGR1_AWDCH_3 | ADC_CFGR1_AWDCH
 110:../../dependencies/STM32CubeL0/Drivers/STM32L0xx_HAL_Driver/Inc/stm32l0xx_ll_adc.h **** #define ADC_CHANNEL_14_NUMBER              (                    ADC_CFGR1_AWDCH_3 | ADC_CFGR1_AWDCH
 111:../../dependencies/STM32CubeL0/Drivers/STM32L0xx_HAL_Driver/Inc/stm32l0xx_ll_adc.h **** #define ADC_CHANNEL_15_NUMBER              (                    ADC_CFGR1_AWDCH_3 | ADC_CFGR1_AWDCH
 112:../../dependencies/STM32CubeL0/Drivers/STM32L0xx_HAL_Driver/Inc/stm32l0xx_ll_adc.h **** #define ADC_CHANNEL_16_NUMBER              (ADC_CFGR1_AWDCH_4                                      
 113:../../dependencies/STM32CubeL0/Drivers/STM32L0xx_HAL_Driver/Inc/stm32l0xx_ll_adc.h **** #define ADC_CHANNEL_17_NUMBER              (ADC_CFGR1_AWDCH_4                                      
 114:../../dependencies/STM32CubeL0/Drivers/STM32L0xx_HAL_Driver/Inc/stm32l0xx_ll_adc.h **** #define ADC_CHANNEL_18_NUMBER              (ADC_CFGR1_AWDCH_4                                      
 115:../../dependencies/STM32CubeL0/Drivers/STM32L0xx_HAL_Driver/Inc/stm32l0xx_ll_adc.h **** 
 116:../../dependencies/STM32CubeL0/Drivers/STM32L0xx_HAL_Driver/Inc/stm32l0xx_ll_adc.h **** /* Definition of channels ID bitfield information to be inserted into         */
 117:../../dependencies/STM32CubeL0/Drivers/STM32L0xx_HAL_Driver/Inc/stm32l0xx_ll_adc.h **** /* channels literals definition.                                              */
 118:../../dependencies/STM32CubeL0/Drivers/STM32L0xx_HAL_Driver/Inc/stm32l0xx_ll_adc.h **** #define ADC_CHANNEL_0_BITFIELD             (ADC_CHSELR_CHSEL0)
 119:../../dependencies/STM32CubeL0/Drivers/STM32L0xx_HAL_Driver/Inc/stm32l0xx_ll_adc.h **** #define ADC_CHANNEL_1_BITFIELD             (ADC_CHSELR_CHSEL1)
 120:../../dependencies/STM32CubeL0/Drivers/STM32L0xx_HAL_Driver/Inc/stm32l0xx_ll_adc.h **** #define ADC_CHANNEL_2_BITFIELD             (ADC_CHSELR_CHSEL2)
 121:../../dependencies/STM32CubeL0/Drivers/STM32L0xx_HAL_Driver/Inc/stm32l0xx_ll_adc.h **** #define ADC_CHANNEL_3_BITFIELD             (ADC_CHSELR_CHSEL3)
 122:../../dependencies/STM32CubeL0/Drivers/STM32L0xx_HAL_Driver/Inc/stm32l0xx_ll_adc.h **** #define ADC_CHANNEL_4_BITFIELD             (ADC_CHSELR_CHSEL4)
 123:../../dependencies/STM32CubeL0/Drivers/STM32L0xx_HAL_Driver/Inc/stm32l0xx_ll_adc.h **** #define ADC_CHANNEL_5_BITFIELD             (ADC_CHSELR_CHSEL5)
 124:../../dependencies/STM32CubeL0/Drivers/STM32L0xx_HAL_Driver/Inc/stm32l0xx_ll_adc.h **** #define ADC_CHANNEL_6_BITFIELD             (ADC_CHSELR_CHSEL6)
 125:../../dependencies/STM32CubeL0/Drivers/STM32L0xx_HAL_Driver/Inc/stm32l0xx_ll_adc.h **** #define ADC_CHANNEL_7_BITFIELD             (ADC_CHSELR_CHSEL7)
 126:../../dependencies/STM32CubeL0/Drivers/STM32L0xx_HAL_Driver/Inc/stm32l0xx_ll_adc.h **** #define ADC_CHANNEL_8_BITFIELD             (ADC_CHSELR_CHSEL8)
 127:../../dependencies/STM32CubeL0/Drivers/STM32L0xx_HAL_Driver/Inc/stm32l0xx_ll_adc.h **** #define ADC_CHANNEL_9_BITFIELD             (ADC_CHSELR_CHSEL9)
 128:../../dependencies/STM32CubeL0/Drivers/STM32L0xx_HAL_Driver/Inc/stm32l0xx_ll_adc.h **** #define ADC_CHANNEL_10_BITFIELD            (ADC_CHSELR_CHSEL10)
ARM GAS  /tmp/cctetIQd.s 			page 23


 129:../../dependencies/STM32CubeL0/Drivers/STM32L0xx_HAL_Driver/Inc/stm32l0xx_ll_adc.h **** #define ADC_CHANNEL_11_BITFIELD            (ADC_CHSELR_CHSEL11)
 130:../../dependencies/STM32CubeL0/Drivers/STM32L0xx_HAL_Driver/Inc/stm32l0xx_ll_adc.h **** #define ADC_CHANNEL_12_BITFIELD            (ADC_CHSELR_CHSEL12)
 131:../../dependencies/STM32CubeL0/Drivers/STM32L0xx_HAL_Driver/Inc/stm32l0xx_ll_adc.h **** #define ADC_CHANNEL_13_BITFIELD            (ADC_CHSELR_CHSEL13)
 132:../../dependencies/STM32CubeL0/Drivers/STM32L0xx_HAL_Driver/Inc/stm32l0xx_ll_adc.h **** #define ADC_CHANNEL_14_BITFIELD            (ADC_CHSELR_CHSEL14)
 133:../../dependencies/STM32CubeL0/Drivers/STM32L0xx_HAL_Driver/Inc/stm32l0xx_ll_adc.h **** #define ADC_CHANNEL_15_BITFIELD            (ADC_CHSELR_CHSEL15)
 134:../../dependencies/STM32CubeL0/Drivers/STM32L0xx_HAL_Driver/Inc/stm32l0xx_ll_adc.h **** #if  defined(ADC_CCR_VLCDEN)
 135:../../dependencies/STM32CubeL0/Drivers/STM32L0xx_HAL_Driver/Inc/stm32l0xx_ll_adc.h **** #define ADC_CHANNEL_16_BITFIELD            (ADC_CHSELR_CHSEL16)
 136:../../dependencies/STM32CubeL0/Drivers/STM32L0xx_HAL_Driver/Inc/stm32l0xx_ll_adc.h **** #endif
 137:../../dependencies/STM32CubeL0/Drivers/STM32L0xx_HAL_Driver/Inc/stm32l0xx_ll_adc.h **** #define ADC_CHANNEL_17_BITFIELD            (ADC_CHSELR_CHSEL17)
 138:../../dependencies/STM32CubeL0/Drivers/STM32L0xx_HAL_Driver/Inc/stm32l0xx_ll_adc.h **** #define ADC_CHANNEL_18_BITFIELD            (ADC_CHSELR_CHSEL18)
 139:../../dependencies/STM32CubeL0/Drivers/STM32L0xx_HAL_Driver/Inc/stm32l0xx_ll_adc.h **** 
 140:../../dependencies/STM32CubeL0/Drivers/STM32L0xx_HAL_Driver/Inc/stm32l0xx_ll_adc.h **** /* Internal mask for ADC analog watchdog:                                     */
 141:../../dependencies/STM32CubeL0/Drivers/STM32L0xx_HAL_Driver/Inc/stm32l0xx_ll_adc.h **** /* To select into literals LL_ADC_AWD_CHANNELx_xxx the relevant bits for:     */
 142:../../dependencies/STM32CubeL0/Drivers/STM32L0xx_HAL_Driver/Inc/stm32l0xx_ll_adc.h **** /* (concatenation of multiple bits used in different analog watchdogs,        */
 143:../../dependencies/STM32CubeL0/Drivers/STM32L0xx_HAL_Driver/Inc/stm32l0xx_ll_adc.h **** /* (feature of several watchdogs not available on all STM32 families)).       */
 144:../../dependencies/STM32CubeL0/Drivers/STM32L0xx_HAL_Driver/Inc/stm32l0xx_ll_adc.h **** /* - analog watchdog 1: monitored channel defined by number,                  */
 145:../../dependencies/STM32CubeL0/Drivers/STM32L0xx_HAL_Driver/Inc/stm32l0xx_ll_adc.h **** /*   selection of ADC group (ADC group regular).                              */
 146:../../dependencies/STM32CubeL0/Drivers/STM32L0xx_HAL_Driver/Inc/stm32l0xx_ll_adc.h **** 
 147:../../dependencies/STM32CubeL0/Drivers/STM32L0xx_HAL_Driver/Inc/stm32l0xx_ll_adc.h **** /* Internal register offset for ADC analog watchdog channel configuration */
 148:../../dependencies/STM32CubeL0/Drivers/STM32L0xx_HAL_Driver/Inc/stm32l0xx_ll_adc.h **** #define ADC_AWD_CR1_REGOFFSET              (0x00000000U)
 149:../../dependencies/STM32CubeL0/Drivers/STM32L0xx_HAL_Driver/Inc/stm32l0xx_ll_adc.h **** 
 150:../../dependencies/STM32CubeL0/Drivers/STM32L0xx_HAL_Driver/Inc/stm32l0xx_ll_adc.h **** #define ADC_AWD_CRX_REGOFFSET_MASK         (ADC_AWD_CR1_REGOFFSET)
 151:../../dependencies/STM32CubeL0/Drivers/STM32L0xx_HAL_Driver/Inc/stm32l0xx_ll_adc.h **** 
 152:../../dependencies/STM32CubeL0/Drivers/STM32L0xx_HAL_Driver/Inc/stm32l0xx_ll_adc.h **** #define ADC_AWD_CR1_CHANNEL_MASK           (ADC_CFGR1_AWDCH | ADC_CFGR1_AWDEN | ADC_CFGR1_AWDSGL)
 153:../../dependencies/STM32CubeL0/Drivers/STM32L0xx_HAL_Driver/Inc/stm32l0xx_ll_adc.h **** #define ADC_AWD_CR_ALL_CHANNEL_MASK        (ADC_AWD_CR1_CHANNEL_MASK)
 154:../../dependencies/STM32CubeL0/Drivers/STM32L0xx_HAL_Driver/Inc/stm32l0xx_ll_adc.h **** 
 155:../../dependencies/STM32CubeL0/Drivers/STM32L0xx_HAL_Driver/Inc/stm32l0xx_ll_adc.h **** /* Internal register offset for ADC analog watchdog threshold configuration */
 156:../../dependencies/STM32CubeL0/Drivers/STM32L0xx_HAL_Driver/Inc/stm32l0xx_ll_adc.h **** #define ADC_AWD_TR1_REGOFFSET              (ADC_AWD_CR1_REGOFFSET)
 157:../../dependencies/STM32CubeL0/Drivers/STM32L0xx_HAL_Driver/Inc/stm32l0xx_ll_adc.h **** #define ADC_AWD_TRX_REGOFFSET_MASK         (ADC_AWD_TR1_REGOFFSET)
 158:../../dependencies/STM32CubeL0/Drivers/STM32L0xx_HAL_Driver/Inc/stm32l0xx_ll_adc.h **** 
 159:../../dependencies/STM32CubeL0/Drivers/STM32L0xx_HAL_Driver/Inc/stm32l0xx_ll_adc.h **** 
 160:../../dependencies/STM32CubeL0/Drivers/STM32L0xx_HAL_Driver/Inc/stm32l0xx_ll_adc.h **** /* ADC registers bits positions */
 161:../../dependencies/STM32CubeL0/Drivers/STM32L0xx_HAL_Driver/Inc/stm32l0xx_ll_adc.h **** #define ADC_CFGR1_RES_BITOFFSET_POS        (3U)  /* Value equivalent to POSITION_VAL(ADC_CFGR1_RES)
 162:../../dependencies/STM32CubeL0/Drivers/STM32L0xx_HAL_Driver/Inc/stm32l0xx_ll_adc.h **** #define ADC_CFGR1_AWDSGL_BITOFFSET_POS     (22U) /* Value equivalent to POSITION_VAL(ADC_CFGR1_AWDS
 163:../../dependencies/STM32CubeL0/Drivers/STM32L0xx_HAL_Driver/Inc/stm32l0xx_ll_adc.h **** #define ADC_TR_HT_BITOFFSET_POS            (16U) /* Value equivalent to POSITION_VAL(ADC_TR_HT) */
 164:../../dependencies/STM32CubeL0/Drivers/STM32L0xx_HAL_Driver/Inc/stm32l0xx_ll_adc.h **** #define ADC_CHSELR_CHSEL0_BITOFFSET_POS    (0U)  /* Value equivalent to POSITION_VAL(ADC_CHSELR_CHS
 165:../../dependencies/STM32CubeL0/Drivers/STM32L0xx_HAL_Driver/Inc/stm32l0xx_ll_adc.h **** #define ADC_CHSELR_CHSEL1_BITOFFSET_POS    (1U)  /* Value equivalent to POSITION_VAL(ADC_CHSELR_CHS
 166:../../dependencies/STM32CubeL0/Drivers/STM32L0xx_HAL_Driver/Inc/stm32l0xx_ll_adc.h **** #define ADC_CHSELR_CHSEL2_BITOFFSET_POS    (2U)  /* Value equivalent to POSITION_VAL(ADC_CHSELR_CHS
 167:../../dependencies/STM32CubeL0/Drivers/STM32L0xx_HAL_Driver/Inc/stm32l0xx_ll_adc.h **** #define ADC_CHSELR_CHSEL3_BITOFFSET_POS    (3U)  /* Value equivalent to POSITION_VAL(ADC_CHSELR_CHS
 168:../../dependencies/STM32CubeL0/Drivers/STM32L0xx_HAL_Driver/Inc/stm32l0xx_ll_adc.h **** #define ADC_CHSELR_CHSEL4_BITOFFSET_POS    (4U)  /* Value equivalent to POSITION_VAL(ADC_CHSELR_CHS
 169:../../dependencies/STM32CubeL0/Drivers/STM32L0xx_HAL_Driver/Inc/stm32l0xx_ll_adc.h **** #define ADC_CHSELR_CHSEL5_BITOFFSET_POS    (5U)  /* Value equivalent to POSITION_VAL(ADC_CHSELR_CHS
 170:../../dependencies/STM32CubeL0/Drivers/STM32L0xx_HAL_Driver/Inc/stm32l0xx_ll_adc.h **** #define ADC_CHSELR_CHSEL6_BITOFFSET_POS    (6U)  /* Value equivalent to POSITION_VAL(ADC_CHSELR_CHS
 171:../../dependencies/STM32CubeL0/Drivers/STM32L0xx_HAL_Driver/Inc/stm32l0xx_ll_adc.h **** #define ADC_CHSELR_CHSEL7_BITOFFSET_POS    (7U)  /* Value equivalent to POSITION_VAL(ADC_CHSELR_CHS
 172:../../dependencies/STM32CubeL0/Drivers/STM32L0xx_HAL_Driver/Inc/stm32l0xx_ll_adc.h **** #define ADC_CHSELR_CHSEL8_BITOFFSET_POS    (8U)  /* Value equivalent to POSITION_VAL(ADC_CHSELR_CHS
 173:../../dependencies/STM32CubeL0/Drivers/STM32L0xx_HAL_Driver/Inc/stm32l0xx_ll_adc.h **** #define ADC_CHSELR_CHSEL9_BITOFFSET_POS    (9U)  /* Value equivalent to POSITION_VAL(ADC_CHSELR_CHS
 174:../../dependencies/STM32CubeL0/Drivers/STM32L0xx_HAL_Driver/Inc/stm32l0xx_ll_adc.h **** #define ADC_CHSELR_CHSEL10_BITOFFSET_POS   (10U) /* Value equivalent to POSITION_VAL(ADC_CHSELR_CHS
 175:../../dependencies/STM32CubeL0/Drivers/STM32L0xx_HAL_Driver/Inc/stm32l0xx_ll_adc.h **** #define ADC_CHSELR_CHSEL11_BITOFFSET_POS   (11U) /* Value equivalent to POSITION_VAL(ADC_CHSELR_CHS
 176:../../dependencies/STM32CubeL0/Drivers/STM32L0xx_HAL_Driver/Inc/stm32l0xx_ll_adc.h **** #define ADC_CHSELR_CHSEL12_BITOFFSET_POS   (12U) /* Value equivalent to POSITION_VAL(ADC_CHSELR_CHS
 177:../../dependencies/STM32CubeL0/Drivers/STM32L0xx_HAL_Driver/Inc/stm32l0xx_ll_adc.h **** #define ADC_CHSELR_CHSEL13_BITOFFSET_POS   (13U) /* Value equivalent to POSITION_VAL(ADC_CHSELR_CHS
 178:../../dependencies/STM32CubeL0/Drivers/STM32L0xx_HAL_Driver/Inc/stm32l0xx_ll_adc.h **** #define ADC_CHSELR_CHSEL14_BITOFFSET_POS   (14U) /* Value equivalent to POSITION_VAL(ADC_CHSELR_CHS
 179:../../dependencies/STM32CubeL0/Drivers/STM32L0xx_HAL_Driver/Inc/stm32l0xx_ll_adc.h **** #define ADC_CHSELR_CHSEL15_BITOFFSET_POS   (15U) /* Value equivalent to POSITION_VAL(ADC_CHSELR_CHS
 180:../../dependencies/STM32CubeL0/Drivers/STM32L0xx_HAL_Driver/Inc/stm32l0xx_ll_adc.h **** #if  defined(ADC_CCR_VLCDEN)
 181:../../dependencies/STM32CubeL0/Drivers/STM32L0xx_HAL_Driver/Inc/stm32l0xx_ll_adc.h **** #define ADC_CHSELR_CHSEL16_BITOFFSET_POS   (16U) /* Value equivalent to POSITION_VAL(ADC_CHSELR_CHS
 182:../../dependencies/STM32CubeL0/Drivers/STM32L0xx_HAL_Driver/Inc/stm32l0xx_ll_adc.h **** #endif
 183:../../dependencies/STM32CubeL0/Drivers/STM32L0xx_HAL_Driver/Inc/stm32l0xx_ll_adc.h **** #define ADC_CHSELR_CHSEL17_BITOFFSET_POS   (17U) /* Value equivalent to POSITION_VAL(ADC_CHSELR_CHS
 184:../../dependencies/STM32CubeL0/Drivers/STM32L0xx_HAL_Driver/Inc/stm32l0xx_ll_adc.h **** #define ADC_CHSELR_CHSEL18_BITOFFSET_POS   (18U) /* Value equivalent to POSITION_VAL(ADC_CHSELR_CHS
 185:../../dependencies/STM32CubeL0/Drivers/STM32L0xx_HAL_Driver/Inc/stm32l0xx_ll_adc.h **** 
ARM GAS  /tmp/cctetIQd.s 			page 24


 186:../../dependencies/STM32CubeL0/Drivers/STM32L0xx_HAL_Driver/Inc/stm32l0xx_ll_adc.h **** 
 187:../../dependencies/STM32CubeL0/Drivers/STM32L0xx_HAL_Driver/Inc/stm32l0xx_ll_adc.h **** /* ADC registers bits groups */
 188:../../dependencies/STM32CubeL0/Drivers/STM32L0xx_HAL_Driver/Inc/stm32l0xx_ll_adc.h **** #define ADC_CR_BITS_PROPERTY_RS            (ADC_CR_ADCAL | ADC_CR_ADSTP | ADC_CR_ADSTART | ADC_CR_A
 189:../../dependencies/STM32CubeL0/Drivers/STM32L0xx_HAL_Driver/Inc/stm32l0xx_ll_adc.h **** 
 190:../../dependencies/STM32CubeL0/Drivers/STM32L0xx_HAL_Driver/Inc/stm32l0xx_ll_adc.h **** 
 191:../../dependencies/STM32CubeL0/Drivers/STM32L0xx_HAL_Driver/Inc/stm32l0xx_ll_adc.h **** /* ADC internal channels related definitions */
 192:../../dependencies/STM32CubeL0/Drivers/STM32L0xx_HAL_Driver/Inc/stm32l0xx_ll_adc.h **** /* Internal voltage reference VrefInt */
 193:../../dependencies/STM32CubeL0/Drivers/STM32L0xx_HAL_Driver/Inc/stm32l0xx_ll_adc.h **** #define VREFINT_CAL_ADDR                   ((uint16_t*) (0x1FF80078U)) /* Internal voltage referenc
 194:../../dependencies/STM32CubeL0/Drivers/STM32L0xx_HAL_Driver/Inc/stm32l0xx_ll_adc.h **** #define VREFINT_CAL_VREF                   (3000U)                     /* Analog voltage reference 
 195:../../dependencies/STM32CubeL0/Drivers/STM32L0xx_HAL_Driver/Inc/stm32l0xx_ll_adc.h **** /* Temperature sensor */
 196:../../dependencies/STM32CubeL0/Drivers/STM32L0xx_HAL_Driver/Inc/stm32l0xx_ll_adc.h **** /* Note: On device STM32L011, calibration parameter TS_CAL1 is not available. */
 197:../../dependencies/STM32CubeL0/Drivers/STM32L0xx_HAL_Driver/Inc/stm32l0xx_ll_adc.h **** #if !defined(STM32L011xx)
 198:../../dependencies/STM32CubeL0/Drivers/STM32L0xx_HAL_Driver/Inc/stm32l0xx_ll_adc.h **** #define TEMPSENSOR_CAL1_ADDR               ((uint16_t*) (0x1FF8007AU)) /* Internal temperature sens
 199:../../dependencies/STM32CubeL0/Drivers/STM32L0xx_HAL_Driver/Inc/stm32l0xx_ll_adc.h **** #endif
 200:../../dependencies/STM32CubeL0/Drivers/STM32L0xx_HAL_Driver/Inc/stm32l0xx_ll_adc.h **** #define TEMPSENSOR_CAL2_ADDR               ((uint16_t*) (0x1FF8007EU)) /* Internal temperature sens
 201:../../dependencies/STM32CubeL0/Drivers/STM32L0xx_HAL_Driver/Inc/stm32l0xx_ll_adc.h **** #if !defined(STM32L011xx)
 202:../../dependencies/STM32CubeL0/Drivers/STM32L0xx_HAL_Driver/Inc/stm32l0xx_ll_adc.h **** #define TEMPSENSOR_CAL1_TEMP               (30U)                       /* Internal temperature sens
 203:../../dependencies/STM32CubeL0/Drivers/STM32L0xx_HAL_Driver/Inc/stm32l0xx_ll_adc.h **** #endif
 204:../../dependencies/STM32CubeL0/Drivers/STM32L0xx_HAL_Driver/Inc/stm32l0xx_ll_adc.h **** #define TEMPSENSOR_CAL2_TEMP               (130U)                      /* Internal temperature sens
 205:../../dependencies/STM32CubeL0/Drivers/STM32L0xx_HAL_Driver/Inc/stm32l0xx_ll_adc.h **** #define TEMPSENSOR_CAL_VREFANALOG          (3000U)                     /* Analog voltage reference 
 206:../../dependencies/STM32CubeL0/Drivers/STM32L0xx_HAL_Driver/Inc/stm32l0xx_ll_adc.h **** 
 207:../../dependencies/STM32CubeL0/Drivers/STM32L0xx_HAL_Driver/Inc/stm32l0xx_ll_adc.h **** 
 208:../../dependencies/STM32CubeL0/Drivers/STM32L0xx_HAL_Driver/Inc/stm32l0xx_ll_adc.h **** /**
 209:../../dependencies/STM32CubeL0/Drivers/STM32L0xx_HAL_Driver/Inc/stm32l0xx_ll_adc.h ****   * @}
 210:../../dependencies/STM32CubeL0/Drivers/STM32L0xx_HAL_Driver/Inc/stm32l0xx_ll_adc.h ****   */
 211:../../dependencies/STM32CubeL0/Drivers/STM32L0xx_HAL_Driver/Inc/stm32l0xx_ll_adc.h **** 
 212:../../dependencies/STM32CubeL0/Drivers/STM32L0xx_HAL_Driver/Inc/stm32l0xx_ll_adc.h **** 
 213:../../dependencies/STM32CubeL0/Drivers/STM32L0xx_HAL_Driver/Inc/stm32l0xx_ll_adc.h **** #if  defined(USE_FULL_LL_DRIVER)
 214:../../dependencies/STM32CubeL0/Drivers/STM32L0xx_HAL_Driver/Inc/stm32l0xx_ll_adc.h **** /* Private macros ------------------------------------------------------------*/
 215:../../dependencies/STM32CubeL0/Drivers/STM32L0xx_HAL_Driver/Inc/stm32l0xx_ll_adc.h **** /** @defgroup ADC_LL_Private_Macros ADC Private Macros
 216:../../dependencies/STM32CubeL0/Drivers/STM32L0xx_HAL_Driver/Inc/stm32l0xx_ll_adc.h ****   * @{
 217:../../dependencies/STM32CubeL0/Drivers/STM32L0xx_HAL_Driver/Inc/stm32l0xx_ll_adc.h ****   */
 218:../../dependencies/STM32CubeL0/Drivers/STM32L0xx_HAL_Driver/Inc/stm32l0xx_ll_adc.h **** 
 219:../../dependencies/STM32CubeL0/Drivers/STM32L0xx_HAL_Driver/Inc/stm32l0xx_ll_adc.h **** 
 220:../../dependencies/STM32CubeL0/Drivers/STM32L0xx_HAL_Driver/Inc/stm32l0xx_ll_adc.h **** /**
 221:../../dependencies/STM32CubeL0/Drivers/STM32L0xx_HAL_Driver/Inc/stm32l0xx_ll_adc.h ****   * @}
 222:../../dependencies/STM32CubeL0/Drivers/STM32L0xx_HAL_Driver/Inc/stm32l0xx_ll_adc.h ****   */
 223:../../dependencies/STM32CubeL0/Drivers/STM32L0xx_HAL_Driver/Inc/stm32l0xx_ll_adc.h **** 
 224:../../dependencies/STM32CubeL0/Drivers/STM32L0xx_HAL_Driver/Inc/stm32l0xx_ll_adc.h **** #endif
 225:../../dependencies/STM32CubeL0/Drivers/STM32L0xx_HAL_Driver/Inc/stm32l0xx_ll_adc.h **** 
 226:../../dependencies/STM32CubeL0/Drivers/STM32L0xx_HAL_Driver/Inc/stm32l0xx_ll_adc.h **** /* Exported types ------------------------------------------------------------*/
 227:../../dependencies/STM32CubeL0/Drivers/STM32L0xx_HAL_Driver/Inc/stm32l0xx_ll_adc.h **** #if defined(USE_FULL_LL_DRIVER)
 228:../../dependencies/STM32CubeL0/Drivers/STM32L0xx_HAL_Driver/Inc/stm32l0xx_ll_adc.h **** /** @defgroup ADC_LL_ES_INIT ADC Exported Init structure
 229:../../dependencies/STM32CubeL0/Drivers/STM32L0xx_HAL_Driver/Inc/stm32l0xx_ll_adc.h ****   * @{
 230:../../dependencies/STM32CubeL0/Drivers/STM32L0xx_HAL_Driver/Inc/stm32l0xx_ll_adc.h ****   */
 231:../../dependencies/STM32CubeL0/Drivers/STM32L0xx_HAL_Driver/Inc/stm32l0xx_ll_adc.h **** 
 232:../../dependencies/STM32CubeL0/Drivers/STM32L0xx_HAL_Driver/Inc/stm32l0xx_ll_adc.h **** /**
 233:../../dependencies/STM32CubeL0/Drivers/STM32L0xx_HAL_Driver/Inc/stm32l0xx_ll_adc.h ****   * @brief  Structure definition of some features of ADC common parameters
 234:../../dependencies/STM32CubeL0/Drivers/STM32L0xx_HAL_Driver/Inc/stm32l0xx_ll_adc.h ****   *         and multimode
 235:../../dependencies/STM32CubeL0/Drivers/STM32L0xx_HAL_Driver/Inc/stm32l0xx_ll_adc.h ****   *         (all ADC instances belonging to the same ADC common instance).
 236:../../dependencies/STM32CubeL0/Drivers/STM32L0xx_HAL_Driver/Inc/stm32l0xx_ll_adc.h ****   * @note   The setting of these parameters by function @ref LL_ADC_CommonInit()
 237:../../dependencies/STM32CubeL0/Drivers/STM32L0xx_HAL_Driver/Inc/stm32l0xx_ll_adc.h ****   *         is conditioned to ADC instances state (all ADC instances
 238:../../dependencies/STM32CubeL0/Drivers/STM32L0xx_HAL_Driver/Inc/stm32l0xx_ll_adc.h ****   *         sharing the same ADC common instance):
 239:../../dependencies/STM32CubeL0/Drivers/STM32L0xx_HAL_Driver/Inc/stm32l0xx_ll_adc.h ****   *         All ADC instances sharing the same ADC common instance must be
 240:../../dependencies/STM32CubeL0/Drivers/STM32L0xx_HAL_Driver/Inc/stm32l0xx_ll_adc.h ****   *         disabled.
 241:../../dependencies/STM32CubeL0/Drivers/STM32L0xx_HAL_Driver/Inc/stm32l0xx_ll_adc.h ****   */
 242:../../dependencies/STM32CubeL0/Drivers/STM32L0xx_HAL_Driver/Inc/stm32l0xx_ll_adc.h **** typedef struct
ARM GAS  /tmp/cctetIQd.s 			page 25


 243:../../dependencies/STM32CubeL0/Drivers/STM32L0xx_HAL_Driver/Inc/stm32l0xx_ll_adc.h **** {
 244:../../dependencies/STM32CubeL0/Drivers/STM32L0xx_HAL_Driver/Inc/stm32l0xx_ll_adc.h ****   uint32_t CommonClock;                 /*!< Set parameter common to several ADC: Clock source and 
 245:../../dependencies/STM32CubeL0/Drivers/STM32L0xx_HAL_Driver/Inc/stm32l0xx_ll_adc.h ****                                              This parameter can be a value of @ref ADC_LL_EC_COMMON
 246:../../dependencies/STM32CubeL0/Drivers/STM32L0xx_HAL_Driver/Inc/stm32l0xx_ll_adc.h ****                                              
 247:../../dependencies/STM32CubeL0/Drivers/STM32L0xx_HAL_Driver/Inc/stm32l0xx_ll_adc.h ****                                              This feature can be modified afterwards using unitary 
 248:../../dependencies/STM32CubeL0/Drivers/STM32L0xx_HAL_Driver/Inc/stm32l0xx_ll_adc.h **** 
 249:../../dependencies/STM32CubeL0/Drivers/STM32L0xx_HAL_Driver/Inc/stm32l0xx_ll_adc.h **** } LL_ADC_CommonInitTypeDef;
 250:../../dependencies/STM32CubeL0/Drivers/STM32L0xx_HAL_Driver/Inc/stm32l0xx_ll_adc.h **** 
 251:../../dependencies/STM32CubeL0/Drivers/STM32L0xx_HAL_Driver/Inc/stm32l0xx_ll_adc.h **** /**
 252:../../dependencies/STM32CubeL0/Drivers/STM32L0xx_HAL_Driver/Inc/stm32l0xx_ll_adc.h ****   * @brief  Structure definition of some features of ADC instance.
 253:../../dependencies/STM32CubeL0/Drivers/STM32L0xx_HAL_Driver/Inc/stm32l0xx_ll_adc.h ****   * @note   These parameters have an impact on ADC scope: ADC instance.
 254:../../dependencies/STM32CubeL0/Drivers/STM32L0xx_HAL_Driver/Inc/stm32l0xx_ll_adc.h ****   *         Refer to corresponding unitary functions into
 255:../../dependencies/STM32CubeL0/Drivers/STM32L0xx_HAL_Driver/Inc/stm32l0xx_ll_adc.h ****   *         @ref ADC_LL_EF_Configuration_ADC_Instance .
 256:../../dependencies/STM32CubeL0/Drivers/STM32L0xx_HAL_Driver/Inc/stm32l0xx_ll_adc.h ****   * @note   The setting of these parameters by function @ref LL_ADC_Init()
 257:../../dependencies/STM32CubeL0/Drivers/STM32L0xx_HAL_Driver/Inc/stm32l0xx_ll_adc.h ****   *         is conditioned to ADC state:
 258:../../dependencies/STM32CubeL0/Drivers/STM32L0xx_HAL_Driver/Inc/stm32l0xx_ll_adc.h ****   *         ADC instance must be disabled.
 259:../../dependencies/STM32CubeL0/Drivers/STM32L0xx_HAL_Driver/Inc/stm32l0xx_ll_adc.h ****   *         This condition is applied to all ADC features, for efficiency
 260:../../dependencies/STM32CubeL0/Drivers/STM32L0xx_HAL_Driver/Inc/stm32l0xx_ll_adc.h ****   *         and compatibility over all STM32 families. However, the different
 261:../../dependencies/STM32CubeL0/Drivers/STM32L0xx_HAL_Driver/Inc/stm32l0xx_ll_adc.h ****   *         features can be set under different ADC state conditions
 262:../../dependencies/STM32CubeL0/Drivers/STM32L0xx_HAL_Driver/Inc/stm32l0xx_ll_adc.h ****   *         (setting possible with ADC enabled without conversion on going,
 263:../../dependencies/STM32CubeL0/Drivers/STM32L0xx_HAL_Driver/Inc/stm32l0xx_ll_adc.h ****   *         ADC enabled with conversion on going, ...)
 264:../../dependencies/STM32CubeL0/Drivers/STM32L0xx_HAL_Driver/Inc/stm32l0xx_ll_adc.h ****   *         Each feature can be updated afterwards with a unitary function
 265:../../dependencies/STM32CubeL0/Drivers/STM32L0xx_HAL_Driver/Inc/stm32l0xx_ll_adc.h ****   *         and potentially with ADC in a different state than disabled,
 266:../../dependencies/STM32CubeL0/Drivers/STM32L0xx_HAL_Driver/Inc/stm32l0xx_ll_adc.h ****   *         refer to description of each function for setting
 267:../../dependencies/STM32CubeL0/Drivers/STM32L0xx_HAL_Driver/Inc/stm32l0xx_ll_adc.h ****   *         conditioned to ADC state.
 268:../../dependencies/STM32CubeL0/Drivers/STM32L0xx_HAL_Driver/Inc/stm32l0xx_ll_adc.h ****   */
 269:../../dependencies/STM32CubeL0/Drivers/STM32L0xx_HAL_Driver/Inc/stm32l0xx_ll_adc.h **** typedef struct
 270:../../dependencies/STM32CubeL0/Drivers/STM32L0xx_HAL_Driver/Inc/stm32l0xx_ll_adc.h **** {
 271:../../dependencies/STM32CubeL0/Drivers/STM32L0xx_HAL_Driver/Inc/stm32l0xx_ll_adc.h ****   uint32_t Clock;                       /*!< Set ADC instance clock source and prescaler.
 272:../../dependencies/STM32CubeL0/Drivers/STM32L0xx_HAL_Driver/Inc/stm32l0xx_ll_adc.h ****                                              This parameter can be a value of @ref ADC_LL_EC_CLOCK_
 273:../../dependencies/STM32CubeL0/Drivers/STM32L0xx_HAL_Driver/Inc/stm32l0xx_ll_adc.h ****                                              @note On this STM32 serie, this parameter has some clo
 274:../../dependencies/STM32CubeL0/Drivers/STM32L0xx_HAL_Driver/Inc/stm32l0xx_ll_adc.h ****                                                    ADC clock synchronous (from PCLK) with prescaler
 275:../../dependencies/STM32CubeL0/Drivers/STM32L0xx_HAL_Driver/Inc/stm32l0xx_ll_adc.h ****                                                    (APB prescaler configured inside the RCC must be
 276:../../dependencies/STM32CubeL0/Drivers/STM32L0xx_HAL_Driver/Inc/stm32l0xx_ll_adc.h ****                                              
 277:../../dependencies/STM32CubeL0/Drivers/STM32L0xx_HAL_Driver/Inc/stm32l0xx_ll_adc.h ****                                              
 278:../../dependencies/STM32CubeL0/Drivers/STM32L0xx_HAL_Driver/Inc/stm32l0xx_ll_adc.h ****                                              This feature can be modified afterwards using unitary 
 279:../../dependencies/STM32CubeL0/Drivers/STM32L0xx_HAL_Driver/Inc/stm32l0xx_ll_adc.h ****                                              For more details, refer to description of this functio
 280:../../dependencies/STM32CubeL0/Drivers/STM32L0xx_HAL_Driver/Inc/stm32l0xx_ll_adc.h **** 
 281:../../dependencies/STM32CubeL0/Drivers/STM32L0xx_HAL_Driver/Inc/stm32l0xx_ll_adc.h ****   uint32_t Resolution;                  /*!< Set ADC resolution.
 282:../../dependencies/STM32CubeL0/Drivers/STM32L0xx_HAL_Driver/Inc/stm32l0xx_ll_adc.h ****                                              This parameter can be a value of @ref ADC_LL_EC_RESOLU
 283:../../dependencies/STM32CubeL0/Drivers/STM32L0xx_HAL_Driver/Inc/stm32l0xx_ll_adc.h ****                                              
 284:../../dependencies/STM32CubeL0/Drivers/STM32L0xx_HAL_Driver/Inc/stm32l0xx_ll_adc.h ****                                              This feature can be modified afterwards using unitary 
 285:../../dependencies/STM32CubeL0/Drivers/STM32L0xx_HAL_Driver/Inc/stm32l0xx_ll_adc.h **** 
 286:../../dependencies/STM32CubeL0/Drivers/STM32L0xx_HAL_Driver/Inc/stm32l0xx_ll_adc.h ****   uint32_t DataAlignment;               /*!< Set ADC conversion data alignment.
 287:../../dependencies/STM32CubeL0/Drivers/STM32L0xx_HAL_Driver/Inc/stm32l0xx_ll_adc.h ****                                              This parameter can be a value of @ref ADC_LL_EC_DATA_A
 288:../../dependencies/STM32CubeL0/Drivers/STM32L0xx_HAL_Driver/Inc/stm32l0xx_ll_adc.h ****                                              
 289:../../dependencies/STM32CubeL0/Drivers/STM32L0xx_HAL_Driver/Inc/stm32l0xx_ll_adc.h ****                                              This feature can be modified afterwards using unitary 
 290:../../dependencies/STM32CubeL0/Drivers/STM32L0xx_HAL_Driver/Inc/stm32l0xx_ll_adc.h **** 
 291:../../dependencies/STM32CubeL0/Drivers/STM32L0xx_HAL_Driver/Inc/stm32l0xx_ll_adc.h ****   uint32_t LowPowerMode;                /*!< Set ADC low power mode.
 292:../../dependencies/STM32CubeL0/Drivers/STM32L0xx_HAL_Driver/Inc/stm32l0xx_ll_adc.h ****                                              This parameter can be a value of @ref ADC_LL_EC_LP_MOD
 293:../../dependencies/STM32CubeL0/Drivers/STM32L0xx_HAL_Driver/Inc/stm32l0xx_ll_adc.h ****                                              
 294:../../dependencies/STM32CubeL0/Drivers/STM32L0xx_HAL_Driver/Inc/stm32l0xx_ll_adc.h ****                                              This feature can be modified afterwards using unitary 
 295:../../dependencies/STM32CubeL0/Drivers/STM32L0xx_HAL_Driver/Inc/stm32l0xx_ll_adc.h **** 
 296:../../dependencies/STM32CubeL0/Drivers/STM32L0xx_HAL_Driver/Inc/stm32l0xx_ll_adc.h **** } LL_ADC_InitTypeDef;
 297:../../dependencies/STM32CubeL0/Drivers/STM32L0xx_HAL_Driver/Inc/stm32l0xx_ll_adc.h **** 
 298:../../dependencies/STM32CubeL0/Drivers/STM32L0xx_HAL_Driver/Inc/stm32l0xx_ll_adc.h **** /**
 299:../../dependencies/STM32CubeL0/Drivers/STM32L0xx_HAL_Driver/Inc/stm32l0xx_ll_adc.h ****   * @brief  Structure definition of some features of ADC group regular.
ARM GAS  /tmp/cctetIQd.s 			page 26


 300:../../dependencies/STM32CubeL0/Drivers/STM32L0xx_HAL_Driver/Inc/stm32l0xx_ll_adc.h ****   * @note   These parameters have an impact on ADC scope: ADC group regular.
 301:../../dependencies/STM32CubeL0/Drivers/STM32L0xx_HAL_Driver/Inc/stm32l0xx_ll_adc.h ****   *         Refer to corresponding unitary functions into
 302:../../dependencies/STM32CubeL0/Drivers/STM32L0xx_HAL_Driver/Inc/stm32l0xx_ll_adc.h ****   *         @ref ADC_LL_EF_Configuration_ADC_Group_Regular
 303:../../dependencies/STM32CubeL0/Drivers/STM32L0xx_HAL_Driver/Inc/stm32l0xx_ll_adc.h ****   *         (functions with prefix "REG").
 304:../../dependencies/STM32CubeL0/Drivers/STM32L0xx_HAL_Driver/Inc/stm32l0xx_ll_adc.h ****   * @note   The setting of these parameters by function @ref LL_ADC_REG_Init()
 305:../../dependencies/STM32CubeL0/Drivers/STM32L0xx_HAL_Driver/Inc/stm32l0xx_ll_adc.h ****   *         is conditioned to ADC state:
 306:../../dependencies/STM32CubeL0/Drivers/STM32L0xx_HAL_Driver/Inc/stm32l0xx_ll_adc.h ****   *         ADC instance must be disabled.
 307:../../dependencies/STM32CubeL0/Drivers/STM32L0xx_HAL_Driver/Inc/stm32l0xx_ll_adc.h ****   *         This condition is applied to all ADC features, for efficiency
 308:../../dependencies/STM32CubeL0/Drivers/STM32L0xx_HAL_Driver/Inc/stm32l0xx_ll_adc.h ****   *         and compatibility over all STM32 families. However, the different
 309:../../dependencies/STM32CubeL0/Drivers/STM32L0xx_HAL_Driver/Inc/stm32l0xx_ll_adc.h ****   *         features can be set under different ADC state conditions
 310:../../dependencies/STM32CubeL0/Drivers/STM32L0xx_HAL_Driver/Inc/stm32l0xx_ll_adc.h ****   *         (setting possible with ADC enabled without conversion on going,
 311:../../dependencies/STM32CubeL0/Drivers/STM32L0xx_HAL_Driver/Inc/stm32l0xx_ll_adc.h ****   *         ADC enabled with conversion on going, ...)
 312:../../dependencies/STM32CubeL0/Drivers/STM32L0xx_HAL_Driver/Inc/stm32l0xx_ll_adc.h ****   *         Each feature can be updated afterwards with a unitary function
 313:../../dependencies/STM32CubeL0/Drivers/STM32L0xx_HAL_Driver/Inc/stm32l0xx_ll_adc.h ****   *         and potentially with ADC in a different state than disabled,
 314:../../dependencies/STM32CubeL0/Drivers/STM32L0xx_HAL_Driver/Inc/stm32l0xx_ll_adc.h ****   *         refer to description of each function for setting
 315:../../dependencies/STM32CubeL0/Drivers/STM32L0xx_HAL_Driver/Inc/stm32l0xx_ll_adc.h ****   *         conditioned to ADC state.
 316:../../dependencies/STM32CubeL0/Drivers/STM32L0xx_HAL_Driver/Inc/stm32l0xx_ll_adc.h ****   */
 317:../../dependencies/STM32CubeL0/Drivers/STM32L0xx_HAL_Driver/Inc/stm32l0xx_ll_adc.h **** typedef struct
 318:../../dependencies/STM32CubeL0/Drivers/STM32L0xx_HAL_Driver/Inc/stm32l0xx_ll_adc.h **** {
 319:../../dependencies/STM32CubeL0/Drivers/STM32L0xx_HAL_Driver/Inc/stm32l0xx_ll_adc.h ****   uint32_t TriggerSource;               /*!< Set ADC group regular conversion trigger source: inter
 320:../../dependencies/STM32CubeL0/Drivers/STM32L0xx_HAL_Driver/Inc/stm32l0xx_ll_adc.h ****                                              This parameter can be a value of @ref ADC_LL_EC_REG_TR
 321:../../dependencies/STM32CubeL0/Drivers/STM32L0xx_HAL_Driver/Inc/stm32l0xx_ll_adc.h ****                                              @note On this STM32 serie, setting trigger source to e
 322:../../dependencies/STM32CubeL0/Drivers/STM32L0xx_HAL_Driver/Inc/stm32l0xx_ll_adc.h ****                                                    (default setting for compatibility with some ADC
 323:../../dependencies/STM32CubeL0/Drivers/STM32L0xx_HAL_Driver/Inc/stm32l0xx_ll_adc.h ****                                                    In case of need to modify trigger edge, use func
 324:../../dependencies/STM32CubeL0/Drivers/STM32L0xx_HAL_Driver/Inc/stm32l0xx_ll_adc.h ****                                              
 325:../../dependencies/STM32CubeL0/Drivers/STM32L0xx_HAL_Driver/Inc/stm32l0xx_ll_adc.h ****                                              This feature can be modified afterwards using unitary 
 326:../../dependencies/STM32CubeL0/Drivers/STM32L0xx_HAL_Driver/Inc/stm32l0xx_ll_adc.h **** 
 327:../../dependencies/STM32CubeL0/Drivers/STM32L0xx_HAL_Driver/Inc/stm32l0xx_ll_adc.h ****   uint32_t SequencerDiscont;            /*!< Set ADC group regular sequencer discontinuous mode: se
 328:../../dependencies/STM32CubeL0/Drivers/STM32L0xx_HAL_Driver/Inc/stm32l0xx_ll_adc.h ****                                              This parameter can be a value of @ref ADC_LL_EC_REG_SE
 329:../../dependencies/STM32CubeL0/Drivers/STM32L0xx_HAL_Driver/Inc/stm32l0xx_ll_adc.h ****                                              @note This parameter has an effect only if group regul
 330:../../dependencies/STM32CubeL0/Drivers/STM32L0xx_HAL_Driver/Inc/stm32l0xx_ll_adc.h ****                                                    (several ADC channels enabled in group regular s
 331:../../dependencies/STM32CubeL0/Drivers/STM32L0xx_HAL_Driver/Inc/stm32l0xx_ll_adc.h ****                                              
 332:../../dependencies/STM32CubeL0/Drivers/STM32L0xx_HAL_Driver/Inc/stm32l0xx_ll_adc.h ****                                              This feature can be modified afterwards using unitary 
 333:../../dependencies/STM32CubeL0/Drivers/STM32L0xx_HAL_Driver/Inc/stm32l0xx_ll_adc.h **** 
 334:../../dependencies/STM32CubeL0/Drivers/STM32L0xx_HAL_Driver/Inc/stm32l0xx_ll_adc.h ****   uint32_t ContinuousMode;              /*!< Set ADC continuous conversion mode on ADC group regula
 335:../../dependencies/STM32CubeL0/Drivers/STM32L0xx_HAL_Driver/Inc/stm32l0xx_ll_adc.h ****                                              This parameter can be a value of @ref ADC_LL_EC_REG_CO
 336:../../dependencies/STM32CubeL0/Drivers/STM32L0xx_HAL_Driver/Inc/stm32l0xx_ll_adc.h ****                                              Note: It is not possible to enable both ADC group regu
 337:../../dependencies/STM32CubeL0/Drivers/STM32L0xx_HAL_Driver/Inc/stm32l0xx_ll_adc.h ****                                              
 338:../../dependencies/STM32CubeL0/Drivers/STM32L0xx_HAL_Driver/Inc/stm32l0xx_ll_adc.h ****                                              This feature can be modified afterwards using unitary 
 339:../../dependencies/STM32CubeL0/Drivers/STM32L0xx_HAL_Driver/Inc/stm32l0xx_ll_adc.h **** 
 340:../../dependencies/STM32CubeL0/Drivers/STM32L0xx_HAL_Driver/Inc/stm32l0xx_ll_adc.h ****   uint32_t DMATransfer;                 /*!< Set ADC group regular conversion data transfer: no tra
 341:../../dependencies/STM32CubeL0/Drivers/STM32L0xx_HAL_Driver/Inc/stm32l0xx_ll_adc.h ****                                              This parameter can be a value of @ref ADC_LL_EC_REG_DM
 342:../../dependencies/STM32CubeL0/Drivers/STM32L0xx_HAL_Driver/Inc/stm32l0xx_ll_adc.h ****                                              
 343:../../dependencies/STM32CubeL0/Drivers/STM32L0xx_HAL_Driver/Inc/stm32l0xx_ll_adc.h ****                                              This feature can be modified afterwards using unitary 
 344:../../dependencies/STM32CubeL0/Drivers/STM32L0xx_HAL_Driver/Inc/stm32l0xx_ll_adc.h **** 
 345:../../dependencies/STM32CubeL0/Drivers/STM32L0xx_HAL_Driver/Inc/stm32l0xx_ll_adc.h ****   uint32_t Overrun;                     /*!< Set ADC group regular behavior in case of overrun:
 346:../../dependencies/STM32CubeL0/Drivers/STM32L0xx_HAL_Driver/Inc/stm32l0xx_ll_adc.h ****                                              data preserved or overwritten.
 347:../../dependencies/STM32CubeL0/Drivers/STM32L0xx_HAL_Driver/Inc/stm32l0xx_ll_adc.h ****                                              This parameter can be a value of @ref ADC_LL_EC_REG_OV
 348:../../dependencies/STM32CubeL0/Drivers/STM32L0xx_HAL_Driver/Inc/stm32l0xx_ll_adc.h ****                                              
 349:../../dependencies/STM32CubeL0/Drivers/STM32L0xx_HAL_Driver/Inc/stm32l0xx_ll_adc.h ****                                              This feature can be modified afterwards using unitary 
 350:../../dependencies/STM32CubeL0/Drivers/STM32L0xx_HAL_Driver/Inc/stm32l0xx_ll_adc.h **** 
 351:../../dependencies/STM32CubeL0/Drivers/STM32L0xx_HAL_Driver/Inc/stm32l0xx_ll_adc.h **** } LL_ADC_REG_InitTypeDef;
 352:../../dependencies/STM32CubeL0/Drivers/STM32L0xx_HAL_Driver/Inc/stm32l0xx_ll_adc.h **** 
 353:../../dependencies/STM32CubeL0/Drivers/STM32L0xx_HAL_Driver/Inc/stm32l0xx_ll_adc.h **** /**
 354:../../dependencies/STM32CubeL0/Drivers/STM32L0xx_HAL_Driver/Inc/stm32l0xx_ll_adc.h ****   * @}
 355:../../dependencies/STM32CubeL0/Drivers/STM32L0xx_HAL_Driver/Inc/stm32l0xx_ll_adc.h ****   */
 356:../../dependencies/STM32CubeL0/Drivers/STM32L0xx_HAL_Driver/Inc/stm32l0xx_ll_adc.h **** #endif /* USE_FULL_LL_DRIVER */
ARM GAS  /tmp/cctetIQd.s 			page 27


 357:../../dependencies/STM32CubeL0/Drivers/STM32L0xx_HAL_Driver/Inc/stm32l0xx_ll_adc.h **** 
 358:../../dependencies/STM32CubeL0/Drivers/STM32L0xx_HAL_Driver/Inc/stm32l0xx_ll_adc.h **** /* Exported constants --------------------------------------------------------*/
 359:../../dependencies/STM32CubeL0/Drivers/STM32L0xx_HAL_Driver/Inc/stm32l0xx_ll_adc.h **** /** @defgroup ADC_LL_Exported_Constants ADC Exported Constants
 360:../../dependencies/STM32CubeL0/Drivers/STM32L0xx_HAL_Driver/Inc/stm32l0xx_ll_adc.h ****   * @{
 361:../../dependencies/STM32CubeL0/Drivers/STM32L0xx_HAL_Driver/Inc/stm32l0xx_ll_adc.h ****   */
 362:../../dependencies/STM32CubeL0/Drivers/STM32L0xx_HAL_Driver/Inc/stm32l0xx_ll_adc.h **** 
 363:../../dependencies/STM32CubeL0/Drivers/STM32L0xx_HAL_Driver/Inc/stm32l0xx_ll_adc.h **** /** @defgroup ADC_LL_EC_FLAG ADC flags
 364:../../dependencies/STM32CubeL0/Drivers/STM32L0xx_HAL_Driver/Inc/stm32l0xx_ll_adc.h ****   * @brief    Flags defines which can be used with LL_ADC_ReadReg function
 365:../../dependencies/STM32CubeL0/Drivers/STM32L0xx_HAL_Driver/Inc/stm32l0xx_ll_adc.h ****   * @{
 366:../../dependencies/STM32CubeL0/Drivers/STM32L0xx_HAL_Driver/Inc/stm32l0xx_ll_adc.h ****   */
 367:../../dependencies/STM32CubeL0/Drivers/STM32L0xx_HAL_Driver/Inc/stm32l0xx_ll_adc.h **** #define LL_ADC_FLAG_ADRDY                  ADC_ISR_ADRDY      /*!< ADC flag ADC instance ready */
 368:../../dependencies/STM32CubeL0/Drivers/STM32L0xx_HAL_Driver/Inc/stm32l0xx_ll_adc.h **** #define LL_ADC_FLAG_EOC                    ADC_ISR_EOC        /*!< ADC flag ADC group regular end o
 369:../../dependencies/STM32CubeL0/Drivers/STM32L0xx_HAL_Driver/Inc/stm32l0xx_ll_adc.h **** #define LL_ADC_FLAG_EOS                    ADC_ISR_EOS        /*!< ADC flag ADC group regular end o
 370:../../dependencies/STM32CubeL0/Drivers/STM32L0xx_HAL_Driver/Inc/stm32l0xx_ll_adc.h **** #define LL_ADC_FLAG_OVR                    ADC_ISR_OVR        /*!< ADC flag ADC group regular overr
 371:../../dependencies/STM32CubeL0/Drivers/STM32L0xx_HAL_Driver/Inc/stm32l0xx_ll_adc.h **** #define LL_ADC_FLAG_EOSMP                  ADC_ISR_EOSMP      /*!< ADC flag ADC group regular end o
 372:../../dependencies/STM32CubeL0/Drivers/STM32L0xx_HAL_Driver/Inc/stm32l0xx_ll_adc.h **** #define LL_ADC_FLAG_AWD1                   ADC_ISR_AWD        /*!< ADC flag ADC analog watchdog 1 *
 373:../../dependencies/STM32CubeL0/Drivers/STM32L0xx_HAL_Driver/Inc/stm32l0xx_ll_adc.h **** #define LL_ADC_FLAG_EOCAL                  ADC_ISR_EOCAL      /*!< ADC flag end of calibration */
 374:../../dependencies/STM32CubeL0/Drivers/STM32L0xx_HAL_Driver/Inc/stm32l0xx_ll_adc.h **** /**
 375:../../dependencies/STM32CubeL0/Drivers/STM32L0xx_HAL_Driver/Inc/stm32l0xx_ll_adc.h ****   * @}
 376:../../dependencies/STM32CubeL0/Drivers/STM32L0xx_HAL_Driver/Inc/stm32l0xx_ll_adc.h ****   */
 377:../../dependencies/STM32CubeL0/Drivers/STM32L0xx_HAL_Driver/Inc/stm32l0xx_ll_adc.h **** 
 378:../../dependencies/STM32CubeL0/Drivers/STM32L0xx_HAL_Driver/Inc/stm32l0xx_ll_adc.h **** /** @defgroup ADC_LL_EC_IT ADC interruptions for configuration (interruption enable or disable)
 379:../../dependencies/STM32CubeL0/Drivers/STM32L0xx_HAL_Driver/Inc/stm32l0xx_ll_adc.h ****   * @brief    IT defines which can be used with LL_ADC_ReadReg and  LL_ADC_WriteReg functions
 380:../../dependencies/STM32CubeL0/Drivers/STM32L0xx_HAL_Driver/Inc/stm32l0xx_ll_adc.h ****   * @{
 381:../../dependencies/STM32CubeL0/Drivers/STM32L0xx_HAL_Driver/Inc/stm32l0xx_ll_adc.h ****   */
 382:../../dependencies/STM32CubeL0/Drivers/STM32L0xx_HAL_Driver/Inc/stm32l0xx_ll_adc.h **** #define LL_ADC_IT_ADRDY                    ADC_IER_ADRDYIE    /*!< ADC interruption ADC instance re
 383:../../dependencies/STM32CubeL0/Drivers/STM32L0xx_HAL_Driver/Inc/stm32l0xx_ll_adc.h **** #define LL_ADC_IT_EOC                      ADC_IER_EOCIE      /*!< ADC interruption ADC group regul
 384:../../dependencies/STM32CubeL0/Drivers/STM32L0xx_HAL_Driver/Inc/stm32l0xx_ll_adc.h **** #define LL_ADC_IT_EOS                      ADC_IER_EOSIE      /*!< ADC interruption ADC group regul
 385:../../dependencies/STM32CubeL0/Drivers/STM32L0xx_HAL_Driver/Inc/stm32l0xx_ll_adc.h **** #define LL_ADC_IT_OVR                      ADC_IER_OVRIE      /*!< ADC interruption ADC group regul
 386:../../dependencies/STM32CubeL0/Drivers/STM32L0xx_HAL_Driver/Inc/stm32l0xx_ll_adc.h **** #define LL_ADC_IT_EOSMP                    ADC_IER_EOSMPIE    /*!< ADC interruption ADC group regul
 387:../../dependencies/STM32CubeL0/Drivers/STM32L0xx_HAL_Driver/Inc/stm32l0xx_ll_adc.h **** #define LL_ADC_IT_AWD1                     ADC_IER_AWDIE      /*!< ADC interruption ADC analog watc
 388:../../dependencies/STM32CubeL0/Drivers/STM32L0xx_HAL_Driver/Inc/stm32l0xx_ll_adc.h **** #define LL_ADC_IT_EOCAL                    ADC_IER_EOCALIE    /*!< ADC interruption ADC end of cali
 389:../../dependencies/STM32CubeL0/Drivers/STM32L0xx_HAL_Driver/Inc/stm32l0xx_ll_adc.h **** /**
 390:../../dependencies/STM32CubeL0/Drivers/STM32L0xx_HAL_Driver/Inc/stm32l0xx_ll_adc.h ****   * @}
 391:../../dependencies/STM32CubeL0/Drivers/STM32L0xx_HAL_Driver/Inc/stm32l0xx_ll_adc.h ****   */
 392:../../dependencies/STM32CubeL0/Drivers/STM32L0xx_HAL_Driver/Inc/stm32l0xx_ll_adc.h **** 
 393:../../dependencies/STM32CubeL0/Drivers/STM32L0xx_HAL_Driver/Inc/stm32l0xx_ll_adc.h **** /** @defgroup ADC_LL_EC_REGISTERS  ADC registers compliant with specific purpose
 394:../../dependencies/STM32CubeL0/Drivers/STM32L0xx_HAL_Driver/Inc/stm32l0xx_ll_adc.h ****   * @{
 395:../../dependencies/STM32CubeL0/Drivers/STM32L0xx_HAL_Driver/Inc/stm32l0xx_ll_adc.h ****   */
 396:../../dependencies/STM32CubeL0/Drivers/STM32L0xx_HAL_Driver/Inc/stm32l0xx_ll_adc.h **** /* List of ADC registers intended to be used (most commonly) with             */
 397:../../dependencies/STM32CubeL0/Drivers/STM32L0xx_HAL_Driver/Inc/stm32l0xx_ll_adc.h **** /* DMA transfer.                                                              */
 398:../../dependencies/STM32CubeL0/Drivers/STM32L0xx_HAL_Driver/Inc/stm32l0xx_ll_adc.h **** /* Refer to function @ref LL_ADC_DMA_GetRegAddr().                            */
 399:../../dependencies/STM32CubeL0/Drivers/STM32L0xx_HAL_Driver/Inc/stm32l0xx_ll_adc.h **** #define LL_ADC_DMA_REG_REGULAR_DATA          (0x00000000U) /* ADC group regular conversion data reg
 400:../../dependencies/STM32CubeL0/Drivers/STM32L0xx_HAL_Driver/Inc/stm32l0xx_ll_adc.h **** /**
 401:../../dependencies/STM32CubeL0/Drivers/STM32L0xx_HAL_Driver/Inc/stm32l0xx_ll_adc.h ****   * @}
 402:../../dependencies/STM32CubeL0/Drivers/STM32L0xx_HAL_Driver/Inc/stm32l0xx_ll_adc.h ****   */
 403:../../dependencies/STM32CubeL0/Drivers/STM32L0xx_HAL_Driver/Inc/stm32l0xx_ll_adc.h **** 
 404:../../dependencies/STM32CubeL0/Drivers/STM32L0xx_HAL_Driver/Inc/stm32l0xx_ll_adc.h **** /** @defgroup ADC_LL_EC_COMMON_CLOCK_SOURCE  ADC common - Clock source
 405:../../dependencies/STM32CubeL0/Drivers/STM32L0xx_HAL_Driver/Inc/stm32l0xx_ll_adc.h ****   * @{
 406:../../dependencies/STM32CubeL0/Drivers/STM32L0xx_HAL_Driver/Inc/stm32l0xx_ll_adc.h ****   */
 407:../../dependencies/STM32CubeL0/Drivers/STM32L0xx_HAL_Driver/Inc/stm32l0xx_ll_adc.h **** #define LL_ADC_CLOCK_ASYNC_DIV1            (0x00000000U)                               /*!< ADC asy
 408:../../dependencies/STM32CubeL0/Drivers/STM32L0xx_HAL_Driver/Inc/stm32l0xx_ll_adc.h **** #define LL_ADC_CLOCK_ASYNC_DIV2            (ADC_CCR_PRESC_0)                                     /*
 409:../../dependencies/STM32CubeL0/Drivers/STM32L0xx_HAL_Driver/Inc/stm32l0xx_ll_adc.h **** #define LL_ADC_CLOCK_ASYNC_DIV4            (ADC_CCR_PRESC_1                  )                   /*
 410:../../dependencies/STM32CubeL0/Drivers/STM32L0xx_HAL_Driver/Inc/stm32l0xx_ll_adc.h **** #define LL_ADC_CLOCK_ASYNC_DIV6            (ADC_CCR_PRESC_1 | ADC_CCR_PRESC_0)                   /*
 411:../../dependencies/STM32CubeL0/Drivers/STM32L0xx_HAL_Driver/Inc/stm32l0xx_ll_adc.h **** #define LL_ADC_CLOCK_ASYNC_DIV8            (ADC_CCR_PRESC_2                                    ) /*
 412:../../dependencies/STM32CubeL0/Drivers/STM32L0xx_HAL_Driver/Inc/stm32l0xx_ll_adc.h **** #define LL_ADC_CLOCK_ASYNC_DIV10           (ADC_CCR_PRESC_2                   | ADC_CCR_PRESC_0) /*
 413:../../dependencies/STM32CubeL0/Drivers/STM32L0xx_HAL_Driver/Inc/stm32l0xx_ll_adc.h **** #define LL_ADC_CLOCK_ASYNC_DIV12           (ADC_CCR_PRESC_2 | ADC_CCR_PRESC_1                  ) /*
ARM GAS  /tmp/cctetIQd.s 			page 28


 414:../../dependencies/STM32CubeL0/Drivers/STM32L0xx_HAL_Driver/Inc/stm32l0xx_ll_adc.h **** #define LL_ADC_CLOCK_ASYNC_DIV16           (ADC_CCR_PRESC_2 | ADC_CCR_PRESC_1 | ADC_CCR_PRESC_0) /*
 415:../../dependencies/STM32CubeL0/Drivers/STM32L0xx_HAL_Driver/Inc/stm32l0xx_ll_adc.h **** #define LL_ADC_CLOCK_ASYNC_DIV32           (ADC_CCR_PRESC_3)                                     /*
 416:../../dependencies/STM32CubeL0/Drivers/STM32L0xx_HAL_Driver/Inc/stm32l0xx_ll_adc.h **** #define LL_ADC_CLOCK_ASYNC_DIV64           (ADC_CCR_PRESC_3 | ADC_CCR_PRESC_0)                   /*
 417:../../dependencies/STM32CubeL0/Drivers/STM32L0xx_HAL_Driver/Inc/stm32l0xx_ll_adc.h **** #define LL_ADC_CLOCK_ASYNC_DIV128          (ADC_CCR_PRESC_3 | ADC_CCR_PRESC_1)                   /*
 418:../../dependencies/STM32CubeL0/Drivers/STM32L0xx_HAL_Driver/Inc/stm32l0xx_ll_adc.h **** #define LL_ADC_CLOCK_ASYNC_DIV256          (ADC_CCR_PRESC_3 | ADC_CCR_PRESC_1 | ADC_CCR_PRESC_0) /*
 419:../../dependencies/STM32CubeL0/Drivers/STM32L0xx_HAL_Driver/Inc/stm32l0xx_ll_adc.h **** /**
 420:../../dependencies/STM32CubeL0/Drivers/STM32L0xx_HAL_Driver/Inc/stm32l0xx_ll_adc.h ****   * @}
 421:../../dependencies/STM32CubeL0/Drivers/STM32L0xx_HAL_Driver/Inc/stm32l0xx_ll_adc.h ****   */
 422:../../dependencies/STM32CubeL0/Drivers/STM32L0xx_HAL_Driver/Inc/stm32l0xx_ll_adc.h **** 
 423:../../dependencies/STM32CubeL0/Drivers/STM32L0xx_HAL_Driver/Inc/stm32l0xx_ll_adc.h **** /** @defgroup ADC_LL_EC_COMMON_CLOCK_FREQ_MODE  ADC common - Clock frequency mode
 424:../../dependencies/STM32CubeL0/Drivers/STM32L0xx_HAL_Driver/Inc/stm32l0xx_ll_adc.h ****   * @{
 425:../../dependencies/STM32CubeL0/Drivers/STM32L0xx_HAL_Driver/Inc/stm32l0xx_ll_adc.h ****   */
 426:../../dependencies/STM32CubeL0/Drivers/STM32L0xx_HAL_Driver/Inc/stm32l0xx_ll_adc.h **** #define LL_ADC_CLOCK_FREQ_MODE_HIGH        (0x00000000U)/*!< ADC clock mode to high frequency. On S
 427:../../dependencies/STM32CubeL0/Drivers/STM32L0xx_HAL_Driver/Inc/stm32l0xx_ll_adc.h **** #define LL_ADC_CLOCK_FREQ_MODE_LOW         (ADC_CCR_LFMEN)        /*!< ADC clock mode to low freque
 428:../../dependencies/STM32CubeL0/Drivers/STM32L0xx_HAL_Driver/Inc/stm32l0xx_ll_adc.h **** /**
 429:../../dependencies/STM32CubeL0/Drivers/STM32L0xx_HAL_Driver/Inc/stm32l0xx_ll_adc.h ****   * @}
 430:../../dependencies/STM32CubeL0/Drivers/STM32L0xx_HAL_Driver/Inc/stm32l0xx_ll_adc.h ****   */
 431:../../dependencies/STM32CubeL0/Drivers/STM32L0xx_HAL_Driver/Inc/stm32l0xx_ll_adc.h **** 
 432:../../dependencies/STM32CubeL0/Drivers/STM32L0xx_HAL_Driver/Inc/stm32l0xx_ll_adc.h **** /** @defgroup ADC_LL_EC_COMMON_PATH_INTERNAL  ADC common - Measurement path to internal channels
 433:../../dependencies/STM32CubeL0/Drivers/STM32L0xx_HAL_Driver/Inc/stm32l0xx_ll_adc.h ****   * @{
 434:../../dependencies/STM32CubeL0/Drivers/STM32L0xx_HAL_Driver/Inc/stm32l0xx_ll_adc.h ****   */
 435:../../dependencies/STM32CubeL0/Drivers/STM32L0xx_HAL_Driver/Inc/stm32l0xx_ll_adc.h **** /* Note: Other measurement paths to internal channels may be available        */
 436:../../dependencies/STM32CubeL0/Drivers/STM32L0xx_HAL_Driver/Inc/stm32l0xx_ll_adc.h **** /*       (connections to other peripherals).                                  */
 437:../../dependencies/STM32CubeL0/Drivers/STM32L0xx_HAL_Driver/Inc/stm32l0xx_ll_adc.h **** /*       If they are not listed below, they do not require any specific       */
 438:../../dependencies/STM32CubeL0/Drivers/STM32L0xx_HAL_Driver/Inc/stm32l0xx_ll_adc.h **** /*       path enable. In this case, Access to measurement path is done        */
 439:../../dependencies/STM32CubeL0/Drivers/STM32L0xx_HAL_Driver/Inc/stm32l0xx_ll_adc.h **** /*       only by selecting the corresponding ADC internal channel.            */
 440:../../dependencies/STM32CubeL0/Drivers/STM32L0xx_HAL_Driver/Inc/stm32l0xx_ll_adc.h **** #define LL_ADC_PATH_INTERNAL_NONE          (0x00000000U)/*!< ADC measurement pathes all disabled */
 441:../../dependencies/STM32CubeL0/Drivers/STM32L0xx_HAL_Driver/Inc/stm32l0xx_ll_adc.h **** #define LL_ADC_PATH_INTERNAL_VREFINT       (ADC_CCR_VREFEN)       /*!< ADC measurement path to inte
 442:../../dependencies/STM32CubeL0/Drivers/STM32L0xx_HAL_Driver/Inc/stm32l0xx_ll_adc.h **** #if defined(ADC_CCR_TSEN)
 443:../../dependencies/STM32CubeL0/Drivers/STM32L0xx_HAL_Driver/Inc/stm32l0xx_ll_adc.h **** #define LL_ADC_PATH_INTERNAL_TEMPSENSOR    (ADC_CCR_TSEN)         /*!< ADC measurement path to inte
 444:../../dependencies/STM32CubeL0/Drivers/STM32L0xx_HAL_Driver/Inc/stm32l0xx_ll_adc.h **** #endif
 445:../../dependencies/STM32CubeL0/Drivers/STM32L0xx_HAL_Driver/Inc/stm32l0xx_ll_adc.h **** #if defined(ADC_CCR_VLCDEN)
 446:../../dependencies/STM32CubeL0/Drivers/STM32L0xx_HAL_Driver/Inc/stm32l0xx_ll_adc.h **** #define LL_ADC_PATH_INTERNAL_VLCD          (ADC_CCR_VLCDEN)       /*!< ADC measurement path to inte
 447:../../dependencies/STM32CubeL0/Drivers/STM32L0xx_HAL_Driver/Inc/stm32l0xx_ll_adc.h **** #endif
 448:../../dependencies/STM32CubeL0/Drivers/STM32L0xx_HAL_Driver/Inc/stm32l0xx_ll_adc.h **** /**
 449:../../dependencies/STM32CubeL0/Drivers/STM32L0xx_HAL_Driver/Inc/stm32l0xx_ll_adc.h ****   * @}
 450:../../dependencies/STM32CubeL0/Drivers/STM32L0xx_HAL_Driver/Inc/stm32l0xx_ll_adc.h ****   */
 451:../../dependencies/STM32CubeL0/Drivers/STM32L0xx_HAL_Driver/Inc/stm32l0xx_ll_adc.h **** 
 452:../../dependencies/STM32CubeL0/Drivers/STM32L0xx_HAL_Driver/Inc/stm32l0xx_ll_adc.h **** /** @defgroup ADC_LL_EC_CLOCK_SOURCE  ADC instance - Clock source
 453:../../dependencies/STM32CubeL0/Drivers/STM32L0xx_HAL_Driver/Inc/stm32l0xx_ll_adc.h ****   * @{
 454:../../dependencies/STM32CubeL0/Drivers/STM32L0xx_HAL_Driver/Inc/stm32l0xx_ll_adc.h ****   */
 455:../../dependencies/STM32CubeL0/Drivers/STM32L0xx_HAL_Driver/Inc/stm32l0xx_ll_adc.h **** #define LL_ADC_CLOCK_SYNC_PCLK_DIV4        (ADC_CFGR2_CKMODE_1)                                  /*
 456:../../dependencies/STM32CubeL0/Drivers/STM32L0xx_HAL_Driver/Inc/stm32l0xx_ll_adc.h **** #define LL_ADC_CLOCK_SYNC_PCLK_DIV2        (ADC_CFGR2_CKMODE_0)                                  /*
 457:../../dependencies/STM32CubeL0/Drivers/STM32L0xx_HAL_Driver/Inc/stm32l0xx_ll_adc.h **** #define LL_ADC_CLOCK_SYNC_PCLK_DIV1        (ADC_CFGR2_CKMODE_1 | ADC_CFGR2_CKMODE_0)             /*
 458:../../dependencies/STM32CubeL0/Drivers/STM32L0xx_HAL_Driver/Inc/stm32l0xx_ll_adc.h **** #define LL_ADC_CLOCK_ASYNC                 (0x00000000U)                               /*!< ADC asy
 459:../../dependencies/STM32CubeL0/Drivers/STM32L0xx_HAL_Driver/Inc/stm32l0xx_ll_adc.h **** /**
 460:../../dependencies/STM32CubeL0/Drivers/STM32L0xx_HAL_Driver/Inc/stm32l0xx_ll_adc.h ****   * @}
 461:../../dependencies/STM32CubeL0/Drivers/STM32L0xx_HAL_Driver/Inc/stm32l0xx_ll_adc.h ****   */
 462:../../dependencies/STM32CubeL0/Drivers/STM32L0xx_HAL_Driver/Inc/stm32l0xx_ll_adc.h **** 
 463:../../dependencies/STM32CubeL0/Drivers/STM32L0xx_HAL_Driver/Inc/stm32l0xx_ll_adc.h **** /** @defgroup ADC_LL_EC_RESOLUTION  ADC instance - Resolution
 464:../../dependencies/STM32CubeL0/Drivers/STM32L0xx_HAL_Driver/Inc/stm32l0xx_ll_adc.h ****   * @{
 465:../../dependencies/STM32CubeL0/Drivers/STM32L0xx_HAL_Driver/Inc/stm32l0xx_ll_adc.h ****   */
 466:../../dependencies/STM32CubeL0/Drivers/STM32L0xx_HAL_Driver/Inc/stm32l0xx_ll_adc.h **** #define LL_ADC_RESOLUTION_12B              (0x00000000U)             /*!< ADC resolution 12 bits */
 467:../../dependencies/STM32CubeL0/Drivers/STM32L0xx_HAL_Driver/Inc/stm32l0xx_ll_adc.h **** #define LL_ADC_RESOLUTION_10B              (                  ADC_CFGR1_RES_0) /*!< ADC resolution 
 468:../../dependencies/STM32CubeL0/Drivers/STM32L0xx_HAL_Driver/Inc/stm32l0xx_ll_adc.h **** #define LL_ADC_RESOLUTION_8B               (ADC_CFGR1_RES_1                  ) /*!< ADC resolution 
 469:../../dependencies/STM32CubeL0/Drivers/STM32L0xx_HAL_Driver/Inc/stm32l0xx_ll_adc.h **** #define LL_ADC_RESOLUTION_6B               (ADC_CFGR1_RES_1 | ADC_CFGR1_RES_0) /*!< ADC resolution 
 470:../../dependencies/STM32CubeL0/Drivers/STM32L0xx_HAL_Driver/Inc/stm32l0xx_ll_adc.h **** /**
ARM GAS  /tmp/cctetIQd.s 			page 29


 471:../../dependencies/STM32CubeL0/Drivers/STM32L0xx_HAL_Driver/Inc/stm32l0xx_ll_adc.h ****   * @}
 472:../../dependencies/STM32CubeL0/Drivers/STM32L0xx_HAL_Driver/Inc/stm32l0xx_ll_adc.h ****   */
 473:../../dependencies/STM32CubeL0/Drivers/STM32L0xx_HAL_Driver/Inc/stm32l0xx_ll_adc.h **** 
 474:../../dependencies/STM32CubeL0/Drivers/STM32L0xx_HAL_Driver/Inc/stm32l0xx_ll_adc.h **** /** @defgroup ADC_LL_EC_DATA_ALIGN  ADC instance - Data alignment
 475:../../dependencies/STM32CubeL0/Drivers/STM32L0xx_HAL_Driver/Inc/stm32l0xx_ll_adc.h ****   * @{
 476:../../dependencies/STM32CubeL0/Drivers/STM32L0xx_HAL_Driver/Inc/stm32l0xx_ll_adc.h ****   */
 477:../../dependencies/STM32CubeL0/Drivers/STM32L0xx_HAL_Driver/Inc/stm32l0xx_ll_adc.h **** #define LL_ADC_DATA_ALIGN_RIGHT            (0x00000000U)/*!< ADC conversion data alignment: right a
 478:../../dependencies/STM32CubeL0/Drivers/STM32L0xx_HAL_Driver/Inc/stm32l0xx_ll_adc.h **** #define LL_ADC_DATA_ALIGN_LEFT             (ADC_CFGR1_ALIGN)      /*!< ADC conversion data alignmen
 479:../../dependencies/STM32CubeL0/Drivers/STM32L0xx_HAL_Driver/Inc/stm32l0xx_ll_adc.h **** /**
 480:../../dependencies/STM32CubeL0/Drivers/STM32L0xx_HAL_Driver/Inc/stm32l0xx_ll_adc.h ****   * @}
 481:../../dependencies/STM32CubeL0/Drivers/STM32L0xx_HAL_Driver/Inc/stm32l0xx_ll_adc.h ****   */
 482:../../dependencies/STM32CubeL0/Drivers/STM32L0xx_HAL_Driver/Inc/stm32l0xx_ll_adc.h **** 
 483:../../dependencies/STM32CubeL0/Drivers/STM32L0xx_HAL_Driver/Inc/stm32l0xx_ll_adc.h **** /** @defgroup ADC_LL_EC_LP_MODE  ADC instance - Low power mode
 484:../../dependencies/STM32CubeL0/Drivers/STM32L0xx_HAL_Driver/Inc/stm32l0xx_ll_adc.h ****   * @{
 485:../../dependencies/STM32CubeL0/Drivers/STM32L0xx_HAL_Driver/Inc/stm32l0xx_ll_adc.h ****   */
 486:../../dependencies/STM32CubeL0/Drivers/STM32L0xx_HAL_Driver/Inc/stm32l0xx_ll_adc.h **** #define LL_ADC_LP_MODE_NONE                (0x00000000U)             /*!< No ADC low power mode act
 487:../../dependencies/STM32CubeL0/Drivers/STM32L0xx_HAL_Driver/Inc/stm32l0xx_ll_adc.h **** #define LL_ADC_LP_AUTOWAIT                 (ADC_CFGR1_WAIT)                    /*!< ADC low power m
 488:../../dependencies/STM32CubeL0/Drivers/STM32L0xx_HAL_Driver/Inc/stm32l0xx_ll_adc.h **** #define LL_ADC_LP_AUTOPOWEROFF             (ADC_CFGR1_AUTOFF)                  /*!< ADC low power m
 489:../../dependencies/STM32CubeL0/Drivers/STM32L0xx_HAL_Driver/Inc/stm32l0xx_ll_adc.h **** #define LL_ADC_LP_AUTOWAIT_AUTOPOWEROFF    (ADC_CFGR1_WAIT | ADC_CFGR1_AUTOFF) /*!< ADC low power m
 490:../../dependencies/STM32CubeL0/Drivers/STM32L0xx_HAL_Driver/Inc/stm32l0xx_ll_adc.h **** /**
 491:../../dependencies/STM32CubeL0/Drivers/STM32L0xx_HAL_Driver/Inc/stm32l0xx_ll_adc.h ****   * @}
 492:../../dependencies/STM32CubeL0/Drivers/STM32L0xx_HAL_Driver/Inc/stm32l0xx_ll_adc.h ****   */
 493:../../dependencies/STM32CubeL0/Drivers/STM32L0xx_HAL_Driver/Inc/stm32l0xx_ll_adc.h **** 
 494:../../dependencies/STM32CubeL0/Drivers/STM32L0xx_HAL_Driver/Inc/stm32l0xx_ll_adc.h **** /** @defgroup ADC_LL_EC_GROUPS  ADC instance - Groups
 495:../../dependencies/STM32CubeL0/Drivers/STM32L0xx_HAL_Driver/Inc/stm32l0xx_ll_adc.h ****   * @{
 496:../../dependencies/STM32CubeL0/Drivers/STM32L0xx_HAL_Driver/Inc/stm32l0xx_ll_adc.h ****   */
 497:../../dependencies/STM32CubeL0/Drivers/STM32L0xx_HAL_Driver/Inc/stm32l0xx_ll_adc.h **** #define LL_ADC_GROUP_REGULAR               (0x00000001U) /*!< ADC group regular (available on all S
 498:../../dependencies/STM32CubeL0/Drivers/STM32L0xx_HAL_Driver/Inc/stm32l0xx_ll_adc.h **** /**
 499:../../dependencies/STM32CubeL0/Drivers/STM32L0xx_HAL_Driver/Inc/stm32l0xx_ll_adc.h ****   * @}
 500:../../dependencies/STM32CubeL0/Drivers/STM32L0xx_HAL_Driver/Inc/stm32l0xx_ll_adc.h ****   */
 501:../../dependencies/STM32CubeL0/Drivers/STM32L0xx_HAL_Driver/Inc/stm32l0xx_ll_adc.h **** 
 502:../../dependencies/STM32CubeL0/Drivers/STM32L0xx_HAL_Driver/Inc/stm32l0xx_ll_adc.h **** /** @defgroup ADC_LL_EC_CHANNEL  ADC instance - Channel number
 503:../../dependencies/STM32CubeL0/Drivers/STM32L0xx_HAL_Driver/Inc/stm32l0xx_ll_adc.h ****   * @{
 504:../../dependencies/STM32CubeL0/Drivers/STM32L0xx_HAL_Driver/Inc/stm32l0xx_ll_adc.h ****   */
 505:../../dependencies/STM32CubeL0/Drivers/STM32L0xx_HAL_Driver/Inc/stm32l0xx_ll_adc.h **** #define LL_ADC_CHANNEL_0                   (ADC_CHANNEL_0_NUMBER  | ADC_CHANNEL_0_BITFIELD ) /*!< A
 506:../../dependencies/STM32CubeL0/Drivers/STM32L0xx_HAL_Driver/Inc/stm32l0xx_ll_adc.h **** #define LL_ADC_CHANNEL_1                   (ADC_CHANNEL_1_NUMBER  | ADC_CHANNEL_1_BITFIELD ) /*!< A
 507:../../dependencies/STM32CubeL0/Drivers/STM32L0xx_HAL_Driver/Inc/stm32l0xx_ll_adc.h **** #define LL_ADC_CHANNEL_2                   (ADC_CHANNEL_2_NUMBER  | ADC_CHANNEL_2_BITFIELD ) /*!< A
 508:../../dependencies/STM32CubeL0/Drivers/STM32L0xx_HAL_Driver/Inc/stm32l0xx_ll_adc.h **** #define LL_ADC_CHANNEL_3                   (ADC_CHANNEL_3_NUMBER  | ADC_CHANNEL_3_BITFIELD ) /*!< A
 509:../../dependencies/STM32CubeL0/Drivers/STM32L0xx_HAL_Driver/Inc/stm32l0xx_ll_adc.h **** #define LL_ADC_CHANNEL_4                   (ADC_CHANNEL_4_NUMBER  | ADC_CHANNEL_4_BITFIELD ) /*!< A
 510:../../dependencies/STM32CubeL0/Drivers/STM32L0xx_HAL_Driver/Inc/stm32l0xx_ll_adc.h **** #define LL_ADC_CHANNEL_5                   (ADC_CHANNEL_5_NUMBER  | ADC_CHANNEL_5_BITFIELD ) /*!< A
 511:../../dependencies/STM32CubeL0/Drivers/STM32L0xx_HAL_Driver/Inc/stm32l0xx_ll_adc.h **** #define LL_ADC_CHANNEL_6                   (ADC_CHANNEL_6_NUMBER  | ADC_CHANNEL_6_BITFIELD ) /*!< A
 512:../../dependencies/STM32CubeL0/Drivers/STM32L0xx_HAL_Driver/Inc/stm32l0xx_ll_adc.h **** #define LL_ADC_CHANNEL_7                   (ADC_CHANNEL_7_NUMBER  | ADC_CHANNEL_7_BITFIELD ) /*!< A
 513:../../dependencies/STM32CubeL0/Drivers/STM32L0xx_HAL_Driver/Inc/stm32l0xx_ll_adc.h **** #define LL_ADC_CHANNEL_8                   (ADC_CHANNEL_8_NUMBER  | ADC_CHANNEL_8_BITFIELD ) /*!< A
 514:../../dependencies/STM32CubeL0/Drivers/STM32L0xx_HAL_Driver/Inc/stm32l0xx_ll_adc.h **** #define LL_ADC_CHANNEL_9                   (ADC_CHANNEL_9_NUMBER  | ADC_CHANNEL_9_BITFIELD ) /*!< A
 515:../../dependencies/STM32CubeL0/Drivers/STM32L0xx_HAL_Driver/Inc/stm32l0xx_ll_adc.h **** #define LL_ADC_CHANNEL_10                  (ADC_CHANNEL_10_NUMBER | ADC_CHANNEL_10_BITFIELD) /*!< A
 516:../../dependencies/STM32CubeL0/Drivers/STM32L0xx_HAL_Driver/Inc/stm32l0xx_ll_adc.h **** #define LL_ADC_CHANNEL_11                  (ADC_CHANNEL_11_NUMBER | ADC_CHANNEL_11_BITFIELD) /*!< A
 517:../../dependencies/STM32CubeL0/Drivers/STM32L0xx_HAL_Driver/Inc/stm32l0xx_ll_adc.h **** #define LL_ADC_CHANNEL_12                  (ADC_CHANNEL_12_NUMBER | ADC_CHANNEL_12_BITFIELD) /*!< A
 518:../../dependencies/STM32CubeL0/Drivers/STM32L0xx_HAL_Driver/Inc/stm32l0xx_ll_adc.h **** #define LL_ADC_CHANNEL_13                  (ADC_CHANNEL_13_NUMBER | ADC_CHANNEL_13_BITFIELD) /*!< A
 519:../../dependencies/STM32CubeL0/Drivers/STM32L0xx_HAL_Driver/Inc/stm32l0xx_ll_adc.h **** #define LL_ADC_CHANNEL_14                  (ADC_CHANNEL_14_NUMBER | ADC_CHANNEL_14_BITFIELD) /*!< A
 520:../../dependencies/STM32CubeL0/Drivers/STM32L0xx_HAL_Driver/Inc/stm32l0xx_ll_adc.h **** #define LL_ADC_CHANNEL_15                  (ADC_CHANNEL_15_NUMBER | ADC_CHANNEL_15_BITFIELD) /*!< A
 521:../../dependencies/STM32CubeL0/Drivers/STM32L0xx_HAL_Driver/Inc/stm32l0xx_ll_adc.h **** #define LL_ADC_CHANNEL_17                  (ADC_CHANNEL_17_NUMBER | ADC_CHANNEL_17_BITFIELD) /*!< A
 522:../../dependencies/STM32CubeL0/Drivers/STM32L0xx_HAL_Driver/Inc/stm32l0xx_ll_adc.h **** #define LL_ADC_CHANNEL_18                  (ADC_CHANNEL_18_NUMBER | ADC_CHANNEL_18_BITFIELD) /*!< A
 523:../../dependencies/STM32CubeL0/Drivers/STM32L0xx_HAL_Driver/Inc/stm32l0xx_ll_adc.h **** #define LL_ADC_CHANNEL_VREFINT             (LL_ADC_CHANNEL_17 | ADC_CHANNEL_ID_INTERNAL_CH)  /*!< A
 524:../../dependencies/STM32CubeL0/Drivers/STM32L0xx_HAL_Driver/Inc/stm32l0xx_ll_adc.h **** #define LL_ADC_CHANNEL_TEMPSENSOR          (LL_ADC_CHANNEL_18 | ADC_CHANNEL_ID_INTERNAL_CH)  /*!< A
 525:../../dependencies/STM32CubeL0/Drivers/STM32L0xx_HAL_Driver/Inc/stm32l0xx_ll_adc.h **** #if defined(ADC_CCR_VLCDEN)
 526:../../dependencies/STM32CubeL0/Drivers/STM32L0xx_HAL_Driver/Inc/stm32l0xx_ll_adc.h **** #define LL_ADC_CHANNEL_16                  (ADC_CHANNEL_16_NUMBER | ADC_CHANNEL_16_BITFIELD) /*!< A
 527:../../dependencies/STM32CubeL0/Drivers/STM32L0xx_HAL_Driver/Inc/stm32l0xx_ll_adc.h **** #define LL_ADC_CHANNEL_VLCD                (LL_ADC_CHANNEL_16 | ADC_CHANNEL_ID_INTERNAL_CH)  /*!< A
ARM GAS  /tmp/cctetIQd.s 			page 30


 528:../../dependencies/STM32CubeL0/Drivers/STM32L0xx_HAL_Driver/Inc/stm32l0xx_ll_adc.h **** #endif
 529:../../dependencies/STM32CubeL0/Drivers/STM32L0xx_HAL_Driver/Inc/stm32l0xx_ll_adc.h **** /**
 530:../../dependencies/STM32CubeL0/Drivers/STM32L0xx_HAL_Driver/Inc/stm32l0xx_ll_adc.h ****   * @}
 531:../../dependencies/STM32CubeL0/Drivers/STM32L0xx_HAL_Driver/Inc/stm32l0xx_ll_adc.h ****   */
 532:../../dependencies/STM32CubeL0/Drivers/STM32L0xx_HAL_Driver/Inc/stm32l0xx_ll_adc.h **** 
 533:../../dependencies/STM32CubeL0/Drivers/STM32L0xx_HAL_Driver/Inc/stm32l0xx_ll_adc.h **** /** @defgroup ADC_LL_EC_REG_TRIGGER_SOURCE  ADC group regular - Trigger source
 534:../../dependencies/STM32CubeL0/Drivers/STM32L0xx_HAL_Driver/Inc/stm32l0xx_ll_adc.h ****   * @{
 535:../../dependencies/STM32CubeL0/Drivers/STM32L0xx_HAL_Driver/Inc/stm32l0xx_ll_adc.h ****   */
 536:../../dependencies/STM32CubeL0/Drivers/STM32L0xx_HAL_Driver/Inc/stm32l0xx_ll_adc.h **** #define LL_ADC_REG_TRIG_SOFTWARE           (0x00000000U)                                           
 537:../../dependencies/STM32CubeL0/Drivers/STM32L0xx_HAL_Driver/Inc/stm32l0xx_ll_adc.h **** #define LL_ADC_REG_TRIG_EXT_TIM6_TRGO      (ADC_REG_TRIG_EXT_EDGE_DEFAULT)                         
 538:../../dependencies/STM32CubeL0/Drivers/STM32L0xx_HAL_Driver/Inc/stm32l0xx_ll_adc.h **** #define LL_ADC_REG_TRIG_EXT_TIM21_CH2      (ADC_CFGR1_EXTSEL_0 | ADC_REG_TRIG_EXT_EDGE_DEFAULT)    
 539:../../dependencies/STM32CubeL0/Drivers/STM32L0xx_HAL_Driver/Inc/stm32l0xx_ll_adc.h **** #define LL_ADC_REG_TRIG_EXT_TIM2_TRGO      (ADC_CFGR1_EXTSEL_1 | ADC_REG_TRIG_EXT_EDGE_DEFAULT)    
 540:../../dependencies/STM32CubeL0/Drivers/STM32L0xx_HAL_Driver/Inc/stm32l0xx_ll_adc.h **** #define LL_ADC_REG_TRIG_EXT_TIM2_CH4       (ADC_CFGR1_EXTSEL_1 | ADC_CFGR1_EXTSEL_0 | ADC_REG_TRIG_
 541:../../dependencies/STM32CubeL0/Drivers/STM32L0xx_HAL_Driver/Inc/stm32l0xx_ll_adc.h **** #define LL_ADC_REG_TRIG_EXT_TIM22_TRGO     (ADC_CFGR1_EXTSEL_2 | ADC_REG_TRIG_EXT_EDGE_DEFAULT)    
 542:../../dependencies/STM32CubeL0/Drivers/STM32L0xx_HAL_Driver/Inc/stm32l0xx_ll_adc.h **** #define LL_ADC_REG_TRIG_EXT_TIM3_TRGO      (ADC_CFGR1_EXTSEL_2 | ADC_CFGR1_EXTSEL_1 | ADC_REG_TRIG_
 543:../../dependencies/STM32CubeL0/Drivers/STM32L0xx_HAL_Driver/Inc/stm32l0xx_ll_adc.h **** #define LL_ADC_REG_TRIG_EXT_EXTI_LINE11    (ADC_CFGR1_EXTSEL_2 | ADC_CFGR1_EXTSEL_1 | ADC_CFGR1_EXT
 544:../../dependencies/STM32CubeL0/Drivers/STM32L0xx_HAL_Driver/Inc/stm32l0xx_ll_adc.h **** 
 545:../../dependencies/STM32CubeL0/Drivers/STM32L0xx_HAL_Driver/Inc/stm32l0xx_ll_adc.h **** /* ADC group regular external trigger TIM2_CC3 available only on              */
 546:../../dependencies/STM32CubeL0/Drivers/STM32L0xx_HAL_Driver/Inc/stm32l0xx_ll_adc.h **** /* STM32L0 devices categories: Cat.1, Cat.2, Cat.5                            */
 547:../../dependencies/STM32CubeL0/Drivers/STM32L0xx_HAL_Driver/Inc/stm32l0xx_ll_adc.h **** #if defined (STM32L011xx) || defined (STM32L021xx) || \
 548:../../dependencies/STM32CubeL0/Drivers/STM32L0xx_HAL_Driver/Inc/stm32l0xx_ll_adc.h ****     defined (STM32L031xx) || defined (STM32L041xx) || \
 549:../../dependencies/STM32CubeL0/Drivers/STM32L0xx_HAL_Driver/Inc/stm32l0xx_ll_adc.h ****     defined (STM32L071xx) || defined (STM32L072xx) || defined (STM32L073xx) || \
 550:../../dependencies/STM32CubeL0/Drivers/STM32L0xx_HAL_Driver/Inc/stm32l0xx_ll_adc.h ****     defined (STM32L081xx) || defined (STM32L082xx) || defined (STM32L083xx) || \
 551:../../dependencies/STM32CubeL0/Drivers/STM32L0xx_HAL_Driver/Inc/stm32l0xx_ll_adc.h ****     defined (STM32L010x6) || defined (STM32L010x8) || defined (STM32L010xB)
 552:../../dependencies/STM32CubeL0/Drivers/STM32L0xx_HAL_Driver/Inc/stm32l0xx_ll_adc.h **** #define LL_ADC_REG_TRIG_EXT_TIM2_CH3       (ADC_CFGR1_EXTSEL_2 | ADC_CFGR1_EXTSEL_0 | ADC_REG_TRIG_
 553:../../dependencies/STM32CubeL0/Drivers/STM32L0xx_HAL_Driver/Inc/stm32l0xx_ll_adc.h **** #endif
 554:../../dependencies/STM32CubeL0/Drivers/STM32L0xx_HAL_Driver/Inc/stm32l0xx_ll_adc.h **** 
 555:../../dependencies/STM32CubeL0/Drivers/STM32L0xx_HAL_Driver/Inc/stm32l0xx_ll_adc.h **** /* ADC group regular external trigger TIM21_TRGO available only on            */
 556:../../dependencies/STM32CubeL0/Drivers/STM32L0xx_HAL_Driver/Inc/stm32l0xx_ll_adc.h **** /* STM32L0 devices categories: Cat.2, Cat.3, Cat.5                            */
 557:../../dependencies/STM32CubeL0/Drivers/STM32L0xx_HAL_Driver/Inc/stm32l0xx_ll_adc.h **** #if defined (STM32L031xx) || defined (STM32L041xx) || \
 558:../../dependencies/STM32CubeL0/Drivers/STM32L0xx_HAL_Driver/Inc/stm32l0xx_ll_adc.h ****     defined (STM32L051xx) || defined (STM32L052xx) || defined (STM32L053xx) || \
 559:../../dependencies/STM32CubeL0/Drivers/STM32L0xx_HAL_Driver/Inc/stm32l0xx_ll_adc.h ****     defined (STM32L062xx) || defined (STM32L063xx) || \
 560:../../dependencies/STM32CubeL0/Drivers/STM32L0xx_HAL_Driver/Inc/stm32l0xx_ll_adc.h ****     defined (STM32L071xx) || defined (STM32L072xx) || defined (STM32L073xx) || \
 561:../../dependencies/STM32CubeL0/Drivers/STM32L0xx_HAL_Driver/Inc/stm32l0xx_ll_adc.h ****     defined (STM32L081xx) || defined (STM32L082xx) || defined (STM32L083xx) || \
 562:../../dependencies/STM32CubeL0/Drivers/STM32L0xx_HAL_Driver/Inc/stm32l0xx_ll_adc.h ****     defined (STM32L010x6) || defined (STM32L010x8) || defined (STM32L010xB)
 563:../../dependencies/STM32CubeL0/Drivers/STM32L0xx_HAL_Driver/Inc/stm32l0xx_ll_adc.h **** #define LL_ADC_REG_TRIG_EXT_TIM21_TRGO     (LL_ADC_REG_TRIG_EXT_TIM22_TRGO)
 564:../../dependencies/STM32CubeL0/Drivers/STM32L0xx_HAL_Driver/Inc/stm32l0xx_ll_adc.h **** #endif
 565:../../dependencies/STM32CubeL0/Drivers/STM32L0xx_HAL_Driver/Inc/stm32l0xx_ll_adc.h **** 
 566:../../dependencies/STM32CubeL0/Drivers/STM32L0xx_HAL_Driver/Inc/stm32l0xx_ll_adc.h **** /**
 567:../../dependencies/STM32CubeL0/Drivers/STM32L0xx_HAL_Driver/Inc/stm32l0xx_ll_adc.h ****   * @}
 568:../../dependencies/STM32CubeL0/Drivers/STM32L0xx_HAL_Driver/Inc/stm32l0xx_ll_adc.h ****   */
 569:../../dependencies/STM32CubeL0/Drivers/STM32L0xx_HAL_Driver/Inc/stm32l0xx_ll_adc.h **** 
 570:../../dependencies/STM32CubeL0/Drivers/STM32L0xx_HAL_Driver/Inc/stm32l0xx_ll_adc.h **** /** @defgroup ADC_LL_EC_REG_TRIGGER_EDGE  ADC group regular - Trigger edge
 571:../../dependencies/STM32CubeL0/Drivers/STM32L0xx_HAL_Driver/Inc/stm32l0xx_ll_adc.h ****   * @{
 572:../../dependencies/STM32CubeL0/Drivers/STM32L0xx_HAL_Driver/Inc/stm32l0xx_ll_adc.h ****   */
 573:../../dependencies/STM32CubeL0/Drivers/STM32L0xx_HAL_Driver/Inc/stm32l0xx_ll_adc.h **** #define LL_ADC_REG_TRIG_EXT_RISING         (                    ADC_CFGR1_EXTEN_0) /*!< ADC group r
 574:../../dependencies/STM32CubeL0/Drivers/STM32L0xx_HAL_Driver/Inc/stm32l0xx_ll_adc.h **** #define LL_ADC_REG_TRIG_EXT_FALLING        (ADC_CFGR1_EXTEN_1                    ) /*!< ADC group r
 575:../../dependencies/STM32CubeL0/Drivers/STM32L0xx_HAL_Driver/Inc/stm32l0xx_ll_adc.h **** #define LL_ADC_REG_TRIG_EXT_RISINGFALLING  (ADC_CFGR1_EXTEN_1 | ADC_CFGR1_EXTEN_0) /*!< ADC group r
 576:../../dependencies/STM32CubeL0/Drivers/STM32L0xx_HAL_Driver/Inc/stm32l0xx_ll_adc.h **** /**
 577:../../dependencies/STM32CubeL0/Drivers/STM32L0xx_HAL_Driver/Inc/stm32l0xx_ll_adc.h ****   * @}
 578:../../dependencies/STM32CubeL0/Drivers/STM32L0xx_HAL_Driver/Inc/stm32l0xx_ll_adc.h ****   */
 579:../../dependencies/STM32CubeL0/Drivers/STM32L0xx_HAL_Driver/Inc/stm32l0xx_ll_adc.h **** 
 580:../../dependencies/STM32CubeL0/Drivers/STM32L0xx_HAL_Driver/Inc/stm32l0xx_ll_adc.h **** /** @defgroup ADC_LL_EC_REG_CONTINUOUS_MODE  ADC group regular - Continuous mode
 581:../../dependencies/STM32CubeL0/Drivers/STM32L0xx_HAL_Driver/Inc/stm32l0xx_ll_adc.h **** * @{
 582:../../dependencies/STM32CubeL0/Drivers/STM32L0xx_HAL_Driver/Inc/stm32l0xx_ll_adc.h **** */
 583:../../dependencies/STM32CubeL0/Drivers/STM32L0xx_HAL_Driver/Inc/stm32l0xx_ll_adc.h **** #define LL_ADC_REG_CONV_SINGLE             (0x00000000U)           /*!< ADC conversions are perform
 584:../../dependencies/STM32CubeL0/Drivers/STM32L0xx_HAL_Driver/Inc/stm32l0xx_ll_adc.h **** #define LL_ADC_REG_CONV_CONTINUOUS         (ADC_CFGR1_CONT)        /*!< ADC conversions are perform
ARM GAS  /tmp/cctetIQd.s 			page 31


 585:../../dependencies/STM32CubeL0/Drivers/STM32L0xx_HAL_Driver/Inc/stm32l0xx_ll_adc.h **** /**
 586:../../dependencies/STM32CubeL0/Drivers/STM32L0xx_HAL_Driver/Inc/stm32l0xx_ll_adc.h ****   * @}
 587:../../dependencies/STM32CubeL0/Drivers/STM32L0xx_HAL_Driver/Inc/stm32l0xx_ll_adc.h ****   */
 588:../../dependencies/STM32CubeL0/Drivers/STM32L0xx_HAL_Driver/Inc/stm32l0xx_ll_adc.h **** 
 589:../../dependencies/STM32CubeL0/Drivers/STM32L0xx_HAL_Driver/Inc/stm32l0xx_ll_adc.h **** /** @defgroup ADC_LL_EC_REG_DMA_TRANSFER  ADC group regular - DMA transfer of ADC conversion data
 590:../../dependencies/STM32CubeL0/Drivers/STM32L0xx_HAL_Driver/Inc/stm32l0xx_ll_adc.h ****   * @{
 591:../../dependencies/STM32CubeL0/Drivers/STM32L0xx_HAL_Driver/Inc/stm32l0xx_ll_adc.h ****   */
 592:../../dependencies/STM32CubeL0/Drivers/STM32L0xx_HAL_Driver/Inc/stm32l0xx_ll_adc.h **** #define LL_ADC_REG_DMA_TRANSFER_NONE       (0x00000000U)                        /*!< ADC conversion
 593:../../dependencies/STM32CubeL0/Drivers/STM32L0xx_HAL_Driver/Inc/stm32l0xx_ll_adc.h **** #define LL_ADC_REG_DMA_TRANSFER_LIMITED    (                   ADC_CFGR1_DMAEN) /*!< ADC conversion
 594:../../dependencies/STM32CubeL0/Drivers/STM32L0xx_HAL_Driver/Inc/stm32l0xx_ll_adc.h **** #define LL_ADC_REG_DMA_TRANSFER_UNLIMITED  (ADC_CFGR1_DMACFG | ADC_CFGR1_DMAEN) /*!< ADC conversion
 595:../../dependencies/STM32CubeL0/Drivers/STM32L0xx_HAL_Driver/Inc/stm32l0xx_ll_adc.h **** /**
 596:../../dependencies/STM32CubeL0/Drivers/STM32L0xx_HAL_Driver/Inc/stm32l0xx_ll_adc.h ****   * @}
 597:../../dependencies/STM32CubeL0/Drivers/STM32L0xx_HAL_Driver/Inc/stm32l0xx_ll_adc.h ****   */
 598:../../dependencies/STM32CubeL0/Drivers/STM32L0xx_HAL_Driver/Inc/stm32l0xx_ll_adc.h **** 
 599:../../dependencies/STM32CubeL0/Drivers/STM32L0xx_HAL_Driver/Inc/stm32l0xx_ll_adc.h **** /** @defgroup ADC_LL_EC_REG_OVR_DATA_BEHAVIOR  ADC group regular - Overrun behavior on conversion d
 600:../../dependencies/STM32CubeL0/Drivers/STM32L0xx_HAL_Driver/Inc/stm32l0xx_ll_adc.h **** * @{
 601:../../dependencies/STM32CubeL0/Drivers/STM32L0xx_HAL_Driver/Inc/stm32l0xx_ll_adc.h **** */
 602:../../dependencies/STM32CubeL0/Drivers/STM32L0xx_HAL_Driver/Inc/stm32l0xx_ll_adc.h **** #define LL_ADC_REG_OVR_DATA_PRESERVED      (0x00000000U)          /*!< ADC group regular behavior i
 603:../../dependencies/STM32CubeL0/Drivers/STM32L0xx_HAL_Driver/Inc/stm32l0xx_ll_adc.h **** #define LL_ADC_REG_OVR_DATA_OVERWRITTEN    (ADC_CFGR1_OVRMOD)     /*!< ADC group regular behavior i
 604:../../dependencies/STM32CubeL0/Drivers/STM32L0xx_HAL_Driver/Inc/stm32l0xx_ll_adc.h **** /**
 605:../../dependencies/STM32CubeL0/Drivers/STM32L0xx_HAL_Driver/Inc/stm32l0xx_ll_adc.h ****   * @}
 606:../../dependencies/STM32CubeL0/Drivers/STM32L0xx_HAL_Driver/Inc/stm32l0xx_ll_adc.h ****   */
 607:../../dependencies/STM32CubeL0/Drivers/STM32L0xx_HAL_Driver/Inc/stm32l0xx_ll_adc.h **** 
 608:../../dependencies/STM32CubeL0/Drivers/STM32L0xx_HAL_Driver/Inc/stm32l0xx_ll_adc.h **** /** @defgroup ADC_LL_EC_REG_SEQ_SCAN_DIRECTION  ADC group regular - Sequencer scan direction
 609:../../dependencies/STM32CubeL0/Drivers/STM32L0xx_HAL_Driver/Inc/stm32l0xx_ll_adc.h ****   * @{
 610:../../dependencies/STM32CubeL0/Drivers/STM32L0xx_HAL_Driver/Inc/stm32l0xx_ll_adc.h ****   */
 611:../../dependencies/STM32CubeL0/Drivers/STM32L0xx_HAL_Driver/Inc/stm32l0xx_ll_adc.h **** #define LL_ADC_REG_SEQ_SCAN_DIR_FORWARD    (0x00000000U)          /*!< ADC group regular sequencer 
 612:../../dependencies/STM32CubeL0/Drivers/STM32L0xx_HAL_Driver/Inc/stm32l0xx_ll_adc.h **** #define LL_ADC_REG_SEQ_SCAN_DIR_BACKWARD   (ADC_CFGR1_SCANDIR)    /*!< ADC group regular sequencer 
 613:../../dependencies/STM32CubeL0/Drivers/STM32L0xx_HAL_Driver/Inc/stm32l0xx_ll_adc.h **** /**
 614:../../dependencies/STM32CubeL0/Drivers/STM32L0xx_HAL_Driver/Inc/stm32l0xx_ll_adc.h ****   * @}
 615:../../dependencies/STM32CubeL0/Drivers/STM32L0xx_HAL_Driver/Inc/stm32l0xx_ll_adc.h ****   */
 616:../../dependencies/STM32CubeL0/Drivers/STM32L0xx_HAL_Driver/Inc/stm32l0xx_ll_adc.h **** 
 617:../../dependencies/STM32CubeL0/Drivers/STM32L0xx_HAL_Driver/Inc/stm32l0xx_ll_adc.h **** /** @defgroup ADC_LL_EC_REG_SEQ_DISCONT_MODE  ADC group regular - Sequencer discontinuous mode
 618:../../dependencies/STM32CubeL0/Drivers/STM32L0xx_HAL_Driver/Inc/stm32l0xx_ll_adc.h ****   * @{
 619:../../dependencies/STM32CubeL0/Drivers/STM32L0xx_HAL_Driver/Inc/stm32l0xx_ll_adc.h ****   */
 620:../../dependencies/STM32CubeL0/Drivers/STM32L0xx_HAL_Driver/Inc/stm32l0xx_ll_adc.h **** #define LL_ADC_REG_SEQ_DISCONT_DISABLE     (0x00000000U)                                           
 621:../../dependencies/STM32CubeL0/Drivers/STM32L0xx_HAL_Driver/Inc/stm32l0xx_ll_adc.h **** #define LL_ADC_REG_SEQ_DISCONT_1RANK       (ADC_CFGR1_DISCEN)                                      
 622:../../dependencies/STM32CubeL0/Drivers/STM32L0xx_HAL_Driver/Inc/stm32l0xx_ll_adc.h **** /**
 623:../../dependencies/STM32CubeL0/Drivers/STM32L0xx_HAL_Driver/Inc/stm32l0xx_ll_adc.h ****   * @}
 624:../../dependencies/STM32CubeL0/Drivers/STM32L0xx_HAL_Driver/Inc/stm32l0xx_ll_adc.h ****   */
 625:../../dependencies/STM32CubeL0/Drivers/STM32L0xx_HAL_Driver/Inc/stm32l0xx_ll_adc.h **** 
 626:../../dependencies/STM32CubeL0/Drivers/STM32L0xx_HAL_Driver/Inc/stm32l0xx_ll_adc.h **** /** @defgroup ADC_LL_EC_CHANNEL_SAMPLINGTIME  Channel - Sampling time
 627:../../dependencies/STM32CubeL0/Drivers/STM32L0xx_HAL_Driver/Inc/stm32l0xx_ll_adc.h ****   * @{
 628:../../dependencies/STM32CubeL0/Drivers/STM32L0xx_HAL_Driver/Inc/stm32l0xx_ll_adc.h ****   */
 629:../../dependencies/STM32CubeL0/Drivers/STM32L0xx_HAL_Driver/Inc/stm32l0xx_ll_adc.h **** #define LL_ADC_SAMPLINGTIME_1CYCLE_5       (0x00000000U)                                         /*
 630:../../dependencies/STM32CubeL0/Drivers/STM32L0xx_HAL_Driver/Inc/stm32l0xx_ll_adc.h **** #define LL_ADC_SAMPLINGTIME_3CYCLES_5      (ADC_SMPR_SMP_0)                                      /*
 631:../../dependencies/STM32CubeL0/Drivers/STM32L0xx_HAL_Driver/Inc/stm32l0xx_ll_adc.h **** #define LL_ADC_SAMPLINGTIME_7CYCLES_5      (ADC_SMPR_SMP_1)                                      /*
 632:../../dependencies/STM32CubeL0/Drivers/STM32L0xx_HAL_Driver/Inc/stm32l0xx_ll_adc.h **** #define LL_ADC_SAMPLINGTIME_12CYCLES_5     (ADC_SMPR_SMP_1 | ADC_SMPR_SMP_0)                     /*
 633:../../dependencies/STM32CubeL0/Drivers/STM32L0xx_HAL_Driver/Inc/stm32l0xx_ll_adc.h **** #define LL_ADC_SAMPLINGTIME_19CYCLES_5     (ADC_SMPR_SMP_2)                                      /*
 634:../../dependencies/STM32CubeL0/Drivers/STM32L0xx_HAL_Driver/Inc/stm32l0xx_ll_adc.h **** #define LL_ADC_SAMPLINGTIME_39CYCLES_5     (ADC_SMPR_SMP_2 | ADC_SMPR_SMP_0)                     /*
 635:../../dependencies/STM32CubeL0/Drivers/STM32L0xx_HAL_Driver/Inc/stm32l0xx_ll_adc.h **** #define LL_ADC_SAMPLINGTIME_79CYCLES_5     (ADC_SMPR_SMP_2 | ADC_SMPR_SMP_1)                     /*
 636:../../dependencies/STM32CubeL0/Drivers/STM32L0xx_HAL_Driver/Inc/stm32l0xx_ll_adc.h **** #define LL_ADC_SAMPLINGTIME_160CYCLES_5    (ADC_SMPR_SMP_2 | ADC_SMPR_SMP_1 | ADC_SMPR_SMP_0)    /*
 637:../../dependencies/STM32CubeL0/Drivers/STM32L0xx_HAL_Driver/Inc/stm32l0xx_ll_adc.h **** /**
 638:../../dependencies/STM32CubeL0/Drivers/STM32L0xx_HAL_Driver/Inc/stm32l0xx_ll_adc.h ****   * @}
 639:../../dependencies/STM32CubeL0/Drivers/STM32L0xx_HAL_Driver/Inc/stm32l0xx_ll_adc.h ****   */
 640:../../dependencies/STM32CubeL0/Drivers/STM32L0xx_HAL_Driver/Inc/stm32l0xx_ll_adc.h **** 
 641:../../dependencies/STM32CubeL0/Drivers/STM32L0xx_HAL_Driver/Inc/stm32l0xx_ll_adc.h **** /** @defgroup ADC_LL_EC_AWD_NUMBER Analog watchdog - Analog watchdog number
ARM GAS  /tmp/cctetIQd.s 			page 32


 642:../../dependencies/STM32CubeL0/Drivers/STM32L0xx_HAL_Driver/Inc/stm32l0xx_ll_adc.h ****   * @{
 643:../../dependencies/STM32CubeL0/Drivers/STM32L0xx_HAL_Driver/Inc/stm32l0xx_ll_adc.h ****   */
 644:../../dependencies/STM32CubeL0/Drivers/STM32L0xx_HAL_Driver/Inc/stm32l0xx_ll_adc.h **** #define LL_ADC_AWD1                        (ADC_AWD_CR1_CHANNEL_MASK  | ADC_AWD_CR1_REGOFFSET) /*!<
 645:../../dependencies/STM32CubeL0/Drivers/STM32L0xx_HAL_Driver/Inc/stm32l0xx_ll_adc.h **** /**
 646:../../dependencies/STM32CubeL0/Drivers/STM32L0xx_HAL_Driver/Inc/stm32l0xx_ll_adc.h ****   * @}
 647:../../dependencies/STM32CubeL0/Drivers/STM32L0xx_HAL_Driver/Inc/stm32l0xx_ll_adc.h ****   */
 648:../../dependencies/STM32CubeL0/Drivers/STM32L0xx_HAL_Driver/Inc/stm32l0xx_ll_adc.h **** 
 649:../../dependencies/STM32CubeL0/Drivers/STM32L0xx_HAL_Driver/Inc/stm32l0xx_ll_adc.h **** /** @defgroup ADC_LL_EC_AWD_CHANNELS  Analog watchdog - Monitored channels
 650:../../dependencies/STM32CubeL0/Drivers/STM32L0xx_HAL_Driver/Inc/stm32l0xx_ll_adc.h ****   * @{
 651:../../dependencies/STM32CubeL0/Drivers/STM32L0xx_HAL_Driver/Inc/stm32l0xx_ll_adc.h ****   */
 652:../../dependencies/STM32CubeL0/Drivers/STM32L0xx_HAL_Driver/Inc/stm32l0xx_ll_adc.h **** #define LL_ADC_AWD_DISABLE                 (0x00000000U)                                           
 653:../../dependencies/STM32CubeL0/Drivers/STM32L0xx_HAL_Driver/Inc/stm32l0xx_ll_adc.h **** #define LL_ADC_AWD_ALL_CHANNELS_REG        (                                                    ADC
 654:../../dependencies/STM32CubeL0/Drivers/STM32L0xx_HAL_Driver/Inc/stm32l0xx_ll_adc.h **** #define LL_ADC_AWD_CHANNEL_0_REG           ((LL_ADC_CHANNEL_0  & ADC_CHANNEL_ID_MASK)         | ADC
 655:../../dependencies/STM32CubeL0/Drivers/STM32L0xx_HAL_Driver/Inc/stm32l0xx_ll_adc.h **** #define LL_ADC_AWD_CHANNEL_1_REG           ((LL_ADC_CHANNEL_1  & ADC_CHANNEL_ID_MASK)         | ADC
 656:../../dependencies/STM32CubeL0/Drivers/STM32L0xx_HAL_Driver/Inc/stm32l0xx_ll_adc.h **** #define LL_ADC_AWD_CHANNEL_2_REG           ((LL_ADC_CHANNEL_2  & ADC_CHANNEL_ID_MASK)         | ADC
 657:../../dependencies/STM32CubeL0/Drivers/STM32L0xx_HAL_Driver/Inc/stm32l0xx_ll_adc.h **** #define LL_ADC_AWD_CHANNEL_3_REG           ((LL_ADC_CHANNEL_3  & ADC_CHANNEL_ID_MASK)         | ADC
 658:../../dependencies/STM32CubeL0/Drivers/STM32L0xx_HAL_Driver/Inc/stm32l0xx_ll_adc.h **** #define LL_ADC_AWD_CHANNEL_4_REG           ((LL_ADC_CHANNEL_4  & ADC_CHANNEL_ID_MASK)         | ADC
 659:../../dependencies/STM32CubeL0/Drivers/STM32L0xx_HAL_Driver/Inc/stm32l0xx_ll_adc.h **** #define LL_ADC_AWD_CHANNEL_5_REG           ((LL_ADC_CHANNEL_5  & ADC_CHANNEL_ID_MASK)         | ADC
 660:../../dependencies/STM32CubeL0/Drivers/STM32L0xx_HAL_Driver/Inc/stm32l0xx_ll_adc.h **** #define LL_ADC_AWD_CHANNEL_6_REG           ((LL_ADC_CHANNEL_6  & ADC_CHANNEL_ID_MASK)         | ADC
 661:../../dependencies/STM32CubeL0/Drivers/STM32L0xx_HAL_Driver/Inc/stm32l0xx_ll_adc.h **** #define LL_ADC_AWD_CHANNEL_7_REG           ((LL_ADC_CHANNEL_7  & ADC_CHANNEL_ID_MASK)         | ADC
 662:../../dependencies/STM32CubeL0/Drivers/STM32L0xx_HAL_Driver/Inc/stm32l0xx_ll_adc.h **** #define LL_ADC_AWD_CHANNEL_8_REG           ((LL_ADC_CHANNEL_8  & ADC_CHANNEL_ID_MASK)         | ADC
 663:../../dependencies/STM32CubeL0/Drivers/STM32L0xx_HAL_Driver/Inc/stm32l0xx_ll_adc.h **** #define LL_ADC_AWD_CHANNEL_9_REG           ((LL_ADC_CHANNEL_9  & ADC_CHANNEL_ID_MASK)         | ADC
 664:../../dependencies/STM32CubeL0/Drivers/STM32L0xx_HAL_Driver/Inc/stm32l0xx_ll_adc.h **** #define LL_ADC_AWD_CHANNEL_10_REG          ((LL_ADC_CHANNEL_10 & ADC_CHANNEL_ID_MASK)         | ADC
 665:../../dependencies/STM32CubeL0/Drivers/STM32L0xx_HAL_Driver/Inc/stm32l0xx_ll_adc.h **** #define LL_ADC_AWD_CHANNEL_11_REG          ((LL_ADC_CHANNEL_11 & ADC_CHANNEL_ID_MASK)         | ADC
 666:../../dependencies/STM32CubeL0/Drivers/STM32L0xx_HAL_Driver/Inc/stm32l0xx_ll_adc.h **** #define LL_ADC_AWD_CHANNEL_12_REG          ((LL_ADC_CHANNEL_12 & ADC_CHANNEL_ID_MASK)         | ADC
 667:../../dependencies/STM32CubeL0/Drivers/STM32L0xx_HAL_Driver/Inc/stm32l0xx_ll_adc.h **** #define LL_ADC_AWD_CHANNEL_13_REG          ((LL_ADC_CHANNEL_13 & ADC_CHANNEL_ID_MASK)         | ADC
 668:../../dependencies/STM32CubeL0/Drivers/STM32L0xx_HAL_Driver/Inc/stm32l0xx_ll_adc.h **** #define LL_ADC_AWD_CHANNEL_14_REG          ((LL_ADC_CHANNEL_14 & ADC_CHANNEL_ID_MASK)         | ADC
 669:../../dependencies/STM32CubeL0/Drivers/STM32L0xx_HAL_Driver/Inc/stm32l0xx_ll_adc.h **** #define LL_ADC_AWD_CHANNEL_15_REG          ((LL_ADC_CHANNEL_15 & ADC_CHANNEL_ID_MASK)         | ADC
 670:../../dependencies/STM32CubeL0/Drivers/STM32L0xx_HAL_Driver/Inc/stm32l0xx_ll_adc.h **** #define LL_ADC_AWD_CHANNEL_17_REG          ((LL_ADC_CHANNEL_17 & ADC_CHANNEL_ID_MASK)         | ADC
 671:../../dependencies/STM32CubeL0/Drivers/STM32L0xx_HAL_Driver/Inc/stm32l0xx_ll_adc.h **** #define LL_ADC_AWD_CHANNEL_18_REG          ((LL_ADC_CHANNEL_18 & ADC_CHANNEL_ID_MASK)         | ADC
 672:../../dependencies/STM32CubeL0/Drivers/STM32L0xx_HAL_Driver/Inc/stm32l0xx_ll_adc.h **** #define LL_ADC_AWD_CH_VREFINT_REG          ((LL_ADC_CHANNEL_VREFINT    & ADC_CHANNEL_ID_MASK) | ADC
 673:../../dependencies/STM32CubeL0/Drivers/STM32L0xx_HAL_Driver/Inc/stm32l0xx_ll_adc.h **** #define LL_ADC_AWD_CH_TEMPSENSOR_REG       ((LL_ADC_CHANNEL_TEMPSENSOR & ADC_CHANNEL_ID_MASK) | ADC
 674:../../dependencies/STM32CubeL0/Drivers/STM32L0xx_HAL_Driver/Inc/stm32l0xx_ll_adc.h **** #if defined(ADC_CCR_VLCDEN)
 675:../../dependencies/STM32CubeL0/Drivers/STM32L0xx_HAL_Driver/Inc/stm32l0xx_ll_adc.h **** #define LL_ADC_AWD_CHANNEL_16_REG          ((LL_ADC_CHANNEL_16 & ADC_CHANNEL_ID_MASK)         | ADC
 676:../../dependencies/STM32CubeL0/Drivers/STM32L0xx_HAL_Driver/Inc/stm32l0xx_ll_adc.h **** #define LL_ADC_AWD_CH_VLCD_REG             ((LL_ADC_CHANNEL_VLCD       & ADC_CHANNEL_ID_MASK) | ADC
 677:../../dependencies/STM32CubeL0/Drivers/STM32L0xx_HAL_Driver/Inc/stm32l0xx_ll_adc.h **** #endif
 678:../../dependencies/STM32CubeL0/Drivers/STM32L0xx_HAL_Driver/Inc/stm32l0xx_ll_adc.h **** /**
 679:../../dependencies/STM32CubeL0/Drivers/STM32L0xx_HAL_Driver/Inc/stm32l0xx_ll_adc.h ****   * @}
 680:../../dependencies/STM32CubeL0/Drivers/STM32L0xx_HAL_Driver/Inc/stm32l0xx_ll_adc.h ****   */
 681:../../dependencies/STM32CubeL0/Drivers/STM32L0xx_HAL_Driver/Inc/stm32l0xx_ll_adc.h **** 
 682:../../dependencies/STM32CubeL0/Drivers/STM32L0xx_HAL_Driver/Inc/stm32l0xx_ll_adc.h **** /** @defgroup ADC_LL_EC_AWD_THRESHOLDS  Analog watchdog - Thresholds
 683:../../dependencies/STM32CubeL0/Drivers/STM32L0xx_HAL_Driver/Inc/stm32l0xx_ll_adc.h ****   * @{
 684:../../dependencies/STM32CubeL0/Drivers/STM32L0xx_HAL_Driver/Inc/stm32l0xx_ll_adc.h ****   */
 685:../../dependencies/STM32CubeL0/Drivers/STM32L0xx_HAL_Driver/Inc/stm32l0xx_ll_adc.h **** #define LL_ADC_AWD_THRESHOLD_HIGH          (ADC_TR_HT            )     /*!< ADC analog watchdog thr
 686:../../dependencies/STM32CubeL0/Drivers/STM32L0xx_HAL_Driver/Inc/stm32l0xx_ll_adc.h **** #define LL_ADC_AWD_THRESHOLD_LOW           (            ADC_TR_LT)     /*!< ADC analog watchdog thr
 687:../../dependencies/STM32CubeL0/Drivers/STM32L0xx_HAL_Driver/Inc/stm32l0xx_ll_adc.h **** #define LL_ADC_AWD_THRESHOLDS_HIGH_LOW     (ADC_TR_HT | ADC_TR_LT)     /*!< ADC analog watchdog bot
 688:../../dependencies/STM32CubeL0/Drivers/STM32L0xx_HAL_Driver/Inc/stm32l0xx_ll_adc.h **** /**
 689:../../dependencies/STM32CubeL0/Drivers/STM32L0xx_HAL_Driver/Inc/stm32l0xx_ll_adc.h ****   * @}
 690:../../dependencies/STM32CubeL0/Drivers/STM32L0xx_HAL_Driver/Inc/stm32l0xx_ll_adc.h ****   */
 691:../../dependencies/STM32CubeL0/Drivers/STM32L0xx_HAL_Driver/Inc/stm32l0xx_ll_adc.h **** 
 692:../../dependencies/STM32CubeL0/Drivers/STM32L0xx_HAL_Driver/Inc/stm32l0xx_ll_adc.h **** /** @defgroup ADC_LL_EC_OVS_SCOPE  Oversampling - Oversampling scope
 693:../../dependencies/STM32CubeL0/Drivers/STM32L0xx_HAL_Driver/Inc/stm32l0xx_ll_adc.h ****   * @{
 694:../../dependencies/STM32CubeL0/Drivers/STM32L0xx_HAL_Driver/Inc/stm32l0xx_ll_adc.h ****   */
 695:../../dependencies/STM32CubeL0/Drivers/STM32L0xx_HAL_Driver/Inc/stm32l0xx_ll_adc.h **** #define LL_ADC_OVS_DISABLE                 (0x00000000U)                               /*!< ADC ove
 696:../../dependencies/STM32CubeL0/Drivers/STM32L0xx_HAL_Driver/Inc/stm32l0xx_ll_adc.h **** #define LL_ADC_OVS_GRP_REGULAR_CONTINUED   (                          ADC_CFGR2_OVSE)  /*!< ADC ove
 697:../../dependencies/STM32CubeL0/Drivers/STM32L0xx_HAL_Driver/Inc/stm32l0xx_ll_adc.h **** /**
 698:../../dependencies/STM32CubeL0/Drivers/STM32L0xx_HAL_Driver/Inc/stm32l0xx_ll_adc.h ****   * @}
ARM GAS  /tmp/cctetIQd.s 			page 33


 699:../../dependencies/STM32CubeL0/Drivers/STM32L0xx_HAL_Driver/Inc/stm32l0xx_ll_adc.h ****   */
 700:../../dependencies/STM32CubeL0/Drivers/STM32L0xx_HAL_Driver/Inc/stm32l0xx_ll_adc.h **** 
 701:../../dependencies/STM32CubeL0/Drivers/STM32L0xx_HAL_Driver/Inc/stm32l0xx_ll_adc.h **** /** @defgroup ADC_LL_EC_OVS_DISCONT_MODE  Oversampling - Discontinuous mode
 702:../../dependencies/STM32CubeL0/Drivers/STM32L0xx_HAL_Driver/Inc/stm32l0xx_ll_adc.h ****   * @{
 703:../../dependencies/STM32CubeL0/Drivers/STM32L0xx_HAL_Driver/Inc/stm32l0xx_ll_adc.h ****   */
 704:../../dependencies/STM32CubeL0/Drivers/STM32L0xx_HAL_Driver/Inc/stm32l0xx_ll_adc.h **** #define LL_ADC_OVS_REG_CONT                (0x00000000U)          /*!< ADC oversampling discontinuo
 705:../../dependencies/STM32CubeL0/Drivers/STM32L0xx_HAL_Driver/Inc/stm32l0xx_ll_adc.h **** #define LL_ADC_OVS_REG_DISCONT             (ADC_CFGR2_TOVS)       /*!< ADC oversampling discontinuo
 706:../../dependencies/STM32CubeL0/Drivers/STM32L0xx_HAL_Driver/Inc/stm32l0xx_ll_adc.h **** /**
 707:../../dependencies/STM32CubeL0/Drivers/STM32L0xx_HAL_Driver/Inc/stm32l0xx_ll_adc.h ****   * @}
 708:../../dependencies/STM32CubeL0/Drivers/STM32L0xx_HAL_Driver/Inc/stm32l0xx_ll_adc.h ****   */
 709:../../dependencies/STM32CubeL0/Drivers/STM32L0xx_HAL_Driver/Inc/stm32l0xx_ll_adc.h **** 
 710:../../dependencies/STM32CubeL0/Drivers/STM32L0xx_HAL_Driver/Inc/stm32l0xx_ll_adc.h **** /** @defgroup ADC_LL_EC_OVS_RATIO  Oversampling - Ratio
 711:../../dependencies/STM32CubeL0/Drivers/STM32L0xx_HAL_Driver/Inc/stm32l0xx_ll_adc.h ****   * @{
 712:../../dependencies/STM32CubeL0/Drivers/STM32L0xx_HAL_Driver/Inc/stm32l0xx_ll_adc.h ****   */
 713:../../dependencies/STM32CubeL0/Drivers/STM32L0xx_HAL_Driver/Inc/stm32l0xx_ll_adc.h **** #define LL_ADC_OVS_RATIO_2                 (0x00000000U)                                           
 714:../../dependencies/STM32CubeL0/Drivers/STM32L0xx_HAL_Driver/Inc/stm32l0xx_ll_adc.h **** #define LL_ADC_OVS_RATIO_4                 (                                      ADC_CFGR2_OVSR_0)
 715:../../dependencies/STM32CubeL0/Drivers/STM32L0xx_HAL_Driver/Inc/stm32l0xx_ll_adc.h **** #define LL_ADC_OVS_RATIO_8                 (                   ADC_CFGR2_OVSR_1                   )
 716:../../dependencies/STM32CubeL0/Drivers/STM32L0xx_HAL_Driver/Inc/stm32l0xx_ll_adc.h **** #define LL_ADC_OVS_RATIO_16                (                   ADC_CFGR2_OVSR_1 | ADC_CFGR2_OVSR_0)
 717:../../dependencies/STM32CubeL0/Drivers/STM32L0xx_HAL_Driver/Inc/stm32l0xx_ll_adc.h **** #define LL_ADC_OVS_RATIO_32                (ADC_CFGR2_OVSR_2                                      )
 718:../../dependencies/STM32CubeL0/Drivers/STM32L0xx_HAL_Driver/Inc/stm32l0xx_ll_adc.h **** #define LL_ADC_OVS_RATIO_64                (ADC_CFGR2_OVSR_2                    | ADC_CFGR2_OVSR_0)
 719:../../dependencies/STM32CubeL0/Drivers/STM32L0xx_HAL_Driver/Inc/stm32l0xx_ll_adc.h **** #define LL_ADC_OVS_RATIO_128               (ADC_CFGR2_OVSR_2 | ADC_CFGR2_OVSR_1                   )
 720:../../dependencies/STM32CubeL0/Drivers/STM32L0xx_HAL_Driver/Inc/stm32l0xx_ll_adc.h **** #define LL_ADC_OVS_RATIO_256               (ADC_CFGR2_OVSR_2 | ADC_CFGR2_OVSR_1 | ADC_CFGR2_OVSR_0)
 721:../../dependencies/STM32CubeL0/Drivers/STM32L0xx_HAL_Driver/Inc/stm32l0xx_ll_adc.h **** /**
 722:../../dependencies/STM32CubeL0/Drivers/STM32L0xx_HAL_Driver/Inc/stm32l0xx_ll_adc.h ****   * @}
 723:../../dependencies/STM32CubeL0/Drivers/STM32L0xx_HAL_Driver/Inc/stm32l0xx_ll_adc.h ****   */
 724:../../dependencies/STM32CubeL0/Drivers/STM32L0xx_HAL_Driver/Inc/stm32l0xx_ll_adc.h **** 
 725:../../dependencies/STM32CubeL0/Drivers/STM32L0xx_HAL_Driver/Inc/stm32l0xx_ll_adc.h **** /** @defgroup ADC_LL_EC_OVS_SHIFT  Oversampling - Data shift
 726:../../dependencies/STM32CubeL0/Drivers/STM32L0xx_HAL_Driver/Inc/stm32l0xx_ll_adc.h ****   * @{
 727:../../dependencies/STM32CubeL0/Drivers/STM32L0xx_HAL_Driver/Inc/stm32l0xx_ll_adc.h ****   */
 728:../../dependencies/STM32CubeL0/Drivers/STM32L0xx_HAL_Driver/Inc/stm32l0xx_ll_adc.h **** #define LL_ADC_OVS_SHIFT_NONE              (0x00000000U)                                           
 729:../../dependencies/STM32CubeL0/Drivers/STM32L0xx_HAL_Driver/Inc/stm32l0xx_ll_adc.h **** #define LL_ADC_OVS_SHIFT_RIGHT_1           (                                                       
 730:../../dependencies/STM32CubeL0/Drivers/STM32L0xx_HAL_Driver/Inc/stm32l0xx_ll_adc.h **** #define LL_ADC_OVS_SHIFT_RIGHT_2           (                                      ADC_CFGR2_OVSS_1 
 731:../../dependencies/STM32CubeL0/Drivers/STM32L0xx_HAL_Driver/Inc/stm32l0xx_ll_adc.h **** #define LL_ADC_OVS_SHIFT_RIGHT_3           (                                      ADC_CFGR2_OVSS_1 
 732:../../dependencies/STM32CubeL0/Drivers/STM32L0xx_HAL_Driver/Inc/stm32l0xx_ll_adc.h **** #define LL_ADC_OVS_SHIFT_RIGHT_4           (                   ADC_CFGR2_OVSS_2                    
 733:../../dependencies/STM32CubeL0/Drivers/STM32L0xx_HAL_Driver/Inc/stm32l0xx_ll_adc.h **** #define LL_ADC_OVS_SHIFT_RIGHT_5           (                   ADC_CFGR2_OVSS_2                    
 734:../../dependencies/STM32CubeL0/Drivers/STM32L0xx_HAL_Driver/Inc/stm32l0xx_ll_adc.h **** #define LL_ADC_OVS_SHIFT_RIGHT_6           (                   ADC_CFGR2_OVSS_2 | ADC_CFGR2_OVSS_1 
 735:../../dependencies/STM32CubeL0/Drivers/STM32L0xx_HAL_Driver/Inc/stm32l0xx_ll_adc.h **** #define LL_ADC_OVS_SHIFT_RIGHT_7           (                   ADC_CFGR2_OVSS_2 | ADC_CFGR2_OVSS_1 
 736:../../dependencies/STM32CubeL0/Drivers/STM32L0xx_HAL_Driver/Inc/stm32l0xx_ll_adc.h **** #define LL_ADC_OVS_SHIFT_RIGHT_8           (ADC_CFGR2_OVSS_3                                       
 737:../../dependencies/STM32CubeL0/Drivers/STM32L0xx_HAL_Driver/Inc/stm32l0xx_ll_adc.h **** /**
 738:../../dependencies/STM32CubeL0/Drivers/STM32L0xx_HAL_Driver/Inc/stm32l0xx_ll_adc.h ****   * @}
 739:../../dependencies/STM32CubeL0/Drivers/STM32L0xx_HAL_Driver/Inc/stm32l0xx_ll_adc.h ****   */
 740:../../dependencies/STM32CubeL0/Drivers/STM32L0xx_HAL_Driver/Inc/stm32l0xx_ll_adc.h **** 
 741:../../dependencies/STM32CubeL0/Drivers/STM32L0xx_HAL_Driver/Inc/stm32l0xx_ll_adc.h **** 
 742:../../dependencies/STM32CubeL0/Drivers/STM32L0xx_HAL_Driver/Inc/stm32l0xx_ll_adc.h **** /** @defgroup ADC_LL_EC_HW_DELAYS  Definitions of ADC hardware constraints delays
 743:../../dependencies/STM32CubeL0/Drivers/STM32L0xx_HAL_Driver/Inc/stm32l0xx_ll_adc.h ****   * @note   Only ADC peripheral HW delays are defined in ADC LL driver driver,
 744:../../dependencies/STM32CubeL0/Drivers/STM32L0xx_HAL_Driver/Inc/stm32l0xx_ll_adc.h ****   *         not timeout values.
 745:../../dependencies/STM32CubeL0/Drivers/STM32L0xx_HAL_Driver/Inc/stm32l0xx_ll_adc.h ****   *         For details on delays values, refer to descriptions in source code
 746:../../dependencies/STM32CubeL0/Drivers/STM32L0xx_HAL_Driver/Inc/stm32l0xx_ll_adc.h ****   *         above each literal definition.
 747:../../dependencies/STM32CubeL0/Drivers/STM32L0xx_HAL_Driver/Inc/stm32l0xx_ll_adc.h ****   * @{
 748:../../dependencies/STM32CubeL0/Drivers/STM32L0xx_HAL_Driver/Inc/stm32l0xx_ll_adc.h ****   */
 749:../../dependencies/STM32CubeL0/Drivers/STM32L0xx_HAL_Driver/Inc/stm32l0xx_ll_adc.h ****   
 750:../../dependencies/STM32CubeL0/Drivers/STM32L0xx_HAL_Driver/Inc/stm32l0xx_ll_adc.h **** /* Note: Only ADC peripheral HW delays are defined in ADC LL driver driver,   */
 751:../../dependencies/STM32CubeL0/Drivers/STM32L0xx_HAL_Driver/Inc/stm32l0xx_ll_adc.h **** /*       not timeout values.                                                  */
 752:../../dependencies/STM32CubeL0/Drivers/STM32L0xx_HAL_Driver/Inc/stm32l0xx_ll_adc.h **** /*       Timeout values for ADC operations are dependent to device clock      */
 753:../../dependencies/STM32CubeL0/Drivers/STM32L0xx_HAL_Driver/Inc/stm32l0xx_ll_adc.h **** /*       configuration (system clock versus ADC clock),                       */
 754:../../dependencies/STM32CubeL0/Drivers/STM32L0xx_HAL_Driver/Inc/stm32l0xx_ll_adc.h **** /*       and therefore must be defined in user application.                   */
 755:../../dependencies/STM32CubeL0/Drivers/STM32L0xx_HAL_Driver/Inc/stm32l0xx_ll_adc.h **** /*       Indications for estimation of ADC timeout delays, for this           */
ARM GAS  /tmp/cctetIQd.s 			page 34


 756:../../dependencies/STM32CubeL0/Drivers/STM32L0xx_HAL_Driver/Inc/stm32l0xx_ll_adc.h **** /*       STM32 serie:                                                         */
 757:../../dependencies/STM32CubeL0/Drivers/STM32L0xx_HAL_Driver/Inc/stm32l0xx_ll_adc.h **** /*       - ADC calibration time: maximum delay is 83/fADC.                    */
 758:../../dependencies/STM32CubeL0/Drivers/STM32L0xx_HAL_Driver/Inc/stm32l0xx_ll_adc.h **** /*         (refer to device datasheet, parameter "tCAL")                      */
 759:../../dependencies/STM32CubeL0/Drivers/STM32L0xx_HAL_Driver/Inc/stm32l0xx_ll_adc.h **** /*       - ADC enable time: maximum delay is 1 conversion cycle.              */
 760:../../dependencies/STM32CubeL0/Drivers/STM32L0xx_HAL_Driver/Inc/stm32l0xx_ll_adc.h **** /*         (refer to device datasheet, parameter "tSTAB")                     */
 761:../../dependencies/STM32CubeL0/Drivers/STM32L0xx_HAL_Driver/Inc/stm32l0xx_ll_adc.h **** /*       - ADC disable time: maximum delay should be a few ADC clock cycles   */
 762:../../dependencies/STM32CubeL0/Drivers/STM32L0xx_HAL_Driver/Inc/stm32l0xx_ll_adc.h **** /*       - ADC stop conversion time: maximum delay should be a few ADC clock  */
 763:../../dependencies/STM32CubeL0/Drivers/STM32L0xx_HAL_Driver/Inc/stm32l0xx_ll_adc.h **** /*         cycles                                                             */
 764:../../dependencies/STM32CubeL0/Drivers/STM32L0xx_HAL_Driver/Inc/stm32l0xx_ll_adc.h **** /*       - ADC conversion time: duration depending on ADC clock and ADC       */
 765:../../dependencies/STM32CubeL0/Drivers/STM32L0xx_HAL_Driver/Inc/stm32l0xx_ll_adc.h **** /*         configuration.                                                     */
 766:../../dependencies/STM32CubeL0/Drivers/STM32L0xx_HAL_Driver/Inc/stm32l0xx_ll_adc.h **** /*         (refer to device reference manual, section "Timing")               */
 767:../../dependencies/STM32CubeL0/Drivers/STM32L0xx_HAL_Driver/Inc/stm32l0xx_ll_adc.h **** 
 768:../../dependencies/STM32CubeL0/Drivers/STM32L0xx_HAL_Driver/Inc/stm32l0xx_ll_adc.h **** /* Delay for ADC stabilization time (ADC voltage regulator start-up time)     */
 769:../../dependencies/STM32CubeL0/Drivers/STM32L0xx_HAL_Driver/Inc/stm32l0xx_ll_adc.h **** /* Delay set to maximum value (refer to device datasheet,                     */
 770:../../dependencies/STM32CubeL0/Drivers/STM32L0xx_HAL_Driver/Inc/stm32l0xx_ll_adc.h **** /* parameter "tUP_LDO").                                                      */
 771:../../dependencies/STM32CubeL0/Drivers/STM32L0xx_HAL_Driver/Inc/stm32l0xx_ll_adc.h **** #define LL_ADC_DELAY_INTERNAL_REGUL_STAB_US (10U)              /*!< Delay for ADC stabilization tim
 772:../../dependencies/STM32CubeL0/Drivers/STM32L0xx_HAL_Driver/Inc/stm32l0xx_ll_adc.h **** 
 773:../../dependencies/STM32CubeL0/Drivers/STM32L0xx_HAL_Driver/Inc/stm32l0xx_ll_adc.h **** /* Delay for internal voltage reference stabilization time.                   */
 774:../../dependencies/STM32CubeL0/Drivers/STM32L0xx_HAL_Driver/Inc/stm32l0xx_ll_adc.h **** /* Delay set to maximum value (refer to device datasheet,                     */
 775:../../dependencies/STM32CubeL0/Drivers/STM32L0xx_HAL_Driver/Inc/stm32l0xx_ll_adc.h **** /* parameter "TADC_BUF").                                                     */
 776:../../dependencies/STM32CubeL0/Drivers/STM32L0xx_HAL_Driver/Inc/stm32l0xx_ll_adc.h **** /* Unit: us                                                                   */
 777:../../dependencies/STM32CubeL0/Drivers/STM32L0xx_HAL_Driver/Inc/stm32l0xx_ll_adc.h **** #define LL_ADC_DELAY_VREFINT_STAB_US       (10U)              /*!< Delay for internal voltage refer
 778:../../dependencies/STM32CubeL0/Drivers/STM32L0xx_HAL_Driver/Inc/stm32l0xx_ll_adc.h **** 
 779:../../dependencies/STM32CubeL0/Drivers/STM32L0xx_HAL_Driver/Inc/stm32l0xx_ll_adc.h **** /* Delay for temperature sensor stabilization time.                           */
 780:../../dependencies/STM32CubeL0/Drivers/STM32L0xx_HAL_Driver/Inc/stm32l0xx_ll_adc.h **** /* Literal set to maximum value (refer to device datasheet,                   */
 781:../../dependencies/STM32CubeL0/Drivers/STM32L0xx_HAL_Driver/Inc/stm32l0xx_ll_adc.h **** /* parameter "tSTART").                                                       */
 782:../../dependencies/STM32CubeL0/Drivers/STM32L0xx_HAL_Driver/Inc/stm32l0xx_ll_adc.h **** /* Unit: us                                                                   */
 783:../../dependencies/STM32CubeL0/Drivers/STM32L0xx_HAL_Driver/Inc/stm32l0xx_ll_adc.h **** #define LL_ADC_DELAY_TEMPSENSOR_STAB_US    (10U)              /*!< Delay for temperature sensor sta
 784:../../dependencies/STM32CubeL0/Drivers/STM32L0xx_HAL_Driver/Inc/stm32l0xx_ll_adc.h **** 
 785:../../dependencies/STM32CubeL0/Drivers/STM32L0xx_HAL_Driver/Inc/stm32l0xx_ll_adc.h **** /* Delay required between ADC end of calibration and ADC enable.              */
 786:../../dependencies/STM32CubeL0/Drivers/STM32L0xx_HAL_Driver/Inc/stm32l0xx_ll_adc.h **** /* Note: On this STM32 serie, a minimum number of ADC clock cycles            */
 787:../../dependencies/STM32CubeL0/Drivers/STM32L0xx_HAL_Driver/Inc/stm32l0xx_ll_adc.h **** /*       are required between ADC end of calibration and ADC enable.          */
 788:../../dependencies/STM32CubeL0/Drivers/STM32L0xx_HAL_Driver/Inc/stm32l0xx_ll_adc.h **** /*       Wait time can be computed in user application by waiting for the     */
 789:../../dependencies/STM32CubeL0/Drivers/STM32L0xx_HAL_Driver/Inc/stm32l0xx_ll_adc.h **** /*       equivalent number of CPU cycles, by taking into account              */
 790:../../dependencies/STM32CubeL0/Drivers/STM32L0xx_HAL_Driver/Inc/stm32l0xx_ll_adc.h **** /*       ratio of CPU clock versus ADC clock prescalers.                      */
 791:../../dependencies/STM32CubeL0/Drivers/STM32L0xx_HAL_Driver/Inc/stm32l0xx_ll_adc.h **** /* Unit: ADC clock cycles.                                                    */
 792:../../dependencies/STM32CubeL0/Drivers/STM32L0xx_HAL_Driver/Inc/stm32l0xx_ll_adc.h **** #define LL_ADC_DELAY_CALIB_ENABLE_ADC_CYCLES (2U)             /*!< Delay required between ADC end o
 793:../../dependencies/STM32CubeL0/Drivers/STM32L0xx_HAL_Driver/Inc/stm32l0xx_ll_adc.h **** 
 794:../../dependencies/STM32CubeL0/Drivers/STM32L0xx_HAL_Driver/Inc/stm32l0xx_ll_adc.h **** /**
 795:../../dependencies/STM32CubeL0/Drivers/STM32L0xx_HAL_Driver/Inc/stm32l0xx_ll_adc.h ****   * @}
 796:../../dependencies/STM32CubeL0/Drivers/STM32L0xx_HAL_Driver/Inc/stm32l0xx_ll_adc.h ****   */
 797:../../dependencies/STM32CubeL0/Drivers/STM32L0xx_HAL_Driver/Inc/stm32l0xx_ll_adc.h **** 
 798:../../dependencies/STM32CubeL0/Drivers/STM32L0xx_HAL_Driver/Inc/stm32l0xx_ll_adc.h **** /**
 799:../../dependencies/STM32CubeL0/Drivers/STM32L0xx_HAL_Driver/Inc/stm32l0xx_ll_adc.h ****   * @}
 800:../../dependencies/STM32CubeL0/Drivers/STM32L0xx_HAL_Driver/Inc/stm32l0xx_ll_adc.h ****   */
 801:../../dependencies/STM32CubeL0/Drivers/STM32L0xx_HAL_Driver/Inc/stm32l0xx_ll_adc.h **** 
 802:../../dependencies/STM32CubeL0/Drivers/STM32L0xx_HAL_Driver/Inc/stm32l0xx_ll_adc.h **** 
 803:../../dependencies/STM32CubeL0/Drivers/STM32L0xx_HAL_Driver/Inc/stm32l0xx_ll_adc.h **** /* Exported macro ------------------------------------------------------------*/
 804:../../dependencies/STM32CubeL0/Drivers/STM32L0xx_HAL_Driver/Inc/stm32l0xx_ll_adc.h **** /** @defgroup ADC_LL_Exported_Macros ADC Exported Macros
 805:../../dependencies/STM32CubeL0/Drivers/STM32L0xx_HAL_Driver/Inc/stm32l0xx_ll_adc.h ****   * @{
 806:../../dependencies/STM32CubeL0/Drivers/STM32L0xx_HAL_Driver/Inc/stm32l0xx_ll_adc.h ****   */
 807:../../dependencies/STM32CubeL0/Drivers/STM32L0xx_HAL_Driver/Inc/stm32l0xx_ll_adc.h **** 
 808:../../dependencies/STM32CubeL0/Drivers/STM32L0xx_HAL_Driver/Inc/stm32l0xx_ll_adc.h **** /** @defgroup ADC_LL_EM_WRITE_READ Common write and read registers Macros
 809:../../dependencies/STM32CubeL0/Drivers/STM32L0xx_HAL_Driver/Inc/stm32l0xx_ll_adc.h ****   * @{
 810:../../dependencies/STM32CubeL0/Drivers/STM32L0xx_HAL_Driver/Inc/stm32l0xx_ll_adc.h ****   */
 811:../../dependencies/STM32CubeL0/Drivers/STM32L0xx_HAL_Driver/Inc/stm32l0xx_ll_adc.h **** 
 812:../../dependencies/STM32CubeL0/Drivers/STM32L0xx_HAL_Driver/Inc/stm32l0xx_ll_adc.h **** /**
ARM GAS  /tmp/cctetIQd.s 			page 35


 813:../../dependencies/STM32CubeL0/Drivers/STM32L0xx_HAL_Driver/Inc/stm32l0xx_ll_adc.h ****   * @brief  Write a value in ADC register
 814:../../dependencies/STM32CubeL0/Drivers/STM32L0xx_HAL_Driver/Inc/stm32l0xx_ll_adc.h ****   * @param  __INSTANCE__ ADC Instance
 815:../../dependencies/STM32CubeL0/Drivers/STM32L0xx_HAL_Driver/Inc/stm32l0xx_ll_adc.h ****   * @param  __REG__ Register to be written
 816:../../dependencies/STM32CubeL0/Drivers/STM32L0xx_HAL_Driver/Inc/stm32l0xx_ll_adc.h ****   * @param  __VALUE__ Value to be written in the register
 817:../../dependencies/STM32CubeL0/Drivers/STM32L0xx_HAL_Driver/Inc/stm32l0xx_ll_adc.h ****   * @retval None
 818:../../dependencies/STM32CubeL0/Drivers/STM32L0xx_HAL_Driver/Inc/stm32l0xx_ll_adc.h ****   */
 819:../../dependencies/STM32CubeL0/Drivers/STM32L0xx_HAL_Driver/Inc/stm32l0xx_ll_adc.h **** #define LL_ADC_WriteReg(__INSTANCE__, __REG__, __VALUE__) WRITE_REG(__INSTANCE__->__REG__, (__VALUE
 820:../../dependencies/STM32CubeL0/Drivers/STM32L0xx_HAL_Driver/Inc/stm32l0xx_ll_adc.h **** 
 821:../../dependencies/STM32CubeL0/Drivers/STM32L0xx_HAL_Driver/Inc/stm32l0xx_ll_adc.h **** /**
 822:../../dependencies/STM32CubeL0/Drivers/STM32L0xx_HAL_Driver/Inc/stm32l0xx_ll_adc.h ****   * @brief  Read a value in ADC register
 823:../../dependencies/STM32CubeL0/Drivers/STM32L0xx_HAL_Driver/Inc/stm32l0xx_ll_adc.h ****   * @param  __INSTANCE__ ADC Instance
 824:../../dependencies/STM32CubeL0/Drivers/STM32L0xx_HAL_Driver/Inc/stm32l0xx_ll_adc.h ****   * @param  __REG__ Register to be read
 825:../../dependencies/STM32CubeL0/Drivers/STM32L0xx_HAL_Driver/Inc/stm32l0xx_ll_adc.h ****   * @retval Register value
 826:../../dependencies/STM32CubeL0/Drivers/STM32L0xx_HAL_Driver/Inc/stm32l0xx_ll_adc.h ****   */
 827:../../dependencies/STM32CubeL0/Drivers/STM32L0xx_HAL_Driver/Inc/stm32l0xx_ll_adc.h **** #define LL_ADC_ReadReg(__INSTANCE__, __REG__) READ_REG(__INSTANCE__->__REG__)
 828:../../dependencies/STM32CubeL0/Drivers/STM32L0xx_HAL_Driver/Inc/stm32l0xx_ll_adc.h **** /**
 829:../../dependencies/STM32CubeL0/Drivers/STM32L0xx_HAL_Driver/Inc/stm32l0xx_ll_adc.h ****   * @}
 830:../../dependencies/STM32CubeL0/Drivers/STM32L0xx_HAL_Driver/Inc/stm32l0xx_ll_adc.h ****   */
 831:../../dependencies/STM32CubeL0/Drivers/STM32L0xx_HAL_Driver/Inc/stm32l0xx_ll_adc.h **** 
 832:../../dependencies/STM32CubeL0/Drivers/STM32L0xx_HAL_Driver/Inc/stm32l0xx_ll_adc.h **** /** @defgroup ADC_LL_EM_HELPER_MACRO ADC helper macro
 833:../../dependencies/STM32CubeL0/Drivers/STM32L0xx_HAL_Driver/Inc/stm32l0xx_ll_adc.h ****   * @{
 834:../../dependencies/STM32CubeL0/Drivers/STM32L0xx_HAL_Driver/Inc/stm32l0xx_ll_adc.h ****   */
 835:../../dependencies/STM32CubeL0/Drivers/STM32L0xx_HAL_Driver/Inc/stm32l0xx_ll_adc.h **** 
 836:../../dependencies/STM32CubeL0/Drivers/STM32L0xx_HAL_Driver/Inc/stm32l0xx_ll_adc.h **** /**
 837:../../dependencies/STM32CubeL0/Drivers/STM32L0xx_HAL_Driver/Inc/stm32l0xx_ll_adc.h ****   * @brief  Helper macro to get ADC channel number in decimal format
 838:../../dependencies/STM32CubeL0/Drivers/STM32L0xx_HAL_Driver/Inc/stm32l0xx_ll_adc.h ****   *         from literals LL_ADC_CHANNEL_x.
 839:../../dependencies/STM32CubeL0/Drivers/STM32L0xx_HAL_Driver/Inc/stm32l0xx_ll_adc.h ****   * @note   Example:
 840:../../dependencies/STM32CubeL0/Drivers/STM32L0xx_HAL_Driver/Inc/stm32l0xx_ll_adc.h ****   *           __LL_ADC_CHANNEL_TO_DECIMAL_NB(LL_ADC_CHANNEL_4)
 841:../../dependencies/STM32CubeL0/Drivers/STM32L0xx_HAL_Driver/Inc/stm32l0xx_ll_adc.h ****   *           will return decimal number "4".
 842:../../dependencies/STM32CubeL0/Drivers/STM32L0xx_HAL_Driver/Inc/stm32l0xx_ll_adc.h ****   * @note   The input can be a value from functions where a channel
 843:../../dependencies/STM32CubeL0/Drivers/STM32L0xx_HAL_Driver/Inc/stm32l0xx_ll_adc.h ****   *         number is returned, either defined with number
 844:../../dependencies/STM32CubeL0/Drivers/STM32L0xx_HAL_Driver/Inc/stm32l0xx_ll_adc.h ****   *         or with bitfield (only one bit must be set).
 845:../../dependencies/STM32CubeL0/Drivers/STM32L0xx_HAL_Driver/Inc/stm32l0xx_ll_adc.h ****   * @param  __CHANNEL__ This parameter can be one of the following values:
 846:../../dependencies/STM32CubeL0/Drivers/STM32L0xx_HAL_Driver/Inc/stm32l0xx_ll_adc.h ****   *         @arg @ref LL_ADC_CHANNEL_0
 847:../../dependencies/STM32CubeL0/Drivers/STM32L0xx_HAL_Driver/Inc/stm32l0xx_ll_adc.h ****   *         @arg @ref LL_ADC_CHANNEL_1
 848:../../dependencies/STM32CubeL0/Drivers/STM32L0xx_HAL_Driver/Inc/stm32l0xx_ll_adc.h ****   *         @arg @ref LL_ADC_CHANNEL_2
 849:../../dependencies/STM32CubeL0/Drivers/STM32L0xx_HAL_Driver/Inc/stm32l0xx_ll_adc.h ****   *         @arg @ref LL_ADC_CHANNEL_3
 850:../../dependencies/STM32CubeL0/Drivers/STM32L0xx_HAL_Driver/Inc/stm32l0xx_ll_adc.h ****   *         @arg @ref LL_ADC_CHANNEL_4
 851:../../dependencies/STM32CubeL0/Drivers/STM32L0xx_HAL_Driver/Inc/stm32l0xx_ll_adc.h ****   *         @arg @ref LL_ADC_CHANNEL_5
 852:../../dependencies/STM32CubeL0/Drivers/STM32L0xx_HAL_Driver/Inc/stm32l0xx_ll_adc.h ****   *         @arg @ref LL_ADC_CHANNEL_6
 853:../../dependencies/STM32CubeL0/Drivers/STM32L0xx_HAL_Driver/Inc/stm32l0xx_ll_adc.h ****   *         @arg @ref LL_ADC_CHANNEL_7
 854:../../dependencies/STM32CubeL0/Drivers/STM32L0xx_HAL_Driver/Inc/stm32l0xx_ll_adc.h ****   *         @arg @ref LL_ADC_CHANNEL_8
 855:../../dependencies/STM32CubeL0/Drivers/STM32L0xx_HAL_Driver/Inc/stm32l0xx_ll_adc.h ****   *         @arg @ref LL_ADC_CHANNEL_9
 856:../../dependencies/STM32CubeL0/Drivers/STM32L0xx_HAL_Driver/Inc/stm32l0xx_ll_adc.h ****   *         @arg @ref LL_ADC_CHANNEL_10
 857:../../dependencies/STM32CubeL0/Drivers/STM32L0xx_HAL_Driver/Inc/stm32l0xx_ll_adc.h ****   *         @arg @ref LL_ADC_CHANNEL_11
 858:../../dependencies/STM32CubeL0/Drivers/STM32L0xx_HAL_Driver/Inc/stm32l0xx_ll_adc.h ****   *         @arg @ref LL_ADC_CHANNEL_12
 859:../../dependencies/STM32CubeL0/Drivers/STM32L0xx_HAL_Driver/Inc/stm32l0xx_ll_adc.h ****   *         @arg @ref LL_ADC_CHANNEL_13
 860:../../dependencies/STM32CubeL0/Drivers/STM32L0xx_HAL_Driver/Inc/stm32l0xx_ll_adc.h ****   *         @arg @ref LL_ADC_CHANNEL_14
 861:../../dependencies/STM32CubeL0/Drivers/STM32L0xx_HAL_Driver/Inc/stm32l0xx_ll_adc.h ****   *         @arg @ref LL_ADC_CHANNEL_15
 862:../../dependencies/STM32CubeL0/Drivers/STM32L0xx_HAL_Driver/Inc/stm32l0xx_ll_adc.h ****   *         @arg @ref LL_ADC_CHANNEL_16         (1)
 863:../../dependencies/STM32CubeL0/Drivers/STM32L0xx_HAL_Driver/Inc/stm32l0xx_ll_adc.h ****   *         @arg @ref LL_ADC_CHANNEL_17
 864:../../dependencies/STM32CubeL0/Drivers/STM32L0xx_HAL_Driver/Inc/stm32l0xx_ll_adc.h ****   *         @arg @ref LL_ADC_CHANNEL_18
 865:../../dependencies/STM32CubeL0/Drivers/STM32L0xx_HAL_Driver/Inc/stm32l0xx_ll_adc.h ****   *         @arg @ref LL_ADC_CHANNEL_VREFINT
 866:../../dependencies/STM32CubeL0/Drivers/STM32L0xx_HAL_Driver/Inc/stm32l0xx_ll_adc.h ****   *         @arg @ref LL_ADC_CHANNEL_TEMPSENSOR
 867:../../dependencies/STM32CubeL0/Drivers/STM32L0xx_HAL_Driver/Inc/stm32l0xx_ll_adc.h ****   *         @arg @ref LL_ADC_CHANNEL_VLCD       (1)
 868:../../dependencies/STM32CubeL0/Drivers/STM32L0xx_HAL_Driver/Inc/stm32l0xx_ll_adc.h ****   *         
 869:../../dependencies/STM32CubeL0/Drivers/STM32L0xx_HAL_Driver/Inc/stm32l0xx_ll_adc.h ****   *         (1) On STM32L0, parameter not available on all devices: only on STM32L053xx, STM32L063x
ARM GAS  /tmp/cctetIQd.s 			page 36


 870:../../dependencies/STM32CubeL0/Drivers/STM32L0xx_HAL_Driver/Inc/stm32l0xx_ll_adc.h ****   * @retval Value between Min_Data=0 and Max_Data=18
 871:../../dependencies/STM32CubeL0/Drivers/STM32L0xx_HAL_Driver/Inc/stm32l0xx_ll_adc.h ****   */
 872:../../dependencies/STM32CubeL0/Drivers/STM32L0xx_HAL_Driver/Inc/stm32l0xx_ll_adc.h **** #if defined(ADC_CCR_VLCDEN)
 873:../../dependencies/STM32CubeL0/Drivers/STM32L0xx_HAL_Driver/Inc/stm32l0xx_ll_adc.h **** #define __LL_ADC_CHANNEL_TO_DECIMAL_NB(__CHANNEL__)                                                
 874:../../dependencies/STM32CubeL0/Drivers/STM32L0xx_HAL_Driver/Inc/stm32l0xx_ll_adc.h ****   ((((__CHANNEL__) & ADC_CHANNEL_ID_BITFIELD_MASK) == 0U)                                          
 875:../../dependencies/STM32CubeL0/Drivers/STM32L0xx_HAL_Driver/Inc/stm32l0xx_ll_adc.h ****     ? (                                                                                            
 876:../../dependencies/STM32CubeL0/Drivers/STM32L0xx_HAL_Driver/Inc/stm32l0xx_ll_adc.h ****        ((__CHANNEL__) & ADC_CHANNEL_ID_NUMBER_MASK) >> ADC_CHANNEL_ID_NUMBER_BITOFFSET_POS         
 877:../../dependencies/STM32CubeL0/Drivers/STM32L0xx_HAL_Driver/Inc/stm32l0xx_ll_adc.h ****       )                                                                                            
 878:../../dependencies/STM32CubeL0/Drivers/STM32L0xx_HAL_Driver/Inc/stm32l0xx_ll_adc.h ****       :                                                                                            
 879:../../dependencies/STM32CubeL0/Drivers/STM32L0xx_HAL_Driver/Inc/stm32l0xx_ll_adc.h ****       (                                                                                            
 880:../../dependencies/STM32CubeL0/Drivers/STM32L0xx_HAL_Driver/Inc/stm32l0xx_ll_adc.h ****        (((__CHANNEL__) & ADC_CHSELR_CHSEL0) == ADC_CHSELR_CHSEL0) ? (0U) :                         
 881:../../dependencies/STM32CubeL0/Drivers/STM32L0xx_HAL_Driver/Inc/stm32l0xx_ll_adc.h ****         (                                                                                          
 882:../../dependencies/STM32CubeL0/Drivers/STM32L0xx_HAL_Driver/Inc/stm32l0xx_ll_adc.h ****          (((__CHANNEL__) & ADC_CHSELR_CHSEL1) == ADC_CHSELR_CHSEL1) ? (1U) :                       
 883:../../dependencies/STM32CubeL0/Drivers/STM32L0xx_HAL_Driver/Inc/stm32l0xx_ll_adc.h ****           (                                                                                        
 884:../../dependencies/STM32CubeL0/Drivers/STM32L0xx_HAL_Driver/Inc/stm32l0xx_ll_adc.h ****            (((__CHANNEL__) & ADC_CHSELR_CHSEL2) == ADC_CHSELR_CHSEL2) ? (2U) :                     
 885:../../dependencies/STM32CubeL0/Drivers/STM32L0xx_HAL_Driver/Inc/stm32l0xx_ll_adc.h ****             (                                                                                      
 886:../../dependencies/STM32CubeL0/Drivers/STM32L0xx_HAL_Driver/Inc/stm32l0xx_ll_adc.h ****              (((__CHANNEL__) & ADC_CHSELR_CHSEL3) == ADC_CHSELR_CHSEL3) ? (3U) :                   
 887:../../dependencies/STM32CubeL0/Drivers/STM32L0xx_HAL_Driver/Inc/stm32l0xx_ll_adc.h ****               (                                                                                    
 888:../../dependencies/STM32CubeL0/Drivers/STM32L0xx_HAL_Driver/Inc/stm32l0xx_ll_adc.h ****                (((__CHANNEL__) & ADC_CHSELR_CHSEL4) == ADC_CHSELR_CHSEL4) ? (4U) :                 
 889:../../dependencies/STM32CubeL0/Drivers/STM32L0xx_HAL_Driver/Inc/stm32l0xx_ll_adc.h ****                 (                                                                                  
 890:../../dependencies/STM32CubeL0/Drivers/STM32L0xx_HAL_Driver/Inc/stm32l0xx_ll_adc.h ****                  (((__CHANNEL__) & ADC_CHSELR_CHSEL5) == ADC_CHSELR_CHSEL5) ? (5U) :               
 891:../../dependencies/STM32CubeL0/Drivers/STM32L0xx_HAL_Driver/Inc/stm32l0xx_ll_adc.h ****                   (                                                                                
 892:../../dependencies/STM32CubeL0/Drivers/STM32L0xx_HAL_Driver/Inc/stm32l0xx_ll_adc.h ****                    (((__CHANNEL__) & ADC_CHSELR_CHSEL6) == ADC_CHSELR_CHSEL6) ? (6U) :             
 893:../../dependencies/STM32CubeL0/Drivers/STM32L0xx_HAL_Driver/Inc/stm32l0xx_ll_adc.h ****                     (                                                                              
 894:../../dependencies/STM32CubeL0/Drivers/STM32L0xx_HAL_Driver/Inc/stm32l0xx_ll_adc.h ****                      (((__CHANNEL__) & ADC_CHSELR_CHSEL7) == ADC_CHSELR_CHSEL7) ? (7U) :           
 895:../../dependencies/STM32CubeL0/Drivers/STM32L0xx_HAL_Driver/Inc/stm32l0xx_ll_adc.h ****                       (                                                                            
 896:../../dependencies/STM32CubeL0/Drivers/STM32L0xx_HAL_Driver/Inc/stm32l0xx_ll_adc.h ****                        (((__CHANNEL__) & ADC_CHSELR_CHSEL8) == ADC_CHSELR_CHSEL8) ? (8U) :         
 897:../../dependencies/STM32CubeL0/Drivers/STM32L0xx_HAL_Driver/Inc/stm32l0xx_ll_adc.h ****                         (                                                                          
 898:../../dependencies/STM32CubeL0/Drivers/STM32L0xx_HAL_Driver/Inc/stm32l0xx_ll_adc.h ****                          (((__CHANNEL__) & ADC_CHSELR_CHSEL9) == ADC_CHSELR_CHSEL9) ? (9U) :       
