ARM GAS  /tmp/cc84EIjL.s 			page 1


   1              		.cpu cortex-m0plus
   2              		.eabi_attribute 20, 1
   3              		.eabi_attribute 21, 1
   4              		.eabi_attribute 23, 3
   5              		.eabi_attribute 24, 1
   6              		.eabi_attribute 25, 1
   7              		.eabi_attribute 26, 1
   8              		.eabi_attribute 30, 6
   9              		.eabi_attribute 34, 0
  10              		.eabi_attribute 18, 4
  11              		.file	"bno055.c"
  12              		.text
  13              	.Ltext0:
  14              		.cfi_sections	.debug_frame
  15              		.section	.bss.p_bno055,"aw",%nobits
  16              		.align	2
  19              	p_bno055:
  20 0000 00000000 		.space	4
  21              		.section	.text.bno055_init,"ax",%progbits
  22              		.align	1
  23              		.global	bno055_init
  24              		.arch armv6s-m
  25              		.syntax unified
  26              		.code	16
  27              		.thumb_func
  28              		.fpu softvfp
  30              	bno055_init:
  31              	.LFB0:
  32              		.file 1 "../../libraries/bno055/bno055.c"
   1:../../libraries/bno055/bno055.c **** /**
   2:../../libraries/bno055/bno055.c ****  * Copyright (c) 2020 Bosch Sensortec GmbH. All rights reserved.
   3:../../libraries/bno055/bno055.c ****  *
   4:../../libraries/bno055/bno055.c ****  * BSD-3-Clause
   5:../../libraries/bno055/bno055.c ****  *
   6:../../libraries/bno055/bno055.c ****  * Redistribution and use in source and binary forms, with or without
   7:../../libraries/bno055/bno055.c ****  * modification, are permitted provided that the following conditions are met:
   8:../../libraries/bno055/bno055.c ****  *
   9:../../libraries/bno055/bno055.c ****  * 1. Redistributions of source code must retain the above copyright
  10:../../libraries/bno055/bno055.c ****  *    notice, this list of conditions and the following disclaimer.
  11:../../libraries/bno055/bno055.c ****  *
  12:../../libraries/bno055/bno055.c ****  * 2. Redistributions in binary form must reproduce the above copyright
  13:../../libraries/bno055/bno055.c ****  *    notice, this list of conditions and the following disclaimer in the
  14:../../libraries/bno055/bno055.c ****  *    documentation and/or other materials provided with the distribution.
  15:../../libraries/bno055/bno055.c ****  *
  16:../../libraries/bno055/bno055.c ****  * 3. Neither the name of the copyright holder nor the names of its
  17:../../libraries/bno055/bno055.c ****  *    contributors may be used to endorse or promote products derived from
  18:../../libraries/bno055/bno055.c ****  *    this software without specific prior written permission.
  19:../../libraries/bno055/bno055.c ****  *
  20:../../libraries/bno055/bno055.c ****  * THIS SOFTWARE IS PROVIDED BY THE COPYRIGHT HOLDERS AND CONTRIBUTORS
  21:../../libraries/bno055/bno055.c ****  * "AS IS" AND ANY EXPRESS OR IMPLIED WARRANTIES, INCLUDING, BUT NOT
  22:../../libraries/bno055/bno055.c ****  * LIMITED TO, THE IMPLIED WARRANTIES OF MERCHANTABILITY AND FITNESS
  23:../../libraries/bno055/bno055.c ****  * FOR A PARTICULAR PURPOSE ARE DISCLAIMED. IN NO EVENT SHALL THE
  24:../../libraries/bno055/bno055.c ****  * COPYRIGHT HOLDER OR CONTRIBUTORS BE LIABLE FOR ANY DIRECT, INDIRECT,
  25:../../libraries/bno055/bno055.c ****  * INCIDENTAL, SPECIAL, EXEMPLARY, OR CONSEQUENTIAL DAMAGES
  26:../../libraries/bno055/bno055.c ****  * (INCLUDING, BUT NOT LIMITED TO, PROCUREMENT OF SUBSTITUTE GOODS OR
  27:../../libraries/bno055/bno055.c ****  * SERVICES; LOSS OF USE, DATA, OR PROFITS; OR BUSINESS INTERRUPTION)
  28:../../libraries/bno055/bno055.c ****  * HOWEVER CAUSED AND ON ANY THEORY OF LIABILITY, WHETHER IN CONTRACT,
ARM GAS  /tmp/cc84EIjL.s 			page 2


  29:../../libraries/bno055/bno055.c ****  * STRICT LIABILITY, OR TORT (INCLUDING NEGLIGENCE OR OTHERWISE) ARISING
  30:../../libraries/bno055/bno055.c ****  * IN ANY WAY OUT OF THE USE OF THIS SOFTWARE, EVEN IF ADVISED OF THE
  31:../../libraries/bno055/bno055.c ****  * POSSIBILITY OF SUCH DAMAGE.
  32:../../libraries/bno055/bno055.c ****  *
  33:../../libraries/bno055/bno055.c ****  * @file bno055.c
  34:../../libraries/bno055/bno055.c ****  * @date 10/01/2020
  35:../../libraries/bno055/bno055.c ****  * @version  2.0.6
  36:../../libraries/bno055/bno055.c ****  *
  37:../../libraries/bno055/bno055.c ****  */
  38:../../libraries/bno055/bno055.c **** 
  39:../../libraries/bno055/bno055.c **** /*********************************************************/
  40:../../libraries/bno055/bno055.c **** /*              INCLUDES    */
  41:../../libraries/bno055/bno055.c **** /*******************************************************/
  42:../../libraries/bno055/bno055.c **** #include "bno055.h"
  43:../../libraries/bno055/bno055.c **** 
  44:../../libraries/bno055/bno055.c **** #ifdef __KERNEL__
  45:../../libraries/bno055/bno055.c **** #include <linux/types.h>
  46:../../libraries/bno055/bno055.c **** #include <linux/kernel.h>
  47:../../libraries/bno055/bno055.c **** #else
  48:../../libraries/bno055/bno055.c **** #include <stdint.h>
  49:../../libraries/bno055/bno055.c **** #include <stddef.h>
  50:../../libraries/bno055/bno055.c **** #endif
  51:../../libraries/bno055/bno055.c **** 
  52:../../libraries/bno055/bno055.c **** #ifndef NULL
  53:../../libraries/bno055/bno055.c **** #ifdef __cplusplus
  54:../../libraries/bno055/bno055.c **** #define NULL    0
  55:../../libraries/bno055/bno055.c **** #else
  56:../../libraries/bno055/bno055.c **** #define NULL    ((void *)0)
  57:../../libraries/bno055/bno055.c **** #endif
  58:../../libraries/bno055/bno055.c **** #endif
  59:../../libraries/bno055/bno055.c **** 
  60:../../libraries/bno055/bno055.c **** /*! file <BNO055 >
  61:../../libraries/bno055/bno055.c ****  * brief <Sensor driver for BNO055> */
  62:../../libraries/bno055/bno055.c **** 
  63:../../libraries/bno055/bno055.c **** /*  STRUCTURE DEFINITIONS   */
  64:../../libraries/bno055/bno055.c **** static struct bno055_t *p_bno055;
  65:../../libraries/bno055/bno055.c **** 
  66:../../libraries/bno055/bno055.c **** /*   LOCAL FUNCTIONS    */
  67:../../libraries/bno055/bno055.c **** 
  68:../../libraries/bno055/bno055.c **** /*!
  69:../../libraries/bno055/bno055.c ****  *  @brief
  70:../../libraries/bno055/bno055.c ****  *  This API is used for initialize
  71:../../libraries/bno055/bno055.c ****  *  bus read, bus write function pointers,device
  72:../../libraries/bno055/bno055.c ****  *  address,accel revision id, gyro revision id
  73:../../libraries/bno055/bno055.c ****  *  mag revision id, software revision id, boot loader
  74:../../libraries/bno055/bno055.c ****  *  revision id and page id
  75:../../libraries/bno055/bno055.c ****  *
  76:../../libraries/bno055/bno055.c ****  *  @param  bno055 - structure pointer
  77:../../libraries/bno055/bno055.c ****  *
  78:../../libraries/bno055/bno055.c ****  *
  79:../../libraries/bno055/bno055.c ****  *  @return results of bus communication function
  80:../../libraries/bno055/bno055.c ****  *  @retval 0 -> BNO055_SUCCESS
  81:../../libraries/bno055/bno055.c ****  *  @retval 1 -> BNO055_ERROR
  82:../../libraries/bno055/bno055.c ****  *
  83:../../libraries/bno055/bno055.c ****  *  @note While changing the parameter of the bno055_t
  84:../../libraries/bno055/bno055.c ****  *  consider the following point:
  85:../../libraries/bno055/bno055.c ****  *  Changing the reference value of the parameter
ARM GAS  /tmp/cc84EIjL.s 			page 3


  86:../../libraries/bno055/bno055.c ****  *  will changes the local copy or local reference
  87:../../libraries/bno055/bno055.c ****  *  make sure your changes will not
  88:../../libraries/bno055/bno055.c ****  *  affect the reference value of the parameter
  89:../../libraries/bno055/bno055.c ****  *  (Better case don't change the reference value of the parameter)
  90:../../libraries/bno055/bno055.c ****  */
  91:../../libraries/bno055/bno055.c **** BNO055_RETURN_FUNCTION_TYPE bno055_init(struct bno055_t *bno055)
  92:../../libraries/bno055/bno055.c **** {
  33              		.loc 1 92 1
  34              		.cfi_startproc
  35              		@ args = 0, pretend = 0, frame = 16
  36              		@ frame_needed = 1, uses_anonymous_args = 0
  37 0000 F0B5     		push	{r4, r5, r6, r7, lr}
  38              		.cfi_def_cfa_offset 20
  39              		.cfi_offset 4, -20
  40              		.cfi_offset 5, -16
  41              		.cfi_offset 6, -12
  42              		.cfi_offset 7, -8
  43              		.cfi_offset 14, -4
  44 0002 85B0     		sub	sp, sp, #20
  45              		.cfi_def_cfa_offset 40
  46 0004 00AF     		add	r7, sp, #0
  47              		.cfi_def_cfa_register 7
  48 0006 7860     		str	r0, [r7, #4]
  93:../../libraries/bno055/bno055.c ****   /* Variable used to return value of
  94:../../libraries/bno055/bno055.c ****    * communication routine*/
  95:../../libraries/bno055/bno055.c ****   BNO055_RETURN_FUNCTION_TYPE com_rslt = BNO055_ERROR;
  49              		.loc 1 95 31
  50 0008 0F26     		movs	r6, #15
  51 000a BB19     		adds	r3, r7, r6
  52 000c FF22     		movs	r2, #255
  53 000e 1A70     		strb	r2, [r3]
  96:../../libraries/bno055/bno055.c ****   u8 data_u8 = BNO055_INIT_VALUE;
  54              		.loc 1 96 6
  55 0010 0E23     		movs	r3, #14
  56 0012 FB18     		adds	r3, r7, r3
  57 0014 0022     		movs	r2, #0
  58 0016 1A70     		strb	r2, [r3]
  97:../../libraries/bno055/bno055.c ****   u8 bno055_page_zero_u8 = BNO055_PAGE_ZERO;
  59              		.loc 1 97 6
  60 0018 0D22     		movs	r2, #13
  61 001a BB18     		adds	r3, r7, r2
  62 001c 0022     		movs	r2, #0
  63 001e 1A70     		strb	r2, [r3]
  98:../../libraries/bno055/bno055.c **** 
  99:../../libraries/bno055/bno055.c ****   /* Array holding the Software revision id
 100:../../libraries/bno055/bno055.c ****    */
 101:../../libraries/bno055/bno055.c ****   u8 a_SW_ID_u8[BNO055_REV_ID_SIZE] = { BNO055_INIT_VALUE, BNO055_INIT_VALUE };
  64              		.loc 1 101 6
  65 0020 0821     		movs	r1, #8
  66 0022 7B18     		adds	r3, r7, r1
  67 0024 0022     		movs	r2, #0
  68 0026 1A80     		strh	r2, [r3]
 102:../../libraries/bno055/bno055.c **** 
 103:../../libraries/bno055/bno055.c ****   /* stuct parameters are assign to bno055*/
 104:../../libraries/bno055/bno055.c ****   p_bno055 = bno055;
  69              		.loc 1 104 12
  70 0028 654B     		ldr	r3, .L3
ARM GAS  /tmp/cc84EIjL.s 			page 4


  71 002a 7A68     		ldr	r2, [r7, #4]
  72 002c 1A60     		str	r2, [r3]
 105:../../libraries/bno055/bno055.c **** 
 106:../../libraries/bno055/bno055.c ****   /* Write the default page as zero*/
 107:../../libraries/bno055/bno055.c ****   com_rslt = p_bno055->BNO055_BUS_WRITE_FUNC(p_bno055->dev_addr,
  73              		.loc 1 107 22
  74 002e 644B     		ldr	r3, .L3
  75 0030 1B68     		ldr	r3, [r3]
  76 0032 DD68     		ldr	r5, [r3, #12]
  77              		.loc 1 107 24
  78 0034 624B     		ldr	r3, .L3
  79 0036 1B68     		ldr	r3, [r3]
  80              		.loc 1 107 14
  81 0038 587A     		ldrb	r0, [r3, #9]
  82 003a BC19     		adds	r4, r7, r6
  83 003c 0D22     		movs	r2, #13
  84 003e BA18     		adds	r2, r7, r2
  85 0040 0123     		movs	r3, #1
  86 0042 0721     		movs	r1, #7
  87 0044 A847     		blx	r5
  88              	.LVL0:
  89 0046 0300     		movs	r3, r0
  90 0048 2370     		strb	r3, [r4]
 108:../../libraries/bno055/bno055.c ****                                              BNO055_PAGE_ID_REG,
 109:../../libraries/bno055/bno055.c ****                                              &bno055_page_zero_u8,
 110:../../libraries/bno055/bno055.c ****                                              BNO055_GEN_READ_WRITE_LENGTH);
 111:../../libraries/bno055/bno055.c **** 
 112:../../libraries/bno055/bno055.c ****   /* Read the chip id of the sensor from page
 113:../../libraries/bno055/bno055.c ****    * zero 0x00 register*/
 114:../../libraries/bno055/bno055.c ****   com_rslt += p_bno055->BNO055_BUS_READ_FUNC(p_bno055->dev_addr,
  91              		.loc 1 114 23
  92 004a 5D4B     		ldr	r3, .L3
  93 004c 1B68     		ldr	r3, [r3]
  94 004e 1C69     		ldr	r4, [r3, #16]
  95              		.loc 1 114 25
  96 0050 5B4B     		ldr	r3, .L3
  97 0052 1B68     		ldr	r3, [r3]
  98              		.loc 1 114 15
  99 0054 587A     		ldrb	r0, [r3, #9]
 100 0056 0E23     		movs	r3, #14
 101 0058 FA18     		adds	r2, r7, r3
 102 005a 0123     		movs	r3, #1
 103 005c 0021     		movs	r1, #0
 104 005e A047     		blx	r4
 105              	.LVL1:
 106 0060 0300     		movs	r3, r0
 107 0062 DAB2     		uxtb	r2, r3
 108              		.loc 1 114 12
 109 0064 3500     		movs	r5, r6
 110 0066 7B19     		adds	r3, r7, r5
 111 0068 1B78     		ldrb	r3, [r3]
 112 006a D318     		adds	r3, r2, r3
 113 006c DAB2     		uxtb	r2, r3
 114 006e 7B19     		adds	r3, r7, r5
 115 0070 1A70     		strb	r2, [r3]
 115:../../libraries/bno055/bno055.c ****                                              BNO055_CHIP_ID_REG,
 116:../../libraries/bno055/bno055.c ****                                              &data_u8,
ARM GAS  /tmp/cc84EIjL.s 			page 5


 117:../../libraries/bno055/bno055.c ****                                              BNO055_GEN_READ_WRITE_LENGTH);
 118:../../libraries/bno055/bno055.c ****   p_bno055->chip_id = data_u8;
 116              		.loc 1 118 11
 117 0072 534B     		ldr	r3, .L3
 118 0074 1B68     		ldr	r3, [r3]
 119              		.loc 1 118 21
 120 0076 0E26     		movs	r6, #14
 121 0078 BA19     		adds	r2, r7, r6
 122 007a 1278     		ldrb	r2, [r2]
 123 007c 1A70     		strb	r2, [r3]
 119:../../libraries/bno055/bno055.c **** 
 120:../../libraries/bno055/bno055.c ****   /* Read the accel revision id from page
 121:../../libraries/bno055/bno055.c ****    * zero 0x01 register*/
 122:../../libraries/bno055/bno055.c ****   com_rslt += p_bno055->BNO055_BUS_READ_FUNC(p_bno055->dev_addr,
 124              		.loc 1 122 23
 125 007e 504B     		ldr	r3, .L3
 126 0080 1B68     		ldr	r3, [r3]
 127 0082 1C69     		ldr	r4, [r3, #16]
 128              		.loc 1 122 25
 129 0084 4E4B     		ldr	r3, .L3
 130 0086 1B68     		ldr	r3, [r3]
 131              		.loc 1 122 15
 132 0088 587A     		ldrb	r0, [r3, #9]
 133 008a BA19     		adds	r2, r7, r6
 134 008c 0123     		movs	r3, #1
 135 008e 0121     		movs	r1, #1
 136 0090 A047     		blx	r4
 137              	.LVL2:
 138 0092 0300     		movs	r3, r0
 139 0094 DAB2     		uxtb	r2, r3
 140              		.loc 1 122 12
 141 0096 7B19     		adds	r3, r7, r5
 142 0098 1B78     		ldrb	r3, [r3]
 143 009a D318     		adds	r3, r2, r3
 144 009c DAB2     		uxtb	r2, r3
 145 009e 7B19     		adds	r3, r7, r5
 146 00a0 1A70     		strb	r2, [r3]
 123:../../libraries/bno055/bno055.c ****                                              BNO055_ACCEL_REV_ID_REG,
 124:../../libraries/bno055/bno055.c ****                                              &data_u8,
 125:../../libraries/bno055/bno055.c ****                                              BNO055_GEN_READ_WRITE_LENGTH);
 126:../../libraries/bno055/bno055.c ****   p_bno055->accel_rev_id = data_u8;
 147              		.loc 1 126 11
 148 00a2 474B     		ldr	r3, .L3
 149 00a4 1B68     		ldr	r3, [r3]
 150              		.loc 1 126 26
 151 00a6 BA19     		adds	r2, r7, r6
 152 00a8 1278     		ldrb	r2, [r2]
 153 00aa 5A71     		strb	r2, [r3, #5]
 127:../../libraries/bno055/bno055.c **** 
 128:../../libraries/bno055/bno055.c ****   /* Read the mag revision id from page
 129:../../libraries/bno055/bno055.c ****    * zero 0x02 register*/
 130:../../libraries/bno055/bno055.c ****   com_rslt += p_bno055->BNO055_BUS_READ_FUNC(p_bno055->dev_addr,
 154              		.loc 1 130 23
 155 00ac 444B     		ldr	r3, .L3
 156 00ae 1B68     		ldr	r3, [r3]
 157 00b0 1C69     		ldr	r4, [r3, #16]
 158              		.loc 1 130 25
ARM GAS  /tmp/cc84EIjL.s 			page 6


 159 00b2 434B     		ldr	r3, .L3
 160 00b4 1B68     		ldr	r3, [r3]
 161              		.loc 1 130 15
 162 00b6 587A     		ldrb	r0, [r3, #9]
 163 00b8 BA19     		adds	r2, r7, r6
 164 00ba 0123     		movs	r3, #1
 165 00bc 0221     		movs	r1, #2
 166 00be A047     		blx	r4
 167              	.LVL3:
 168 00c0 0300     		movs	r3, r0
 169 00c2 DAB2     		uxtb	r2, r3
 170              		.loc 1 130 12
 171 00c4 7B19     		adds	r3, r7, r5
 172 00c6 1B78     		ldrb	r3, [r3]
 173 00c8 D318     		adds	r3, r2, r3
 174 00ca DAB2     		uxtb	r2, r3
 175 00cc 7B19     		adds	r3, r7, r5
 176 00ce 1A70     		strb	r2, [r3]
 131:../../libraries/bno055/bno055.c ****                                              BNO055_MAG_REV_ID_REG,
 132:../../libraries/bno055/bno055.c ****                                              &data_u8,
 133:../../libraries/bno055/bno055.c ****                                              BNO055_GEN_READ_WRITE_LENGTH);
 134:../../libraries/bno055/bno055.c ****   p_bno055->mag_rev_id = data_u8;
 177              		.loc 1 134 11
 178 00d0 3B4B     		ldr	r3, .L3
 179 00d2 1B68     		ldr	r3, [r3]
 180              		.loc 1 134 24
 181 00d4 BA19     		adds	r2, r7, r6
 182 00d6 1278     		ldrb	r2, [r2]
 183 00d8 9A71     		strb	r2, [r3, #6]
 135:../../libraries/bno055/bno055.c **** 
 136:../../libraries/bno055/bno055.c ****   /* Read the gyro revision id from page
 137:../../libraries/bno055/bno055.c ****    * zero 0x02 register*/
 138:../../libraries/bno055/bno055.c ****   com_rslt += p_bno055->BNO055_BUS_READ_FUNC(p_bno055->dev_addr,
 184              		.loc 1 138 23
 185 00da 394B     		ldr	r3, .L3
 186 00dc 1B68     		ldr	r3, [r3]
 187 00de 1C69     		ldr	r4, [r3, #16]
 188              		.loc 1 138 25
 189 00e0 374B     		ldr	r3, .L3
 190 00e2 1B68     		ldr	r3, [r3]
 191              		.loc 1 138 15
 192 00e4 587A     		ldrb	r0, [r3, #9]
 193 00e6 BA19     		adds	r2, r7, r6
 194 00e8 0123     		movs	r3, #1
 195 00ea 0321     		movs	r1, #3
 196 00ec A047     		blx	r4
 197              	.LVL4:
 198 00ee 0300     		movs	r3, r0
 199 00f0 DAB2     		uxtb	r2, r3
 200              		.loc 1 138 12
 201 00f2 7B19     		adds	r3, r7, r5
 202 00f4 1B78     		ldrb	r3, [r3]
 203 00f6 D318     		adds	r3, r2, r3
 204 00f8 DAB2     		uxtb	r2, r3
 205 00fa 7B19     		adds	r3, r7, r5
 206 00fc 1A70     		strb	r2, [r3]
 139:../../libraries/bno055/bno055.c ****                                              BNO055_GYRO_REV_ID_REG,
ARM GAS  /tmp/cc84EIjL.s 			page 7


 140:../../libraries/bno055/bno055.c ****                                              &data_u8,
 141:../../libraries/bno055/bno055.c ****                                              BNO055_GEN_READ_WRITE_LENGTH);
 142:../../libraries/bno055/bno055.c ****   p_bno055->gyro_rev_id = data_u8;
 207              		.loc 1 142 11
 208 00fe 304B     		ldr	r3, .L3
 209 0100 1B68     		ldr	r3, [r3]
 210              		.loc 1 142 25
 211 0102 BA19     		adds	r2, r7, r6
 212 0104 1278     		ldrb	r2, [r2]
 213 0106 DA71     		strb	r2, [r3, #7]
 143:../../libraries/bno055/bno055.c **** 
 144:../../libraries/bno055/bno055.c ****   /* Read the boot loader revision from page
 145:../../libraries/bno055/bno055.c ****    * zero 0x06 register*/
 146:../../libraries/bno055/bno055.c ****   com_rslt += p_bno055->BNO055_BUS_READ_FUNC(p_bno055->dev_addr,
 214              		.loc 1 146 23
 215 0108 2D4B     		ldr	r3, .L3
 216 010a 1B68     		ldr	r3, [r3]
 217 010c 1C69     		ldr	r4, [r3, #16]
 218              		.loc 1 146 25
 219 010e 2C4B     		ldr	r3, .L3
 220 0110 1B68     		ldr	r3, [r3]
 221              		.loc 1 146 15
 222 0112 587A     		ldrb	r0, [r3, #9]
 223 0114 BA19     		adds	r2, r7, r6
 224 0116 0123     		movs	r3, #1
 225 0118 0621     		movs	r1, #6
 226 011a A047     		blx	r4
 227              	.LVL5:
 228 011c 0300     		movs	r3, r0
 229 011e DAB2     		uxtb	r2, r3
 230              		.loc 1 146 12
 231 0120 7B19     		adds	r3, r7, r5
 232 0122 1B78     		ldrb	r3, [r3]
 233 0124 D318     		adds	r3, r2, r3
 234 0126 DAB2     		uxtb	r2, r3
 235 0128 7B19     		adds	r3, r7, r5
 236 012a 1A70     		strb	r2, [r3]
 147:../../libraries/bno055/bno055.c ****                                              BNO055_BL_REV_ID_REG,
 148:../../libraries/bno055/bno055.c ****                                              &data_u8,
 149:../../libraries/bno055/bno055.c ****                                              BNO055_GEN_READ_WRITE_LENGTH);
 150:../../libraries/bno055/bno055.c ****   p_bno055->bl_rev_id = data_u8;
 237              		.loc 1 150 11
 238 012c 244B     		ldr	r3, .L3
 239 012e 1B68     		ldr	r3, [r3]
 240              		.loc 1 150 23
 241 0130 BA19     		adds	r2, r7, r6
 242 0132 1278     		ldrb	r2, [r2]
 243 0134 1A72     		strb	r2, [r3, #8]
 151:../../libraries/bno055/bno055.c **** 
 152:../../libraries/bno055/bno055.c ****   /* Read the software revision id from page
 153:../../libraries/bno055/bno055.c ****    * zero 0x04 and 0x05 register( 2 bytes of data)*/
 154:../../libraries/bno055/bno055.c ****   com_rslt += p_bno055->BNO055_BUS_READ_FUNC(p_bno055->dev_addr,
 244              		.loc 1 154 23
 245 0136 224B     		ldr	r3, .L3
 246 0138 1B68     		ldr	r3, [r3]
 247 013a 1C69     		ldr	r4, [r3, #16]
 248              		.loc 1 154 25
ARM GAS  /tmp/cc84EIjL.s 			page 8


 249 013c 204B     		ldr	r3, .L3
 250 013e 1B68     		ldr	r3, [r3]
 251              		.loc 1 154 15
 252 0140 587A     		ldrb	r0, [r3, #9]
 253 0142 0821     		movs	r1, #8
 254 0144 7A18     		adds	r2, r7, r1
 255 0146 0223     		movs	r3, #2
 256 0148 0421     		movs	r1, #4
 257 014a A047     		blx	r4
 258              	.LVL6:
 259 014c 0300     		movs	r3, r0
 260 014e DAB2     		uxtb	r2, r3
 261              		.loc 1 154 12
 262 0150 7B19     		adds	r3, r7, r5
 263 0152 1B78     		ldrb	r3, [r3]
 264 0154 D318     		adds	r3, r2, r3
 265 0156 DAB2     		uxtb	r2, r3
 266 0158 7B19     		adds	r3, r7, r5
 267 015a 1A70     		strb	r2, [r3]
 155:../../libraries/bno055/bno055.c ****                                              BNO055_SW_REV_ID_LSB_REG,
 156:../../libraries/bno055/bno055.c ****                                              a_SW_ID_u8,
 157:../../libraries/bno055/bno055.c ****                                              BNO055_LSB_MSB_READ_LENGTH);
 158:../../libraries/bno055/bno055.c ****   a_SW_ID_u8[BNO055_SW_ID_LSB] = BNO055_GET_BITSLICE(a_SW_ID_u8[BNO055_SW_ID_LSB], BNO055_SW_REV_ID
 268              		.loc 1 158 34
 269 015c 0821     		movs	r1, #8
 270 015e 7B18     		adds	r3, r7, r1
 271 0160 1A78     		ldrb	r2, [r3]
 272              		.loc 1 158 32
 273 0162 7B18     		adds	r3, r7, r1
 274 0164 1A70     		strb	r2, [r3]
 159:../../libraries/bno055/bno055.c ****   p_bno055->sw_rev_id =
 160:../../libraries/bno055/bno055.c ****     (u16)((((u32)((u8)a_SW_ID_u8[BNO055_SW_ID_MSB])) << BNO055_SHIFT_EIGHT_BITS) | (a_SW_ID_u8[BNO0
 275              		.loc 1 160 33
 276 0166 0A00     		movs	r2, r1
 277 0168 BB18     		adds	r3, r7, r2
 278 016a 5B78     		ldrb	r3, [r3, #1]
 279 016c 9BB2     		uxth	r3, r3
 280              		.loc 1 160 54
 281 016e 1B02     		lsls	r3, r3, #8
 282 0170 99B2     		uxth	r1, r3
 283              		.loc 1 160 95
 284 0172 BB18     		adds	r3, r7, r2
 285 0174 1B78     		ldrb	r3, [r3]
 286 0176 9AB2     		uxth	r2, r3
 159:../../libraries/bno055/bno055.c ****   p_bno055->sw_rev_id =
 287              		.loc 1 159 11
 288 0178 114B     		ldr	r3, .L3
 289 017a 1B68     		ldr	r3, [r3]
 290              		.loc 1 160 5
 291 017c 0A43     		orrs	r2, r1
 292 017e 92B2     		uxth	r2, r2
 159:../../libraries/bno055/bno055.c ****   p_bno055->sw_rev_id =
 293              		.loc 1 159 23
 294 0180 5A80     		strh	r2, [r3, #2]
 161:../../libraries/bno055/bno055.c **** 
 162:../../libraries/bno055/bno055.c ****   /* Read the page id from the register 0x07*/
 163:../../libraries/bno055/bno055.c ****   com_rslt += p_bno055->BNO055_BUS_READ_FUNC(p_bno055->dev_addr,
ARM GAS  /tmp/cc84EIjL.s 			page 9


 295              		.loc 1 163 23
 296 0182 0F4B     		ldr	r3, .L3
 297 0184 1B68     		ldr	r3, [r3]
 298 0186 1C69     		ldr	r4, [r3, #16]
 299              		.loc 1 163 25
 300 0188 0D4B     		ldr	r3, .L3
 301 018a 1B68     		ldr	r3, [r3]
 302              		.loc 1 163 15
 303 018c 587A     		ldrb	r0, [r3, #9]
 304 018e BA19     		adds	r2, r7, r6
 305 0190 0123     		movs	r3, #1
 306 0192 0721     		movs	r1, #7
 307 0194 A047     		blx	r4
 308              	.LVL7:
 309 0196 0300     		movs	r3, r0
 310 0198 DAB2     		uxtb	r2, r3
 311              		.loc 1 163 12
 312 019a 7B19     		adds	r3, r7, r5
 313 019c 1B78     		ldrb	r3, [r3]
 314 019e D318     		adds	r3, r2, r3
 315 01a0 DAB2     		uxtb	r2, r3
 316 01a2 7B19     		adds	r3, r7, r5
 317 01a4 1A70     		strb	r2, [r3]
 164:../../libraries/bno055/bno055.c ****                                              BNO055_PAGE_ID_REG,
 165:../../libraries/bno055/bno055.c ****                                              &data_u8,
 166:../../libraries/bno055/bno055.c ****                                              BNO055_GEN_READ_WRITE_LENGTH);
 167:../../libraries/bno055/bno055.c ****   p_bno055->page_id = data_u8;
 318              		.loc 1 167 11
 319 01a6 064B     		ldr	r3, .L3
 320 01a8 1B68     		ldr	r3, [r3]
 321              		.loc 1 167 21
 322 01aa BA19     		adds	r2, r7, r6
 323 01ac 1278     		ldrb	r2, [r2]
 324 01ae 1A71     		strb	r2, [r3, #4]
 168:../../libraries/bno055/bno055.c **** 
 169:../../libraries/bno055/bno055.c ****   return com_rslt;
 325              		.loc 1 169 10
 326 01b0 7B19     		adds	r3, r7, r5
 327 01b2 1B78     		ldrb	r3, [r3]
 328 01b4 5BB2     		sxtb	r3, r3
 170:../../libraries/bno055/bno055.c **** }
 329              		.loc 1 170 1
 330 01b6 1800     		movs	r0, r3
 331 01b8 BD46     		mov	sp, r7
 332 01ba 05B0     		add	sp, sp, #20
 333              		@ sp needed
 334 01bc F0BD     		pop	{r4, r5, r6, r7, pc}
 335              	.L4:
 336 01be C046     		.align	2
 337              	.L3:
 338 01c0 00000000 		.word	p_bno055
 339              		.cfi_endproc
 340              	.LFE0:
 342              		.section	.text.bno055_write_register,"ax",%progbits
 343              		.align	1
 344              		.global	bno055_write_register
 345              		.syntax unified
ARM GAS  /tmp/cc84EIjL.s 			page 10


 346              		.code	16
 347              		.thumb_func
 348              		.fpu softvfp
 350              	bno055_write_register:
 351              	.LFB1:
 171:../../libraries/bno055/bno055.c **** 
 172:../../libraries/bno055/bno055.c **** /*!
 173:../../libraries/bno055/bno055.c ****  *  @brief
 174:../../libraries/bno055/bno055.c ****  *  This API gives data to the given register and
 175:../../libraries/bno055/bno055.c ****  *  the data is written in the corresponding register address
 176:../../libraries/bno055/bno055.c ****  *
 177:../../libraries/bno055/bno055.c ****  *  @param addr_u8 : Address of the register
 178:../../libraries/bno055/bno055.c ****  *  @param data_u8 : Data to be written to the register
 179:../../libraries/bno055/bno055.c ****  *  @param len_u8  : Length of the Data
 180:../../libraries/bno055/bno055.c ****  *
 181:../../libraries/bno055/bno055.c ****  *  @return results of bus communication function
 182:../../libraries/bno055/bno055.c ****  *  @retval 0 -> BNO055_SUCCESS
 183:../../libraries/bno055/bno055.c ****  *  @retval 1 -> BNO055_ERROR
 184:../../libraries/bno055/bno055.c ****  *
 185:../../libraries/bno055/bno055.c ****  *
 186:../../libraries/bno055/bno055.c ****  */
 187:../../libraries/bno055/bno055.c **** BNO055_RETURN_FUNCTION_TYPE bno055_write_register(u8 addr_u8, u8 *data_u8, u8 len_u8)
 188:../../libraries/bno055/bno055.c **** {
 352              		.loc 1 188 1
 353              		.cfi_startproc
 354              		@ args = 0, pretend = 0, frame = 16
 355              		@ frame_needed = 1, uses_anonymous_args = 0
 356 0000 F0B5     		push	{r4, r5, r6, r7, lr}
 357              		.cfi_def_cfa_offset 20
 358              		.cfi_offset 4, -20
 359              		.cfi_offset 5, -16
 360              		.cfi_offset 6, -12
 361              		.cfi_offset 7, -8
 362              		.cfi_offset 14, -4
 363 0002 85B0     		sub	sp, sp, #20
 364              		.cfi_def_cfa_offset 40
 365 0004 00AF     		add	r7, sp, #0
 366              		.cfi_def_cfa_register 7
 367 0006 3960     		str	r1, [r7]
 368 0008 1100     		movs	r1, r2
 369 000a FB1D     		adds	r3, r7, #7
 370 000c 021C     		adds	r2, r0, #0
 371 000e 1A70     		strb	r2, [r3]
 372 0010 BB1D     		adds	r3, r7, #6
 373 0012 0A1C     		adds	r2, r1, #0
 374 0014 1A70     		strb	r2, [r3]
 189:../../libraries/bno055/bno055.c ****   /* Variable used to return value of
 190:../../libraries/bno055/bno055.c ****    * communication routine*/
 191:../../libraries/bno055/bno055.c ****   BNO055_RETURN_FUNCTION_TYPE com_rslt = BNO055_ERROR;
 375              		.loc 1 191 31
 376 0016 0F23     		movs	r3, #15
 377 0018 FB18     		adds	r3, r7, r3
 378 001a FF22     		movs	r2, #255
 379 001c 1A70     		strb	r2, [r3]
 192:../../libraries/bno055/bno055.c **** 
 193:../../libraries/bno055/bno055.c ****   /* Check the struct p_bno055 is empty */
 194:../../libraries/bno055/bno055.c ****   if (p_bno055 == NULL) {
ARM GAS  /tmp/cc84EIjL.s 			page 11


 380              		.loc 1 194 16
 381 001e 104B     		ldr	r3, .L8
 382 0020 1B68     		ldr	r3, [r3]
 383              		.loc 1 194 6
 384 0022 002B     		cmp	r3, #0
 385 0024 02D1     		bne	.L6
 195:../../libraries/bno055/bno055.c ****     return BNO055_E_NULL_PTR;
 386              		.loc 1 195 12
 387 0026 7F23     		movs	r3, #127
 388 0028 5B42     		rsbs	r3, r3, #0
 389 002a 14E0     		b	.L7
 390              	.L6:
 196:../../libraries/bno055/bno055.c ****   }
 197:../../libraries/bno055/bno055.c ****   else{
 198:../../libraries/bno055/bno055.c ****     /* Write the values of respective given register */
 199:../../libraries/bno055/bno055.c ****     com_rslt = p_bno055->BNO055_BUS_WRITE_FUNC(p_bno055->dev_addr, addr_u8, data_u8, len_u8);
 391              		.loc 1 199 24
 392 002c 0C4B     		ldr	r3, .L8
 393 002e 1B68     		ldr	r3, [r3]
 394 0030 DD68     		ldr	r5, [r3, #12]
 395              		.loc 1 199 26
 396 0032 0B4B     		ldr	r3, .L8
 397 0034 1B68     		ldr	r3, [r3]
 398              		.loc 1 199 16
 399 0036 587A     		ldrb	r0, [r3, #9]
 400 0038 0F23     		movs	r3, #15
 401 003a FC18     		adds	r4, r7, r3
 402 003c BB1D     		adds	r3, r7, #6
 403 003e 1E78     		ldrb	r6, [r3]
 404 0040 3A68     		ldr	r2, [r7]
 405 0042 FB1D     		adds	r3, r7, #7
 406 0044 1978     		ldrb	r1, [r3]
 407 0046 3300     		movs	r3, r6
 408 0048 A847     		blx	r5
 409              	.LVL8:
 410 004a 0300     		movs	r3, r0
 411 004c 2370     		strb	r3, [r4]
 200:../../libraries/bno055/bno055.c ****   }
 201:../../libraries/bno055/bno055.c **** 
 202:../../libraries/bno055/bno055.c ****   return com_rslt;
 412              		.loc 1 202 10
 413 004e 0F23     		movs	r3, #15
 414 0050 FB18     		adds	r3, r7, r3
 415 0052 1B78     		ldrb	r3, [r3]
 416 0054 5BB2     		sxtb	r3, r3
 417              	.L7:
 203:../../libraries/bno055/bno055.c **** }
 418              		.loc 1 203 1
 419 0056 1800     		movs	r0, r3
 420 0058 BD46     		mov	sp, r7
 421 005a 05B0     		add	sp, sp, #20
 422              		@ sp needed
 423 005c F0BD     		pop	{r4, r5, r6, r7, pc}
 424              	.L9:
 425 005e C046     		.align	2
 426              	.L8:
 427 0060 00000000 		.word	p_bno055
ARM GAS  /tmp/cc84EIjL.s 			page 12


 428              		.cfi_endproc
 429              	.LFE1:
 431              		.section	.text.bno055_read_register,"ax",%progbits
 432              		.align	1
 433              		.global	bno055_read_register
 434              		.syntax unified
 435              		.code	16
 436              		.thumb_func
 437              		.fpu softvfp
 439              	bno055_read_register:
 440              	.LFB2:
 204:../../libraries/bno055/bno055.c **** 
 205:../../libraries/bno055/bno055.c **** /*!
 206:../../libraries/bno055/bno055.c ****  *  @brief This API reads the data from
 207:../../libraries/bno055/bno055.c ****  *  the given register address
 208:../../libraries/bno055/bno055.c ****  *
 209:../../libraries/bno055/bno055.c ****  *  @param addr_u8 : Address of the register
 210:../../libraries/bno055/bno055.c ****  *  @param data_u8 : address of the variable,
 211:../../libraries/bno055/bno055.c ****  *  read value will be kept
 212:../../libraries/bno055/bno055.c ****  *  @param len_u8  : Length of the data
 213:../../libraries/bno055/bno055.c ****  *
 214:../../libraries/bno055/bno055.c ****  *
 215:../../libraries/bno055/bno055.c ****  *  @return results of bus communication function
 216:../../libraries/bno055/bno055.c ****  *  @retval 0 -> BNO055_SUCCESS
 217:../../libraries/bno055/bno055.c ****  *  @retval 1 -> BNO055_ERROR
 218:../../libraries/bno055/bno055.c ****  *
 219:../../libraries/bno055/bno055.c ****  */
 220:../../libraries/bno055/bno055.c **** BNO055_RETURN_FUNCTION_TYPE bno055_read_register(u8 addr_u8, u8 *data_u8, u8 len_u8)
 221:../../libraries/bno055/bno055.c **** {
 441              		.loc 1 221 1
 442              		.cfi_startproc
 443              		@ args = 0, pretend = 0, frame = 16
 444              		@ frame_needed = 1, uses_anonymous_args = 0
 445 0000 F0B5     		push	{r4, r5, r6, r7, lr}
 446              		.cfi_def_cfa_offset 20
 447              		.cfi_offset 4, -20
 448              		.cfi_offset 5, -16
 449              		.cfi_offset 6, -12
 450              		.cfi_offset 7, -8
 451              		.cfi_offset 14, -4
 452 0002 85B0     		sub	sp, sp, #20
 453              		.cfi_def_cfa_offset 40
 454 0004 00AF     		add	r7, sp, #0
 455              		.cfi_def_cfa_register 7
 456 0006 3960     		str	r1, [r7]
 457 0008 1100     		movs	r1, r2
 458 000a FB1D     		adds	r3, r7, #7
 459 000c 021C     		adds	r2, r0, #0
 460 000e 1A70     		strb	r2, [r3]
 461 0010 BB1D     		adds	r3, r7, #6
 462 0012 0A1C     		adds	r2, r1, #0
 463 0014 1A70     		strb	r2, [r3]
 222:../../libraries/bno055/bno055.c ****   /* Variable used to return value of
 223:../../libraries/bno055/bno055.c ****    * communication routine*/
 224:../../libraries/bno055/bno055.c ****   BNO055_RETURN_FUNCTION_TYPE com_rslt = BNO055_ERROR;
 464              		.loc 1 224 31
 465 0016 0F23     		movs	r3, #15
ARM GAS  /tmp/cc84EIjL.s 			page 13


 466 0018 FB18     		adds	r3, r7, r3
 467 001a FF22     		movs	r2, #255
 468 001c 1A70     		strb	r2, [r3]
 225:../../libraries/bno055/bno055.c **** 
 226:../../libraries/bno055/bno055.c ****   /* Check the struct p_bno055 is empty */
 227:../../libraries/bno055/bno055.c ****   if (p_bno055 == NULL) {
 469              		.loc 1 227 16
 470 001e 104B     		ldr	r3, .L13
 471 0020 1B68     		ldr	r3, [r3]
 472              		.loc 1 227 6
 473 0022 002B     		cmp	r3, #0
 474 0024 02D1     		bne	.L11
 228:../../libraries/bno055/bno055.c ****     return BNO055_E_NULL_PTR;
 475              		.loc 1 228 12
 476 0026 7F23     		movs	r3, #127
 477 0028 5B42     		rsbs	r3, r3, #0
 478 002a 14E0     		b	.L12
 479              	.L11:
 229:../../libraries/bno055/bno055.c ****   }
 230:../../libraries/bno055/bno055.c ****   else{
 231:../../libraries/bno055/bno055.c ****     /* Read the value from given register*/
 232:../../libraries/bno055/bno055.c ****     com_rslt = p_bno055->BNO055_BUS_READ_FUNC(p_bno055->dev_addr, addr_u8, data_u8, len_u8);
 480              		.loc 1 232 24
 481 002c 0C4B     		ldr	r3, .L13
 482 002e 1B68     		ldr	r3, [r3]
 483 0030 1D69     		ldr	r5, [r3, #16]
 484              		.loc 1 232 26
 485 0032 0B4B     		ldr	r3, .L13
 486 0034 1B68     		ldr	r3, [r3]
 487              		.loc 1 232 16
 488 0036 587A     		ldrb	r0, [r3, #9]
 489 0038 0F23     		movs	r3, #15
 490 003a FC18     		adds	r4, r7, r3
 491 003c BB1D     		adds	r3, r7, #6
 492 003e 1E78     		ldrb	r6, [r3]
 493 0040 3A68     		ldr	r2, [r7]
 494 0042 FB1D     		adds	r3, r7, #7
 495 0044 1978     		ldrb	r1, [r3]
 496 0046 3300     		movs	r3, r6
 497 0048 A847     		blx	r5
 498              	.LVL9:
 499 004a 0300     		movs	r3, r0
 500 004c 2370     		strb	r3, [r4]
 233:../../libraries/bno055/bno055.c ****   }
 234:../../libraries/bno055/bno055.c **** 
 235:../../libraries/bno055/bno055.c ****   return com_rslt;
 501              		.loc 1 235 10
 502 004e 0F23     		movs	r3, #15
 503 0050 FB18     		adds	r3, r7, r3
 504 0052 1B78     		ldrb	r3, [r3]
 505 0054 5BB2     		sxtb	r3, r3
 506              	.L12:
 236:../../libraries/bno055/bno055.c **** }
 507              		.loc 1 236 1
 508 0056 1800     		movs	r0, r3
 509 0058 BD46     		mov	sp, r7
 510 005a 05B0     		add	sp, sp, #20
ARM GAS  /tmp/cc84EIjL.s 			page 14


 511              		@ sp needed
 512 005c F0BD     		pop	{r4, r5, r6, r7, pc}
 513              	.L14:
 514 005e C046     		.align	2
 515              	.L13:
 516 0060 00000000 		.word	p_bno055
 517              		.cfi_endproc
 518              	.LFE2:
 520              		.section	.text.bno055_read_chip_id,"ax",%progbits
 521              		.align	1
 522              		.global	bno055_read_chip_id
 523              		.syntax unified
 524              		.code	16
 525              		.thumb_func
 526              		.fpu softvfp
 528              	bno055_read_chip_id:
 529              	.LFB3:
 237:../../libraries/bno055/bno055.c **** 
 238:../../libraries/bno055/bno055.c **** /*!
 239:../../libraries/bno055/bno055.c ****  *  @brief This API reads chip id
 240:../../libraries/bno055/bno055.c ****  *  from register 0x00 it is a byte of data
 241:../../libraries/bno055/bno055.c ****  *
 242:../../libraries/bno055/bno055.c ****  *
 243:../../libraries/bno055/bno055.c ****  *  @param chip_id_u8 : The chip id value 0xA0
 244:../../libraries/bno055/bno055.c ****  *
 245:../../libraries/bno055/bno055.c ****  *  @return results of bus communication function
 246:../../libraries/bno055/bno055.c ****  *  @retval 0 -> BNO055_SUCCESS
 247:../../libraries/bno055/bno055.c ****  *  @retval 1 -> BNO055_ERROR
 248:../../libraries/bno055/bno055.c ****  */
 249:../../libraries/bno055/bno055.c **** BNO055_RETURN_FUNCTION_TYPE bno055_read_chip_id(u8 *chip_id_u8)
 250:../../libraries/bno055/bno055.c **** {
 530              		.loc 1 250 1
 531              		.cfi_startproc
 532              		@ args = 0, pretend = 0, frame = 16
 533              		@ frame_needed = 1, uses_anonymous_args = 0
 534 0000 F0B5     		push	{r4, r5, r6, r7, lr}
 535              		.cfi_def_cfa_offset 20
 536              		.cfi_offset 4, -20
 537              		.cfi_offset 5, -16
 538              		.cfi_offset 6, -12
 539              		.cfi_offset 7, -8
 540              		.cfi_offset 14, -4
 541 0002 85B0     		sub	sp, sp, #20
 542              		.cfi_def_cfa_offset 40
 543 0004 00AF     		add	r7, sp, #0
 544              		.cfi_def_cfa_register 7
 545 0006 7860     		str	r0, [r7, #4]
 251:../../libraries/bno055/bno055.c ****   /* Variable used to return value of
 252:../../libraries/bno055/bno055.c ****    * communication routine*/
 253:../../libraries/bno055/bno055.c ****   BNO055_RETURN_FUNCTION_TYPE com_rslt = BNO055_ERROR;
 546              		.loc 1 253 31
 547 0008 0F23     		movs	r3, #15
 548 000a FB18     		adds	r3, r7, r3
 549 000c FF22     		movs	r2, #255
 550 000e 1A70     		strb	r2, [r3]
 254:../../libraries/bno055/bno055.c ****   u8 data_u8 = BNO055_INIT_VALUE;
 551              		.loc 1 254 6
ARM GAS  /tmp/cc84EIjL.s 			page 15


 552 0010 0D23     		movs	r3, #13
 553 0012 FB18     		adds	r3, r7, r3
 554 0014 0022     		movs	r2, #0
 555 0016 1A70     		strb	r2, [r3]
 255:../../libraries/bno055/bno055.c ****   s8 stat_s8 = BNO055_ERROR;
 556              		.loc 1 255 6
 557 0018 0E23     		movs	r3, #14
 558 001a FB18     		adds	r3, r7, r3
 559 001c FF22     		movs	r2, #255
 560 001e 1A70     		strb	r2, [r3]
 256:../../libraries/bno055/bno055.c **** 
 257:../../libraries/bno055/bno055.c ****   /* Check the struct p_bno055 is empty */
 258:../../libraries/bno055/bno055.c ****   if (p_bno055 == NULL) {
 561              		.loc 1 258 16
 562 0020 1E4B     		ldr	r3, .L23
 563 0022 1B68     		ldr	r3, [r3]
 564              		.loc 1 258 6
 565 0024 002B     		cmp	r3, #0
 566 0026 02D1     		bne	.L16
 259:../../libraries/bno055/bno055.c ****     return BNO055_E_NULL_PTR;
 567              		.loc 1 259 12
 568 0028 7F23     		movs	r3, #127
 569 002a 5B42     		rsbs	r3, r3, #0
 570 002c 32E0     		b	.L22
 571              	.L16:
 260:../../libraries/bno055/bno055.c ****   }
 261:../../libraries/bno055/bno055.c ****   else{
 262:../../libraries/bno055/bno055.c ****     /*condition check for page, chip id is
 263:../../libraries/bno055/bno055.c ****      * available in the page zero*/
 264:../../libraries/bno055/bno055.c ****     if (p_bno055->page_id != BNO055_PAGE_ZERO) {
 572              		.loc 1 264 17
 573 002e 1B4B     		ldr	r3, .L23
 574 0030 1B68     		ldr	r3, [r3]
 575 0032 1B79     		ldrb	r3, [r3, #4]
 576              		.loc 1 264 8
 577 0034 002B     		cmp	r3, #0
 578 0036 06D0     		beq	.L18
 265:../../libraries/bno055/bno055.c ****       /* Write the page zero*/
 266:../../libraries/bno055/bno055.c ****       stat_s8 = bno055_write_page_id(BNO055_PAGE_ZERO);
 579              		.loc 1 266 17
 580 0038 0E23     		movs	r3, #14
 581 003a FC18     		adds	r4, r7, r3
 582 003c 0020     		movs	r0, #0
 583 003e FFF7FEFF 		bl	bno055_write_page_id
 584 0042 0300     		movs	r3, r0
 585 0044 2370     		strb	r3, [r4]
 586              	.L18:
 267:../../libraries/bno055/bno055.c ****     }
 268:../../libraries/bno055/bno055.c ****     if ((stat_s8 == BNO055_SUCCESS) || (p_bno055->page_id == BNO055_PAGE_ZERO)) {
 587              		.loc 1 268 8
 588 0046 0E23     		movs	r3, #14
 589 0048 FB18     		adds	r3, r7, r3
 590 004a 1B78     		ldrb	r3, [r3]
 591 004c 5BB2     		sxtb	r3, r3
 592 004e 002B     		cmp	r3, #0
 593 0050 04D0     		beq	.L19
 594              		.loc 1 268 49 discriminator 1
ARM GAS  /tmp/cc84EIjL.s 			page 16


 595 0052 124B     		ldr	r3, .L23
 596 0054 1B68     		ldr	r3, [r3]
 597 0056 1B79     		ldrb	r3, [r3, #4]
 598              		.loc 1 268 37 discriminator 1
 599 0058 002B     		cmp	r3, #0
 600 005a 13D1     		bne	.L20
 601              	.L19:
 269:../../libraries/bno055/bno055.c ****       /* Read the chip id*/
 270:../../libraries/bno055/bno055.c ****       com_rslt = p_bno055->BNO055_BUS_READ_FUNC(p_bno055->dev_addr,
 602              		.loc 1 270 26
 603 005c 0F4B     		ldr	r3, .L23
 604 005e 1B68     		ldr	r3, [r3]
 605 0060 1D69     		ldr	r5, [r3, #16]
 606              		.loc 1 270 28
 607 0062 0E4B     		ldr	r3, .L23
 608 0064 1B68     		ldr	r3, [r3]
 609              		.loc 1 270 18
 610 0066 587A     		ldrb	r0, [r3, #9]
 611 0068 0F23     		movs	r3, #15
 612 006a FC18     		adds	r4, r7, r3
 613 006c 0D26     		movs	r6, #13
 614 006e BA19     		adds	r2, r7, r6
 615 0070 0123     		movs	r3, #1
 616 0072 0021     		movs	r1, #0
 617 0074 A847     		blx	r5
 618              	.LVL10:
 619 0076 0300     		movs	r3, r0
 620 0078 2370     		strb	r3, [r4]
 271:../../libraries/bno055/bno055.c ****                                                 BNO055_CHIP_ID_REG,
 272:../../libraries/bno055/bno055.c ****                                                 &data_u8,
 273:../../libraries/bno055/bno055.c ****                                                 BNO055_GEN_READ_WRITE_LENGTH);
 274:../../libraries/bno055/bno055.c ****       *chip_id_u8 = data_u8;
 621              		.loc 1 274 19
 622 007a BB19     		adds	r3, r7, r6
 623 007c 1A78     		ldrb	r2, [r3]
 624 007e 7B68     		ldr	r3, [r7, #4]
 625 0080 1A70     		strb	r2, [r3]
 626 0082 03E0     		b	.L21
 627              	.L20:
 275:../../libraries/bno055/bno055.c ****     }
 276:../../libraries/bno055/bno055.c ****     else{
 277:../../libraries/bno055/bno055.c ****       com_rslt = BNO055_ERROR;
 628              		.loc 1 277 16
 629 0084 0F23     		movs	r3, #15
 630 0086 FB18     		adds	r3, r7, r3
 631 0088 FF22     		movs	r2, #255
 632 008a 1A70     		strb	r2, [r3]
 633              	.L21:
 278:../../libraries/bno055/bno055.c ****     }
 279:../../libraries/bno055/bno055.c ****   }
 280:../../libraries/bno055/bno055.c **** 
 281:../../libraries/bno055/bno055.c ****   return com_rslt;
 634              		.loc 1 281 10
 635 008c 0F23     		movs	r3, #15
 636 008e FB18     		adds	r3, r7, r3
 637 0090 1B78     		ldrb	r3, [r3]
 638 0092 5BB2     		sxtb	r3, r3
ARM GAS  /tmp/cc84EIjL.s 			page 17


 639              	.L22:
 282:../../libraries/bno055/bno055.c **** }
 640              		.loc 1 282 1 discriminator 1
 641 0094 1800     		movs	r0, r3
 642 0096 BD46     		mov	sp, r7
 643 0098 05B0     		add	sp, sp, #20
 644              		@ sp needed
 645 009a F0BD     		pop	{r4, r5, r6, r7, pc}
 646              	.L24:
 647              		.align	2
 648              	.L23:
 649 009c 00000000 		.word	p_bno055
 650              		.cfi_endproc
 651              	.LFE3:
 653              		.section	.text.bno055_read_sw_rev_id,"ax",%progbits
 654              		.align	1
 655              		.global	bno055_read_sw_rev_id
 656              		.syntax unified
 657              		.code	16
 658              		.thumb_func
 659              		.fpu softvfp
 661              	bno055_read_sw_rev_id:
 662              	.LFB4:
 283:../../libraries/bno055/bno055.c **** 
 284:../../libraries/bno055/bno055.c **** /*!
 285:../../libraries/bno055/bno055.c ****  *  @brief This API reads software revision id
 286:../../libraries/bno055/bno055.c ****  *  from register 0x04 and 0x05 it is a two byte of data
 287:../../libraries/bno055/bno055.c ****  *
 288:../../libraries/bno055/bno055.c ****  *  @param sw_id_u8 : The SW revision id
 289:../../libraries/bno055/bno055.c ****  *
 290:../../libraries/bno055/bno055.c ****  *  @return results of bus communication function
 291:../../libraries/bno055/bno055.c ****  *  @retval 0 -> BNO055_SUCCESS
 292:../../libraries/bno055/bno055.c ****  *  @retval 1 -> BNO055_ERROR
 293:../../libraries/bno055/bno055.c ****  *
 294:../../libraries/bno055/bno055.c ****  *
 295:../../libraries/bno055/bno055.c ****  */
 296:../../libraries/bno055/bno055.c **** BNO055_RETURN_FUNCTION_TYPE bno055_read_sw_rev_id(u16 *sw_id_u8)
 297:../../libraries/bno055/bno055.c **** {
 663              		.loc 1 297 1
 664              		.cfi_startproc
 665              		@ args = 0, pretend = 0, frame = 16
 666              		@ frame_needed = 1, uses_anonymous_args = 0
 667 0000 F0B5     		push	{r4, r5, r6, r7, lr}
 668              		.cfi_def_cfa_offset 20
 669              		.cfi_offset 4, -20
 670              		.cfi_offset 5, -16
 671              		.cfi_offset 6, -12
 672              		.cfi_offset 7, -8
 673              		.cfi_offset 14, -4
 674 0002 85B0     		sub	sp, sp, #20
 675              		.cfi_def_cfa_offset 40
 676 0004 00AF     		add	r7, sp, #0
 677              		.cfi_def_cfa_register 7
 678 0006 7860     		str	r0, [r7, #4]
 298:../../libraries/bno055/bno055.c ****   /* Variable used to return value of
 299:../../libraries/bno055/bno055.c ****    * communication routine*/
 300:../../libraries/bno055/bno055.c ****   BNO055_RETURN_FUNCTION_TYPE com_rslt = BNO055_ERROR;
ARM GAS  /tmp/cc84EIjL.s 			page 18


 679              		.loc 1 300 31
 680 0008 0F23     		movs	r3, #15
 681 000a FB18     		adds	r3, r7, r3
 682 000c FF22     		movs	r2, #255
 683 000e 1A70     		strb	r2, [r3]
 301:../../libraries/bno055/bno055.c **** 
 302:../../libraries/bno055/bno055.c ****   /* array having the software revision id
 303:../../libraries/bno055/bno055.c ****    * data_u8[0] - LSB
 304:../../libraries/bno055/bno055.c ****    * data_u8[1] - MSB*/
 305:../../libraries/bno055/bno055.c ****   u8 data_u8[BNO055_REV_ID_SIZE] = { BNO055_INIT_VALUE, BNO055_INIT_VALUE };
 684              		.loc 1 305 6
 685 0010 0C23     		movs	r3, #12
 686 0012 FB18     		adds	r3, r7, r3
 687 0014 0022     		movs	r2, #0
 688 0016 1A80     		strh	r2, [r3]
 306:../../libraries/bno055/bno055.c ****   s8 stat_s8 = BNO055_ERROR;
 689              		.loc 1 306 6
 690 0018 0E23     		movs	r3, #14
 691 001a FB18     		adds	r3, r7, r3
 692 001c FF22     		movs	r2, #255
 693 001e 1A70     		strb	r2, [r3]
 307:../../libraries/bno055/bno055.c **** 
 308:../../libraries/bno055/bno055.c ****   /* Check the struct  p_bno055 is empty*/
 309:../../libraries/bno055/bno055.c ****   if (p_bno055 == NULL) {
 694              		.loc 1 309 16
 695 0020 254B     		ldr	r3, .L33
 696 0022 1B68     		ldr	r3, [r3]
 697              		.loc 1 309 6
 698 0024 002B     		cmp	r3, #0
 699 0026 02D1     		bne	.L26
 310:../../libraries/bno055/bno055.c ****     return BNO055_E_NULL_PTR;
 700              		.loc 1 310 12
 701 0028 7F23     		movs	r3, #127
 702 002a 5B42     		rsbs	r3, r3, #0
 703 002c 3FE0     		b	.L32
 704              	.L26:
 311:../../libraries/bno055/bno055.c ****   }
 312:../../libraries/bno055/bno055.c ****   else{
 313:../../libraries/bno055/bno055.c ****     /*condition check for page, chip id is
 314:../../libraries/bno055/bno055.c ****      * available in the page zero*/
 315:../../libraries/bno055/bno055.c ****     if (p_bno055->page_id != BNO055_PAGE_ZERO) {
 705              		.loc 1 315 17
 706 002e 224B     		ldr	r3, .L33
 707 0030 1B68     		ldr	r3, [r3]
 708 0032 1B79     		ldrb	r3, [r3, #4]
 709              		.loc 1 315 8
 710 0034 002B     		cmp	r3, #0
 711 0036 06D0     		beq	.L28
 316:../../libraries/bno055/bno055.c ****       /* Write the page zero*/
 317:../../libraries/bno055/bno055.c ****       stat_s8 = bno055_write_page_id(BNO055_PAGE_ZERO);
 712              		.loc 1 317 17
 713 0038 0E23     		movs	r3, #14
 714 003a FC18     		adds	r4, r7, r3
 715 003c 0020     		movs	r0, #0
 716 003e FFF7FEFF 		bl	bno055_write_page_id
 717 0042 0300     		movs	r3, r0
 718 0044 2370     		strb	r3, [r4]
ARM GAS  /tmp/cc84EIjL.s 			page 19


 719              	.L28:
 318:../../libraries/bno055/bno055.c ****     }
 319:../../libraries/bno055/bno055.c ****     if ((stat_s8 == BNO055_SUCCESS) || (p_bno055->page_id == BNO055_PAGE_ZERO)) {
 720              		.loc 1 319 8
 721 0046 0E23     		movs	r3, #14
 722 0048 FB18     		adds	r3, r7, r3
 723 004a 1B78     		ldrb	r3, [r3]
 724 004c 5BB2     		sxtb	r3, r3
 725 004e 002B     		cmp	r3, #0
 726 0050 04D0     		beq	.L29
 727              		.loc 1 319 49 discriminator 1
 728 0052 194B     		ldr	r3, .L33
 729 0054 1B68     		ldr	r3, [r3]
 730 0056 1B79     		ldrb	r3, [r3, #4]
 731              		.loc 1 319 37 discriminator 1
 732 0058 002B     		cmp	r3, #0
 733 005a 20D1     		bne	.L30
 734              	.L29:
 320:../../libraries/bno055/bno055.c ****       /* Read the two byte value of software
 321:../../libraries/bno055/bno055.c ****        * revision id*/
 322:../../libraries/bno055/bno055.c ****       com_rslt = p_bno055->BNO055_BUS_READ_FUNC(p_bno055->dev_addr,
 735              		.loc 1 322 26
 736 005c 164B     		ldr	r3, .L33
 737 005e 1B68     		ldr	r3, [r3]
 738 0060 1D69     		ldr	r5, [r3, #16]
 739              		.loc 1 322 28
 740 0062 154B     		ldr	r3, .L33
 741 0064 1B68     		ldr	r3, [r3]
 742              		.loc 1 322 18
 743 0066 587A     		ldrb	r0, [r3, #9]
 744 0068 0F23     		movs	r3, #15
 745 006a FC18     		adds	r4, r7, r3
 746 006c 0C26     		movs	r6, #12
 747 006e BA19     		adds	r2, r7, r6
 748 0070 0223     		movs	r3, #2
 749 0072 0421     		movs	r1, #4
 750 0074 A847     		blx	r5
 751              	.LVL11:
 752 0076 0300     		movs	r3, r0
 753 0078 2370     		strb	r3, [r4]
 323:../../libraries/bno055/bno055.c ****                                                 BNO055_SW_REV_ID_LSB_REG,
 324:../../libraries/bno055/bno055.c ****                                                 data_u8,
 325:../../libraries/bno055/bno055.c ****                                                 BNO055_LSB_MSB_READ_LENGTH);
 326:../../libraries/bno055/bno055.c ****       data_u8[BNO055_SW_ID_LSB] = BNO055_GET_BITSLICE(data_u8[BNO055_SW_ID_LSB], BNO055_SW_REV_ID_L
 754              		.loc 1 326 35
 755 007a 3100     		movs	r1, r6
 756 007c 7B18     		adds	r3, r7, r1
 757 007e 1A78     		ldrb	r2, [r3]
 758              		.loc 1 326 33
 759 0080 7B18     		adds	r3, r7, r1
 760 0082 1A70     		strb	r2, [r3]
 327:../../libraries/bno055/bno055.c ****       *sw_id_u8 =
 328:../../libraries/bno055/bno055.c ****         (u16)((((u32)((u8)data_u8[BNO055_SW_ID_MSB])) << BNO055_SHIFT_EIGHT_BITS) |
 761              		.loc 1 328 34
 762 0084 7B18     		adds	r3, r7, r1
 763 0086 5B78     		ldrb	r3, [r3, #1]
 764 0088 9BB2     		uxth	r3, r3
ARM GAS  /tmp/cc84EIjL.s 			page 20


 765              		.loc 1 328 55
 766 008a 1B02     		lsls	r3, r3, #8
 767 008c 9AB2     		uxth	r2, r3
 329:../../libraries/bno055/bno055.c ****               (data_u8[BNO055_SW_ID_LSB]));
 768              		.loc 1 329 23
 769 008e 7B18     		adds	r3, r7, r1
 770 0090 1B78     		ldrb	r3, [r3]
 771 0092 9BB2     		uxth	r3, r3
 328:../../libraries/bno055/bno055.c ****               (data_u8[BNO055_SW_ID_LSB]));
 772              		.loc 1 328 9
 773 0094 1343     		orrs	r3, r2
 774 0096 9AB2     		uxth	r2, r3
 327:../../libraries/bno055/bno055.c ****       *sw_id_u8 =
 775              		.loc 1 327 17
 776 0098 7B68     		ldr	r3, [r7, #4]
 777 009a 1A80     		strh	r2, [r3]
 778 009c 03E0     		b	.L31
 779              	.L30:
 330:../../libraries/bno055/bno055.c ****     }
 331:../../libraries/bno055/bno055.c ****     else{
 332:../../libraries/bno055/bno055.c ****       com_rslt = BNO055_ERROR;
 780              		.loc 1 332 16
 781 009e 0F23     		movs	r3, #15
 782 00a0 FB18     		adds	r3, r7, r3
 783 00a2 FF22     		movs	r2, #255
 784 00a4 1A70     		strb	r2, [r3]
 785              	.L31:
 333:../../libraries/bno055/bno055.c ****     }
 334:../../libraries/bno055/bno055.c ****   }
 335:../../libraries/bno055/bno055.c **** 
 336:../../libraries/bno055/bno055.c ****   return com_rslt;
 786              		.loc 1 336 10
 787 00a6 0F23     		movs	r3, #15
 788 00a8 FB18     		adds	r3, r7, r3
 789 00aa 1B78     		ldrb	r3, [r3]
 790 00ac 5BB2     		sxtb	r3, r3
 791              	.L32:
 337:../../libraries/bno055/bno055.c **** }
 792              		.loc 1 337 1 discriminator 1
 793 00ae 1800     		movs	r0, r3
 794 00b0 BD46     		mov	sp, r7
 795 00b2 05B0     		add	sp, sp, #20
 796              		@ sp needed
 797 00b4 F0BD     		pop	{r4, r5, r6, r7, pc}
 798              	.L34:
 799 00b6 C046     		.align	2
 800              	.L33:
 801 00b8 00000000 		.word	p_bno055
 802              		.cfi_endproc
 803              	.LFE4:
 805              		.section	.text.bno055_read_page_id,"ax",%progbits
 806              		.align	1
 807              		.global	bno055_read_page_id
 808              		.syntax unified
 809              		.code	16
 810              		.thumb_func
 811              		.fpu softvfp
ARM GAS  /tmp/cc84EIjL.s 			page 21


 813              	bno055_read_page_id:
 814              	.LFB5:
 338:../../libraries/bno055/bno055.c **** 
 339:../../libraries/bno055/bno055.c **** /*!
 340:../../libraries/bno055/bno055.c ****  *  @brief This API reads page id
 341:../../libraries/bno055/bno055.c ****  *  from register 0x07 it is a byte of data
 342:../../libraries/bno055/bno055.c ****  *
 343:../../libraries/bno055/bno055.c ****  *
 344:../../libraries/bno055/bno055.c ****  *  @param page_id_u8 : The value of page id
 345:../../libraries/bno055/bno055.c ****  *
 346:../../libraries/bno055/bno055.c ****  *  BNO055_PAGE_ZERO -> 0x00
 347:../../libraries/bno055/bno055.c ****  *  BNO055_PAGE_ONE  -> 0x01
 348:../../libraries/bno055/bno055.c ****  *
 349:../../libraries/bno055/bno055.c ****  *  @return results of bus communication function
 350:../../libraries/bno055/bno055.c ****  *  @retval 0 -> BNO055_SUCCESS
 351:../../libraries/bno055/bno055.c ****  *  @retval 1 -> BNO055_ERROR
 352:../../libraries/bno055/bno055.c ****  *
 353:../../libraries/bno055/bno055.c ****  *
 354:../../libraries/bno055/bno055.c ****  */
 355:../../libraries/bno055/bno055.c **** BNO055_RETURN_FUNCTION_TYPE bno055_read_page_id(u8 *page_id_u8)
 356:../../libraries/bno055/bno055.c **** {
 815              		.loc 1 356 1
 816              		.cfi_startproc
 817              		@ args = 0, pretend = 0, frame = 16
 818              		@ frame_needed = 1, uses_anonymous_args = 0
 819 0000 F0B5     		push	{r4, r5, r6, r7, lr}
 820              		.cfi_def_cfa_offset 20
 821              		.cfi_offset 4, -20
 822              		.cfi_offset 5, -16
 823              		.cfi_offset 6, -12
 824              		.cfi_offset 7, -8
 825              		.cfi_offset 14, -4
 826 0002 85B0     		sub	sp, sp, #20
 827              		.cfi_def_cfa_offset 40
 828 0004 00AF     		add	r7, sp, #0
 829              		.cfi_def_cfa_register 7
 830 0006 7860     		str	r0, [r7, #4]
 357:../../libraries/bno055/bno055.c ****   /* Variable used to return value of
 358:../../libraries/bno055/bno055.c ****    * communication routine*/
 359:../../libraries/bno055/bno055.c ****   BNO055_RETURN_FUNCTION_TYPE com_rslt = BNO055_ERROR;
 831              		.loc 1 359 31
 832 0008 0F23     		movs	r3, #15
 833 000a FB18     		adds	r3, r7, r3
 834 000c FF22     		movs	r2, #255
 835 000e 1A70     		strb	r2, [r3]
 360:../../libraries/bno055/bno055.c ****   u8 data_u8 = BNO055_INIT_VALUE;
 836              		.loc 1 360 6
 837 0010 0E23     		movs	r3, #14
 838 0012 FB18     		adds	r3, r7, r3
 839 0014 0022     		movs	r2, #0
 840 0016 1A70     		strb	r2, [r3]
 361:../../libraries/bno055/bno055.c **** 
 362:../../libraries/bno055/bno055.c ****   /* Check the struct p_bno055 is empty */
 363:../../libraries/bno055/bno055.c ****   if (p_bno055 == NULL) {
 841              		.loc 1 363 16
 842 0018 1A4B     		ldr	r3, .L41
 843 001a 1B68     		ldr	r3, [r3]
ARM GAS  /tmp/cc84EIjL.s 			page 22


 844              		.loc 1 363 6
 845 001c 002B     		cmp	r3, #0
 846 001e 02D1     		bne	.L36
 364:../../libraries/bno055/bno055.c ****     return BNO055_E_NULL_PTR;
 847              		.loc 1 364 12
 848 0020 7F23     		movs	r3, #127
 849 0022 5B42     		rsbs	r3, r3, #0
 850 0024 2AE0     		b	.L40
 851              	.L36:
 365:../../libraries/bno055/bno055.c ****   }
 366:../../libraries/bno055/bno055.c ****   else{
 367:../../libraries/bno055/bno055.c ****     /* Read the page id form 0x07*/
 368:../../libraries/bno055/bno055.c ****     com_rslt = p_bno055->BNO055_BUS_READ_FUNC(p_bno055->dev_addr,
 852              		.loc 1 368 24
 853 0026 174B     		ldr	r3, .L41
 854 0028 1B68     		ldr	r3, [r3]
 855 002a 1D69     		ldr	r5, [r3, #16]
 856              		.loc 1 368 26
 857 002c 154B     		ldr	r3, .L41
 858 002e 1B68     		ldr	r3, [r3]
 859              		.loc 1 368 16
 860 0030 587A     		ldrb	r0, [r3, #9]
 861 0032 0F23     		movs	r3, #15
 862 0034 FC18     		adds	r4, r7, r3
 863 0036 0E26     		movs	r6, #14
 864 0038 BA19     		adds	r2, r7, r6
 865 003a 0123     		movs	r3, #1
 866 003c 0721     		movs	r1, #7
 867 003e A847     		blx	r5
 868              	.LVL12:
 869 0040 0300     		movs	r3, r0
 870 0042 2370     		strb	r3, [r4]
 369:../../libraries/bno055/bno055.c ****                                               BNO055_PAGE_ID_REG,
 370:../../libraries/bno055/bno055.c ****                                               &data_u8,
 371:../../libraries/bno055/bno055.c ****                                               BNO055_GEN_READ_WRITE_LENGTH);
 372:../../libraries/bno055/bno055.c ****     if (com_rslt == BNO055_SUCCESS) {
 871              		.loc 1 372 8
 872 0044 0F23     		movs	r3, #15
 873 0046 FB18     		adds	r3, r7, r3
 874 0048 1B78     		ldrb	r3, [r3]
 875 004a 5BB2     		sxtb	r3, r3
 876 004c 002B     		cmp	r3, #0
 877 004e 0DD1     		bne	.L38
 373:../../libraries/bno055/bno055.c ****       data_u8 = BNO055_GET_BITSLICE(data_u8, BNO055_PAGE_ID);
 878              		.loc 1 373 15
 879 0050 BB19     		adds	r3, r7, r6
 880 0052 1A78     		ldrb	r2, [r3]
 881 0054 BB19     		adds	r3, r7, r6
 882 0056 1A70     		strb	r2, [r3]
 374:../../libraries/bno055/bno055.c ****       *page_id_u8 = data_u8;
 883              		.loc 1 374 19
 884 0058 BB19     		adds	r3, r7, r6
 885 005a 1A78     		ldrb	r2, [r3]
 886 005c 7B68     		ldr	r3, [r7, #4]
 887 005e 1A70     		strb	r2, [r3]
 375:../../libraries/bno055/bno055.c ****       p_bno055->page_id = data_u8;
 888              		.loc 1 375 15
ARM GAS  /tmp/cc84EIjL.s 			page 23


 889 0060 084B     		ldr	r3, .L41
 890 0062 1B68     		ldr	r3, [r3]
 891              		.loc 1 375 25
 892 0064 BA19     		adds	r2, r7, r6
 893 0066 1278     		ldrb	r2, [r2]
 894 0068 1A71     		strb	r2, [r3, #4]
 895 006a 03E0     		b	.L39
 896              	.L38:
 376:../../libraries/bno055/bno055.c ****     }
 377:../../libraries/bno055/bno055.c ****     else{
 378:../../libraries/bno055/bno055.c ****       com_rslt = BNO055_ERROR;
 897              		.loc 1 378 16
 898 006c 0F23     		movs	r3, #15
 899 006e FB18     		adds	r3, r7, r3
 900 0070 FF22     		movs	r2, #255
 901 0072 1A70     		strb	r2, [r3]
 902              	.L39:
 379:../../libraries/bno055/bno055.c ****     }
 380:../../libraries/bno055/bno055.c ****   }
 381:../../libraries/bno055/bno055.c **** 
 382:../../libraries/bno055/bno055.c ****   return com_rslt;
 903              		.loc 1 382 10
 904 0074 0F23     		movs	r3, #15
 905 0076 FB18     		adds	r3, r7, r3
 906 0078 1B78     		ldrb	r3, [r3]
 907 007a 5BB2     		sxtb	r3, r3
 908              	.L40:
 383:../../libraries/bno055/bno055.c **** }
 909              		.loc 1 383 1 discriminator 1
 910 007c 1800     		movs	r0, r3
 911 007e BD46     		mov	sp, r7
 912 0080 05B0     		add	sp, sp, #20
 913              		@ sp needed
 914 0082 F0BD     		pop	{r4, r5, r6, r7, pc}
 915              	.L42:
 916              		.align	2
 917              	.L41:
 918 0084 00000000 		.word	p_bno055
 919              		.cfi_endproc
 920              	.LFE5:
 922              		.section	.text.bno055_write_page_id,"ax",%progbits
 923              		.align	1
 924              		.global	bno055_write_page_id
 925              		.syntax unified
 926              		.code	16
 927              		.thumb_func
 928              		.fpu softvfp
 930              	bno055_write_page_id:
 931              	.LFB6:
 384:../../libraries/bno055/bno055.c **** 
 385:../../libraries/bno055/bno055.c **** /*!
 386:../../libraries/bno055/bno055.c ****  *  @brief This API used to write
 387:../../libraries/bno055/bno055.c ****  *  the page id register 0x07
 388:../../libraries/bno055/bno055.c ****  *
 389:../../libraries/bno055/bno055.c ****  *  @param page_id_u8 : The value of page id
 390:../../libraries/bno055/bno055.c ****  *
 391:../../libraries/bno055/bno055.c ****  *  BNO055_PAGE_ZERO -> 0x00
ARM GAS  /tmp/cc84EIjL.s 			page 24


 392:../../libraries/bno055/bno055.c ****  *  BNO055_PAGE_ONE  -> 0x01
 393:../../libraries/bno055/bno055.c ****  *
 394:../../libraries/bno055/bno055.c ****  *  @return results of bus communication function
 395:../../libraries/bno055/bno055.c ****  *  @retval 0 -> BNO055_SUCCESS
 396:../../libraries/bno055/bno055.c ****  *  @retval 1 -> BNO055_ERROR
 397:../../libraries/bno055/bno055.c ****  *
 398:../../libraries/bno055/bno055.c ****  *
 399:../../libraries/bno055/bno055.c ****  */
 400:../../libraries/bno055/bno055.c **** BNO055_RETURN_FUNCTION_TYPE bno055_write_page_id(u8 page_id_u8)
 401:../../libraries/bno055/bno055.c **** {
 932              		.loc 1 401 1
 933              		.cfi_startproc
 934              		@ args = 0, pretend = 0, frame = 16
 935              		@ frame_needed = 1, uses_anonymous_args = 0
 936 0000 F0B5     		push	{r4, r5, r6, r7, lr}
 937              		.cfi_def_cfa_offset 20
 938              		.cfi_offset 4, -20
 939              		.cfi_offset 5, -16
 940              		.cfi_offset 6, -12
 941              		.cfi_offset 7, -8
 942              		.cfi_offset 14, -4
 943 0002 85B0     		sub	sp, sp, #20
 944              		.cfi_def_cfa_offset 40
 945 0004 00AF     		add	r7, sp, #0
 946              		.cfi_def_cfa_register 7
 947 0006 0200     		movs	r2, r0
 948 0008 FB1D     		adds	r3, r7, #7
 949 000a 1A70     		strb	r2, [r3]
 402:../../libraries/bno055/bno055.c ****   /* Variable used to return value of
 403:../../libraries/bno055/bno055.c ****    * communication routine*/
 404:../../libraries/bno055/bno055.c ****   BNO055_RETURN_FUNCTION_TYPE com_rslt = BNO055_ERROR;
 950              		.loc 1 404 31
 951 000c 0F23     		movs	r3, #15
 952 000e FB18     		adds	r3, r7, r3
 953 0010 FF22     		movs	r2, #255
 954 0012 1A70     		strb	r2, [r3]
 405:../../libraries/bno055/bno055.c ****   u8 data_u8r = BNO055_INIT_VALUE;
 955              		.loc 1 405 6
 956 0014 0E23     		movs	r3, #14
 957 0016 FB18     		adds	r3, r7, r3
 958 0018 0022     		movs	r2, #0
 959 001a 1A70     		strb	r2, [r3]
 406:../../libraries/bno055/bno055.c **** 
 407:../../libraries/bno055/bno055.c ****   /* Check the struct p_bno055 is empty */
 408:../../libraries/bno055/bno055.c ****   if (p_bno055 == NULL) {
 960              		.loc 1 408 16
 961 001c 244B     		ldr	r3, .L49
 962 001e 1B68     		ldr	r3, [r3]
 963              		.loc 1 408 6
 964 0020 002B     		cmp	r3, #0
 965 0022 02D1     		bne	.L44
 409:../../libraries/bno055/bno055.c ****     return BNO055_E_NULL_PTR;
 966              		.loc 1 409 12
 967 0024 7F23     		movs	r3, #127
 968 0026 5B42     		rsbs	r3, r3, #0
 969 0028 3EE0     		b	.L48
 970              	.L44:
ARM GAS  /tmp/cc84EIjL.s 			page 25


 410:../../libraries/bno055/bno055.c ****   }
 411:../../libraries/bno055/bno055.c ****   else{
 412:../../libraries/bno055/bno055.c ****     /* Read the current page*/
 413:../../libraries/bno055/bno055.c ****     com_rslt = p_bno055->BNO055_BUS_READ_FUNC(p_bno055->dev_addr,
 971              		.loc 1 413 24
 972 002a 214B     		ldr	r3, .L49
 973 002c 1B68     		ldr	r3, [r3]
 974 002e 1D69     		ldr	r5, [r3, #16]
 975              		.loc 1 413 26
 976 0030 1F4B     		ldr	r3, .L49
 977 0032 1B68     		ldr	r3, [r3]
 978              		.loc 1 413 16
 979 0034 587A     		ldrb	r0, [r3, #9]
 980 0036 0F26     		movs	r6, #15
 981 0038 BC19     		adds	r4, r7, r6
 982 003a 0E21     		movs	r1, #14
 983 003c 7A18     		adds	r2, r7, r1
 984 003e 0123     		movs	r3, #1
 985 0040 0721     		movs	r1, #7
 986 0042 A847     		blx	r5
 987              	.LVL13:
 988 0044 0300     		movs	r3, r0
 989 0046 2370     		strb	r3, [r4]
 414:../../libraries/bno055/bno055.c ****                                               BNO055_PAGE_ID_REG,
 415:../../libraries/bno055/bno055.c ****                                               &data_u8r,
 416:../../libraries/bno055/bno055.c ****                                               BNO055_GEN_READ_WRITE_LENGTH);
 417:../../libraries/bno055/bno055.c **** 
 418:../../libraries/bno055/bno055.c ****     /* Check condition for communication BNO055_SUCCESS*/
 419:../../libraries/bno055/bno055.c ****     if (com_rslt == BNO055_SUCCESS) {
 990              		.loc 1 419 8
 991 0048 3500     		movs	r5, r6
 992 004a 7B19     		adds	r3, r7, r5
 993 004c 1B78     		ldrb	r3, [r3]
 994 004e 5BB2     		sxtb	r3, r3
 995 0050 002B     		cmp	r3, #0
 996 0052 21D1     		bne	.L46
 420:../../libraries/bno055/bno055.c ****       data_u8r = BNO055_SET_BITSLICE(data_u8r, BNO055_PAGE_ID, page_id_u8);
 997              		.loc 1 420 16
 998 0054 0E21     		movs	r1, #14
 999 0056 7B18     		adds	r3, r7, r1
 1000 0058 FA1D     		adds	r2, r7, #7
 1001 005a 1278     		ldrb	r2, [r2]
 1002 005c 1A70     		strb	r2, [r3]
 421:../../libraries/bno055/bno055.c **** 
 422:../../libraries/bno055/bno055.c ****       /* Write the page id*/
 423:../../libraries/bno055/bno055.c ****       com_rslt += p_bno055->BNO055_BUS_WRITE_FUNC(p_bno055->dev_addr,
 1003              		.loc 1 423 27
 1004 005e 144B     		ldr	r3, .L49
 1005 0060 1B68     		ldr	r3, [r3]
 1006 0062 DC68     		ldr	r4, [r3, #12]
 1007              		.loc 1 423 29
 1008 0064 124B     		ldr	r3, .L49
 1009 0066 1B68     		ldr	r3, [r3]
 1010              		.loc 1 423 19
 1011 0068 587A     		ldrb	r0, [r3, #9]
 1012 006a 7A18     		adds	r2, r7, r1
 1013 006c 0123     		movs	r3, #1
ARM GAS  /tmp/cc84EIjL.s 			page 26


 1014 006e 0721     		movs	r1, #7
 1015 0070 A047     		blx	r4
 1016              	.LVL14:
 1017 0072 0300     		movs	r3, r0
 1018 0074 DAB2     		uxtb	r2, r3
 1019              		.loc 1 423 16
 1020 0076 7B19     		adds	r3, r7, r5
 1021 0078 1B78     		ldrb	r3, [r3]
 1022 007a D318     		adds	r3, r2, r3
 1023 007c DAB2     		uxtb	r2, r3
 1024 007e 7B19     		adds	r3, r7, r5
 1025 0080 1A70     		strb	r2, [r3]
 424:../../libraries/bno055/bno055.c ****                                                   BNO055_PAGE_ID_REG,
 425:../../libraries/bno055/bno055.c ****                                                   &data_u8r,
 426:../../libraries/bno055/bno055.c ****                                                   BNO055_GEN_READ_WRITE_LENGTH);
 427:../../libraries/bno055/bno055.c ****       if (com_rslt == BNO055_SUCCESS) {
 1026              		.loc 1 427 10
 1027 0082 7B19     		adds	r3, r7, r5
 1028 0084 1B78     		ldrb	r3, [r3]
 1029 0086 5BB2     		sxtb	r3, r3
 1030 0088 002B     		cmp	r3, #0
 1031 008a 09D1     		bne	.L47
 428:../../libraries/bno055/bno055.c ****         p_bno055->page_id = page_id_u8;
 1032              		.loc 1 428 17
 1033 008c 084B     		ldr	r3, .L49
 1034 008e 1B68     		ldr	r3, [r3]
 1035              		.loc 1 428 27
 1036 0090 FA1D     		adds	r2, r7, #7
 1037 0092 1278     		ldrb	r2, [r2]
 1038 0094 1A71     		strb	r2, [r3, #4]
 1039 0096 03E0     		b	.L47
 1040              	.L46:
 429:../../libraries/bno055/bno055.c ****       }
 430:../../libraries/bno055/bno055.c ****     }
 431:../../libraries/bno055/bno055.c ****     else{
 432:../../libraries/bno055/bno055.c ****       com_rslt = BNO055_ERROR;
 1041              		.loc 1 432 16
 1042 0098 0F23     		movs	r3, #15
 1043 009a FB18     		adds	r3, r7, r3
 1044 009c FF22     		movs	r2, #255
 1045 009e 1A70     		strb	r2, [r3]
 1046              	.L47:
 433:../../libraries/bno055/bno055.c ****     }
 434:../../libraries/bno055/bno055.c ****   }
 435:../../libraries/bno055/bno055.c **** 
 436:../../libraries/bno055/bno055.c ****   return com_rslt;
 1047              		.loc 1 436 10
 1048 00a0 0F23     		movs	r3, #15
 1049 00a2 FB18     		adds	r3, r7, r3
 1050 00a4 1B78     		ldrb	r3, [r3]
 1051 00a6 5BB2     		sxtb	r3, r3
 1052              	.L48:
 437:../../libraries/bno055/bno055.c **** }
 1053              		.loc 1 437 1 discriminator 1
 1054 00a8 1800     		movs	r0, r3
 1055 00aa BD46     		mov	sp, r7
 1056 00ac 05B0     		add	sp, sp, #20
ARM GAS  /tmp/cc84EIjL.s 			page 27


 1057              		@ sp needed
 1058 00ae F0BD     		pop	{r4, r5, r6, r7, pc}
 1059              	.L50:
 1060              		.align	2
 1061              	.L49:
 1062 00b0 00000000 		.word	p_bno055
 1063              		.cfi_endproc
 1064              	.LFE6:
 1066              		.section	.text.bno055_read_accel_rev_id,"ax",%progbits
 1067              		.align	1
 1068              		.global	bno055_read_accel_rev_id
 1069              		.syntax unified
 1070              		.code	16
 1071              		.thumb_func
 1072              		.fpu softvfp
 1074              	bno055_read_accel_rev_id:
 1075              	.LFB7:
 438:../../libraries/bno055/bno055.c **** 
 439:../../libraries/bno055/bno055.c **** /*!
 440:../../libraries/bno055/bno055.c ****  *  @brief This API reads accel revision id
 441:../../libraries/bno055/bno055.c ****  *  from register 0x01 it is a byte of value
 442:../../libraries/bno055/bno055.c ****  *
 443:../../libraries/bno055/bno055.c ****  *  @param accel_rev_id_u8 : The accel revision id 0xFB
 444:../../libraries/bno055/bno055.c ****  *
 445:../../libraries/bno055/bno055.c ****  *  @return results of bus communication function
 446:../../libraries/bno055/bno055.c ****  *  @retval 0 -> BNO055_SUCCESS
 447:../../libraries/bno055/bno055.c ****  *  @retval 1 -> BNO055_ERROR
 448:../../libraries/bno055/bno055.c ****  *
 449:../../libraries/bno055/bno055.c ****  *
 450:../../libraries/bno055/bno055.c ****  */
 451:../../libraries/bno055/bno055.c **** BNO055_RETURN_FUNCTION_TYPE bno055_read_accel_rev_id(u8 *accel_rev_id_u8)
 452:../../libraries/bno055/bno055.c **** {
 1076              		.loc 1 452 1
 1077              		.cfi_startproc
 1078              		@ args = 0, pretend = 0, frame = 16
 1079              		@ frame_needed = 1, uses_anonymous_args = 0
 1080 0000 F0B5     		push	{r4, r5, r6, r7, lr}
 1081              		.cfi_def_cfa_offset 20
 1082              		.cfi_offset 4, -20
 1083              		.cfi_offset 5, -16
 1084              		.cfi_offset 6, -12
 1085              		.cfi_offset 7, -8
 1086              		.cfi_offset 14, -4
 1087 0002 85B0     		sub	sp, sp, #20
 1088              		.cfi_def_cfa_offset 40
 1089 0004 00AF     		add	r7, sp, #0
 1090              		.cfi_def_cfa_register 7
 1091 0006 7860     		str	r0, [r7, #4]
 453:../../libraries/bno055/bno055.c ****   /* Variable used to return value of
 454:../../libraries/bno055/bno055.c ****    * communication routine*/
 455:../../libraries/bno055/bno055.c ****   BNO055_RETURN_FUNCTION_TYPE com_rslt = BNO055_ERROR;
 1092              		.loc 1 455 31
 1093 0008 0F23     		movs	r3, #15
 1094 000a FB18     		adds	r3, r7, r3
 1095 000c FF22     		movs	r2, #255
 1096 000e 1A70     		strb	r2, [r3]
 456:../../libraries/bno055/bno055.c ****   u8 data_u8 = BNO055_INIT_VALUE;
ARM GAS  /tmp/cc84EIjL.s 			page 28


 1097              		.loc 1 456 6
 1098 0010 0D23     		movs	r3, #13
 1099 0012 FB18     		adds	r3, r7, r3
 1100 0014 0022     		movs	r2, #0
 1101 0016 1A70     		strb	r2, [r3]
 457:../../libraries/bno055/bno055.c ****   s8 stat_s8 = BNO055_ERROR;
 1102              		.loc 1 457 6
 1103 0018 0E23     		movs	r3, #14
 1104 001a FB18     		adds	r3, r7, r3
 1105 001c FF22     		movs	r2, #255
 1106 001e 1A70     		strb	r2, [r3]
 458:../../libraries/bno055/bno055.c **** 
 459:../../libraries/bno055/bno055.c ****   /* Check the struct p_bno055 is empty */
 460:../../libraries/bno055/bno055.c ****   if (p_bno055 == NULL) {
 1107              		.loc 1 460 16
 1108 0020 1E4B     		ldr	r3, .L59
 1109 0022 1B68     		ldr	r3, [r3]
 1110              		.loc 1 460 6
 1111 0024 002B     		cmp	r3, #0
 1112 0026 02D1     		bne	.L52
 461:../../libraries/bno055/bno055.c ****     return BNO055_E_NULL_PTR;
 1113              		.loc 1 461 12
 1114 0028 7F23     		movs	r3, #127
 1115 002a 5B42     		rsbs	r3, r3, #0
 1116 002c 32E0     		b	.L58
 1117              	.L52:
 462:../../libraries/bno055/bno055.c ****   }
 463:../../libraries/bno055/bno055.c ****   else{
 464:../../libraries/bno055/bno055.c ****     /*condition check for page, chip id is
 465:../../libraries/bno055/bno055.c ****      * available in the page zero*/
 466:../../libraries/bno055/bno055.c ****     if (p_bno055->page_id != BNO055_PAGE_ZERO) {
 1118              		.loc 1 466 17
 1119 002e 1B4B     		ldr	r3, .L59
 1120 0030 1B68     		ldr	r3, [r3]
 1121 0032 1B79     		ldrb	r3, [r3, #4]
 1122              		.loc 1 466 8
 1123 0034 002B     		cmp	r3, #0
 1124 0036 06D0     		beq	.L54
 467:../../libraries/bno055/bno055.c ****       /* Write the page zero*/
 468:../../libraries/bno055/bno055.c ****       stat_s8 = bno055_write_page_id(BNO055_PAGE_ZERO);
 1125              		.loc 1 468 17
 1126 0038 0E23     		movs	r3, #14
 1127 003a FC18     		adds	r4, r7, r3
 1128 003c 0020     		movs	r0, #0
 1129 003e FFF7FEFF 		bl	bno055_write_page_id
 1130 0042 0300     		movs	r3, r0
 1131 0044 2370     		strb	r3, [r4]
 1132              	.L54:
 469:../../libraries/bno055/bno055.c ****     }
 470:../../libraries/bno055/bno055.c ****     if ((stat_s8 == BNO055_SUCCESS) || (p_bno055->page_id == BNO055_PAGE_ZERO)) {
 1133              		.loc 1 470 8
 1134 0046 0E23     		movs	r3, #14
 1135 0048 FB18     		adds	r3, r7, r3
 1136 004a 1B78     		ldrb	r3, [r3]
 1137 004c 5BB2     		sxtb	r3, r3
 1138 004e 002B     		cmp	r3, #0
 1139 0050 04D0     		beq	.L55
ARM GAS  /tmp/cc84EIjL.s 			page 29


 1140              		.loc 1 470 49 discriminator 1
 1141 0052 124B     		ldr	r3, .L59
 1142 0054 1B68     		ldr	r3, [r3]
 1143 0056 1B79     		ldrb	r3, [r3, #4]
 1144              		.loc 1 470 37 discriminator 1
 1145 0058 002B     		cmp	r3, #0
 1146 005a 13D1     		bne	.L56
 1147              	.L55:
 471:../../libraries/bno055/bno055.c ****       /* Read the accel revision id */
 472:../../libraries/bno055/bno055.c ****       com_rslt = p_bno055->BNO055_BUS_READ_FUNC(p_bno055->dev_addr,
 1148              		.loc 1 472 26
 1149 005c 0F4B     		ldr	r3, .L59
 1150 005e 1B68     		ldr	r3, [r3]
 1151 0060 1D69     		ldr	r5, [r3, #16]
 1152              		.loc 1 472 28
 1153 0062 0E4B     		ldr	r3, .L59
 1154 0064 1B68     		ldr	r3, [r3]
 1155              		.loc 1 472 18
 1156 0066 587A     		ldrb	r0, [r3, #9]
 1157 0068 0F23     		movs	r3, #15
 1158 006a FC18     		adds	r4, r7, r3
 1159 006c 0D26     		movs	r6, #13
 1160 006e BA19     		adds	r2, r7, r6
 1161 0070 0123     		movs	r3, #1
 1162 0072 0121     		movs	r1, #1
 1163 0074 A847     		blx	r5
 1164              	.LVL15:
 1165 0076 0300     		movs	r3, r0
 1166 0078 2370     		strb	r3, [r4]
 473:../../libraries/bno055/bno055.c ****                                                 BNO055_ACCEL_REV_ID_REG,
 474:../../libraries/bno055/bno055.c ****                                                 &data_u8,
 475:../../libraries/bno055/bno055.c ****                                                 BNO055_GEN_READ_WRITE_LENGTH);
 476:../../libraries/bno055/bno055.c ****       *accel_rev_id_u8 = data_u8;
 1167              		.loc 1 476 24
 1168 007a BB19     		adds	r3, r7, r6
 1169 007c 1A78     		ldrb	r2, [r3]
 1170 007e 7B68     		ldr	r3, [r7, #4]
 1171 0080 1A70     		strb	r2, [r3]
 1172 0082 03E0     		b	.L57
 1173              	.L56:
 477:../../libraries/bno055/bno055.c ****     }
 478:../../libraries/bno055/bno055.c ****     else{
 479:../../libraries/bno055/bno055.c ****       com_rslt = BNO055_ERROR;
 1174              		.loc 1 479 16
 1175 0084 0F23     		movs	r3, #15
 1176 0086 FB18     		adds	r3, r7, r3
 1177 0088 FF22     		movs	r2, #255
 1178 008a 1A70     		strb	r2, [r3]
 1179              	.L57:
 480:../../libraries/bno055/bno055.c ****     }
 481:../../libraries/bno055/bno055.c ****   }
 482:../../libraries/bno055/bno055.c **** 
 483:../../libraries/bno055/bno055.c ****   return com_rslt;
 1180              		.loc 1 483 10
 1181 008c 0F23     		movs	r3, #15
 1182 008e FB18     		adds	r3, r7, r3
 1183 0090 1B78     		ldrb	r3, [r3]
ARM GAS  /tmp/cc84EIjL.s 			page 30


 1184 0092 5BB2     		sxtb	r3, r3
 1185              	.L58:
 484:../../libraries/bno055/bno055.c **** }
 1186              		.loc 1 484 1 discriminator 1
 1187 0094 1800     		movs	r0, r3
 1188 0096 BD46     		mov	sp, r7
 1189 0098 05B0     		add	sp, sp, #20
 1190              		@ sp needed
 1191 009a F0BD     		pop	{r4, r5, r6, r7, pc}
 1192              	.L60:
 1193              		.align	2
 1194              	.L59:
 1195 009c 00000000 		.word	p_bno055
 1196              		.cfi_endproc
 1197              	.LFE7:
 1199              		.section	.text.bno055_read_mag_rev_id,"ax",%progbits
 1200              		.align	1
 1201              		.global	bno055_read_mag_rev_id
 1202              		.syntax unified
 1203              		.code	16
 1204              		.thumb_func
 1205              		.fpu softvfp
 1207              	bno055_read_mag_rev_id:
 1208              	.LFB8:
 485:../../libraries/bno055/bno055.c **** 
 486:../../libraries/bno055/bno055.c **** /*!
 487:../../libraries/bno055/bno055.c ****  *  @brief This API reads mag revision id
 488:../../libraries/bno055/bno055.c ****  *  from register 0x02 it is a byte of value
 489:../../libraries/bno055/bno055.c ****  *
 490:../../libraries/bno055/bno055.c ****  *  @param mag_rev_id_u8 : The mag revision id 0x32
 491:../../libraries/bno055/bno055.c ****  *
 492:../../libraries/bno055/bno055.c ****  *  @return results of bus communication function
 493:../../libraries/bno055/bno055.c ****  *  @retval 0 -> BNO055_SUCCESS
 494:../../libraries/bno055/bno055.c ****  *  @retval 1 -> BNO055_ERROR
 495:../../libraries/bno055/bno055.c ****  *
 496:../../libraries/bno055/bno055.c ****  *
 497:../../libraries/bno055/bno055.c ****  */
 498:../../libraries/bno055/bno055.c **** BNO055_RETURN_FUNCTION_TYPE bno055_read_mag_rev_id(u8 *mag_rev_id_u8)
 499:../../libraries/bno055/bno055.c **** {
 1209              		.loc 1 499 1
 1210              		.cfi_startproc
 1211              		@ args = 0, pretend = 0, frame = 16
 1212              		@ frame_needed = 1, uses_anonymous_args = 0
 1213 0000 F0B5     		push	{r4, r5, r6, r7, lr}
 1214              		.cfi_def_cfa_offset 20
 1215              		.cfi_offset 4, -20
 1216              		.cfi_offset 5, -16
 1217              		.cfi_offset 6, -12
 1218              		.cfi_offset 7, -8
 1219              		.cfi_offset 14, -4
 1220 0002 85B0     		sub	sp, sp, #20
 1221              		.cfi_def_cfa_offset 40
 1222 0004 00AF     		add	r7, sp, #0
 1223              		.cfi_def_cfa_register 7
 1224 0006 7860     		str	r0, [r7, #4]
 500:../../libraries/bno055/bno055.c ****   /* Variable used to return value of
 501:../../libraries/bno055/bno055.c ****    * communication routine*/
ARM GAS  /tmp/cc84EIjL.s 			page 31


 502:../../libraries/bno055/bno055.c ****   BNO055_RETURN_FUNCTION_TYPE com_rslt = BNO055_ERROR;
 1225              		.loc 1 502 31
 1226 0008 0F23     		movs	r3, #15
 1227 000a FB18     		adds	r3, r7, r3
 1228 000c FF22     		movs	r2, #255
 1229 000e 1A70     		strb	r2, [r3]
 503:../../libraries/bno055/bno055.c ****   u8 data_u8 = BNO055_INIT_VALUE;
 1230              		.loc 1 503 6
 1231 0010 0D23     		movs	r3, #13
 1232 0012 FB18     		adds	r3, r7, r3
 1233 0014 0022     		movs	r2, #0
 1234 0016 1A70     		strb	r2, [r3]
 504:../../libraries/bno055/bno055.c ****   s8 stat_s8 = BNO055_ERROR;
 1235              		.loc 1 504 6
 1236 0018 0E23     		movs	r3, #14
 1237 001a FB18     		adds	r3, r7, r3
 1238 001c FF22     		movs	r2, #255
 1239 001e 1A70     		strb	r2, [r3]
 505:../../libraries/bno055/bno055.c **** 
 506:../../libraries/bno055/bno055.c ****   /* Check the struct p_bno055 is empty */
 507:../../libraries/bno055/bno055.c ****   if (p_bno055 == NULL) {
 1240              		.loc 1 507 16
 1241 0020 1E4B     		ldr	r3, .L69
 1242 0022 1B68     		ldr	r3, [r3]
 1243              		.loc 1 507 6
 1244 0024 002B     		cmp	r3, #0
 1245 0026 02D1     		bne	.L62
 508:../../libraries/bno055/bno055.c ****     return BNO055_E_NULL_PTR;
 1246              		.loc 1 508 12
 1247 0028 7F23     		movs	r3, #127
 1248 002a 5B42     		rsbs	r3, r3, #0
 1249 002c 32E0     		b	.L68
 1250              	.L62:
 509:../../libraries/bno055/bno055.c ****   }
 510:../../libraries/bno055/bno055.c ****   else{
 511:../../libraries/bno055/bno055.c ****     /*condition check for page, chip id is
 512:../../libraries/bno055/bno055.c ****      * available in the page zero*/
 513:../../libraries/bno055/bno055.c ****     if (p_bno055->page_id != BNO055_PAGE_ZERO) {
 1251              		.loc 1 513 17
 1252 002e 1B4B     		ldr	r3, .L69
 1253 0030 1B68     		ldr	r3, [r3]
 1254 0032 1B79     		ldrb	r3, [r3, #4]
 1255              		.loc 1 513 8
 1256 0034 002B     		cmp	r3, #0
 1257 0036 06D0     		beq	.L64
 514:../../libraries/bno055/bno055.c ****       /* Write the page zero*/
 515:../../libraries/bno055/bno055.c ****       stat_s8 = bno055_write_page_id(BNO055_PAGE_ZERO);
 1258              		.loc 1 515 17
 1259 0038 0E23     		movs	r3, #14
 1260 003a FC18     		adds	r4, r7, r3
 1261 003c 0020     		movs	r0, #0
 1262 003e FFF7FEFF 		bl	bno055_write_page_id
 1263 0042 0300     		movs	r3, r0
 1264 0044 2370     		strb	r3, [r4]
 1265              	.L64:
 516:../../libraries/bno055/bno055.c ****     }
 517:../../libraries/bno055/bno055.c ****     if ((stat_s8 == BNO055_SUCCESS) || (p_bno055->page_id == BNO055_PAGE_ZERO)) {
ARM GAS  /tmp/cc84EIjL.s 			page 32


 1266              		.loc 1 517 8
 1267 0046 0E23     		movs	r3, #14
 1268 0048 FB18     		adds	r3, r7, r3
 1269 004a 1B78     		ldrb	r3, [r3]
 1270 004c 5BB2     		sxtb	r3, r3
 1271 004e 002B     		cmp	r3, #0
 1272 0050 04D0     		beq	.L65
 1273              		.loc 1 517 49 discriminator 1
 1274 0052 124B     		ldr	r3, .L69
 1275 0054 1B68     		ldr	r3, [r3]
 1276 0056 1B79     		ldrb	r3, [r3, #4]
 1277              		.loc 1 517 37 discriminator 1
 1278 0058 002B     		cmp	r3, #0
 1279 005a 13D1     		bne	.L66
 1280              	.L65:
 518:../../libraries/bno055/bno055.c ****       /* Read the mag revision id */
 519:../../libraries/bno055/bno055.c ****       com_rslt = p_bno055->BNO055_BUS_READ_FUNC(p_bno055->dev_addr,
 1281              		.loc 1 519 26
 1282 005c 0F4B     		ldr	r3, .L69
 1283 005e 1B68     		ldr	r3, [r3]
 1284 0060 1D69     		ldr	r5, [r3, #16]
 1285              		.loc 1 519 28
 1286 0062 0E4B     		ldr	r3, .L69
 1287 0064 1B68     		ldr	r3, [r3]
 1288              		.loc 1 519 18
 1289 0066 587A     		ldrb	r0, [r3, #9]
 1290 0068 0F23     		movs	r3, #15
 1291 006a FC18     		adds	r4, r7, r3
 1292 006c 0D26     		movs	r6, #13
 1293 006e BA19     		adds	r2, r7, r6
 1294 0070 0123     		movs	r3, #1
 1295 0072 0221     		movs	r1, #2
 1296 0074 A847     		blx	r5
 1297              	.LVL16:
 1298 0076 0300     		movs	r3, r0
 1299 0078 2370     		strb	r3, [r4]
 520:../../libraries/bno055/bno055.c ****                                                 BNO055_MAG_REV_ID_REG,
 521:../../libraries/bno055/bno055.c ****                                                 &data_u8,
 522:../../libraries/bno055/bno055.c ****                                                 BNO055_GEN_READ_WRITE_LENGTH);
 523:../../libraries/bno055/bno055.c ****       *mag_rev_id_u8 = data_u8;
 1300              		.loc 1 523 22
 1301 007a BB19     		adds	r3, r7, r6
 1302 007c 1A78     		ldrb	r2, [r3]
 1303 007e 7B68     		ldr	r3, [r7, #4]
 1304 0080 1A70     		strb	r2, [r3]
 1305 0082 03E0     		b	.L67
 1306              	.L66:
 524:../../libraries/bno055/bno055.c ****     }
 525:../../libraries/bno055/bno055.c ****     else{
 526:../../libraries/bno055/bno055.c ****       com_rslt = BNO055_ERROR;
 1307              		.loc 1 526 16
 1308 0084 0F23     		movs	r3, #15
 1309 0086 FB18     		adds	r3, r7, r3
 1310 0088 FF22     		movs	r2, #255
 1311 008a 1A70     		strb	r2, [r3]
 1312              	.L67:
 527:../../libraries/bno055/bno055.c ****     }
ARM GAS  /tmp/cc84EIjL.s 			page 33


 528:../../libraries/bno055/bno055.c ****   }
 529:../../libraries/bno055/bno055.c **** 
 530:../../libraries/bno055/bno055.c ****   return com_rslt;
 1313              		.loc 1 530 10
 1314 008c 0F23     		movs	r3, #15
 1315 008e FB18     		adds	r3, r7, r3
 1316 0090 1B78     		ldrb	r3, [r3]
 1317 0092 5BB2     		sxtb	r3, r3
 1318              	.L68:
 531:../../libraries/bno055/bno055.c **** }
 1319              		.loc 1 531 1 discriminator 1
 1320 0094 1800     		movs	r0, r3
 1321 0096 BD46     		mov	sp, r7
 1322 0098 05B0     		add	sp, sp, #20
 1323              		@ sp needed
 1324 009a F0BD     		pop	{r4, r5, r6, r7, pc}
 1325              	.L70:
 1326              		.align	2
 1327              	.L69:
 1328 009c 00000000 		.word	p_bno055
 1329              		.cfi_endproc
 1330              	.LFE8:
 1332              		.section	.text.bno055_read_gyro_rev_id,"ax",%progbits
 1333              		.align	1
 1334              		.global	bno055_read_gyro_rev_id
 1335              		.syntax unified
 1336              		.code	16
 1337              		.thumb_func
 1338              		.fpu softvfp
 1340              	bno055_read_gyro_rev_id:
 1341              	.LFB9:
 532:../../libraries/bno055/bno055.c **** 
 533:../../libraries/bno055/bno055.c **** /*!
 534:../../libraries/bno055/bno055.c ****  *  @brief This API reads gyro revision id
 535:../../libraries/bno055/bno055.c ****  *  from register 0x03 it is a byte of value
 536:../../libraries/bno055/bno055.c ****  *
 537:../../libraries/bno055/bno055.c ****  *  @param gyro_rev_id_u8 : The gyro revision id 0xF0
 538:../../libraries/bno055/bno055.c ****  *
 539:../../libraries/bno055/bno055.c ****  *
 540:../../libraries/bno055/bno055.c ****  *
 541:../../libraries/bno055/bno055.c ****  *  @return results of bus communication function
 542:../../libraries/bno055/bno055.c ****  *  @retval 0 -> BNO055_SUCCESS
 543:../../libraries/bno055/bno055.c ****  *  @retval 1 -> BNO055_ERROR
 544:../../libraries/bno055/bno055.c ****  *
 545:../../libraries/bno055/bno055.c ****  *
 546:../../libraries/bno055/bno055.c ****  */
 547:../../libraries/bno055/bno055.c **** BNO055_RETURN_FUNCTION_TYPE bno055_read_gyro_rev_id(u8 *gyro_rev_id_u8)
 548:../../libraries/bno055/bno055.c **** {
 1342              		.loc 1 548 1
 1343              		.cfi_startproc
 1344              		@ args = 0, pretend = 0, frame = 16
 1345              		@ frame_needed = 1, uses_anonymous_args = 0
 1346 0000 F0B5     		push	{r4, r5, r6, r7, lr}
 1347              		.cfi_def_cfa_offset 20
 1348              		.cfi_offset 4, -20
 1349              		.cfi_offset 5, -16
 1350              		.cfi_offset 6, -12
ARM GAS  /tmp/cc84EIjL.s 			page 34


 1351              		.cfi_offset 7, -8
 1352              		.cfi_offset 14, -4
 1353 0002 85B0     		sub	sp, sp, #20
 1354              		.cfi_def_cfa_offset 40
 1355 0004 00AF     		add	r7, sp, #0
 1356              		.cfi_def_cfa_register 7
 1357 0006 7860     		str	r0, [r7, #4]
 549:../../libraries/bno055/bno055.c ****   /* Variable used to return value of
 550:../../libraries/bno055/bno055.c ****    * communication routine*/
 551:../../libraries/bno055/bno055.c ****   BNO055_RETURN_FUNCTION_TYPE com_rslt = BNO055_ERROR;
 1358              		.loc 1 551 31
 1359 0008 0F23     		movs	r3, #15
 1360 000a FB18     		adds	r3, r7, r3
 1361 000c FF22     		movs	r2, #255
 1362 000e 1A70     		strb	r2, [r3]
 552:../../libraries/bno055/bno055.c ****   u8 data_u8 = BNO055_INIT_VALUE;
 1363              		.loc 1 552 6
 1364 0010 0D23     		movs	r3, #13
 1365 0012 FB18     		adds	r3, r7, r3
 1366 0014 0022     		movs	r2, #0
 1367 0016 1A70     		strb	r2, [r3]
 553:../../libraries/bno055/bno055.c ****   s8 stat_s8 = BNO055_ERROR;
 1368              		.loc 1 553 6
 1369 0018 0E23     		movs	r3, #14
 1370 001a FB18     		adds	r3, r7, r3
 1371 001c FF22     		movs	r2, #255
 1372 001e 1A70     		strb	r2, [r3]
 554:../../libraries/bno055/bno055.c **** 
 555:../../libraries/bno055/bno055.c ****   /* Check the struct p_bno055 is empty */
 556:../../libraries/bno055/bno055.c ****   if (p_bno055 == NULL) {
 1373              		.loc 1 556 16
 1374 0020 1E4B     		ldr	r3, .L79
 1375 0022 1B68     		ldr	r3, [r3]
 1376              		.loc 1 556 6
 1377 0024 002B     		cmp	r3, #0
 1378 0026 02D1     		bne	.L72
 557:../../libraries/bno055/bno055.c ****     return BNO055_E_NULL_PTR;
 1379              		.loc 1 557 12
 1380 0028 7F23     		movs	r3, #127
 1381 002a 5B42     		rsbs	r3, r3, #0
 1382 002c 32E0     		b	.L78
 1383              	.L72:
 558:../../libraries/bno055/bno055.c ****   }
 559:../../libraries/bno055/bno055.c ****   else{
 560:../../libraries/bno055/bno055.c ****     /*condition check for page, chip id is
 561:../../libraries/bno055/bno055.c ****      * available in the page zero*/
 562:../../libraries/bno055/bno055.c ****     if (p_bno055->page_id != BNO055_PAGE_ZERO) {
 1384              		.loc 1 562 17
 1385 002e 1B4B     		ldr	r3, .L79
 1386 0030 1B68     		ldr	r3, [r3]
 1387 0032 1B79     		ldrb	r3, [r3, #4]
 1388              		.loc 1 562 8
 1389 0034 002B     		cmp	r3, #0
 1390 0036 06D0     		beq	.L74
 563:../../libraries/bno055/bno055.c ****       /* Write the page zero*/
 564:../../libraries/bno055/bno055.c ****       stat_s8 = bno055_write_page_id(BNO055_PAGE_ZERO);
 1391              		.loc 1 564 17
ARM GAS  /tmp/cc84EIjL.s 			page 35


 1392 0038 0E23     		movs	r3, #14
 1393 003a FC18     		adds	r4, r7, r3
 1394 003c 0020     		movs	r0, #0
 1395 003e FFF7FEFF 		bl	bno055_write_page_id
 1396 0042 0300     		movs	r3, r0
 1397 0044 2370     		strb	r3, [r4]
 1398              	.L74:
 565:../../libraries/bno055/bno055.c ****     }
 566:../../libraries/bno055/bno055.c ****     if ((stat_s8 == BNO055_SUCCESS) || (p_bno055->page_id == BNO055_PAGE_ZERO)) {
 1399              		.loc 1 566 8
 1400 0046 0E23     		movs	r3, #14
 1401 0048 FB18     		adds	r3, r7, r3
 1402 004a 1B78     		ldrb	r3, [r3]
 1403 004c 5BB2     		sxtb	r3, r3
 1404 004e 002B     		cmp	r3, #0
 1405 0050 04D0     		beq	.L75
 1406              		.loc 1 566 49 discriminator 1
 1407 0052 124B     		ldr	r3, .L79
 1408 0054 1B68     		ldr	r3, [r3]
 1409 0056 1B79     		ldrb	r3, [r3, #4]
 1410              		.loc 1 566 37 discriminator 1
 1411 0058 002B     		cmp	r3, #0
 1412 005a 13D1     		bne	.L76
 1413              	.L75:
 567:../../libraries/bno055/bno055.c ****       /* Read the gyro revision id */
 568:../../libraries/bno055/bno055.c ****       com_rslt = p_bno055->BNO055_BUS_READ_FUNC(p_bno055->dev_addr,
 1414              		.loc 1 568 26
 1415 005c 0F4B     		ldr	r3, .L79
 1416 005e 1B68     		ldr	r3, [r3]
 1417 0060 1D69     		ldr	r5, [r3, #16]
 1418              		.loc 1 568 28
 1419 0062 0E4B     		ldr	r3, .L79
 1420 0064 1B68     		ldr	r3, [r3]
 1421              		.loc 1 568 18
 1422 0066 587A     		ldrb	r0, [r3, #9]
 1423 0068 0F23     		movs	r3, #15
 1424 006a FC18     		adds	r4, r7, r3
 1425 006c 0D26     		movs	r6, #13
 1426 006e BA19     		adds	r2, r7, r6
 1427 0070 0123     		movs	r3, #1
 1428 0072 0321     		movs	r1, #3
 1429 0074 A847     		blx	r5
 1430              	.LVL17:
 1431 0076 0300     		movs	r3, r0
 1432 0078 2370     		strb	r3, [r4]
 569:../../libraries/bno055/bno055.c ****                                                 BNO055_GYRO_REV_ID_REG,
 570:../../libraries/bno055/bno055.c ****                                                 &data_u8,
 571:../../libraries/bno055/bno055.c ****                                                 BNO055_GEN_READ_WRITE_LENGTH);
 572:../../libraries/bno055/bno055.c ****       *gyro_rev_id_u8 = data_u8;
 1433              		.loc 1 572 23
 1434 007a BB19     		adds	r3, r7, r6
 1435 007c 1A78     		ldrb	r2, [r3]
 1436 007e 7B68     		ldr	r3, [r7, #4]
 1437 0080 1A70     		strb	r2, [r3]
 1438 0082 03E0     		b	.L77
 1439              	.L76:
 573:../../libraries/bno055/bno055.c ****     }
ARM GAS  /tmp/cc84EIjL.s 			page 36


 574:../../libraries/bno055/bno055.c ****     else{
 575:../../libraries/bno055/bno055.c ****       com_rslt = BNO055_ERROR;
 1440              		.loc 1 575 16
 1441 0084 0F23     		movs	r3, #15
 1442 0086 FB18     		adds	r3, r7, r3
 1443 0088 FF22     		movs	r2, #255
 1444 008a 1A70     		strb	r2, [r3]
 1445              	.L77:
 576:../../libraries/bno055/bno055.c ****     }
 577:../../libraries/bno055/bno055.c ****   }
 578:../../libraries/bno055/bno055.c **** 
 579:../../libraries/bno055/bno055.c ****   return com_rslt;
 1446              		.loc 1 579 10
 1447 008c 0F23     		movs	r3, #15
 1448 008e FB18     		adds	r3, r7, r3
 1449 0090 1B78     		ldrb	r3, [r3]
 1450 0092 5BB2     		sxtb	r3, r3
 1451              	.L78:
 580:../../libraries/bno055/bno055.c **** }
 1452              		.loc 1 580 1 discriminator 1
 1453 0094 1800     		movs	r0, r3
 1454 0096 BD46     		mov	sp, r7
 1455 0098 05B0     		add	sp, sp, #20
 1456              		@ sp needed
 1457 009a F0BD     		pop	{r4, r5, r6, r7, pc}
 1458              	.L80:
 1459              		.align	2
 1460              	.L79:
 1461 009c 00000000 		.word	p_bno055
 1462              		.cfi_endproc
 1463              	.LFE9:
 1465              		.section	.text.bno055_read_bl_rev_id,"ax",%progbits
 1466              		.align	1
 1467              		.global	bno055_read_bl_rev_id
 1468              		.syntax unified
 1469              		.code	16
 1470              		.thumb_func
 1471              		.fpu softvfp
 1473              	bno055_read_bl_rev_id:
 1474              	.LFB10:
 581:../../libraries/bno055/bno055.c **** 
 582:../../libraries/bno055/bno055.c **** /*!
 583:../../libraries/bno055/bno055.c ****  *  @brief This API used to read boot loader revision id
 584:../../libraries/bno055/bno055.c ****  *  from register 0x06 it is a byte of value
 585:../../libraries/bno055/bno055.c ****  *
 586:../../libraries/bno055/bno055.c ****  *  @param bl_rev_id_u8 : The boot loader revision id
 587:../../libraries/bno055/bno055.c ****  *
 588:../../libraries/bno055/bno055.c ****  *
 589:../../libraries/bno055/bno055.c ****  *  @return results of bus communication function
 590:../../libraries/bno055/bno055.c ****  *  @retval 0 -> BNO055_SUCCESS
 591:../../libraries/bno055/bno055.c ****  *  @retval 1 -> BNO055_ERROR
 592:../../libraries/bno055/bno055.c ****  *
 593:../../libraries/bno055/bno055.c ****  *
 594:../../libraries/bno055/bno055.c ****  */
 595:../../libraries/bno055/bno055.c **** BNO055_RETURN_FUNCTION_TYPE bno055_read_bl_rev_id(u8 *bl_rev_id_u8)
 596:../../libraries/bno055/bno055.c **** {
 1475              		.loc 1 596 1
ARM GAS  /tmp/cc84EIjL.s 			page 37


 1476              		.cfi_startproc
 1477              		@ args = 0, pretend = 0, frame = 16
 1478              		@ frame_needed = 1, uses_anonymous_args = 0
 1479 0000 F0B5     		push	{r4, r5, r6, r7, lr}
 1480              		.cfi_def_cfa_offset 20
 1481              		.cfi_offset 4, -20
 1482              		.cfi_offset 5, -16
 1483              		.cfi_offset 6, -12
 1484              		.cfi_offset 7, -8
 1485              		.cfi_offset 14, -4
 1486 0002 85B0     		sub	sp, sp, #20
 1487              		.cfi_def_cfa_offset 40
 1488 0004 00AF     		add	r7, sp, #0
 1489              		.cfi_def_cfa_register 7
 1490 0006 7860     		str	r0, [r7, #4]
 597:../../libraries/bno055/bno055.c ****   /* Variable used to return value of
 598:../../libraries/bno055/bno055.c ****    * communication routine*/
 599:../../libraries/bno055/bno055.c ****   BNO055_RETURN_FUNCTION_TYPE com_rslt = BNO055_ERROR;
 1491              		.loc 1 599 31
 1492 0008 0F23     		movs	r3, #15
 1493 000a FB18     		adds	r3, r7, r3
 1494 000c FF22     		movs	r2, #255
 1495 000e 1A70     		strb	r2, [r3]
 600:../../libraries/bno055/bno055.c ****   u8 data_u8 = BNO055_INIT_VALUE;
 1496              		.loc 1 600 6
 1497 0010 0D23     		movs	r3, #13
 1498 0012 FB18     		adds	r3, r7, r3
 1499 0014 0022     		movs	r2, #0
 1500 0016 1A70     		strb	r2, [r3]
 601:../../libraries/bno055/bno055.c ****   s8 stat_s8 = BNO055_ERROR;
 1501              		.loc 1 601 6
 1502 0018 0E23     		movs	r3, #14
 1503 001a FB18     		adds	r3, r7, r3
 1504 001c FF22     		movs	r2, #255
 1505 001e 1A70     		strb	r2, [r3]
 602:../../libraries/bno055/bno055.c **** 
 603:../../libraries/bno055/bno055.c ****   /* Check the struct p_bno055 is empty */
 604:../../libraries/bno055/bno055.c ****   if (p_bno055 == NULL) {
 1506              		.loc 1 604 16
 1507 0020 1E4B     		ldr	r3, .L89
 1508 0022 1B68     		ldr	r3, [r3]
 1509              		.loc 1 604 6
 1510 0024 002B     		cmp	r3, #0
 1511 0026 02D1     		bne	.L82
 605:../../libraries/bno055/bno055.c ****     return BNO055_E_NULL_PTR;
 1512              		.loc 1 605 12
 1513 0028 7F23     		movs	r3, #127
 1514 002a 5B42     		rsbs	r3, r3, #0
 1515 002c 32E0     		b	.L88
 1516              	.L82:
 606:../../libraries/bno055/bno055.c ****   }
 607:../../libraries/bno055/bno055.c ****   else{
 608:../../libraries/bno055/bno055.c ****     /*condition check for page, chip id is
 609:../../libraries/bno055/bno055.c ****      * available in the page zero*/
 610:../../libraries/bno055/bno055.c ****     if (p_bno055->page_id != BNO055_PAGE_ZERO) {
 1517              		.loc 1 610 17
 1518 002e 1B4B     		ldr	r3, .L89
ARM GAS  /tmp/cc84EIjL.s 			page 38


 1519 0030 1B68     		ldr	r3, [r3]
 1520 0032 1B79     		ldrb	r3, [r3, #4]
 1521              		.loc 1 610 8
 1522 0034 002B     		cmp	r3, #0
 1523 0036 06D0     		beq	.L84
 611:../../libraries/bno055/bno055.c ****       /* Write the page zero*/
 612:../../libraries/bno055/bno055.c ****       stat_s8 = bno055_write_page_id(BNO055_PAGE_ZERO);
 1524              		.loc 1 612 17
 1525 0038 0E23     		movs	r3, #14
 1526 003a FC18     		adds	r4, r7, r3
 1527 003c 0020     		movs	r0, #0
 1528 003e FFF7FEFF 		bl	bno055_write_page_id
 1529 0042 0300     		movs	r3, r0
 1530 0044 2370     		strb	r3, [r4]
 1531              	.L84:
 613:../../libraries/bno055/bno055.c ****     }
 614:../../libraries/bno055/bno055.c ****     if ((stat_s8 == BNO055_SUCCESS) || (p_bno055->page_id == BNO055_PAGE_ZERO)) {
 1532              		.loc 1 614 8
 1533 0046 0E23     		movs	r3, #14
 1534 0048 FB18     		adds	r3, r7, r3
 1535 004a 1B78     		ldrb	r3, [r3]
 1536 004c 5BB2     		sxtb	r3, r3
 1537 004e 002B     		cmp	r3, #0
 1538 0050 04D0     		beq	.L85
 1539              		.loc 1 614 49 discriminator 1
 1540 0052 124B     		ldr	r3, .L89
 1541 0054 1B68     		ldr	r3, [r3]
 1542 0056 1B79     		ldrb	r3, [r3, #4]
 1543              		.loc 1 614 37 discriminator 1
 1544 0058 002B     		cmp	r3, #0
 1545 005a 13D1     		bne	.L86
 1546              	.L85:
 615:../../libraries/bno055/bno055.c ****       /* Read the boot loader revision id */
 616:../../libraries/bno055/bno055.c ****       com_rslt = p_bno055->BNO055_BUS_READ_FUNC(p_bno055->dev_addr,
 1547              		.loc 1 616 26
 1548 005c 0F4B     		ldr	r3, .L89
 1549 005e 1B68     		ldr	r3, [r3]
 1550 0060 1D69     		ldr	r5, [r3, #16]
 1551              		.loc 1 616 28
 1552 0062 0E4B     		ldr	r3, .L89
 1553 0064 1B68     		ldr	r3, [r3]
 1554              		.loc 1 616 18
 1555 0066 587A     		ldrb	r0, [r3, #9]
 1556 0068 0F23     		movs	r3, #15
 1557 006a FC18     		adds	r4, r7, r3
 1558 006c 0D26     		movs	r6, #13
 1559 006e BA19     		adds	r2, r7, r6
 1560 0070 0123     		movs	r3, #1
 1561 0072 0621     		movs	r1, #6
 1562 0074 A847     		blx	r5
 1563              	.LVL18:
 1564 0076 0300     		movs	r3, r0
 1565 0078 2370     		strb	r3, [r4]
 617:../../libraries/bno055/bno055.c ****                                                 BNO055_BL_REV_ID_REG,
 618:../../libraries/bno055/bno055.c ****                                                 &data_u8,
 619:../../libraries/bno055/bno055.c ****                                                 BNO055_GEN_READ_WRITE_LENGTH);
 620:../../libraries/bno055/bno055.c ****       *bl_rev_id_u8 = data_u8;
ARM GAS  /tmp/cc84EIjL.s 			page 39


 1566              		.loc 1 620 21
 1567 007a BB19     		adds	r3, r7, r6
 1568 007c 1A78     		ldrb	r2, [r3]
 1569 007e 7B68     		ldr	r3, [r7, #4]
 1570 0080 1A70     		strb	r2, [r3]
 1571 0082 03E0     		b	.L87
 1572              	.L86:
 621:../../libraries/bno055/bno055.c ****     }
 622:../../libraries/bno055/bno055.c ****     else{
 623:../../libraries/bno055/bno055.c ****       com_rslt = BNO055_ERROR;
 1573              		.loc 1 623 16
 1574 0084 0F23     		movs	r3, #15
 1575 0086 FB18     		adds	r3, r7, r3
 1576 0088 FF22     		movs	r2, #255
 1577 008a 1A70     		strb	r2, [r3]
 1578              	.L87:
 624:../../libraries/bno055/bno055.c ****     }
 625:../../libraries/bno055/bno055.c ****   }
 626:../../libraries/bno055/bno055.c **** 
 627:../../libraries/bno055/bno055.c ****   return com_rslt;
 1579              		.loc 1 627 10
 1580 008c 0F23     		movs	r3, #15
 1581 008e FB18     		adds	r3, r7, r3
 1582 0090 1B78     		ldrb	r3, [r3]
 1583 0092 5BB2     		sxtb	r3, r3
 1584              	.L88:
 628:../../libraries/bno055/bno055.c **** }
 1585              		.loc 1 628 1 discriminator 1
 1586 0094 1800     		movs	r0, r3
 1587 0096 BD46     		mov	sp, r7
 1588 0098 05B0     		add	sp, sp, #20
 1589              		@ sp needed
 1590 009a F0BD     		pop	{r4, r5, r6, r7, pc}
 1591              	.L90:
 1592              		.align	2
 1593              	.L89:
 1594 009c 00000000 		.word	p_bno055
 1595              		.cfi_endproc
 1596              	.LFE10:
 1598              		.section	.text.bno055_read_accel_x,"ax",%progbits
 1599              		.align	1
 1600              		.global	bno055_read_accel_x
 1601              		.syntax unified
 1602              		.code	16
 1603              		.thumb_func
 1604              		.fpu softvfp
 1606              	bno055_read_accel_x:
 1607              	.LFB11:
 629:../../libraries/bno055/bno055.c **** 
 630:../../libraries/bno055/bno055.c **** /*!
 631:../../libraries/bno055/bno055.c ****  *  @brief This API reads acceleration data X values
 632:../../libraries/bno055/bno055.c ****  *  from register 0x08 and 0x09 it is a two byte data
 633:../../libraries/bno055/bno055.c ****  *
 634:../../libraries/bno055/bno055.c ****  *
 635:../../libraries/bno055/bno055.c ****  *
 636:../../libraries/bno055/bno055.c ****  *
 637:../../libraries/bno055/bno055.c ****  *  @param accel_x_s16 : The X raw data
ARM GAS  /tmp/cc84EIjL.s 			page 40


 638:../../libraries/bno055/bno055.c ****  *
 639:../../libraries/bno055/bno055.c ****  *
 640:../../libraries/bno055/bno055.c ****  *
 641:../../libraries/bno055/bno055.c ****  *  @return results of bus communication function
 642:../../libraries/bno055/bno055.c ****  *  @retval 0 -> BNO055_SUCCESS
 643:../../libraries/bno055/bno055.c ****  *  @retval 1 -> BNO055_ERROR
 644:../../libraries/bno055/bno055.c ****  *
 645:../../libraries/bno055/bno055.c ****  *
 646:../../libraries/bno055/bno055.c ****  */
 647:../../libraries/bno055/bno055.c **** BNO055_RETURN_FUNCTION_TYPE bno055_read_accel_x(s16 *accel_x_s16)
 648:../../libraries/bno055/bno055.c **** {
 1608              		.loc 1 648 1
 1609              		.cfi_startproc
 1610              		@ args = 0, pretend = 0, frame = 16
 1611              		@ frame_needed = 1, uses_anonymous_args = 0
 1612 0000 F0B5     		push	{r4, r5, r6, r7, lr}
 1613              		.cfi_def_cfa_offset 20
 1614              		.cfi_offset 4, -20
 1615              		.cfi_offset 5, -16
 1616              		.cfi_offset 6, -12
 1617              		.cfi_offset 7, -8
 1618              		.cfi_offset 14, -4
 1619 0002 85B0     		sub	sp, sp, #20
 1620              		.cfi_def_cfa_offset 40
 1621 0004 00AF     		add	r7, sp, #0
 1622              		.cfi_def_cfa_register 7
 1623 0006 7860     		str	r0, [r7, #4]
 649:../../libraries/bno055/bno055.c ****   /* Variable used to return value of
 650:../../libraries/bno055/bno055.c ****    * communication routine*/
 651:../../libraries/bno055/bno055.c ****   BNO055_RETURN_FUNCTION_TYPE com_rslt = BNO055_ERROR;
 1624              		.loc 1 651 31
 1625 0008 0F23     		movs	r3, #15
 1626 000a FB18     		adds	r3, r7, r3
 1627 000c FF22     		movs	r2, #255
 1628 000e 1A70     		strb	r2, [r3]
 652:../../libraries/bno055/bno055.c **** 
 653:../../libraries/bno055/bno055.c ****   /* Array holding the accel x value
 654:../../libraries/bno055/bno055.c ****    * data_u8[BNO055_SENSOR_DATA_LSB] - x-LSB
 655:../../libraries/bno055/bno055.c ****    * data_u8[BNO055_SENSOR_DATA_MSB] - x-MSB
 656:../../libraries/bno055/bno055.c ****    */
 657:../../libraries/bno055/bno055.c ****   u8 data_u8[BNO055_ACCEL_DATA_SIZE] = { BNO055_INIT_VALUE, BNO055_INIT_VALUE };
 1629              		.loc 1 657 6
 1630 0010 0C23     		movs	r3, #12
 1631 0012 FB18     		adds	r3, r7, r3
 1632 0014 0022     		movs	r2, #0
 1633 0016 1A80     		strh	r2, [r3]
 658:../../libraries/bno055/bno055.c ****   s8 stat_s8 = BNO055_ERROR;
 1634              		.loc 1 658 6
 1635 0018 0E23     		movs	r3, #14
 1636 001a FB18     		adds	r3, r7, r3
 1637 001c FF22     		movs	r2, #255
 1638 001e 1A70     		strb	r2, [r3]
 659:../../libraries/bno055/bno055.c **** 
 660:../../libraries/bno055/bno055.c ****   /* Check the struct p_bno055 is empty */
 661:../../libraries/bno055/bno055.c ****   if (p_bno055 == NULL) {
 1639              		.loc 1 661 16
 1640 0020 274B     		ldr	r3, .L99
ARM GAS  /tmp/cc84EIjL.s 			page 41


 1641 0022 1B68     		ldr	r3, [r3]
 1642              		.loc 1 661 6
 1643 0024 002B     		cmp	r3, #0
 1644 0026 02D1     		bne	.L92
 662:../../libraries/bno055/bno055.c ****     return BNO055_E_NULL_PTR;
 1645              		.loc 1 662 12
 1646 0028 7F23     		movs	r3, #127
 1647 002a 5B42     		rsbs	r3, r3, #0
 1648 002c 43E0     		b	.L98
 1649              	.L92:
 663:../../libraries/bno055/bno055.c ****   }
 664:../../libraries/bno055/bno055.c ****   else{
 665:../../libraries/bno055/bno055.c ****     if (p_bno055->page_id != BNO055_PAGE_ZERO) {
 1650              		.loc 1 665 17
 1651 002e 244B     		ldr	r3, .L99
 1652 0030 1B68     		ldr	r3, [r3]
 1653 0032 1B79     		ldrb	r3, [r3, #4]
 1654              		.loc 1 665 8
 1655 0034 002B     		cmp	r3, #0
 1656 0036 06D0     		beq	.L94
 666:../../libraries/bno055/bno055.c ****       /* Write the page zero*/
 667:../../libraries/bno055/bno055.c ****       stat_s8 = bno055_write_page_id(BNO055_PAGE_ZERO);
 1657              		.loc 1 667 17
 1658 0038 0E23     		movs	r3, #14
 1659 003a FC18     		adds	r4, r7, r3
 1660 003c 0020     		movs	r0, #0
 1661 003e FFF7FEFF 		bl	bno055_write_page_id
 1662 0042 0300     		movs	r3, r0
 1663 0044 2370     		strb	r3, [r4]
 1664              	.L94:
 668:../../libraries/bno055/bno055.c ****     }
 669:../../libraries/bno055/bno055.c ****     if ((stat_s8 == BNO055_SUCCESS) || (p_bno055->page_id == BNO055_PAGE_ZERO)) {
 1665              		.loc 1 669 8
 1666 0046 0E23     		movs	r3, #14
 1667 0048 FB18     		adds	r3, r7, r3
 1668 004a 1B78     		ldrb	r3, [r3]
 1669 004c 5BB2     		sxtb	r3, r3
 1670 004e 002B     		cmp	r3, #0
 1671 0050 04D0     		beq	.L95
 1672              		.loc 1 669 49 discriminator 1
 1673 0052 1B4B     		ldr	r3, .L99
 1674 0054 1B68     		ldr	r3, [r3]
 1675 0056 1B79     		ldrb	r3, [r3, #4]
 1676              		.loc 1 669 37 discriminator 1
 1677 0058 002B     		cmp	r3, #0
 1678 005a 24D1     		bne	.L96
 1679              	.L95:
 670:../../libraries/bno055/bno055.c ****       /* Read the accel x axis two byte value*/
 671:../../libraries/bno055/bno055.c ****       com_rslt = p_bno055->BNO055_BUS_READ_FUNC(p_bno055->dev_addr,
 1680              		.loc 1 671 26
 1681 005c 184B     		ldr	r3, .L99
 1682 005e 1B68     		ldr	r3, [r3]
 1683 0060 1D69     		ldr	r5, [r3, #16]
 1684              		.loc 1 671 28
 1685 0062 174B     		ldr	r3, .L99
 1686 0064 1B68     		ldr	r3, [r3]
 1687              		.loc 1 671 18
ARM GAS  /tmp/cc84EIjL.s 			page 42


 1688 0066 587A     		ldrb	r0, [r3, #9]
 1689 0068 0F23     		movs	r3, #15
 1690 006a FC18     		adds	r4, r7, r3
 1691 006c 0C26     		movs	r6, #12
 1692 006e BA19     		adds	r2, r7, r6
 1693 0070 0223     		movs	r3, #2
 1694 0072 0821     		movs	r1, #8
 1695 0074 A847     		blx	r5
 1696              	.LVL19:
 1697 0076 0300     		movs	r3, r0
 1698 0078 2370     		strb	r3, [r4]
 672:../../libraries/bno055/bno055.c ****                                                 BNO055_ACCEL_DATA_X_LSB_VALUEX_REG,
 673:../../libraries/bno055/bno055.c ****                                                 data_u8,
 674:../../libraries/bno055/bno055.c ****                                                 BNO055_LSB_MSB_READ_LENGTH);
 675:../../libraries/bno055/bno055.c ****       data_u8[BNO055_SENSOR_DATA_LSB] = BNO055_GET_BITSLICE(data_u8[BNO055_SENSOR_DATA_LSB],
 1699              		.loc 1 675 41
 1700 007a 3100     		movs	r1, r6
 1701 007c 7B18     		adds	r3, r7, r1
 1702 007e 1A78     		ldrb	r2, [r3]
 1703              		.loc 1 675 39
 1704 0080 7B18     		adds	r3, r7, r1
 1705 0082 1A70     		strb	r2, [r3]
 676:../../libraries/bno055/bno055.c ****                                                             BNO055_ACCEL_DATA_X_LSB_VALUEX);
 677:../../libraries/bno055/bno055.c ****       data_u8[BNO055_SENSOR_DATA_MSB] = BNO055_GET_BITSLICE(data_u8[BNO055_SENSOR_DATA_MSB],
 1706              		.loc 1 677 41
 1707 0084 7B18     		adds	r3, r7, r1
 1708 0086 5A78     		ldrb	r2, [r3, #1]
 1709              		.loc 1 677 39
 1710 0088 7B18     		adds	r3, r7, r1
 1711 008a 5A70     		strb	r2, [r3, #1]
 678:../../libraries/bno055/bno055.c ****                                                             BNO055_ACCEL_DATA_X_MSB_VALUEX);
 679:../../libraries/bno055/bno055.c ****       *accel_x_s16 =
 680:../../libraries/bno055/bno055.c ****         (s16)((((s32)(s8)(data_u8[BNO055_SENSOR_DATA_MSB])) << (BNO055_SHIFT_EIGHT_BITS)) |
 1712              		.loc 1 680 34
 1713 008c 7B18     		adds	r3, r7, r1
 1714 008e 5B78     		ldrb	r3, [r3, #1]
 1715              		.loc 1 680 22
 1716 0090 5BB2     		sxtb	r3, r3
 1717              		.loc 1 680 61
 1718 0092 1B02     		lsls	r3, r3, #8
 1719              		.loc 1 680 9
 1720 0094 1AB2     		sxth	r2, r3
 681:../../libraries/bno055/bno055.c ****               (data_u8[BNO055_SENSOR_DATA_LSB]));
 1721              		.loc 1 681 23
 1722 0096 7B18     		adds	r3, r7, r1
 1723 0098 1B78     		ldrb	r3, [r3]
 1724 009a 1BB2     		sxth	r3, r3
 680:../../libraries/bno055/bno055.c ****               (data_u8[BNO055_SENSOR_DATA_LSB]));
 1725              		.loc 1 680 9
 1726 009c 1343     		orrs	r3, r2
 1727 009e 1AB2     		sxth	r2, r3
 679:../../libraries/bno055/bno055.c ****         (s16)((((s32)(s8)(data_u8[BNO055_SENSOR_DATA_MSB])) << (BNO055_SHIFT_EIGHT_BITS)) |
 1728              		.loc 1 679 20
 1729 00a0 7B68     		ldr	r3, [r7, #4]
 1730 00a2 1A80     		strh	r2, [r3]
 1731 00a4 03E0     		b	.L97
 1732              	.L96:
ARM GAS  /tmp/cc84EIjL.s 			page 43


 682:../../libraries/bno055/bno055.c ****     }
 683:../../libraries/bno055/bno055.c ****     else{
 684:../../libraries/bno055/bno055.c ****       com_rslt = BNO055_ERROR;
 1733              		.loc 1 684 16
 1734 00a6 0F23     		movs	r3, #15
 1735 00a8 FB18     		adds	r3, r7, r3
 1736 00aa FF22     		movs	r2, #255
 1737 00ac 1A70     		strb	r2, [r3]
 1738              	.L97:
 685:../../libraries/bno055/bno055.c ****     }
 686:../../libraries/bno055/bno055.c ****   }
 687:../../libraries/bno055/bno055.c **** 
 688:../../libraries/bno055/bno055.c ****   return com_rslt;
 1739              		.loc 1 688 10
 1740 00ae 0F23     		movs	r3, #15
 1741 00b0 FB18     		adds	r3, r7, r3
 1742 00b2 1B78     		ldrb	r3, [r3]
 1743 00b4 5BB2     		sxtb	r3, r3
 1744              	.L98:
 689:../../libraries/bno055/bno055.c **** }
 1745              		.loc 1 689 1 discriminator 1
 1746 00b6 1800     		movs	r0, r3
 1747 00b8 BD46     		mov	sp, r7
 1748 00ba 05B0     		add	sp, sp, #20
 1749              		@ sp needed
 1750 00bc F0BD     		pop	{r4, r5, r6, r7, pc}
 1751              	.L100:
 1752 00be C046     		.align	2
 1753              	.L99:
 1754 00c0 00000000 		.word	p_bno055
 1755              		.cfi_endproc
 1756              	.LFE11:
 1758              		.section	.text.bno055_read_accel_y,"ax",%progbits
 1759              		.align	1
 1760              		.global	bno055_read_accel_y
 1761              		.syntax unified
 1762              		.code	16
 1763              		.thumb_func
 1764              		.fpu softvfp
 1766              	bno055_read_accel_y:
 1767              	.LFB12:
 690:../../libraries/bno055/bno055.c **** 
 691:../../libraries/bno055/bno055.c **** /*!
 692:../../libraries/bno055/bno055.c ****  *  @brief This API reads acceleration data Y values
 693:../../libraries/bno055/bno055.c ****  *  from register 0x0A and 0x0B it is a two byte data
 694:../../libraries/bno055/bno055.c ****  *
 695:../../libraries/bno055/bno055.c ****  *
 696:../../libraries/bno055/bno055.c ****  *
 697:../../libraries/bno055/bno055.c ****  *
 698:../../libraries/bno055/bno055.c ****  *  @param accel_y_s16 : The Y raw data
 699:../../libraries/bno055/bno055.c ****  *
 700:../../libraries/bno055/bno055.c ****  *
 701:../../libraries/bno055/bno055.c ****  *
 702:../../libraries/bno055/bno055.c ****  *  @return results of bus communication function
 703:../../libraries/bno055/bno055.c ****  *  @retval 0 -> BNO055_SUCCESS
 704:../../libraries/bno055/bno055.c ****  *  @retval 1 -> BNO055_ERROR
 705:../../libraries/bno055/bno055.c ****  *
ARM GAS  /tmp/cc84EIjL.s 			page 44


 706:../../libraries/bno055/bno055.c ****  *
 707:../../libraries/bno055/bno055.c ****  */
 708:../../libraries/bno055/bno055.c **** BNO055_RETURN_FUNCTION_TYPE bno055_read_accel_y(s16 *accel_y_s16)
 709:../../libraries/bno055/bno055.c **** {
 1768              		.loc 1 709 1
 1769              		.cfi_startproc
 1770              		@ args = 0, pretend = 0, frame = 16
 1771              		@ frame_needed = 1, uses_anonymous_args = 0
 1772 0000 F0B5     		push	{r4, r5, r6, r7, lr}
 1773              		.cfi_def_cfa_offset 20
 1774              		.cfi_offset 4, -20
 1775              		.cfi_offset 5, -16
 1776              		.cfi_offset 6, -12
 1777              		.cfi_offset 7, -8
 1778              		.cfi_offset 14, -4
 1779 0002 85B0     		sub	sp, sp, #20
 1780              		.cfi_def_cfa_offset 40
 1781 0004 00AF     		add	r7, sp, #0
 1782              		.cfi_def_cfa_register 7
 1783 0006 7860     		str	r0, [r7, #4]
 710:../../libraries/bno055/bno055.c ****   /* Variable used to return value of
 711:../../libraries/bno055/bno055.c ****    * communication routine*/
 712:../../libraries/bno055/bno055.c ****   BNO055_RETURN_FUNCTION_TYPE com_rslt = BNO055_ERROR;
 1784              		.loc 1 712 31
 1785 0008 0F23     		movs	r3, #15
 1786 000a FB18     		adds	r3, r7, r3
 1787 000c FF22     		movs	r2, #255
 1788 000e 1A70     		strb	r2, [r3]
 713:../../libraries/bno055/bno055.c **** 
 714:../../libraries/bno055/bno055.c ****   /* Array holding the accel y value
 715:../../libraries/bno055/bno055.c ****    * data_u8[BNO055_SENSOR_DATA_LSB] - y-LSB
 716:../../libraries/bno055/bno055.c ****    * data_u8[BNO055_SENSOR_DATA_MSB] - y-MSB
 717:../../libraries/bno055/bno055.c ****    */
 718:../../libraries/bno055/bno055.c ****   u8 data_u8[BNO055_ACCEL_DATA_SIZE] = { BNO055_INIT_VALUE, BNO055_INIT_VALUE };
 1789              		.loc 1 718 6
 1790 0010 0C23     		movs	r3, #12
 1791 0012 FB18     		adds	r3, r7, r3
 1792 0014 0022     		movs	r2, #0
 1793 0016 1A80     		strh	r2, [r3]
 719:../../libraries/bno055/bno055.c ****   s8 stat_s8 = BNO055_ERROR;
 1794              		.loc 1 719 6
 1795 0018 0E23     		movs	r3, #14
 1796 001a FB18     		adds	r3, r7, r3
 1797 001c FF22     		movs	r2, #255
 1798 001e 1A70     		strb	r2, [r3]
 720:../../libraries/bno055/bno055.c **** 
 721:../../libraries/bno055/bno055.c ****   /* Check the struct p_bno055 is empty */
 722:../../libraries/bno055/bno055.c ****   if (p_bno055 == NULL) {
 1799              		.loc 1 722 16
 1800 0020 274B     		ldr	r3, .L109
 1801 0022 1B68     		ldr	r3, [r3]
 1802              		.loc 1 722 6
 1803 0024 002B     		cmp	r3, #0
 1804 0026 02D1     		bne	.L102
 723:../../libraries/bno055/bno055.c ****     return BNO055_E_NULL_PTR;
 1805              		.loc 1 723 12
 1806 0028 7F23     		movs	r3, #127
ARM GAS  /tmp/cc84EIjL.s 			page 45


 1807 002a 5B42     		rsbs	r3, r3, #0
 1808 002c 43E0     		b	.L108
 1809              	.L102:
 724:../../libraries/bno055/bno055.c ****   }
 725:../../libraries/bno055/bno055.c ****   else{
 726:../../libraries/bno055/bno055.c ****     /*condition check for page, chip id is
 727:../../libraries/bno055/bno055.c ****      * available in the page zero*/
 728:../../libraries/bno055/bno055.c ****     if (p_bno055->page_id != BNO055_PAGE_ZERO) {
 1810              		.loc 1 728 17
 1811 002e 244B     		ldr	r3, .L109
 1812 0030 1B68     		ldr	r3, [r3]
 1813 0032 1B79     		ldrb	r3, [r3, #4]
 1814              		.loc 1 728 8
 1815 0034 002B     		cmp	r3, #0
 1816 0036 06D0     		beq	.L104
 729:../../libraries/bno055/bno055.c ****       /* Write the page zero*/
 730:../../libraries/bno055/bno055.c ****       stat_s8 = bno055_write_page_id(BNO055_PAGE_ZERO);
 1817              		.loc 1 730 17
 1818 0038 0E23     		movs	r3, #14
 1819 003a FC18     		adds	r4, r7, r3
 1820 003c 0020     		movs	r0, #0
 1821 003e FFF7FEFF 		bl	bno055_write_page_id
 1822 0042 0300     		movs	r3, r0
 1823 0044 2370     		strb	r3, [r4]
 1824              	.L104:
 731:../../libraries/bno055/bno055.c ****     }
 732:../../libraries/bno055/bno055.c ****     if ((stat_s8 == BNO055_SUCCESS) || (p_bno055->page_id == BNO055_PAGE_ZERO)) {
 1825              		.loc 1 732 8
 1826 0046 0E23     		movs	r3, #14
 1827 0048 FB18     		adds	r3, r7, r3
 1828 004a 1B78     		ldrb	r3, [r3]
 1829 004c 5BB2     		sxtb	r3, r3
 1830 004e 002B     		cmp	r3, #0
 1831 0050 04D0     		beq	.L105
 1832              		.loc 1 732 49 discriminator 1
 1833 0052 1B4B     		ldr	r3, .L109
 1834 0054 1B68     		ldr	r3, [r3]
 1835 0056 1B79     		ldrb	r3, [r3, #4]
 1836              		.loc 1 732 37 discriminator 1
 1837 0058 002B     		cmp	r3, #0
 1838 005a 24D1     		bne	.L106
 1839              	.L105:
 733:../../libraries/bno055/bno055.c ****       /* Read the accel y axis two byte value*/
 734:../../libraries/bno055/bno055.c ****       com_rslt = p_bno055->BNO055_BUS_READ_FUNC(p_bno055->dev_addr,
 1840              		.loc 1 734 26
 1841 005c 184B     		ldr	r3, .L109
 1842 005e 1B68     		ldr	r3, [r3]
 1843 0060 1D69     		ldr	r5, [r3, #16]
 1844              		.loc 1 734 28
 1845 0062 174B     		ldr	r3, .L109
 1846 0064 1B68     		ldr	r3, [r3]
 1847              		.loc 1 734 18
 1848 0066 587A     		ldrb	r0, [r3, #9]
 1849 0068 0F23     		movs	r3, #15
 1850 006a FC18     		adds	r4, r7, r3
 1851 006c 0C26     		movs	r6, #12
 1852 006e BA19     		adds	r2, r7, r6
ARM GAS  /tmp/cc84EIjL.s 			page 46


 1853 0070 0223     		movs	r3, #2
 1854 0072 0A21     		movs	r1, #10
 1855 0074 A847     		blx	r5
 1856              	.LVL20:
 1857 0076 0300     		movs	r3, r0
 1858 0078 2370     		strb	r3, [r4]
 735:../../libraries/bno055/bno055.c ****                                                 BNO055_ACCEL_DATA_Y_LSB_VALUEY_REG,
 736:../../libraries/bno055/bno055.c ****                                                 data_u8,
 737:../../libraries/bno055/bno055.c ****                                                 BNO055_LSB_MSB_READ_LENGTH);
 738:../../libraries/bno055/bno055.c ****       data_u8[BNO055_SENSOR_DATA_LSB] = BNO055_GET_BITSLICE(data_u8[BNO055_SENSOR_DATA_LSB],
 1859              		.loc 1 738 41
 1860 007a 3100     		movs	r1, r6
 1861 007c 7B18     		adds	r3, r7, r1
 1862 007e 1A78     		ldrb	r2, [r3]
 1863              		.loc 1 738 39
 1864 0080 7B18     		adds	r3, r7, r1
 1865 0082 1A70     		strb	r2, [r3]
 739:../../libraries/bno055/bno055.c ****                                                             BNO055_ACCEL_DATA_Y_LSB_VALUEY);
 740:../../libraries/bno055/bno055.c ****       data_u8[BNO055_SENSOR_DATA_MSB] = BNO055_GET_BITSLICE(data_u8[BNO055_SENSOR_DATA_MSB],
 1866              		.loc 1 740 41
 1867 0084 7B18     		adds	r3, r7, r1
 1868 0086 5A78     		ldrb	r2, [r3, #1]
 1869              		.loc 1 740 39
 1870 0088 7B18     		adds	r3, r7, r1
 1871 008a 5A70     		strb	r2, [r3, #1]
 741:../../libraries/bno055/bno055.c ****                                                             BNO055_ACCEL_DATA_Y_MSB_VALUEY);
 742:../../libraries/bno055/bno055.c ****       *accel_y_s16 =
 743:../../libraries/bno055/bno055.c ****         (s16)((((s32)((s8)data_u8[BNO055_SENSOR_DATA_MSB])) << BNO055_SHIFT_EIGHT_BITS) |
 1872              		.loc 1 743 34
 1873 008c 7B18     		adds	r3, r7, r1
 1874 008e 5B78     		ldrb	r3, [r3, #1]
 1875              		.loc 1 743 23
 1876 0090 5BB2     		sxtb	r3, r3
 1877              		.loc 1 743 61
 1878 0092 1B02     		lsls	r3, r3, #8
 1879              		.loc 1 743 9
 1880 0094 1AB2     		sxth	r2, r3
 744:../../libraries/bno055/bno055.c ****               (data_u8[BNO055_SENSOR_DATA_LSB]));
 1881              		.loc 1 744 23
 1882 0096 7B18     		adds	r3, r7, r1
 1883 0098 1B78     		ldrb	r3, [r3]
 1884 009a 1BB2     		sxth	r3, r3
 743:../../libraries/bno055/bno055.c ****               (data_u8[BNO055_SENSOR_DATA_LSB]));
 1885              		.loc 1 743 9
 1886 009c 1343     		orrs	r3, r2
 1887 009e 1AB2     		sxth	r2, r3
 742:../../libraries/bno055/bno055.c ****         (s16)((((s32)((s8)data_u8[BNO055_SENSOR_DATA_MSB])) << BNO055_SHIFT_EIGHT_BITS) |
 1888              		.loc 1 742 20
 1889 00a0 7B68     		ldr	r3, [r7, #4]
 1890 00a2 1A80     		strh	r2, [r3]
 1891 00a4 03E0     		b	.L107
 1892              	.L106:
 745:../../libraries/bno055/bno055.c ****     }
 746:../../libraries/bno055/bno055.c ****     else{
 747:../../libraries/bno055/bno055.c ****       com_rslt = BNO055_ERROR;
 1893              		.loc 1 747 16
 1894 00a6 0F23     		movs	r3, #15
ARM GAS  /tmp/cc84EIjL.s 			page 47


 1895 00a8 FB18     		adds	r3, r7, r3
 1896 00aa FF22     		movs	r2, #255
 1897 00ac 1A70     		strb	r2, [r3]
 1898              	.L107:
 748:../../libraries/bno055/bno055.c ****     }
 749:../../libraries/bno055/bno055.c ****   }
 750:../../libraries/bno055/bno055.c **** 
 751:../../libraries/bno055/bno055.c ****   return com_rslt;
 1899              		.loc 1 751 10
 1900 00ae 0F23     		movs	r3, #15
 1901 00b0 FB18     		adds	r3, r7, r3
 1902 00b2 1B78     		ldrb	r3, [r3]
 1903 00b4 5BB2     		sxtb	r3, r3
 1904              	.L108:
 752:../../libraries/bno055/bno055.c **** }
 1905              		.loc 1 752 1 discriminator 1
 1906 00b6 1800     		movs	r0, r3
 1907 00b8 BD46     		mov	sp, r7
 1908 00ba 05B0     		add	sp, sp, #20
 1909              		@ sp needed
 1910 00bc F0BD     		pop	{r4, r5, r6, r7, pc}
 1911              	.L110:
 1912 00be C046     		.align	2
 1913              	.L109:
 1914 00c0 00000000 		.word	p_bno055
 1915              		.cfi_endproc
 1916              	.LFE12:
 1918              		.section	.text.bno055_read_accel_z,"ax",%progbits
 1919              		.align	1
 1920              		.global	bno055_read_accel_z
 1921              		.syntax unified
 1922              		.code	16
 1923              		.thumb_func
 1924              		.fpu softvfp
 1926              	bno055_read_accel_z:
 1927              	.LFB13:
 753:../../libraries/bno055/bno055.c **** 
 754:../../libraries/bno055/bno055.c **** /*!
 755:../../libraries/bno055/bno055.c ****  *  @brief This API reads acceleration data z values
 756:../../libraries/bno055/bno055.c ****  *  from register 0x0C and 0x0D it is a two byte data
 757:../../libraries/bno055/bno055.c ****  *
 758:../../libraries/bno055/bno055.c ****  *
 759:../../libraries/bno055/bno055.c ****  *
 760:../../libraries/bno055/bno055.c ****  *
 761:../../libraries/bno055/bno055.c ****  *  @param accel_z_s16 : The z raw data
 762:../../libraries/bno055/bno055.c ****  *
 763:../../libraries/bno055/bno055.c ****  *
 764:../../libraries/bno055/bno055.c ****  *
 765:../../libraries/bno055/bno055.c ****  *  @return results of bus communication function
 766:../../libraries/bno055/bno055.c ****  *  @retval 0 -> BNO055_SUCCESS
 767:../../libraries/bno055/bno055.c ****  *  @retval 1 -> BNO055_ERROR
 768:../../libraries/bno055/bno055.c ****  *
 769:../../libraries/bno055/bno055.c ****  *
 770:../../libraries/bno055/bno055.c ****  */
 771:../../libraries/bno055/bno055.c **** BNO055_RETURN_FUNCTION_TYPE bno055_read_accel_z(s16 *accel_z_s16)
 772:../../libraries/bno055/bno055.c **** {
 1928              		.loc 1 772 1
ARM GAS  /tmp/cc84EIjL.s 			page 48


 1929              		.cfi_startproc
 1930              		@ args = 0, pretend = 0, frame = 16
 1931              		@ frame_needed = 1, uses_anonymous_args = 0
 1932 0000 F0B5     		push	{r4, r5, r6, r7, lr}
 1933              		.cfi_def_cfa_offset 20
 1934              		.cfi_offset 4, -20
 1935              		.cfi_offset 5, -16
 1936              		.cfi_offset 6, -12
 1937              		.cfi_offset 7, -8
 1938              		.cfi_offset 14, -4
 1939 0002 85B0     		sub	sp, sp, #20
 1940              		.cfi_def_cfa_offset 40
 1941 0004 00AF     		add	r7, sp, #0
 1942              		.cfi_def_cfa_register 7
 1943 0006 7860     		str	r0, [r7, #4]
 773:../../libraries/bno055/bno055.c ****   /* Variable used to return value of
 774:../../libraries/bno055/bno055.c ****    * communication routine*/
 775:../../libraries/bno055/bno055.c ****   BNO055_RETURN_FUNCTION_TYPE com_rslt = BNO055_ERROR;
 1944              		.loc 1 775 31
 1945 0008 0F23     		movs	r3, #15
 1946 000a FB18     		adds	r3, r7, r3
 1947 000c FF22     		movs	r2, #255
 1948 000e 1A70     		strb	r2, [r3]
 776:../../libraries/bno055/bno055.c **** 
 777:../../libraries/bno055/bno055.c ****   /* Array holding the accel z value
 778:../../libraries/bno055/bno055.c ****    * data_u8[BNO055_SENSOR_DATA_LSB] - z-LSB
 779:../../libraries/bno055/bno055.c ****    * data_u8[BNO055_SENSOR_DATA_MSB] - z-MSB
 780:../../libraries/bno055/bno055.c ****    */
 781:../../libraries/bno055/bno055.c ****   u8 data_u8[BNO055_ACCEL_DATA_SIZE] = { BNO055_INIT_VALUE, BNO055_INIT_VALUE };
 1949              		.loc 1 781 6
 1950 0010 0C23     		movs	r3, #12
 1951 0012 FB18     		adds	r3, r7, r3
 1952 0014 0022     		movs	r2, #0
 1953 0016 1A80     		strh	r2, [r3]
 782:../../libraries/bno055/bno055.c ****   s8 stat_s8 = BNO055_ERROR;
 1954              		.loc 1 782 6
 1955 0018 0E23     		movs	r3, #14
 1956 001a FB18     		adds	r3, r7, r3
 1957 001c FF22     		movs	r2, #255
 1958 001e 1A70     		strb	r2, [r3]
 783:../../libraries/bno055/bno055.c **** 
 784:../../libraries/bno055/bno055.c ****   /* Check the struct p_bno055 is empty */
 785:../../libraries/bno055/bno055.c ****   if (p_bno055 == NULL) {
 1959              		.loc 1 785 16
 1960 0020 274B     		ldr	r3, .L119
 1961 0022 1B68     		ldr	r3, [r3]
 1962              		.loc 1 785 6
 1963 0024 002B     		cmp	r3, #0
 1964 0026 02D1     		bne	.L112
 786:../../libraries/bno055/bno055.c ****     return BNO055_E_NULL_PTR;
 1965              		.loc 1 786 12
 1966 0028 7F23     		movs	r3, #127
 1967 002a 5B42     		rsbs	r3, r3, #0
 1968 002c 43E0     		b	.L118
 1969              	.L112:
 787:../../libraries/bno055/bno055.c ****   }
 788:../../libraries/bno055/bno055.c ****   else{
ARM GAS  /tmp/cc84EIjL.s 			page 49


 789:../../libraries/bno055/bno055.c ****     /*condition check for page, chip id is
 790:../../libraries/bno055/bno055.c ****      * available in the page zero*/
 791:../../libraries/bno055/bno055.c ****     if (p_bno055->page_id != BNO055_PAGE_ZERO) {
 1970              		.loc 1 791 17
 1971 002e 244B     		ldr	r3, .L119
 1972 0030 1B68     		ldr	r3, [r3]
 1973 0032 1B79     		ldrb	r3, [r3, #4]
 1974              		.loc 1 791 8
 1975 0034 002B     		cmp	r3, #0
 1976 0036 06D0     		beq	.L114
 792:../../libraries/bno055/bno055.c ****       /* Write the page zero*/
 793:../../libraries/bno055/bno055.c ****       stat_s8 = bno055_write_page_id(BNO055_PAGE_ZERO);
 1977              		.loc 1 793 17
 1978 0038 0E23     		movs	r3, #14
 1979 003a FC18     		adds	r4, r7, r3
 1980 003c 0020     		movs	r0, #0
 1981 003e FFF7FEFF 		bl	bno055_write_page_id
 1982 0042 0300     		movs	r3, r0
 1983 0044 2370     		strb	r3, [r4]
 1984              	.L114:
 794:../../libraries/bno055/bno055.c ****     }
 795:../../libraries/bno055/bno055.c ****     if ((stat_s8 == BNO055_SUCCESS) || (p_bno055->page_id == BNO055_PAGE_ZERO)) {
 1985              		.loc 1 795 8
 1986 0046 0E23     		movs	r3, #14
 1987 0048 FB18     		adds	r3, r7, r3
 1988 004a 1B78     		ldrb	r3, [r3]
 1989 004c 5BB2     		sxtb	r3, r3
 1990 004e 002B     		cmp	r3, #0
 1991 0050 04D0     		beq	.L115
 1992              		.loc 1 795 49 discriminator 1
 1993 0052 1B4B     		ldr	r3, .L119
 1994 0054 1B68     		ldr	r3, [r3]
 1995 0056 1B79     		ldrb	r3, [r3, #4]
 1996              		.loc 1 795 37 discriminator 1
 1997 0058 002B     		cmp	r3, #0
 1998 005a 24D1     		bne	.L116
 1999              	.L115:
 796:../../libraries/bno055/bno055.c ****       /* Read the accel z axis two byte value*/
 797:../../libraries/bno055/bno055.c ****       com_rslt = p_bno055->BNO055_BUS_READ_FUNC(p_bno055->dev_addr,
 2000              		.loc 1 797 26
 2001 005c 184B     		ldr	r3, .L119
 2002 005e 1B68     		ldr	r3, [r3]
 2003 0060 1D69     		ldr	r5, [r3, #16]
 2004              		.loc 1 797 28
 2005 0062 174B     		ldr	r3, .L119
 2006 0064 1B68     		ldr	r3, [r3]
 2007              		.loc 1 797 18
 2008 0066 587A     		ldrb	r0, [r3, #9]
 2009 0068 0F23     		movs	r3, #15
 2010 006a FC18     		adds	r4, r7, r3
 2011 006c 0C26     		movs	r6, #12
 2012 006e BA19     		adds	r2, r7, r6
 2013 0070 0223     		movs	r3, #2
 2014 0072 0C21     		movs	r1, #12
 2015 0074 A847     		blx	r5
 2016              	.LVL21:
 2017 0076 0300     		movs	r3, r0
ARM GAS  /tmp/cc84EIjL.s 			page 50


 2018 0078 2370     		strb	r3, [r4]
 798:../../libraries/bno055/bno055.c ****                                                 BNO055_ACCEL_DATA_Z_LSB_VALUEZ_REG,
 799:../../libraries/bno055/bno055.c ****                                                 data_u8,
 800:../../libraries/bno055/bno055.c ****                                                 BNO055_LSB_MSB_READ_LENGTH);
 801:../../libraries/bno055/bno055.c ****       data_u8[BNO055_SENSOR_DATA_LSB] = BNO055_GET_BITSLICE(data_u8[BNO055_SENSOR_DATA_LSB],
 2019              		.loc 1 801 41
 2020 007a 3100     		movs	r1, r6
 2021 007c 7B18     		adds	r3, r7, r1
 2022 007e 1A78     		ldrb	r2, [r3]
 2023              		.loc 1 801 39
 2024 0080 7B18     		adds	r3, r7, r1
 2025 0082 1A70     		strb	r2, [r3]
 802:../../libraries/bno055/bno055.c ****                                                             BNO055_ACCEL_DATA_Z_LSB_VALUEZ);
 803:../../libraries/bno055/bno055.c ****       data_u8[BNO055_SENSOR_DATA_MSB] = BNO055_GET_BITSLICE(data_u8[BNO055_SENSOR_DATA_MSB],
 2026              		.loc 1 803 41
 2027 0084 7B18     		adds	r3, r7, r1
 2028 0086 5A78     		ldrb	r2, [r3, #1]
 2029              		.loc 1 803 39
 2030 0088 7B18     		adds	r3, r7, r1
 2031 008a 5A70     		strb	r2, [r3, #1]
 804:../../libraries/bno055/bno055.c ****                                                             BNO055_ACCEL_DATA_Z_MSB_VALUEZ);
 805:../../libraries/bno055/bno055.c ****       *accel_z_s16 =
 806:../../libraries/bno055/bno055.c ****         (s16)((((s32)((s8)data_u8[BNO055_SENSOR_DATA_MSB])) << BNO055_SHIFT_EIGHT_BITS) |
 2032              		.loc 1 806 34
 2033 008c 7B18     		adds	r3, r7, r1
 2034 008e 5B78     		ldrb	r3, [r3, #1]
 2035              		.loc 1 806 23
 2036 0090 5BB2     		sxtb	r3, r3
 2037              		.loc 1 806 61
 2038 0092 1B02     		lsls	r3, r3, #8
 2039              		.loc 1 806 9
 2040 0094 1AB2     		sxth	r2, r3
 807:../../libraries/bno055/bno055.c ****               (data_u8[BNO055_SENSOR_DATA_LSB]));
 2041              		.loc 1 807 23
 2042 0096 7B18     		adds	r3, r7, r1
 2043 0098 1B78     		ldrb	r3, [r3]
 2044 009a 1BB2     		sxth	r3, r3
 806:../../libraries/bno055/bno055.c ****               (data_u8[BNO055_SENSOR_DATA_LSB]));
 2045              		.loc 1 806 9
 2046 009c 1343     		orrs	r3, r2
 2047 009e 1AB2     		sxth	r2, r3
 805:../../libraries/bno055/bno055.c ****         (s16)((((s32)((s8)data_u8[BNO055_SENSOR_DATA_MSB])) << BNO055_SHIFT_EIGHT_BITS) |
 2048              		.loc 1 805 20
 2049 00a0 7B68     		ldr	r3, [r7, #4]
 2050 00a2 1A80     		strh	r2, [r3]
 2051 00a4 03E0     		b	.L117
 2052              	.L116:
 808:../../libraries/bno055/bno055.c ****     }
 809:../../libraries/bno055/bno055.c ****     else{
 810:../../libraries/bno055/bno055.c ****       com_rslt = BNO055_ERROR;
 2053              		.loc 1 810 16
 2054 00a6 0F23     		movs	r3, #15
 2055 00a8 FB18     		adds	r3, r7, r3
 2056 00aa FF22     		movs	r2, #255
 2057 00ac 1A70     		strb	r2, [r3]
 2058              	.L117:
 811:../../libraries/bno055/bno055.c ****     }
ARM GAS  /tmp/cc84EIjL.s 			page 51


 812:../../libraries/bno055/bno055.c ****   }
 813:../../libraries/bno055/bno055.c **** 
 814:../../libraries/bno055/bno055.c ****   return com_rslt;
 2059              		.loc 1 814 10
 2060 00ae 0F23     		movs	r3, #15
 2061 00b0 FB18     		adds	r3, r7, r3
 2062 00b2 1B78     		ldrb	r3, [r3]
 2063 00b4 5BB2     		sxtb	r3, r3
 2064              	.L118:
 815:../../libraries/bno055/bno055.c **** }
 2065              		.loc 1 815 1 discriminator 1
 2066 00b6 1800     		movs	r0, r3
 2067 00b8 BD46     		mov	sp, r7
 2068 00ba 05B0     		add	sp, sp, #20
 2069              		@ sp needed
 2070 00bc F0BD     		pop	{r4, r5, r6, r7, pc}
 2071              	.L120:
 2072 00be C046     		.align	2
 2073              	.L119:
 2074 00c0 00000000 		.word	p_bno055
 2075              		.cfi_endproc
 2076              	.LFE13:
 2078              		.section	.rodata
 2079              		.align	2
 2080              	.LC14:
 2081 0000 00000000 		.ascii	"\000\000\000\000\000\000"
 2081      0000
 2082              		.section	.text.bno055_read_accel_xyz,"ax",%progbits
 2083              		.align	1
 2084              		.global	bno055_read_accel_xyz
 2085              		.syntax unified
 2086              		.code	16
 2087              		.thumb_func
 2088              		.fpu softvfp
 2090              	bno055_read_accel_xyz:
 2091              	.LFB14:
 816:../../libraries/bno055/bno055.c **** 
 817:../../libraries/bno055/bno055.c **** /*!
 818:../../libraries/bno055/bno055.c ****  *  @brief This API reads acceleration data xyz values
 819:../../libraries/bno055/bno055.c ****  *  from register 0x08 to 0x0D it is a six byte data
 820:../../libraries/bno055/bno055.c ****  *
 821:../../libraries/bno055/bno055.c ****  *
 822:../../libraries/bno055/bno055.c ****  *  @param accel : The value of accel xyz data
 823:../../libraries/bno055/bno055.c ****  *
 824:../../libraries/bno055/bno055.c ****  *  Parameter |    result
 825:../../libraries/bno055/bno055.c ****  *  --------- | -----------------
 826:../../libraries/bno055/bno055.c ****  *   x        | The accel x data
 827:../../libraries/bno055/bno055.c ****  *   y        | The accel y data
 828:../../libraries/bno055/bno055.c ****  *   z        | The accel z data
 829:../../libraries/bno055/bno055.c ****  *
 830:../../libraries/bno055/bno055.c ****  *
 831:../../libraries/bno055/bno055.c ****  *
 832:../../libraries/bno055/bno055.c ****  *  @return results of bus communication function
 833:../../libraries/bno055/bno055.c ****  *  @retval 0 -> BNO055_SUCCESS
 834:../../libraries/bno055/bno055.c ****  *  @retval 1 -> BNO055_ERROR
 835:../../libraries/bno055/bno055.c ****  *
 836:../../libraries/bno055/bno055.c ****  */
ARM GAS  /tmp/cc84EIjL.s 			page 52


 837:../../libraries/bno055/bno055.c **** BNO055_RETURN_FUNCTION_TYPE bno055_read_accel_xyz(struct bno055_accel_t *accel)
 838:../../libraries/bno055/bno055.c **** {
 2092              		.loc 1 838 1
 2093              		.cfi_startproc
 2094              		@ args = 0, pretend = 0, frame = 16
 2095              		@ frame_needed = 1, uses_anonymous_args = 0
 2096 0000 F0B5     		push	{r4, r5, r6, r7, lr}
 2097              		.cfi_def_cfa_offset 20
 2098              		.cfi_offset 4, -20
 2099              		.cfi_offset 5, -16
 2100              		.cfi_offset 6, -12
 2101              		.cfi_offset 7, -8
 2102              		.cfi_offset 14, -4
 2103 0002 85B0     		sub	sp, sp, #20
 2104              		.cfi_def_cfa_offset 40
 2105 0004 00AF     		add	r7, sp, #0
 2106              		.cfi_def_cfa_register 7
 2107 0006 7860     		str	r0, [r7, #4]
 839:../../libraries/bno055/bno055.c ****   /* Variable used to return value of
 840:../../libraries/bno055/bno055.c ****    * communication routine*/
 841:../../libraries/bno055/bno055.c ****   BNO055_RETURN_FUNCTION_TYPE com_rslt = BNO055_ERROR;
 2108              		.loc 1 841 31
 2109 0008 0F23     		movs	r3, #15
 2110 000a FB18     		adds	r3, r7, r3
 2111 000c FF22     		movs	r2, #255
 2112 000e 1A70     		strb	r2, [r3]
 842:../../libraries/bno055/bno055.c **** 
 843:../../libraries/bno055/bno055.c ****   /* Array holding the accel xyz value
 844:../../libraries/bno055/bno055.c ****    * data_u8[BNO055_SENSOR_DATA_XYZ_X_LSB] - x->LSB
 845:../../libraries/bno055/bno055.c ****    * data_u8[BNO055_SENSOR_DATA_XYZ_X_MSB] - x->MSB
 846:../../libraries/bno055/bno055.c ****    * data_u8[BNO055_SENSOR_DATA_XYZ_Y_LSB] - y->MSB
 847:../../libraries/bno055/bno055.c ****    * data_u8[BNO055_SENSOR_DATA_XYZ_Y_MSB] - y->MSB
 848:../../libraries/bno055/bno055.c ****    * data_u8[BNO055_SENSOR_DATA_XYZ_Z_LSB] - z->MSB
 849:../../libraries/bno055/bno055.c ****    * data_u8[BNO055_SENSOR_DATA_XYZ_Z_MSB] - z->MSB
 850:../../libraries/bno055/bno055.c ****    */
 851:../../libraries/bno055/bno055.c ****   u8 data_u8[BNO055_ACCEL_XYZ_DATA_SIZE] =
 2113              		.loc 1 851 6
 2114 0010 0823     		movs	r3, #8
 2115 0012 FB18     		adds	r3, r7, r3
 2116 0014 3F4A     		ldr	r2, .L129
 2117 0016 1168     		ldr	r1, [r2]
 2118 0018 1960     		str	r1, [r3]
 2119 001a 9288     		ldrh	r2, [r2, #4]
 2120 001c 9A80     		strh	r2, [r3, #4]
 852:../../libraries/bno055/bno055.c ****   {
 853:../../libraries/bno055/bno055.c ****     BNO055_INIT_VALUE, BNO055_INIT_VALUE, BNO055_INIT_VALUE, BNO055_INIT_VALUE, BNO055_INIT_VALUE, 
 854:../../libraries/bno055/bno055.c ****   };
 855:../../libraries/bno055/bno055.c ****   s8 stat_s8 = BNO055_ERROR;
 2121              		.loc 1 855 6
 2122 001e 0E23     		movs	r3, #14
 2123 0020 FB18     		adds	r3, r7, r3
 2124 0022 FF22     		movs	r2, #255
 2125 0024 1A70     		strb	r2, [r3]
 856:../../libraries/bno055/bno055.c **** 
 857:../../libraries/bno055/bno055.c ****   /* Check the struct p_bno055 is empty */
 858:../../libraries/bno055/bno055.c ****   if (p_bno055 == NULL) {
 2126              		.loc 1 858 16
ARM GAS  /tmp/cc84EIjL.s 			page 53


 2127 0026 3C4B     		ldr	r3, .L129+4
 2128 0028 1B68     		ldr	r3, [r3]
 2129              		.loc 1 858 6
 2130 002a 002B     		cmp	r3, #0
 2131 002c 02D1     		bne	.L122
 859:../../libraries/bno055/bno055.c ****     return BNO055_E_NULL_PTR;
 2132              		.loc 1 859 12
 2133 002e 7F23     		movs	r3, #127
 2134 0030 5B42     		rsbs	r3, r3, #0
 2135 0032 6BE0     		b	.L128
 2136              	.L122:
 860:../../libraries/bno055/bno055.c ****   }
 861:../../libraries/bno055/bno055.c ****   else{
 862:../../libraries/bno055/bno055.c ****     /*condition check for page, chip id is
 863:../../libraries/bno055/bno055.c ****      * available in the page zero*/
 864:../../libraries/bno055/bno055.c ****     if (p_bno055->page_id != BNO055_PAGE_ZERO) {
 2137              		.loc 1 864 17
 2138 0034 384B     		ldr	r3, .L129+4
 2139 0036 1B68     		ldr	r3, [r3]
 2140 0038 1B79     		ldrb	r3, [r3, #4]
 2141              		.loc 1 864 8
 2142 003a 002B     		cmp	r3, #0
 2143 003c 06D0     		beq	.L124
 865:../../libraries/bno055/bno055.c ****       /* Write the page zero*/
 866:../../libraries/bno055/bno055.c ****       stat_s8 = bno055_write_page_id(BNO055_PAGE_ZERO);
 2144              		.loc 1 866 17
 2145 003e 0E23     		movs	r3, #14
 2146 0040 FC18     		adds	r4, r7, r3
 2147 0042 0020     		movs	r0, #0
 2148 0044 FFF7FEFF 		bl	bno055_write_page_id
 2149 0048 0300     		movs	r3, r0
 2150 004a 2370     		strb	r3, [r4]
 2151              	.L124:
 867:../../libraries/bno055/bno055.c ****     }
 868:../../libraries/bno055/bno055.c ****     if ((stat_s8 == BNO055_SUCCESS) || (p_bno055->page_id == BNO055_PAGE_ZERO)) {
 2152              		.loc 1 868 8
 2153 004c 0E23     		movs	r3, #14
 2154 004e FB18     		adds	r3, r7, r3
 2155 0050 1B78     		ldrb	r3, [r3]
 2156 0052 5BB2     		sxtb	r3, r3
 2157 0054 002B     		cmp	r3, #0
 2158 0056 04D0     		beq	.L125
 2159              		.loc 1 868 49 discriminator 1
 2160 0058 2F4B     		ldr	r3, .L129+4
 2161 005a 1B68     		ldr	r3, [r3]
 2162 005c 1B79     		ldrb	r3, [r3, #4]
 2163              		.loc 1 868 37 discriminator 1
 2164 005e 002B     		cmp	r3, #0
 2165 0060 4CD1     		bne	.L126
 2166              	.L125:
 869:../../libraries/bno055/bno055.c ****       com_rslt = p_bno055->BNO055_BUS_READ_FUNC(p_bno055->dev_addr,
 2167              		.loc 1 869 26
 2168 0062 2D4B     		ldr	r3, .L129+4
 2169 0064 1B68     		ldr	r3, [r3]
 2170 0066 1D69     		ldr	r5, [r3, #16]
 2171              		.loc 1 869 28
 2172 0068 2B4B     		ldr	r3, .L129+4
ARM GAS  /tmp/cc84EIjL.s 			page 54


 2173 006a 1B68     		ldr	r3, [r3]
 2174              		.loc 1 869 18
 2175 006c 587A     		ldrb	r0, [r3, #9]
 2176 006e 0F23     		movs	r3, #15
 2177 0070 FC18     		adds	r4, r7, r3
 2178 0072 0826     		movs	r6, #8
 2179 0074 BA19     		adds	r2, r7, r6
 2180 0076 0623     		movs	r3, #6
 2181 0078 0821     		movs	r1, #8
 2182 007a A847     		blx	r5
 2183              	.LVL22:
 2184 007c 0300     		movs	r3, r0
 2185 007e 2370     		strb	r3, [r4]
 870:../../libraries/bno055/bno055.c ****                                                 BNO055_ACCEL_DATA_X_LSB_VALUEX_REG,
 871:../../libraries/bno055/bno055.c ****                                                 data_u8,
 872:../../libraries/bno055/bno055.c ****                                                 BNO055_ACCEL_XYZ_DATA_SIZE);
 873:../../libraries/bno055/bno055.c **** 
 874:../../libraries/bno055/bno055.c ****       /* Data X*/
 875:../../libraries/bno055/bno055.c ****       data_u8[BNO055_SENSOR_DATA_XYZ_X_LSB] = BNO055_GET_BITSLICE(data_u8[BNO055_SENSOR_DATA_XYZ_X_
 2186              		.loc 1 875 47
 2187 0080 3100     		movs	r1, r6
 2188 0082 7B18     		adds	r3, r7, r1
 2189 0084 1A78     		ldrb	r2, [r3]
 2190              		.loc 1 875 45
 2191 0086 7B18     		adds	r3, r7, r1
 2192 0088 1A70     		strb	r2, [r3]
 876:../../libraries/bno055/bno055.c ****                                                                   BNO055_ACCEL_DATA_X_LSB_VALUEX);
 877:../../libraries/bno055/bno055.c ****       data_u8[BNO055_SENSOR_DATA_XYZ_X_MSB] = BNO055_GET_BITSLICE(data_u8[BNO055_SENSOR_DATA_XYZ_X_
 2193              		.loc 1 877 47
 2194 008a 7B18     		adds	r3, r7, r1
 2195 008c 5A78     		ldrb	r2, [r3, #1]
 2196              		.loc 1 877 45
 2197 008e 7B18     		adds	r3, r7, r1
 2198 0090 5A70     		strb	r2, [r3, #1]
 878:../../libraries/bno055/bno055.c ****                                                                   BNO055_ACCEL_DATA_X_MSB_VALUEX);
 879:../../libraries/bno055/bno055.c ****       accel->x =
 880:../../libraries/bno055/bno055.c ****         (s16)((((s32)((s8)data_u8[BNO055_SENSOR_DATA_XYZ_X_MSB])) << BNO055_SHIFT_EIGHT_BITS) |
 2199              		.loc 1 880 34
 2200 0092 7B18     		adds	r3, r7, r1
 2201 0094 5B78     		ldrb	r3, [r3, #1]
 2202              		.loc 1 880 23
 2203 0096 5BB2     		sxtb	r3, r3
 2204              		.loc 1 880 67
 2205 0098 1B02     		lsls	r3, r3, #8
 2206              		.loc 1 880 9
 2207 009a 1AB2     		sxth	r2, r3
 881:../../libraries/bno055/bno055.c ****               (data_u8[BNO055_SENSOR_DATA_XYZ_X_LSB]));
 2208              		.loc 1 881 23
 2209 009c 7B18     		adds	r3, r7, r1
 2210 009e 1B78     		ldrb	r3, [r3]
 2211 00a0 1BB2     		sxth	r3, r3
 880:../../libraries/bno055/bno055.c ****               (data_u8[BNO055_SENSOR_DATA_XYZ_X_LSB]));
 2212              		.loc 1 880 9
 2213 00a2 1343     		orrs	r3, r2
 2214 00a4 1AB2     		sxth	r2, r3
 879:../../libraries/bno055/bno055.c ****         (s16)((((s32)((s8)data_u8[BNO055_SENSOR_DATA_XYZ_X_MSB])) << BNO055_SHIFT_EIGHT_BITS) |
 2215              		.loc 1 879 16
ARM GAS  /tmp/cc84EIjL.s 			page 55


 2216 00a6 7B68     		ldr	r3, [r7, #4]
 2217 00a8 1A80     		strh	r2, [r3]
 882:../../libraries/bno055/bno055.c **** 
 883:../../libraries/bno055/bno055.c ****       /* Data Y*/
 884:../../libraries/bno055/bno055.c ****       data_u8[BNO055_SENSOR_DATA_XYZ_Y_LSB] = BNO055_GET_BITSLICE(data_u8[BNO055_SENSOR_DATA_XYZ_Y_
 2218              		.loc 1 884 47
 2219 00aa 7B18     		adds	r3, r7, r1
 2220 00ac 9A78     		ldrb	r2, [r3, #2]
 2221              		.loc 1 884 45
 2222 00ae 7B18     		adds	r3, r7, r1
 2223 00b0 9A70     		strb	r2, [r3, #2]
 885:../../libraries/bno055/bno055.c ****                                                                   BNO055_ACCEL_DATA_Y_LSB_VALUEY);
 886:../../libraries/bno055/bno055.c ****       data_u8[BNO055_SENSOR_DATA_XYZ_Y_MSB] = BNO055_GET_BITSLICE(data_u8[BNO055_SENSOR_DATA_XYZ_Y_
 2224              		.loc 1 886 47
 2225 00b2 7B18     		adds	r3, r7, r1
 2226 00b4 DA78     		ldrb	r2, [r3, #3]
 2227              		.loc 1 886 45
 2228 00b6 7B18     		adds	r3, r7, r1
 2229 00b8 DA70     		strb	r2, [r3, #3]
 887:../../libraries/bno055/bno055.c ****                                                                   BNO055_ACCEL_DATA_Y_MSB_VALUEY);
 888:../../libraries/bno055/bno055.c ****       accel->y =
 889:../../libraries/bno055/bno055.c ****         (s16)((((s32)((s8)data_u8[BNO055_SENSOR_DATA_XYZ_Y_MSB])) << BNO055_SHIFT_EIGHT_BITS) |
 2230              		.loc 1 889 34
 2231 00ba 7B18     		adds	r3, r7, r1
 2232 00bc DB78     		ldrb	r3, [r3, #3]
 2233              		.loc 1 889 23
 2234 00be 5BB2     		sxtb	r3, r3
 2235              		.loc 1 889 67
 2236 00c0 1B02     		lsls	r3, r3, #8
 2237              		.loc 1 889 9
 2238 00c2 1AB2     		sxth	r2, r3
 890:../../libraries/bno055/bno055.c ****               (data_u8[BNO055_SENSOR_DATA_XYZ_Y_LSB]));
 2239              		.loc 1 890 23
 2240 00c4 7B18     		adds	r3, r7, r1
 2241 00c6 9B78     		ldrb	r3, [r3, #2]
 2242 00c8 1BB2     		sxth	r3, r3
 889:../../libraries/bno055/bno055.c ****               (data_u8[BNO055_SENSOR_DATA_XYZ_Y_LSB]));
 2243              		.loc 1 889 9
 2244 00ca 1343     		orrs	r3, r2
 2245 00cc 1AB2     		sxth	r2, r3
 888:../../libraries/bno055/bno055.c ****         (s16)((((s32)((s8)data_u8[BNO055_SENSOR_DATA_XYZ_Y_MSB])) << BNO055_SHIFT_EIGHT_BITS) |
 2246              		.loc 1 888 16
 2247 00ce 7B68     		ldr	r3, [r7, #4]
 2248 00d0 5A80     		strh	r2, [r3, #2]
 891:../../libraries/bno055/bno055.c **** 
 892:../../libraries/bno055/bno055.c ****       /* Data Z*/
 893:../../libraries/bno055/bno055.c ****       data_u8[BNO055_SENSOR_DATA_XYZ_Z_LSB] = BNO055_GET_BITSLICE(data_u8[BNO055_SENSOR_DATA_XYZ_Z_
 2249              		.loc 1 893 47
 2250 00d2 7B18     		adds	r3, r7, r1
 2251 00d4 1A79     		ldrb	r2, [r3, #4]
 2252              		.loc 1 893 45
 2253 00d6 7B18     		adds	r3, r7, r1
 2254 00d8 1A71     		strb	r2, [r3, #4]
 894:../../libraries/bno055/bno055.c ****                                                                   BNO055_ACCEL_DATA_Z_LSB_VALUEZ);
 895:../../libraries/bno055/bno055.c ****       data_u8[BNO055_SENSOR_DATA_XYZ_Z_MSB] = BNO055_GET_BITSLICE(data_u8[BNO055_SENSOR_DATA_XYZ_Z_
 2255              		.loc 1 895 47
 2256 00da 7B18     		adds	r3, r7, r1
ARM GAS  /tmp/cc84EIjL.s 			page 56


 2257 00dc 5A79     		ldrb	r2, [r3, #5]
 2258              		.loc 1 895 45
 2259 00de 7B18     		adds	r3, r7, r1
 2260 00e0 5A71     		strb	r2, [r3, #5]
 896:../../libraries/bno055/bno055.c ****                                                                   BNO055_ACCEL_DATA_Z_MSB_VALUEZ);
 897:../../libraries/bno055/bno055.c ****       accel->z =
 898:../../libraries/bno055/bno055.c ****         (s16)((((s32)((s8)data_u8[BNO055_SENSOR_DATA_XYZ_Z_MSB])) << BNO055_SHIFT_EIGHT_BITS) |
 2261              		.loc 1 898 34
 2262 00e2 7B18     		adds	r3, r7, r1
 2263 00e4 5B79     		ldrb	r3, [r3, #5]
 2264              		.loc 1 898 23
 2265 00e6 5BB2     		sxtb	r3, r3
 2266              		.loc 1 898 67
 2267 00e8 1B02     		lsls	r3, r3, #8
 2268              		.loc 1 898 9
 2269 00ea 1AB2     		sxth	r2, r3
 899:../../libraries/bno055/bno055.c ****               (data_u8[BNO055_SENSOR_DATA_XYZ_Z_LSB]));
 2270              		.loc 1 899 23
 2271 00ec 7B18     		adds	r3, r7, r1
 2272 00ee 1B79     		ldrb	r3, [r3, #4]
 2273 00f0 1BB2     		sxth	r3, r3
 898:../../libraries/bno055/bno055.c ****               (data_u8[BNO055_SENSOR_DATA_XYZ_Z_LSB]));
 2274              		.loc 1 898 9
 2275 00f2 1343     		orrs	r3, r2
 2276 00f4 1AB2     		sxth	r2, r3
 897:../../libraries/bno055/bno055.c ****         (s16)((((s32)((s8)data_u8[BNO055_SENSOR_DATA_XYZ_Z_MSB])) << BNO055_SHIFT_EIGHT_BITS) |
 2277              		.loc 1 897 16
 2278 00f6 7B68     		ldr	r3, [r7, #4]
 2279 00f8 9A80     		strh	r2, [r3, #4]
 2280 00fa 03E0     		b	.L127
 2281              	.L126:
 900:../../libraries/bno055/bno055.c ****     }
 901:../../libraries/bno055/bno055.c ****     else{
 902:../../libraries/bno055/bno055.c ****       com_rslt = BNO055_ERROR;
 2282              		.loc 1 902 16
 2283 00fc 0F23     		movs	r3, #15
 2284 00fe FB18     		adds	r3, r7, r3
 2285 0100 FF22     		movs	r2, #255
 2286 0102 1A70     		strb	r2, [r3]
 2287              	.L127:
 903:../../libraries/bno055/bno055.c ****     }
 904:../../libraries/bno055/bno055.c ****   }
 905:../../libraries/bno055/bno055.c **** 
 906:../../libraries/bno055/bno055.c ****   return com_rslt;
 2288              		.loc 1 906 10
 2289 0104 0F23     		movs	r3, #15
 2290 0106 FB18     		adds	r3, r7, r3
 2291 0108 1B78     		ldrb	r3, [r3]
 2292 010a 5BB2     		sxtb	r3, r3
 2293              	.L128:
 907:../../libraries/bno055/bno055.c **** }
 2294              		.loc 1 907 1 discriminator 1
 2295 010c 1800     		movs	r0, r3
 2296 010e BD46     		mov	sp, r7
 2297 0110 05B0     		add	sp, sp, #20
 2298              		@ sp needed
 2299 0112 F0BD     		pop	{r4, r5, r6, r7, pc}
ARM GAS  /tmp/cc84EIjL.s 			page 57


 2300              	.L130:
 2301              		.align	2
 2302              	.L129:
 2303 0114 00000000 		.word	.LC14
 2304 0118 00000000 		.word	p_bno055
 2305              		.cfi_endproc
 2306              	.LFE14:
 2308              		.section	.text.bno055_read_mag_x,"ax",%progbits
 2309              		.align	1
 2310              		.global	bno055_read_mag_x
 2311              		.syntax unified
 2312              		.code	16
 2313              		.thumb_func
 2314              		.fpu softvfp
 2316              	bno055_read_mag_x:
 2317              	.LFB15:
 908:../../libraries/bno055/bno055.c **** 
 909:../../libraries/bno055/bno055.c **** /*!
 910:../../libraries/bno055/bno055.c ****  *  @brief This API reads mag data x values
 911:../../libraries/bno055/bno055.c ****  *  from register 0x0E and 0x0F it is a two byte data
 912:../../libraries/bno055/bno055.c ****  *
 913:../../libraries/bno055/bno055.c ****  *
 914:../../libraries/bno055/bno055.c ****  *
 915:../../libraries/bno055/bno055.c ****  *
 916:../../libraries/bno055/bno055.c ****  *  @param mag_x_s16 : The x raw data
 917:../../libraries/bno055/bno055.c ****  *
 918:../../libraries/bno055/bno055.c ****  *
 919:../../libraries/bno055/bno055.c ****  *
 920:../../libraries/bno055/bno055.c ****  *  @return results of bus communication function
 921:../../libraries/bno055/bno055.c ****  *  @retval 0 -> BNO055_SUCCESS
 922:../../libraries/bno055/bno055.c ****  *  @retval 1 -> BNO055_ERROR
 923:../../libraries/bno055/bno055.c ****  *
 924:../../libraries/bno055/bno055.c ****  *
 925:../../libraries/bno055/bno055.c ****  *
 926:../../libraries/bno055/bno055.c ****  */
 927:../../libraries/bno055/bno055.c **** BNO055_RETURN_FUNCTION_TYPE bno055_read_mag_x(s16 *mag_x_s16)
 928:../../libraries/bno055/bno055.c **** {
 2318              		.loc 1 928 1
 2319              		.cfi_startproc
 2320              		@ args = 0, pretend = 0, frame = 16
 2321              		@ frame_needed = 1, uses_anonymous_args = 0
 2322 0000 F0B5     		push	{r4, r5, r6, r7, lr}
 2323              		.cfi_def_cfa_offset 20
 2324              		.cfi_offset 4, -20
 2325              		.cfi_offset 5, -16
 2326              		.cfi_offset 6, -12
 2327              		.cfi_offset 7, -8
 2328              		.cfi_offset 14, -4
 2329 0002 85B0     		sub	sp, sp, #20
 2330              		.cfi_def_cfa_offset 40
 2331 0004 00AF     		add	r7, sp, #0
 2332              		.cfi_def_cfa_register 7
 2333 0006 7860     		str	r0, [r7, #4]
 929:../../libraries/bno055/bno055.c ****   /* Variable used to return value of
 930:../../libraries/bno055/bno055.c ****    * communication routine*/
 931:../../libraries/bno055/bno055.c ****   BNO055_RETURN_FUNCTION_TYPE com_rslt = BNO055_ERROR;
 2334              		.loc 1 931 31
ARM GAS  /tmp/cc84EIjL.s 			page 58


 2335 0008 0F23     		movs	r3, #15
 2336 000a FB18     		adds	r3, r7, r3
 2337 000c FF22     		movs	r2, #255
 2338 000e 1A70     		strb	r2, [r3]
 932:../../libraries/bno055/bno055.c **** 
 933:../../libraries/bno055/bno055.c ****   /* Array holding the mag x value
 934:../../libraries/bno055/bno055.c ****    * data_u8[BNO055_SENSOR_DATA_LSB] - x->LSB
 935:../../libraries/bno055/bno055.c ****    * data_u8[BNO055_SENSOR_DATA_MSB] - x->MSB
 936:../../libraries/bno055/bno055.c ****    */
 937:../../libraries/bno055/bno055.c ****   u8 data_u8[BNO055_MAG_DATA_SIZE] = { BNO055_INIT_VALUE, BNO055_INIT_VALUE };
 2339              		.loc 1 937 6
 2340 0010 0C23     		movs	r3, #12
 2341 0012 FB18     		adds	r3, r7, r3
 2342 0014 0022     		movs	r2, #0
 2343 0016 1A80     		strh	r2, [r3]
 938:../../libraries/bno055/bno055.c ****   s8 stat_s8 = BNO055_ERROR;
 2344              		.loc 1 938 6
 2345 0018 0E23     		movs	r3, #14
 2346 001a FB18     		adds	r3, r7, r3
 2347 001c FF22     		movs	r2, #255
 2348 001e 1A70     		strb	r2, [r3]
 939:../../libraries/bno055/bno055.c **** 
 940:../../libraries/bno055/bno055.c ****   /* Check the struct p_bno055 is empty */
 941:../../libraries/bno055/bno055.c ****   if (p_bno055 == NULL) {
 2349              		.loc 1 941 16
 2350 0020 274B     		ldr	r3, .L139
 2351 0022 1B68     		ldr	r3, [r3]
 2352              		.loc 1 941 6
 2353 0024 002B     		cmp	r3, #0
 2354 0026 02D1     		bne	.L132
 942:../../libraries/bno055/bno055.c ****     return BNO055_E_NULL_PTR;
 2355              		.loc 1 942 12
 2356 0028 7F23     		movs	r3, #127
 2357 002a 5B42     		rsbs	r3, r3, #0
 2358 002c 43E0     		b	.L138
 2359              	.L132:
 943:../../libraries/bno055/bno055.c ****   }
 944:../../libraries/bno055/bno055.c ****   else{
 945:../../libraries/bno055/bno055.c ****     /*condition check for page, chip id is
 946:../../libraries/bno055/bno055.c ****      * available in the page zero*/
 947:../../libraries/bno055/bno055.c ****     if (p_bno055->page_id != BNO055_PAGE_ZERO) {
 2360              		.loc 1 947 17
 2361 002e 244B     		ldr	r3, .L139
 2362 0030 1B68     		ldr	r3, [r3]
 2363 0032 1B79     		ldrb	r3, [r3, #4]
 2364              		.loc 1 947 8
 2365 0034 002B     		cmp	r3, #0
 2366 0036 06D0     		beq	.L134
 948:../../libraries/bno055/bno055.c ****       /* Write the page zero*/
 949:../../libraries/bno055/bno055.c ****       stat_s8 = bno055_write_page_id(BNO055_PAGE_ZERO);
 2367              		.loc 1 949 17
 2368 0038 0E23     		movs	r3, #14
 2369 003a FC18     		adds	r4, r7, r3
 2370 003c 0020     		movs	r0, #0
 2371 003e FFF7FEFF 		bl	bno055_write_page_id
 2372 0042 0300     		movs	r3, r0
 2373 0044 2370     		strb	r3, [r4]
ARM GAS  /tmp/cc84EIjL.s 			page 59


 2374              	.L134:
 950:../../libraries/bno055/bno055.c ****     }
 951:../../libraries/bno055/bno055.c ****     if ((stat_s8 == BNO055_SUCCESS) || (p_bno055->page_id == BNO055_PAGE_ZERO)) {
 2375              		.loc 1 951 8
 2376 0046 0E23     		movs	r3, #14
 2377 0048 FB18     		adds	r3, r7, r3
 2378 004a 1B78     		ldrb	r3, [r3]
 2379 004c 5BB2     		sxtb	r3, r3
 2380 004e 002B     		cmp	r3, #0
 2381 0050 04D0     		beq	.L135
 2382              		.loc 1 951 49 discriminator 1
 2383 0052 1B4B     		ldr	r3, .L139
 2384 0054 1B68     		ldr	r3, [r3]
 2385 0056 1B79     		ldrb	r3, [r3, #4]
 2386              		.loc 1 951 37 discriminator 1
 2387 0058 002B     		cmp	r3, #0
 2388 005a 24D1     		bne	.L136
 2389              	.L135:
 952:../../libraries/bno055/bno055.c ****       /*Read the mag x two bytes of data */
 953:../../libraries/bno055/bno055.c ****       com_rslt = p_bno055->BNO055_BUS_READ_FUNC(p_bno055->dev_addr,
 2390              		.loc 1 953 26
 2391 005c 184B     		ldr	r3, .L139
 2392 005e 1B68     		ldr	r3, [r3]
 2393 0060 1D69     		ldr	r5, [r3, #16]
 2394              		.loc 1 953 28
 2395 0062 174B     		ldr	r3, .L139
 2396 0064 1B68     		ldr	r3, [r3]
 2397              		.loc 1 953 18
 2398 0066 587A     		ldrb	r0, [r3, #9]
 2399 0068 0F23     		movs	r3, #15
 2400 006a FC18     		adds	r4, r7, r3
 2401 006c 0C26     		movs	r6, #12
 2402 006e BA19     		adds	r2, r7, r6
 2403 0070 0223     		movs	r3, #2
 2404 0072 0E21     		movs	r1, #14
 2405 0074 A847     		blx	r5
 2406              	.LVL23:
 2407 0076 0300     		movs	r3, r0
 2408 0078 2370     		strb	r3, [r4]
 954:../../libraries/bno055/bno055.c ****                                                 BNO055_MAG_DATA_X_LSB_VALUEX_REG,
 955:../../libraries/bno055/bno055.c ****                                                 data_u8,
 956:../../libraries/bno055/bno055.c ****                                                 BNO055_LSB_MSB_READ_LENGTH);
 957:../../libraries/bno055/bno055.c ****       data_u8[BNO055_SENSOR_DATA_LSB] = BNO055_GET_BITSLICE(data_u8[BNO055_SENSOR_DATA_LSB],
 2409              		.loc 1 957 41
 2410 007a 3100     		movs	r1, r6
 2411 007c 7B18     		adds	r3, r7, r1
 2412 007e 1A78     		ldrb	r2, [r3]
 2413              		.loc 1 957 39
 2414 0080 7B18     		adds	r3, r7, r1
 2415 0082 1A70     		strb	r2, [r3]
 958:../../libraries/bno055/bno055.c ****                                                             BNO055_MAG_DATA_X_LSB_VALUEX);
 959:../../libraries/bno055/bno055.c ****       data_u8[BNO055_SENSOR_DATA_MSB] = BNO055_GET_BITSLICE(data_u8[BNO055_SENSOR_DATA_MSB],
 2416              		.loc 1 959 41
 2417 0084 7B18     		adds	r3, r7, r1
 2418 0086 5A78     		ldrb	r2, [r3, #1]
 2419              		.loc 1 959 39
 2420 0088 7B18     		adds	r3, r7, r1
ARM GAS  /tmp/cc84EIjL.s 			page 60


 2421 008a 5A70     		strb	r2, [r3, #1]
 960:../../libraries/bno055/bno055.c ****                                                             BNO055_MAG_DATA_X_MSB_VALUEX);
 961:../../libraries/bno055/bno055.c ****       *mag_x_s16 =
 962:../../libraries/bno055/bno055.c ****         (s16)((((s32)((s8)data_u8[BNO055_SENSOR_DATA_MSB])) << BNO055_SHIFT_EIGHT_BITS) |
 2422              		.loc 1 962 34
 2423 008c 7B18     		adds	r3, r7, r1
 2424 008e 5B78     		ldrb	r3, [r3, #1]
 2425              		.loc 1 962 23
 2426 0090 5BB2     		sxtb	r3, r3
 2427              		.loc 1 962 61
 2428 0092 1B02     		lsls	r3, r3, #8
 2429              		.loc 1 962 9
 2430 0094 1AB2     		sxth	r2, r3
 963:../../libraries/bno055/bno055.c ****               (data_u8[BNO055_SENSOR_DATA_LSB]));
 2431              		.loc 1 963 23
 2432 0096 7B18     		adds	r3, r7, r1
 2433 0098 1B78     		ldrb	r3, [r3]
 2434 009a 1BB2     		sxth	r3, r3
 962:../../libraries/bno055/bno055.c ****               (data_u8[BNO055_SENSOR_DATA_LSB]));
 2435              		.loc 1 962 9
 2436 009c 1343     		orrs	r3, r2
 2437 009e 1AB2     		sxth	r2, r3
 961:../../libraries/bno055/bno055.c ****         (s16)((((s32)((s8)data_u8[BNO055_SENSOR_DATA_MSB])) << BNO055_SHIFT_EIGHT_BITS) |
 2438              		.loc 1 961 18
 2439 00a0 7B68     		ldr	r3, [r7, #4]
 2440 00a2 1A80     		strh	r2, [r3]
 2441 00a4 03E0     		b	.L137
 2442              	.L136:
 964:../../libraries/bno055/bno055.c ****     }
 965:../../libraries/bno055/bno055.c ****     else{
 966:../../libraries/bno055/bno055.c ****       com_rslt = BNO055_ERROR;
 2443              		.loc 1 966 16
 2444 00a6 0F23     		movs	r3, #15
 2445 00a8 FB18     		adds	r3, r7, r3
 2446 00aa FF22     		movs	r2, #255
 2447 00ac 1A70     		strb	r2, [r3]
 2448              	.L137:
 967:../../libraries/bno055/bno055.c ****     }
 968:../../libraries/bno055/bno055.c ****   }
 969:../../libraries/bno055/bno055.c **** 
 970:../../libraries/bno055/bno055.c ****   return com_rslt;
 2449              		.loc 1 970 10
 2450 00ae 0F23     		movs	r3, #15
 2451 00b0 FB18     		adds	r3, r7, r3
 2452 00b2 1B78     		ldrb	r3, [r3]
 2453 00b4 5BB2     		sxtb	r3, r3
 2454              	.L138:
 971:../../libraries/bno055/bno055.c **** }
 2455              		.loc 1 971 1 discriminator 1
 2456 00b6 1800     		movs	r0, r3
 2457 00b8 BD46     		mov	sp, r7
 2458 00ba 05B0     		add	sp, sp, #20
 2459              		@ sp needed
 2460 00bc F0BD     		pop	{r4, r5, r6, r7, pc}
 2461              	.L140:
 2462 00be C046     		.align	2
 2463              	.L139:
ARM GAS  /tmp/cc84EIjL.s 			page 61


 2464 00c0 00000000 		.word	p_bno055
 2465              		.cfi_endproc
 2466              	.LFE15:
 2468              		.section	.text.bno055_read_mag_y,"ax",%progbits
 2469              		.align	1
 2470              		.global	bno055_read_mag_y
 2471              		.syntax unified
 2472              		.code	16
 2473              		.thumb_func
 2474              		.fpu softvfp
 2476              	bno055_read_mag_y:
 2477              	.LFB16:
 972:../../libraries/bno055/bno055.c **** 
 973:../../libraries/bno055/bno055.c **** /*!
 974:../../libraries/bno055/bno055.c ****  *  @brief This API reads mag data y values
 975:../../libraries/bno055/bno055.c ****  *  from register 0x10 and 0x11 it is a two byte data
 976:../../libraries/bno055/bno055.c ****  *
 977:../../libraries/bno055/bno055.c ****  *
 978:../../libraries/bno055/bno055.c ****  *
 979:../../libraries/bno055/bno055.c ****  *
 980:../../libraries/bno055/bno055.c ****  *  @param mag_y_s16 : The y raw data
 981:../../libraries/bno055/bno055.c ****  *
 982:../../libraries/bno055/bno055.c ****  *
 983:../../libraries/bno055/bno055.c ****  *
 984:../../libraries/bno055/bno055.c ****  *  @return results of bus communication function
 985:../../libraries/bno055/bno055.c ****  *  @retval 0 -> BNO055_SUCCESS
 986:../../libraries/bno055/bno055.c ****  *  @retval 1 -> BNO055_ERROR
 987:../../libraries/bno055/bno055.c ****  *
 988:../../libraries/bno055/bno055.c ****  *
 989:../../libraries/bno055/bno055.c ****  */
 990:../../libraries/bno055/bno055.c **** BNO055_RETURN_FUNCTION_TYPE bno055_read_mag_y(s16 *mag_y_s16)
 991:../../libraries/bno055/bno055.c **** {
 2478              		.loc 1 991 1
 2479              		.cfi_startproc
 2480              		@ args = 0, pretend = 0, frame = 16
 2481              		@ frame_needed = 1, uses_anonymous_args = 0
 2482 0000 F0B5     		push	{r4, r5, r6, r7, lr}
 2483              		.cfi_def_cfa_offset 20
 2484              		.cfi_offset 4, -20
 2485              		.cfi_offset 5, -16
 2486              		.cfi_offset 6, -12
 2487              		.cfi_offset 7, -8
 2488              		.cfi_offset 14, -4
 2489 0002 85B0     		sub	sp, sp, #20
 2490              		.cfi_def_cfa_offset 40
 2491 0004 00AF     		add	r7, sp, #0
 2492              		.cfi_def_cfa_register 7
 2493 0006 7860     		str	r0, [r7, #4]
 992:../../libraries/bno055/bno055.c ****   /* Variable used to return value of
 993:../../libraries/bno055/bno055.c ****    * communication routine*/
 994:../../libraries/bno055/bno055.c ****   BNO055_RETURN_FUNCTION_TYPE com_rslt = BNO055_ERROR;
 2494              		.loc 1 994 31
 2495 0008 0F23     		movs	r3, #15
 2496 000a FB18     		adds	r3, r7, r3
 2497 000c FF22     		movs	r2, #255
 2498 000e 1A70     		strb	r2, [r3]
 995:../../libraries/bno055/bno055.c **** 
ARM GAS  /tmp/cc84EIjL.s 			page 62


 996:../../libraries/bno055/bno055.c ****   /* Array holding the mag y value
 997:../../libraries/bno055/bno055.c ****    * data_u8[BNO055_SENSOR_DATA_LSB] - y->LSB
 998:../../libraries/bno055/bno055.c ****    * data_u8[BNO055_SENSOR_DATA_MSB] - y->MSB
 999:../../libraries/bno055/bno055.c ****    */
1000:../../libraries/bno055/bno055.c ****   u8 data_u8[BNO055_MAG_DATA_SIZE] = { BNO055_INIT_VALUE, BNO055_INIT_VALUE };
 2499              		.loc 1 1000 6
 2500 0010 0C23     		movs	r3, #12
 2501 0012 FB18     		adds	r3, r7, r3
 2502 0014 0022     		movs	r2, #0
 2503 0016 1A80     		strh	r2, [r3]
1001:../../libraries/bno055/bno055.c ****   s8 stat_s8 = BNO055_ERROR;
 2504              		.loc 1 1001 6
 2505 0018 0E23     		movs	r3, #14
 2506 001a FB18     		adds	r3, r7, r3
 2507 001c FF22     		movs	r2, #255
 2508 001e 1A70     		strb	r2, [r3]
1002:../../libraries/bno055/bno055.c **** 
1003:../../libraries/bno055/bno055.c ****   /* Check the struct p_bno055 is empty */
1004:../../libraries/bno055/bno055.c ****   if (p_bno055 == NULL) {
 2509              		.loc 1 1004 16
 2510 0020 274B     		ldr	r3, .L149
 2511 0022 1B68     		ldr	r3, [r3]
 2512              		.loc 1 1004 6
 2513 0024 002B     		cmp	r3, #0
 2514 0026 02D1     		bne	.L142
1005:../../libraries/bno055/bno055.c ****     return BNO055_E_NULL_PTR;
 2515              		.loc 1 1005 12
 2516 0028 7F23     		movs	r3, #127
 2517 002a 5B42     		rsbs	r3, r3, #0
 2518 002c 43E0     		b	.L148
 2519              	.L142:
1006:../../libraries/bno055/bno055.c ****   }
1007:../../libraries/bno055/bno055.c ****   else{
1008:../../libraries/bno055/bno055.c ****     /*condition check for page, chip id is
1009:../../libraries/bno055/bno055.c ****      * available in the page zero*/
1010:../../libraries/bno055/bno055.c ****     if (p_bno055->page_id != BNO055_PAGE_ZERO) {
 2520              		.loc 1 1010 17
 2521 002e 244B     		ldr	r3, .L149
 2522 0030 1B68     		ldr	r3, [r3]
 2523 0032 1B79     		ldrb	r3, [r3, #4]
 2524              		.loc 1 1010 8
 2525 0034 002B     		cmp	r3, #0
 2526 0036 06D0     		beq	.L144
1011:../../libraries/bno055/bno055.c ****       /* Write the page zero*/
1012:../../libraries/bno055/bno055.c ****       stat_s8 = bno055_write_page_id(BNO055_PAGE_ZERO);
 2527              		.loc 1 1012 17
 2528 0038 0E23     		movs	r3, #14
 2529 003a FC18     		adds	r4, r7, r3
 2530 003c 0020     		movs	r0, #0
 2531 003e FFF7FEFF 		bl	bno055_write_page_id
 2532 0042 0300     		movs	r3, r0
 2533 0044 2370     		strb	r3, [r4]
 2534              	.L144:
1013:../../libraries/bno055/bno055.c ****     }
1014:../../libraries/bno055/bno055.c ****     if ((stat_s8 == BNO055_SUCCESS) || (p_bno055->page_id == BNO055_PAGE_ZERO)) {
 2535              		.loc 1 1014 8
 2536 0046 0E23     		movs	r3, #14
ARM GAS  /tmp/cc84EIjL.s 			page 63


 2537 0048 FB18     		adds	r3, r7, r3
 2538 004a 1B78     		ldrb	r3, [r3]
 2539 004c 5BB2     		sxtb	r3, r3
 2540 004e 002B     		cmp	r3, #0
 2541 0050 04D0     		beq	.L145
 2542              		.loc 1 1014 49 discriminator 1
 2543 0052 1B4B     		ldr	r3, .L149
 2544 0054 1B68     		ldr	r3, [r3]
 2545 0056 1B79     		ldrb	r3, [r3, #4]
 2546              		.loc 1 1014 37 discriminator 1
 2547 0058 002B     		cmp	r3, #0
 2548 005a 24D1     		bne	.L146
 2549              	.L145:
1015:../../libraries/bno055/bno055.c ****       /*Read the mag y two bytes of data */
1016:../../libraries/bno055/bno055.c ****       com_rslt = p_bno055->BNO055_BUS_READ_FUNC(p_bno055->dev_addr,
 2550              		.loc 1 1016 26
 2551 005c 184B     		ldr	r3, .L149
 2552 005e 1B68     		ldr	r3, [r3]
 2553 0060 1D69     		ldr	r5, [r3, #16]
 2554              		.loc 1 1016 28
 2555 0062 174B     		ldr	r3, .L149
 2556 0064 1B68     		ldr	r3, [r3]
 2557              		.loc 1 1016 18
 2558 0066 587A     		ldrb	r0, [r3, #9]
 2559 0068 0F23     		movs	r3, #15
 2560 006a FC18     		adds	r4, r7, r3
 2561 006c 0C26     		movs	r6, #12
 2562 006e BA19     		adds	r2, r7, r6
 2563 0070 0223     		movs	r3, #2
 2564 0072 1021     		movs	r1, #16
 2565 0074 A847     		blx	r5
 2566              	.LVL24:
 2567 0076 0300     		movs	r3, r0
 2568 0078 2370     		strb	r3, [r4]
1017:../../libraries/bno055/bno055.c ****                                                 BNO055_MAG_DATA_Y_LSB_VALUEY_REG,
1018:../../libraries/bno055/bno055.c ****                                                 data_u8,
1019:../../libraries/bno055/bno055.c ****                                                 BNO055_LSB_MSB_READ_LENGTH);
1020:../../libraries/bno055/bno055.c ****       data_u8[BNO055_SENSOR_DATA_LSB] = BNO055_GET_BITSLICE(data_u8[BNO055_SENSOR_DATA_LSB],
 2569              		.loc 1 1020 41
 2570 007a 3100     		movs	r1, r6
 2571 007c 7B18     		adds	r3, r7, r1
 2572 007e 1A78     		ldrb	r2, [r3]
 2573              		.loc 1 1020 39
 2574 0080 7B18     		adds	r3, r7, r1
 2575 0082 1A70     		strb	r2, [r3]
1021:../../libraries/bno055/bno055.c ****                                                             BNO055_MAG_DATA_Y_LSB_VALUEY);
1022:../../libraries/bno055/bno055.c ****       data_u8[BNO055_SENSOR_DATA_MSB] = BNO055_GET_BITSLICE(data_u8[BNO055_SENSOR_DATA_MSB],
 2576              		.loc 1 1022 41
 2577 0084 7B18     		adds	r3, r7, r1
 2578 0086 5A78     		ldrb	r2, [r3, #1]
 2579              		.loc 1 1022 39
 2580 0088 7B18     		adds	r3, r7, r1
 2581 008a 5A70     		strb	r2, [r3, #1]
1023:../../libraries/bno055/bno055.c ****                                                             BNO055_MAG_DATA_Y_MSB_VALUEY);
1024:../../libraries/bno055/bno055.c ****       *mag_y_s16 =
1025:../../libraries/bno055/bno055.c ****         (s16)((((s32)((s8)data_u8[BNO055_SENSOR_DATA_MSB])) << BNO055_SHIFT_EIGHT_BITS) |
 2582              		.loc 1 1025 34
ARM GAS  /tmp/cc84EIjL.s 			page 64


 2583 008c 7B18     		adds	r3, r7, r1
 2584 008e 5B78     		ldrb	r3, [r3, #1]
 2585              		.loc 1 1025 23
 2586 0090 5BB2     		sxtb	r3, r3
 2587              		.loc 1 1025 61
 2588 0092 1B02     		lsls	r3, r3, #8
 2589              		.loc 1 1025 9
 2590 0094 1AB2     		sxth	r2, r3
1026:../../libraries/bno055/bno055.c ****               (data_u8[BNO055_SENSOR_DATA_LSB]));
 2591              		.loc 1 1026 23
 2592 0096 7B18     		adds	r3, r7, r1
 2593 0098 1B78     		ldrb	r3, [r3]
 2594 009a 1BB2     		sxth	r3, r3
1025:../../libraries/bno055/bno055.c ****               (data_u8[BNO055_SENSOR_DATA_LSB]));
 2595              		.loc 1 1025 9
 2596 009c 1343     		orrs	r3, r2
 2597 009e 1AB2     		sxth	r2, r3
1024:../../libraries/bno055/bno055.c ****         (s16)((((s32)((s8)data_u8[BNO055_SENSOR_DATA_MSB])) << BNO055_SHIFT_EIGHT_BITS) |
 2598              		.loc 1 1024 18
 2599 00a0 7B68     		ldr	r3, [r7, #4]
 2600 00a2 1A80     		strh	r2, [r3]
 2601 00a4 03E0     		b	.L147
 2602              	.L146:
1027:../../libraries/bno055/bno055.c ****     }
1028:../../libraries/bno055/bno055.c ****     else{
1029:../../libraries/bno055/bno055.c ****       com_rslt = BNO055_ERROR;
 2603              		.loc 1 1029 16
 2604 00a6 0F23     		movs	r3, #15
 2605 00a8 FB18     		adds	r3, r7, r3
 2606 00aa FF22     		movs	r2, #255
 2607 00ac 1A70     		strb	r2, [r3]
 2608              	.L147:
1030:../../libraries/bno055/bno055.c ****     }
1031:../../libraries/bno055/bno055.c ****   }
1032:../../libraries/bno055/bno055.c **** 
1033:../../libraries/bno055/bno055.c ****   return com_rslt;
 2609              		.loc 1 1033 10
 2610 00ae 0F23     		movs	r3, #15
 2611 00b0 FB18     		adds	r3, r7, r3
 2612 00b2 1B78     		ldrb	r3, [r3]
 2613 00b4 5BB2     		sxtb	r3, r3
 2614              	.L148:
1034:../../libraries/bno055/bno055.c **** }
 2615              		.loc 1 1034 1 discriminator 1
 2616 00b6 1800     		movs	r0, r3
 2617 00b8 BD46     		mov	sp, r7
 2618 00ba 05B0     		add	sp, sp, #20
 2619              		@ sp needed
 2620 00bc F0BD     		pop	{r4, r5, r6, r7, pc}
 2621              	.L150:
 2622 00be C046     		.align	2
 2623              	.L149:
 2624 00c0 00000000 		.word	p_bno055
 2625              		.cfi_endproc
 2626              	.LFE16:
 2628              		.section	.text.bno055_read_mag_z,"ax",%progbits
 2629              		.align	1
ARM GAS  /tmp/cc84EIjL.s 			page 65


 2630              		.global	bno055_read_mag_z
 2631              		.syntax unified
 2632              		.code	16
 2633              		.thumb_func
 2634              		.fpu softvfp
 2636              	bno055_read_mag_z:
 2637              	.LFB17:
1035:../../libraries/bno055/bno055.c **** 
1036:../../libraries/bno055/bno055.c **** /*!
1037:../../libraries/bno055/bno055.c ****  *  @brief This API reads mag data z values
1038:../../libraries/bno055/bno055.c ****  *  from register 0x12 and 0x13 it is a two byte data
1039:../../libraries/bno055/bno055.c ****  *
1040:../../libraries/bno055/bno055.c ****  *
1041:../../libraries/bno055/bno055.c ****  *
1042:../../libraries/bno055/bno055.c ****  *
1043:../../libraries/bno055/bno055.c ****  *  @param mag_z_s16 : The z raw data
1044:../../libraries/bno055/bno055.c ****  *
1045:../../libraries/bno055/bno055.c ****  *
1046:../../libraries/bno055/bno055.c ****  *
1047:../../libraries/bno055/bno055.c ****  *  @return results of bus communication function
1048:../../libraries/bno055/bno055.c ****  *  @retval 0 -> BNO055_SUCCESS
1049:../../libraries/bno055/bno055.c ****  *  @retval 1 -> BNO055_ERROR
1050:../../libraries/bno055/bno055.c ****  *
1051:../../libraries/bno055/bno055.c ****  *
1052:../../libraries/bno055/bno055.c ****  *
1053:../../libraries/bno055/bno055.c ****  */
1054:../../libraries/bno055/bno055.c **** BNO055_RETURN_FUNCTION_TYPE bno055_read_mag_z(s16 *mag_z_s16)
1055:../../libraries/bno055/bno055.c **** {
 2638              		.loc 1 1055 1
 2639              		.cfi_startproc
 2640              		@ args = 0, pretend = 0, frame = 16
 2641              		@ frame_needed = 1, uses_anonymous_args = 0
 2642 0000 F0B5     		push	{r4, r5, r6, r7, lr}
 2643              		.cfi_def_cfa_offset 20
 2644              		.cfi_offset 4, -20
 2645              		.cfi_offset 5, -16
 2646              		.cfi_offset 6, -12
 2647              		.cfi_offset 7, -8
 2648              		.cfi_offset 14, -4
 2649 0002 85B0     		sub	sp, sp, #20
 2650              		.cfi_def_cfa_offset 40
 2651 0004 00AF     		add	r7, sp, #0
 2652              		.cfi_def_cfa_register 7
 2653 0006 7860     		str	r0, [r7, #4]
1056:../../libraries/bno055/bno055.c ****   /* Variable used to return value of
1057:../../libraries/bno055/bno055.c ****    * communication routine*/
1058:../../libraries/bno055/bno055.c ****   BNO055_RETURN_FUNCTION_TYPE com_rslt = BNO055_ERROR;
 2654              		.loc 1 1058 31
 2655 0008 0F23     		movs	r3, #15
 2656 000a FB18     		adds	r3, r7, r3
 2657 000c FF22     		movs	r2, #255
 2658 000e 1A70     		strb	r2, [r3]
1059:../../libraries/bno055/bno055.c **** 
1060:../../libraries/bno055/bno055.c ****   /* Array holding the mag z value
1061:../../libraries/bno055/bno055.c ****    * data_u8[BNO055_SENSOR_DATA_LSB] - z->LSB
1062:../../libraries/bno055/bno055.c ****    * data_u8[BNO055_SENSOR_DATA_MSB] - z->MSB
1063:../../libraries/bno055/bno055.c ****    */
ARM GAS  /tmp/cc84EIjL.s 			page 66


1064:../../libraries/bno055/bno055.c ****   u8 data_u8[BNO055_MAG_DATA_SIZE] = { BNO055_INIT_VALUE, BNO055_INIT_VALUE };
 2659              		.loc 1 1064 6
 2660 0010 0C23     		movs	r3, #12
 2661 0012 FB18     		adds	r3, r7, r3
 2662 0014 0022     		movs	r2, #0
 2663 0016 1A80     		strh	r2, [r3]
1065:../../libraries/bno055/bno055.c ****   s8 stat_s8 = BNO055_ERROR;
 2664              		.loc 1 1065 6
 2665 0018 0E23     		movs	r3, #14
 2666 001a FB18     		adds	r3, r7, r3
 2667 001c FF22     		movs	r2, #255
 2668 001e 1A70     		strb	r2, [r3]
1066:../../libraries/bno055/bno055.c **** 
1067:../../libraries/bno055/bno055.c ****   /* Check the struct p_bno055 is empty */
1068:../../libraries/bno055/bno055.c ****   if (p_bno055 == NULL) {
 2669              		.loc 1 1068 16
 2670 0020 274B     		ldr	r3, .L159
 2671 0022 1B68     		ldr	r3, [r3]
 2672              		.loc 1 1068 6
 2673 0024 002B     		cmp	r3, #0
 2674 0026 02D1     		bne	.L152
1069:../../libraries/bno055/bno055.c ****     return BNO055_E_NULL_PTR;
 2675              		.loc 1 1069 12
 2676 0028 7F23     		movs	r3, #127
 2677 002a 5B42     		rsbs	r3, r3, #0
 2678 002c 43E0     		b	.L158
 2679              	.L152:
1070:../../libraries/bno055/bno055.c ****   }
1071:../../libraries/bno055/bno055.c ****   else{
1072:../../libraries/bno055/bno055.c ****     /*condition check for page, chip id is
1073:../../libraries/bno055/bno055.c ****      * available in the page zero*/
1074:../../libraries/bno055/bno055.c ****     if (p_bno055->page_id != BNO055_PAGE_ZERO) {
 2680              		.loc 1 1074 17
 2681 002e 244B     		ldr	r3, .L159
 2682 0030 1B68     		ldr	r3, [r3]
 2683 0032 1B79     		ldrb	r3, [r3, #4]
 2684              		.loc 1 1074 8
 2685 0034 002B     		cmp	r3, #0
 2686 0036 06D0     		beq	.L154
1075:../../libraries/bno055/bno055.c ****       /* Write the page zero*/
1076:../../libraries/bno055/bno055.c ****       stat_s8 = bno055_write_page_id(BNO055_PAGE_ZERO);
 2687              		.loc 1 1076 17
 2688 0038 0E23     		movs	r3, #14
 2689 003a FC18     		adds	r4, r7, r3
 2690 003c 0020     		movs	r0, #0
 2691 003e FFF7FEFF 		bl	bno055_write_page_id
 2692 0042 0300     		movs	r3, r0
 2693 0044 2370     		strb	r3, [r4]
 2694              	.L154:
1077:../../libraries/bno055/bno055.c ****     }
1078:../../libraries/bno055/bno055.c ****     if ((stat_s8 == BNO055_SUCCESS) || (p_bno055->page_id == BNO055_PAGE_ZERO)) {
 2695              		.loc 1 1078 8
 2696 0046 0E23     		movs	r3, #14
 2697 0048 FB18     		adds	r3, r7, r3
 2698 004a 1B78     		ldrb	r3, [r3]
 2699 004c 5BB2     		sxtb	r3, r3
 2700 004e 002B     		cmp	r3, #0
ARM GAS  /tmp/cc84EIjL.s 			page 67


 2701 0050 04D0     		beq	.L155
 2702              		.loc 1 1078 49 discriminator 1
 2703 0052 1B4B     		ldr	r3, .L159
 2704 0054 1B68     		ldr	r3, [r3]
 2705 0056 1B79     		ldrb	r3, [r3, #4]
 2706              		.loc 1 1078 37 discriminator 1
 2707 0058 002B     		cmp	r3, #0
 2708 005a 24D1     		bne	.L156
 2709              	.L155:
1079:../../libraries/bno055/bno055.c ****       com_rslt = p_bno055->BNO055_BUS_READ_FUNC(p_bno055->dev_addr,
 2710              		.loc 1 1079 26
 2711 005c 184B     		ldr	r3, .L159
 2712 005e 1B68     		ldr	r3, [r3]
 2713 0060 1D69     		ldr	r5, [r3, #16]
 2714              		.loc 1 1079 28
 2715 0062 174B     		ldr	r3, .L159
 2716 0064 1B68     		ldr	r3, [r3]
 2717              		.loc 1 1079 18
 2718 0066 587A     		ldrb	r0, [r3, #9]
 2719 0068 0F23     		movs	r3, #15
 2720 006a FC18     		adds	r4, r7, r3
 2721 006c 0C26     		movs	r6, #12
 2722 006e BA19     		adds	r2, r7, r6
 2723 0070 0223     		movs	r3, #2
 2724 0072 1221     		movs	r1, #18
 2725 0074 A847     		blx	r5
 2726              	.LVL25:
 2727 0076 0300     		movs	r3, r0
 2728 0078 2370     		strb	r3, [r4]
1080:../../libraries/bno055/bno055.c ****                                                 BNO055_MAG_DATA_Z_LSB_VALUEZ_REG,
1081:../../libraries/bno055/bno055.c ****                                                 data_u8,
1082:../../libraries/bno055/bno055.c ****                                                 BNO055_LSB_MSB_READ_LENGTH);
1083:../../libraries/bno055/bno055.c **** 
1084:../../libraries/bno055/bno055.c ****       /*Read the mag z two bytes of data */
1085:../../libraries/bno055/bno055.c ****       data_u8[BNO055_SENSOR_DATA_LSB] = BNO055_GET_BITSLICE(data_u8[BNO055_SENSOR_DATA_LSB],
 2729              		.loc 1 1085 41
 2730 007a 3100     		movs	r1, r6
 2731 007c 7B18     		adds	r3, r7, r1
 2732 007e 1A78     		ldrb	r2, [r3]
 2733              		.loc 1 1085 39
 2734 0080 7B18     		adds	r3, r7, r1
 2735 0082 1A70     		strb	r2, [r3]
1086:../../libraries/bno055/bno055.c ****                                                             BNO055_MAG_DATA_Z_LSB_VALUEZ);
1087:../../libraries/bno055/bno055.c ****       data_u8[BNO055_SENSOR_DATA_MSB] = BNO055_GET_BITSLICE(data_u8[BNO055_SENSOR_DATA_MSB],
 2736              		.loc 1 1087 41
 2737 0084 7B18     		adds	r3, r7, r1
 2738 0086 5A78     		ldrb	r2, [r3, #1]
 2739              		.loc 1 1087 39
 2740 0088 7B18     		adds	r3, r7, r1
 2741 008a 5A70     		strb	r2, [r3, #1]
1088:../../libraries/bno055/bno055.c ****                                                             BNO055_MAG_DATA_Z_MSB_VALUEZ);
1089:../../libraries/bno055/bno055.c ****       *mag_z_s16 =
1090:../../libraries/bno055/bno055.c ****         (s16)((((s32)((s8)data_u8[BNO055_SENSOR_DATA_MSB])) << BNO055_SHIFT_EIGHT_BITS) |
 2742              		.loc 1 1090 34
 2743 008c 7B18     		adds	r3, r7, r1
 2744 008e 5B78     		ldrb	r3, [r3, #1]
 2745              		.loc 1 1090 23
ARM GAS  /tmp/cc84EIjL.s 			page 68


 2746 0090 5BB2     		sxtb	r3, r3
 2747              		.loc 1 1090 61
 2748 0092 1B02     		lsls	r3, r3, #8
 2749              		.loc 1 1090 9
 2750 0094 1AB2     		sxth	r2, r3
1091:../../libraries/bno055/bno055.c ****               (data_u8[BNO055_SENSOR_DATA_LSB]));
 2751              		.loc 1 1091 23
 2752 0096 7B18     		adds	r3, r7, r1
 2753 0098 1B78     		ldrb	r3, [r3]
 2754 009a 1BB2     		sxth	r3, r3
1090:../../libraries/bno055/bno055.c ****               (data_u8[BNO055_SENSOR_DATA_LSB]));
 2755              		.loc 1 1090 9
 2756 009c 1343     		orrs	r3, r2
 2757 009e 1AB2     		sxth	r2, r3
1089:../../libraries/bno055/bno055.c ****         (s16)((((s32)((s8)data_u8[BNO055_SENSOR_DATA_MSB])) << BNO055_SHIFT_EIGHT_BITS) |
 2758              		.loc 1 1089 18
 2759 00a0 7B68     		ldr	r3, [r7, #4]
 2760 00a2 1A80     		strh	r2, [r3]
 2761 00a4 03E0     		b	.L157
 2762              	.L156:
1092:../../libraries/bno055/bno055.c ****     }
1093:../../libraries/bno055/bno055.c ****     else{
1094:../../libraries/bno055/bno055.c ****       com_rslt = BNO055_ERROR;
 2763              		.loc 1 1094 16
 2764 00a6 0F23     		movs	r3, #15
 2765 00a8 FB18     		adds	r3, r7, r3
 2766 00aa FF22     		movs	r2, #255
 2767 00ac 1A70     		strb	r2, [r3]
 2768              	.L157:
1095:../../libraries/bno055/bno055.c ****     }
1096:../../libraries/bno055/bno055.c ****   }
1097:../../libraries/bno055/bno055.c **** 
1098:../../libraries/bno055/bno055.c ****   return com_rslt;
 2769              		.loc 1 1098 10
 2770 00ae 0F23     		movs	r3, #15
 2771 00b0 FB18     		adds	r3, r7, r3
 2772 00b2 1B78     		ldrb	r3, [r3]
 2773 00b4 5BB2     		sxtb	r3, r3
 2774              	.L158:
1099:../../libraries/bno055/bno055.c **** }
 2775              		.loc 1 1099 1 discriminator 1
 2776 00b6 1800     		movs	r0, r3
 2777 00b8 BD46     		mov	sp, r7
 2778 00ba 05B0     		add	sp, sp, #20
 2779              		@ sp needed
 2780 00bc F0BD     		pop	{r4, r5, r6, r7, pc}
 2781              	.L160:
 2782 00be C046     		.align	2
 2783              	.L159:
 2784 00c0 00000000 		.word	p_bno055
 2785              		.cfi_endproc
 2786              	.LFE17:
 2788              		.section	.text.bno055_read_mag_xyz,"ax",%progbits
 2789              		.align	1
 2790              		.global	bno055_read_mag_xyz
 2791              		.syntax unified
 2792              		.code	16
ARM GAS  /tmp/cc84EIjL.s 			page 69


 2793              		.thumb_func
 2794              		.fpu softvfp
 2796              	bno055_read_mag_xyz:
 2797              	.LFB18:
1100:../../libraries/bno055/bno055.c **** 
1101:../../libraries/bno055/bno055.c **** /*!
1102:../../libraries/bno055/bno055.c ****  *  @brief This API reads mag data xyz values
1103:../../libraries/bno055/bno055.c ****  *  from register 0x0E to 0x13 it is a six byte data
1104:../../libraries/bno055/bno055.c ****  *
1105:../../libraries/bno055/bno055.c ****  *
1106:../../libraries/bno055/bno055.c ****  *  @param mag : The mag xyz values
1107:../../libraries/bno055/bno055.c ****  *
1108:../../libraries/bno055/bno055.c ****  *  Parameter |    result
1109:../../libraries/bno055/bno055.c ****  *  --------- | -----------------
1110:../../libraries/bno055/bno055.c ****  *   x        | The mag x data
1111:../../libraries/bno055/bno055.c ****  *   y        | The mag y data
1112:../../libraries/bno055/bno055.c ****  *   z        | The mag z data
1113:../../libraries/bno055/bno055.c ****  *
1114:../../libraries/bno055/bno055.c ****  *
1115:../../libraries/bno055/bno055.c ****  *
1116:../../libraries/bno055/bno055.c ****  *  @return results of bus communication function
1117:../../libraries/bno055/bno055.c ****  *  @retval 0 -> BNO055_SUCCESS
1118:../../libraries/bno055/bno055.c ****  *  @retval 1 -> BNO055_ERROR
1119:../../libraries/bno055/bno055.c ****  *
1120:../../libraries/bno055/bno055.c ****  */
1121:../../libraries/bno055/bno055.c **** BNO055_RETURN_FUNCTION_TYPE bno055_read_mag_xyz(struct bno055_mag_t *mag)
1122:../../libraries/bno055/bno055.c **** {
 2798              		.loc 1 1122 1
 2799              		.cfi_startproc
 2800              		@ args = 0, pretend = 0, frame = 16
 2801              		@ frame_needed = 1, uses_anonymous_args = 0
 2802 0000 F0B5     		push	{r4, r5, r6, r7, lr}
 2803              		.cfi_def_cfa_offset 20
 2804              		.cfi_offset 4, -20
 2805              		.cfi_offset 5, -16
 2806              		.cfi_offset 6, -12
 2807              		.cfi_offset 7, -8
 2808              		.cfi_offset 14, -4
 2809 0002 85B0     		sub	sp, sp, #20
 2810              		.cfi_def_cfa_offset 40
 2811 0004 00AF     		add	r7, sp, #0
 2812              		.cfi_def_cfa_register 7
 2813 0006 7860     		str	r0, [r7, #4]
1123:../../libraries/bno055/bno055.c ****   /* Variable used to return value of
1124:../../libraries/bno055/bno055.c ****    * communication routine*/
1125:../../libraries/bno055/bno055.c ****   BNO055_RETURN_FUNCTION_TYPE com_rslt = BNO055_ERROR;
 2814              		.loc 1 1125 31
 2815 0008 0F23     		movs	r3, #15
 2816 000a FB18     		adds	r3, r7, r3
 2817 000c FF22     		movs	r2, #255
 2818 000e 1A70     		strb	r2, [r3]
1126:../../libraries/bno055/bno055.c **** 
1127:../../libraries/bno055/bno055.c ****   /* Array holding the mag xyz value
1128:../../libraries/bno055/bno055.c ****    * data_u8[BNO055_SENSOR_DATA_XYZ_X_LSB] - x->LSB
1129:../../libraries/bno055/bno055.c ****    * data_u8[BNO055_SENSOR_DATA_XYZ_X_MSB] - x->MSB
1130:../../libraries/bno055/bno055.c ****    * data_u8[BNO055_SENSOR_DATA_XYZ_Y_LSB] - y->MSB
1131:../../libraries/bno055/bno055.c ****    * data_u8[BNO055_SENSOR_DATA_XYZ_Y_MSB] - y->MSB
ARM GAS  /tmp/cc84EIjL.s 			page 70


1132:../../libraries/bno055/bno055.c ****    * data_u8[BNO055_SENSOR_DATA_XYZ_Z_LSB] - z->MSB
1133:../../libraries/bno055/bno055.c ****    * data_u8[BNO055_SENSOR_DATA_XYZ_Z_MSB] - z->MSB
1134:../../libraries/bno055/bno055.c ****    */
1135:../../libraries/bno055/bno055.c ****   u8 data_u8[BNO055_MAG_XYZ_DATA_SIZE] =
 2819              		.loc 1 1135 6
 2820 0010 0823     		movs	r3, #8
 2821 0012 FB18     		adds	r3, r7, r3
 2822 0014 3F4A     		ldr	r2, .L169
 2823 0016 1168     		ldr	r1, [r2]
 2824 0018 1960     		str	r1, [r3]
 2825 001a 9288     		ldrh	r2, [r2, #4]
 2826 001c 9A80     		strh	r2, [r3, #4]
1136:../../libraries/bno055/bno055.c ****   {
1137:../../libraries/bno055/bno055.c ****     BNO055_INIT_VALUE, BNO055_INIT_VALUE, BNO055_INIT_VALUE, BNO055_INIT_VALUE, BNO055_INIT_VALUE, 
1138:../../libraries/bno055/bno055.c ****   };
1139:../../libraries/bno055/bno055.c ****   s8 stat_s8 = BNO055_ERROR;
 2827              		.loc 1 1139 6
 2828 001e 0E23     		movs	r3, #14
 2829 0020 FB18     		adds	r3, r7, r3
 2830 0022 FF22     		movs	r2, #255
 2831 0024 1A70     		strb	r2, [r3]
1140:../../libraries/bno055/bno055.c **** 
1141:../../libraries/bno055/bno055.c ****   /* Check the struct p_bno055 is empty */
1142:../../libraries/bno055/bno055.c ****   if (p_bno055 == NULL) {
 2832              		.loc 1 1142 16
 2833 0026 3C4B     		ldr	r3, .L169+4
 2834 0028 1B68     		ldr	r3, [r3]
 2835              		.loc 1 1142 6
 2836 002a 002B     		cmp	r3, #0
 2837 002c 02D1     		bne	.L162
1143:../../libraries/bno055/bno055.c ****     return BNO055_E_NULL_PTR;
 2838              		.loc 1 1143 12
 2839 002e 7F23     		movs	r3, #127
 2840 0030 5B42     		rsbs	r3, r3, #0
 2841 0032 6BE0     		b	.L168
 2842              	.L162:
1144:../../libraries/bno055/bno055.c ****   }
1145:../../libraries/bno055/bno055.c ****   else{
1146:../../libraries/bno055/bno055.c ****     /*condition check for page, chip id is
1147:../../libraries/bno055/bno055.c ****      * available in the page zero*/
1148:../../libraries/bno055/bno055.c ****     if (p_bno055->page_id != BNO055_PAGE_ZERO) {
 2843              		.loc 1 1148 17
 2844 0034 384B     		ldr	r3, .L169+4
 2845 0036 1B68     		ldr	r3, [r3]
 2846 0038 1B79     		ldrb	r3, [r3, #4]
 2847              		.loc 1 1148 8
 2848 003a 002B     		cmp	r3, #0
 2849 003c 06D0     		beq	.L164
1149:../../libraries/bno055/bno055.c ****       /* Write the page zero*/
1150:../../libraries/bno055/bno055.c ****       stat_s8 = bno055_write_page_id(BNO055_PAGE_ZERO);
 2850              		.loc 1 1150 17
 2851 003e 0E23     		movs	r3, #14
 2852 0040 FC18     		adds	r4, r7, r3
 2853 0042 0020     		movs	r0, #0
 2854 0044 FFF7FEFF 		bl	bno055_write_page_id
 2855 0048 0300     		movs	r3, r0
 2856 004a 2370     		strb	r3, [r4]
ARM GAS  /tmp/cc84EIjL.s 			page 71


 2857              	.L164:
1151:../../libraries/bno055/bno055.c ****     }
1152:../../libraries/bno055/bno055.c ****     if ((stat_s8 == BNO055_SUCCESS) || (p_bno055->page_id == BNO055_PAGE_ZERO)) {
 2858              		.loc 1 1152 8
 2859 004c 0E23     		movs	r3, #14
 2860 004e FB18     		adds	r3, r7, r3
 2861 0050 1B78     		ldrb	r3, [r3]
 2862 0052 5BB2     		sxtb	r3, r3
 2863 0054 002B     		cmp	r3, #0
 2864 0056 04D0     		beq	.L165
 2865              		.loc 1 1152 49 discriminator 1
 2866 0058 2F4B     		ldr	r3, .L169+4
 2867 005a 1B68     		ldr	r3, [r3]
 2868 005c 1B79     		ldrb	r3, [r3, #4]
 2869              		.loc 1 1152 37 discriminator 1
 2870 005e 002B     		cmp	r3, #0
 2871 0060 4CD1     		bne	.L166
 2872              	.L165:
1153:../../libraries/bno055/bno055.c ****       /*Read the six byte value of mag xyz*/
1154:../../libraries/bno055/bno055.c ****       com_rslt = p_bno055->BNO055_BUS_READ_FUNC(p_bno055->dev_addr,
 2873              		.loc 1 1154 26
 2874 0062 2D4B     		ldr	r3, .L169+4
 2875 0064 1B68     		ldr	r3, [r3]
 2876 0066 1D69     		ldr	r5, [r3, #16]
 2877              		.loc 1 1154 28
 2878 0068 2B4B     		ldr	r3, .L169+4
 2879 006a 1B68     		ldr	r3, [r3]
 2880              		.loc 1 1154 18
 2881 006c 587A     		ldrb	r0, [r3, #9]
 2882 006e 0F23     		movs	r3, #15
 2883 0070 FC18     		adds	r4, r7, r3
 2884 0072 0826     		movs	r6, #8
 2885 0074 BA19     		adds	r2, r7, r6
 2886 0076 0623     		movs	r3, #6
 2887 0078 0E21     		movs	r1, #14
 2888 007a A847     		blx	r5
 2889              	.LVL26:
 2890 007c 0300     		movs	r3, r0
 2891 007e 2370     		strb	r3, [r4]
1155:../../libraries/bno055/bno055.c ****                                                 BNO055_MAG_DATA_X_LSB_VALUEX_REG,
1156:../../libraries/bno055/bno055.c ****                                                 data_u8,
1157:../../libraries/bno055/bno055.c ****                                                 BNO055_MAG_XYZ_DATA_SIZE);
1158:../../libraries/bno055/bno055.c **** 
1159:../../libraries/bno055/bno055.c ****       /* Data X*/
1160:../../libraries/bno055/bno055.c ****       data_u8[BNO055_SENSOR_DATA_XYZ_X_LSB] = BNO055_GET_BITSLICE(data_u8[BNO055_SENSOR_DATA_XYZ_X_
 2892              		.loc 1 1160 47
 2893 0080 3100     		movs	r1, r6
 2894 0082 7B18     		adds	r3, r7, r1
 2895 0084 1A78     		ldrb	r2, [r3]
 2896              		.loc 1 1160 45
 2897 0086 7B18     		adds	r3, r7, r1
 2898 0088 1A70     		strb	r2, [r3]
1161:../../libraries/bno055/bno055.c ****                                                                   BNO055_MAG_DATA_X_LSB_VALUEX);
1162:../../libraries/bno055/bno055.c ****       data_u8[BNO055_SENSOR_DATA_XYZ_X_MSB] = BNO055_GET_BITSLICE(data_u8[BNO055_SENSOR_DATA_XYZ_X_
 2899              		.loc 1 1162 47
 2900 008a 7B18     		adds	r3, r7, r1
 2901 008c 5A78     		ldrb	r2, [r3, #1]
ARM GAS  /tmp/cc84EIjL.s 			page 72


 2902              		.loc 1 1162 45
 2903 008e 7B18     		adds	r3, r7, r1
 2904 0090 5A70     		strb	r2, [r3, #1]
1163:../../libraries/bno055/bno055.c ****                                                                   BNO055_MAG_DATA_X_MSB_VALUEX);
1164:../../libraries/bno055/bno055.c ****       mag->x =
1165:../../libraries/bno055/bno055.c ****         (s16)((((s32)((s8)data_u8[BNO055_SENSOR_DATA_XYZ_X_MSB])) << BNO055_SHIFT_EIGHT_BITS) |
 2905              		.loc 1 1165 34
 2906 0092 7B18     		adds	r3, r7, r1
 2907 0094 5B78     		ldrb	r3, [r3, #1]
 2908              		.loc 1 1165 23
 2909 0096 5BB2     		sxtb	r3, r3
 2910              		.loc 1 1165 67
 2911 0098 1B02     		lsls	r3, r3, #8
 2912              		.loc 1 1165 9
 2913 009a 1AB2     		sxth	r2, r3
1166:../../libraries/bno055/bno055.c ****               (data_u8[BNO055_SENSOR_DATA_XYZ_X_LSB]));
 2914              		.loc 1 1166 23
 2915 009c 7B18     		adds	r3, r7, r1
 2916 009e 1B78     		ldrb	r3, [r3]
 2917 00a0 1BB2     		sxth	r3, r3
1165:../../libraries/bno055/bno055.c ****               (data_u8[BNO055_SENSOR_DATA_XYZ_X_LSB]));
 2918              		.loc 1 1165 9
 2919 00a2 1343     		orrs	r3, r2
 2920 00a4 1AB2     		sxth	r2, r3
1164:../../libraries/bno055/bno055.c ****         (s16)((((s32)((s8)data_u8[BNO055_SENSOR_DATA_XYZ_X_MSB])) << BNO055_SHIFT_EIGHT_BITS) |
 2921              		.loc 1 1164 14
 2922 00a6 7B68     		ldr	r3, [r7, #4]
 2923 00a8 1A80     		strh	r2, [r3]
1167:../../libraries/bno055/bno055.c **** 
1168:../../libraries/bno055/bno055.c ****       /* Data Y*/
1169:../../libraries/bno055/bno055.c ****       data_u8[BNO055_SENSOR_DATA_XYZ_Y_LSB] = BNO055_GET_BITSLICE(data_u8[BNO055_SENSOR_DATA_XYZ_Y_
 2924              		.loc 1 1169 47
 2925 00aa 7B18     		adds	r3, r7, r1
 2926 00ac 9A78     		ldrb	r2, [r3, #2]
 2927              		.loc 1 1169 45
 2928 00ae 7B18     		adds	r3, r7, r1
 2929 00b0 9A70     		strb	r2, [r3, #2]
1170:../../libraries/bno055/bno055.c ****                                                                   BNO055_MAG_DATA_Y_LSB_VALUEY);
1171:../../libraries/bno055/bno055.c ****       data_u8[BNO055_SENSOR_DATA_XYZ_Y_MSB] = BNO055_GET_BITSLICE(data_u8[BNO055_SENSOR_DATA_XYZ_Y_
 2930              		.loc 1 1171 47
 2931 00b2 7B18     		adds	r3, r7, r1
 2932 00b4 DA78     		ldrb	r2, [r3, #3]
 2933              		.loc 1 1171 45
 2934 00b6 7B18     		adds	r3, r7, r1
 2935 00b8 DA70     		strb	r2, [r3, #3]
1172:../../libraries/bno055/bno055.c ****                                                                   BNO055_MAG_DATA_Y_MSB_VALUEY);
1173:../../libraries/bno055/bno055.c ****       mag->y =
1174:../../libraries/bno055/bno055.c ****         (s16)((((s32)((s8)data_u8[BNO055_SENSOR_DATA_XYZ_Y_MSB])) << BNO055_SHIFT_EIGHT_BITS) |
 2936              		.loc 1 1174 34
 2937 00ba 7B18     		adds	r3, r7, r1
 2938 00bc DB78     		ldrb	r3, [r3, #3]
 2939              		.loc 1 1174 23
 2940 00be 5BB2     		sxtb	r3, r3
 2941              		.loc 1 1174 67
 2942 00c0 1B02     		lsls	r3, r3, #8
 2943              		.loc 1 1174 9
 2944 00c2 1AB2     		sxth	r2, r3
ARM GAS  /tmp/cc84EIjL.s 			page 73


1175:../../libraries/bno055/bno055.c ****               (data_u8[BNO055_SENSOR_DATA_XYZ_Y_LSB]));
 2945              		.loc 1 1175 23
 2946 00c4 7B18     		adds	r3, r7, r1
 2947 00c6 9B78     		ldrb	r3, [r3, #2]
 2948 00c8 1BB2     		sxth	r3, r3
1174:../../libraries/bno055/bno055.c ****               (data_u8[BNO055_SENSOR_DATA_XYZ_Y_LSB]));
 2949              		.loc 1 1174 9
 2950 00ca 1343     		orrs	r3, r2
 2951 00cc 1AB2     		sxth	r2, r3
1173:../../libraries/bno055/bno055.c ****         (s16)((((s32)((s8)data_u8[BNO055_SENSOR_DATA_XYZ_Y_MSB])) << BNO055_SHIFT_EIGHT_BITS) |
 2952              		.loc 1 1173 14
 2953 00ce 7B68     		ldr	r3, [r7, #4]
 2954 00d0 5A80     		strh	r2, [r3, #2]
1176:../../libraries/bno055/bno055.c **** 
1177:../../libraries/bno055/bno055.c ****       /* Data Z*/
1178:../../libraries/bno055/bno055.c ****       data_u8[BNO055_SENSOR_DATA_XYZ_Z_LSB] = BNO055_GET_BITSLICE(data_u8[BNO055_SENSOR_DATA_XYZ_Z_
 2955              		.loc 1 1178 47
 2956 00d2 7B18     		adds	r3, r7, r1
 2957 00d4 1A79     		ldrb	r2, [r3, #4]
 2958              		.loc 1 1178 45
 2959 00d6 7B18     		adds	r3, r7, r1
 2960 00d8 1A71     		strb	r2, [r3, #4]
1179:../../libraries/bno055/bno055.c ****                                                                   BNO055_MAG_DATA_Z_LSB_VALUEZ);
1180:../../libraries/bno055/bno055.c ****       data_u8[BNO055_SENSOR_DATA_XYZ_Z_MSB] = BNO055_GET_BITSLICE(data_u8[BNO055_SENSOR_DATA_XYZ_Z_
 2961              		.loc 1 1180 47
 2962 00da 7B18     		adds	r3, r7, r1
 2963 00dc 5A79     		ldrb	r2, [r3, #5]
 2964              		.loc 1 1180 45
 2965 00de 7B18     		adds	r3, r7, r1
 2966 00e0 5A71     		strb	r2, [r3, #5]
1181:../../libraries/bno055/bno055.c ****                                                                   BNO055_MAG_DATA_Z_MSB_VALUEZ);
1182:../../libraries/bno055/bno055.c ****       mag->z =
1183:../../libraries/bno055/bno055.c ****         (s16)((((s32)((s8)data_u8[BNO055_SENSOR_DATA_XYZ_Z_MSB])) << BNO055_SHIFT_EIGHT_BITS) |
 2967              		.loc 1 1183 34
 2968 00e2 7B18     		adds	r3, r7, r1
 2969 00e4 5B79     		ldrb	r3, [r3, #5]
 2970              		.loc 1 1183 23
 2971 00e6 5BB2     		sxtb	r3, r3
 2972              		.loc 1 1183 67
 2973 00e8 1B02     		lsls	r3, r3, #8
 2974              		.loc 1 1183 9
 2975 00ea 1AB2     		sxth	r2, r3
1184:../../libraries/bno055/bno055.c ****               (data_u8[BNO055_SENSOR_DATA_XYZ_Z_LSB]));
 2976              		.loc 1 1184 23
 2977 00ec 7B18     		adds	r3, r7, r1
 2978 00ee 1B79     		ldrb	r3, [r3, #4]
 2979 00f0 1BB2     		sxth	r3, r3
1183:../../libraries/bno055/bno055.c ****               (data_u8[BNO055_SENSOR_DATA_XYZ_Z_LSB]));
 2980              		.loc 1 1183 9
 2981 00f2 1343     		orrs	r3, r2
 2982 00f4 1AB2     		sxth	r2, r3
1182:../../libraries/bno055/bno055.c ****         (s16)((((s32)((s8)data_u8[BNO055_SENSOR_DATA_XYZ_Z_MSB])) << BNO055_SHIFT_EIGHT_BITS) |
 2983              		.loc 1 1182 14
 2984 00f6 7B68     		ldr	r3, [r7, #4]
 2985 00f8 9A80     		strh	r2, [r3, #4]
 2986 00fa 03E0     		b	.L167
 2987              	.L166:
ARM GAS  /tmp/cc84EIjL.s 			page 74


1185:../../libraries/bno055/bno055.c ****     }
1186:../../libraries/bno055/bno055.c ****     else{
1187:../../libraries/bno055/bno055.c ****       com_rslt = BNO055_ERROR;
 2988              		.loc 1 1187 16
 2989 00fc 0F23     		movs	r3, #15
 2990 00fe FB18     		adds	r3, r7, r3
 2991 0100 FF22     		movs	r2, #255
 2992 0102 1A70     		strb	r2, [r3]
 2993              	.L167:
1188:../../libraries/bno055/bno055.c ****     }
1189:../../libraries/bno055/bno055.c ****   }
1190:../../libraries/bno055/bno055.c **** 
1191:../../libraries/bno055/bno055.c ****   return com_rslt;
 2994              		.loc 1 1191 10
 2995 0104 0F23     		movs	r3, #15
 2996 0106 FB18     		adds	r3, r7, r3
 2997 0108 1B78     		ldrb	r3, [r3]
 2998 010a 5BB2     		sxtb	r3, r3
 2999              	.L168:
1192:../../libraries/bno055/bno055.c **** }
 3000              		.loc 1 1192 1 discriminator 1
 3001 010c 1800     		movs	r0, r3
 3002 010e BD46     		mov	sp, r7
 3003 0110 05B0     		add	sp, sp, #20
 3004              		@ sp needed
 3005 0112 F0BD     		pop	{r4, r5, r6, r7, pc}
 3006              	.L170:
 3007              		.align	2
 3008              	.L169:
 3009 0114 00000000 		.word	.LC14
 3010 0118 00000000 		.word	p_bno055
 3011              		.cfi_endproc
 3012              	.LFE18:
 3014              		.section	.text.bno055_read_gyro_x,"ax",%progbits
 3015              		.align	1
 3016              		.global	bno055_read_gyro_x
 3017              		.syntax unified
 3018              		.code	16
 3019              		.thumb_func
 3020              		.fpu softvfp
 3022              	bno055_read_gyro_x:
 3023              	.LFB19:
1193:../../libraries/bno055/bno055.c **** 
1194:../../libraries/bno055/bno055.c **** /*!
1195:../../libraries/bno055/bno055.c ****  *  @brief This API reads gyro data x values
1196:../../libraries/bno055/bno055.c ****  *  from register 0x14 and 0x15 it is a two byte data
1197:../../libraries/bno055/bno055.c ****  *
1198:../../libraries/bno055/bno055.c ****  *
1199:../../libraries/bno055/bno055.c ****  *
1200:../../libraries/bno055/bno055.c ****  *
1201:../../libraries/bno055/bno055.c ****  *  @param gyro_x_s16 : The x raw data
1202:../../libraries/bno055/bno055.c ****  *
1203:../../libraries/bno055/bno055.c ****  *
1204:../../libraries/bno055/bno055.c ****  *
1205:../../libraries/bno055/bno055.c ****  *  @return results of bus communication function
1206:../../libraries/bno055/bno055.c ****  *  @retval 0 -> BNO055_SUCCESS
1207:../../libraries/bno055/bno055.c ****  *  @retval 1 -> BNO055_ERROR
ARM GAS  /tmp/cc84EIjL.s 			page 75


1208:../../libraries/bno055/bno055.c ****  *
1209:../../libraries/bno055/bno055.c ****  *
1210:../../libraries/bno055/bno055.c ****  */
1211:../../libraries/bno055/bno055.c **** BNO055_RETURN_FUNCTION_TYPE bno055_read_gyro_x(s16 *gyro_x_s16)
1212:../../libraries/bno055/bno055.c **** {
 3024              		.loc 1 1212 1
 3025              		.cfi_startproc
 3026              		@ args = 0, pretend = 0, frame = 16
 3027              		@ frame_needed = 1, uses_anonymous_args = 0
 3028 0000 F0B5     		push	{r4, r5, r6, r7, lr}
 3029              		.cfi_def_cfa_offset 20
 3030              		.cfi_offset 4, -20
 3031              		.cfi_offset 5, -16
 3032              		.cfi_offset 6, -12
 3033              		.cfi_offset 7, -8
 3034              		.cfi_offset 14, -4
 3035 0002 85B0     		sub	sp, sp, #20
 3036              		.cfi_def_cfa_offset 40
 3037 0004 00AF     		add	r7, sp, #0
 3038              		.cfi_def_cfa_register 7
 3039 0006 7860     		str	r0, [r7, #4]
1213:../../libraries/bno055/bno055.c ****   /* Variable used to return value of
1214:../../libraries/bno055/bno055.c ****    * communication routine*/
1215:../../libraries/bno055/bno055.c ****   BNO055_RETURN_FUNCTION_TYPE com_rslt = BNO055_ERROR;
 3040              		.loc 1 1215 31
 3041 0008 0F23     		movs	r3, #15
 3042 000a FB18     		adds	r3, r7, r3
 3043 000c FF22     		movs	r2, #255
 3044 000e 1A70     		strb	r2, [r3]
1216:../../libraries/bno055/bno055.c ****   u8 data_u8[BNO055_GYRO_DATA_SIZE] = { BNO055_INIT_VALUE, BNO055_INIT_VALUE };
 3045              		.loc 1 1216 6
 3046 0010 0C23     		movs	r3, #12
 3047 0012 FB18     		adds	r3, r7, r3
 3048 0014 0022     		movs	r2, #0
 3049 0016 1A80     		strh	r2, [r3]
1217:../../libraries/bno055/bno055.c ****   s8 stat_s8 = BNO055_ERROR;
 3050              		.loc 1 1217 6
 3051 0018 0E23     		movs	r3, #14
 3052 001a FB18     		adds	r3, r7, r3
 3053 001c FF22     		movs	r2, #255
 3054 001e 1A70     		strb	r2, [r3]
1218:../../libraries/bno055/bno055.c **** 
1219:../../libraries/bno055/bno055.c ****   /* Check the struct p_bno055 is empty */
1220:../../libraries/bno055/bno055.c ****   if (p_bno055 == NULL) {
 3055              		.loc 1 1220 16
 3056 0020 274B     		ldr	r3, .L179
 3057 0022 1B68     		ldr	r3, [r3]
 3058              		.loc 1 1220 6
 3059 0024 002B     		cmp	r3, #0
 3060 0026 02D1     		bne	.L172
1221:../../libraries/bno055/bno055.c ****     return BNO055_E_NULL_PTR;
 3061              		.loc 1 1221 12
 3062 0028 7F23     		movs	r3, #127
 3063 002a 5B42     		rsbs	r3, r3, #0
 3064 002c 43E0     		b	.L178
 3065              	.L172:
1222:../../libraries/bno055/bno055.c ****   }
ARM GAS  /tmp/cc84EIjL.s 			page 76


1223:../../libraries/bno055/bno055.c ****   else{
1224:../../libraries/bno055/bno055.c ****     /*condition check for page, chip id is
1225:../../libraries/bno055/bno055.c ****      * available in the page zero*/
1226:../../libraries/bno055/bno055.c ****     if (p_bno055->page_id != BNO055_PAGE_ZERO) {
 3066              		.loc 1 1226 17
 3067 002e 244B     		ldr	r3, .L179
 3068 0030 1B68     		ldr	r3, [r3]
 3069 0032 1B79     		ldrb	r3, [r3, #4]
 3070              		.loc 1 1226 8
 3071 0034 002B     		cmp	r3, #0
 3072 0036 06D0     		beq	.L174
1227:../../libraries/bno055/bno055.c ****       /* Write the page zero*/
1228:../../libraries/bno055/bno055.c ****       stat_s8 = bno055_write_page_id(BNO055_PAGE_ZERO);
 3073              		.loc 1 1228 17
 3074 0038 0E23     		movs	r3, #14
 3075 003a FC18     		adds	r4, r7, r3
 3076 003c 0020     		movs	r0, #0
 3077 003e FFF7FEFF 		bl	bno055_write_page_id
 3078 0042 0300     		movs	r3, r0
 3079 0044 2370     		strb	r3, [r4]
 3080              	.L174:
1229:../../libraries/bno055/bno055.c ****     }
1230:../../libraries/bno055/bno055.c ****     if ((stat_s8 == BNO055_SUCCESS) || (p_bno055->page_id == BNO055_PAGE_ZERO)) {
 3081              		.loc 1 1230 8
 3082 0046 0E23     		movs	r3, #14
 3083 0048 FB18     		adds	r3, r7, r3
 3084 004a 1B78     		ldrb	r3, [r3]
 3085 004c 5BB2     		sxtb	r3, r3
 3086 004e 002B     		cmp	r3, #0
 3087 0050 04D0     		beq	.L175
 3088              		.loc 1 1230 49 discriminator 1
 3089 0052 1B4B     		ldr	r3, .L179
 3090 0054 1B68     		ldr	r3, [r3]
 3091 0056 1B79     		ldrb	r3, [r3, #4]
 3092              		.loc 1 1230 37 discriminator 1
 3093 0058 002B     		cmp	r3, #0
 3094 005a 24D1     		bne	.L176
 3095              	.L175:
1231:../../libraries/bno055/bno055.c ****       /* Read the gyro 16 bit x value*/
1232:../../libraries/bno055/bno055.c ****       com_rslt = p_bno055->BNO055_BUS_READ_FUNC(p_bno055->dev_addr,
 3096              		.loc 1 1232 26
 3097 005c 184B     		ldr	r3, .L179
 3098 005e 1B68     		ldr	r3, [r3]
 3099 0060 1D69     		ldr	r5, [r3, #16]
 3100              		.loc 1 1232 28
 3101 0062 174B     		ldr	r3, .L179
 3102 0064 1B68     		ldr	r3, [r3]
 3103              		.loc 1 1232 18
 3104 0066 587A     		ldrb	r0, [r3, #9]
 3105 0068 0F23     		movs	r3, #15
 3106 006a FC18     		adds	r4, r7, r3
 3107 006c 0C26     		movs	r6, #12
 3108 006e BA19     		adds	r2, r7, r6
 3109 0070 0223     		movs	r3, #2
 3110 0072 1421     		movs	r1, #20
 3111 0074 A847     		blx	r5
 3112              	.LVL27:
ARM GAS  /tmp/cc84EIjL.s 			page 77


 3113 0076 0300     		movs	r3, r0
 3114 0078 2370     		strb	r3, [r4]
1233:../../libraries/bno055/bno055.c ****                                                 BNO055_GYRO_DATA_X_LSB_VALUEX_REG,
1234:../../libraries/bno055/bno055.c ****                                                 data_u8,
1235:../../libraries/bno055/bno055.c ****                                                 BNO055_LSB_MSB_READ_LENGTH);
1236:../../libraries/bno055/bno055.c ****       data_u8[BNO055_SENSOR_DATA_LSB] = BNO055_GET_BITSLICE(data_u8[BNO055_SENSOR_DATA_LSB],
 3115              		.loc 1 1236 41
 3116 007a 3100     		movs	r1, r6
 3117 007c 7B18     		adds	r3, r7, r1
 3118 007e 1A78     		ldrb	r2, [r3]
 3119              		.loc 1 1236 39
 3120 0080 7B18     		adds	r3, r7, r1
 3121 0082 1A70     		strb	r2, [r3]
1237:../../libraries/bno055/bno055.c ****                                                             BNO055_GYRO_DATA_X_LSB_VALUEX);
1238:../../libraries/bno055/bno055.c ****       data_u8[BNO055_SENSOR_DATA_MSB] = BNO055_GET_BITSLICE(data_u8[BNO055_SENSOR_DATA_MSB],
 3122              		.loc 1 1238 41
 3123 0084 7B18     		adds	r3, r7, r1
 3124 0086 5A78     		ldrb	r2, [r3, #1]
 3125              		.loc 1 1238 39
 3126 0088 7B18     		adds	r3, r7, r1
 3127 008a 5A70     		strb	r2, [r3, #1]
1239:../../libraries/bno055/bno055.c ****                                                             BNO055_GYRO_DATA_X_MSB_VALUEX);
1240:../../libraries/bno055/bno055.c ****       *gyro_x_s16 =
1241:../../libraries/bno055/bno055.c ****         (s16)((((s32)((s8)data_u8[BNO055_SENSOR_DATA_MSB])) << BNO055_SHIFT_EIGHT_BITS) |
 3128              		.loc 1 1241 34
 3129 008c 7B18     		adds	r3, r7, r1
 3130 008e 5B78     		ldrb	r3, [r3, #1]
 3131              		.loc 1 1241 23
 3132 0090 5BB2     		sxtb	r3, r3
 3133              		.loc 1 1241 61
 3134 0092 1B02     		lsls	r3, r3, #8
 3135              		.loc 1 1241 9
 3136 0094 1AB2     		sxth	r2, r3
1242:../../libraries/bno055/bno055.c ****               (data_u8[BNO055_SENSOR_DATA_LSB]));
 3137              		.loc 1 1242 23
 3138 0096 7B18     		adds	r3, r7, r1
 3139 0098 1B78     		ldrb	r3, [r3]
 3140 009a 1BB2     		sxth	r3, r3
1241:../../libraries/bno055/bno055.c ****               (data_u8[BNO055_SENSOR_DATA_LSB]));
 3141              		.loc 1 1241 9
 3142 009c 1343     		orrs	r3, r2
 3143 009e 1AB2     		sxth	r2, r3
1240:../../libraries/bno055/bno055.c ****         (s16)((((s32)((s8)data_u8[BNO055_SENSOR_DATA_MSB])) << BNO055_SHIFT_EIGHT_BITS) |
 3144              		.loc 1 1240 19
 3145 00a0 7B68     		ldr	r3, [r7, #4]
 3146 00a2 1A80     		strh	r2, [r3]
 3147 00a4 03E0     		b	.L177
 3148              	.L176:
1243:../../libraries/bno055/bno055.c ****     }
1244:../../libraries/bno055/bno055.c ****     else{
1245:../../libraries/bno055/bno055.c ****       com_rslt = BNO055_ERROR;
 3149              		.loc 1 1245 16
 3150 00a6 0F23     		movs	r3, #15
 3151 00a8 FB18     		adds	r3, r7, r3
 3152 00aa FF22     		movs	r2, #255
 3153 00ac 1A70     		strb	r2, [r3]
 3154              	.L177:
ARM GAS  /tmp/cc84EIjL.s 			page 78


1246:../../libraries/bno055/bno055.c ****     }
1247:../../libraries/bno055/bno055.c ****   }
1248:../../libraries/bno055/bno055.c **** 
1249:../../libraries/bno055/bno055.c ****   return com_rslt;
 3155              		.loc 1 1249 10
 3156 00ae 0F23     		movs	r3, #15
 3157 00b0 FB18     		adds	r3, r7, r3
 3158 00b2 1B78     		ldrb	r3, [r3]
 3159 00b4 5BB2     		sxtb	r3, r3
 3160              	.L178:
1250:../../libraries/bno055/bno055.c **** }
 3161              		.loc 1 1250 1 discriminator 1
 3162 00b6 1800     		movs	r0, r3
 3163 00b8 BD46     		mov	sp, r7
 3164 00ba 05B0     		add	sp, sp, #20
 3165              		@ sp needed
 3166 00bc F0BD     		pop	{r4, r5, r6, r7, pc}
 3167              	.L180:
 3168 00be C046     		.align	2
 3169              	.L179:
 3170 00c0 00000000 		.word	p_bno055
 3171              		.cfi_endproc
 3172              	.LFE19:
 3174              		.section	.text.bno055_read_gyro_y,"ax",%progbits
 3175              		.align	1
 3176              		.global	bno055_read_gyro_y
 3177              		.syntax unified
 3178              		.code	16
 3179              		.thumb_func
 3180              		.fpu softvfp
 3182              	bno055_read_gyro_y:
 3183              	.LFB20:
1251:../../libraries/bno055/bno055.c **** 
1252:../../libraries/bno055/bno055.c **** /*!
1253:../../libraries/bno055/bno055.c ****  *  @brief This API reads gyro data y values
1254:../../libraries/bno055/bno055.c ****  *  from register 0x16 and 0x17 it is a two byte data
1255:../../libraries/bno055/bno055.c ****  *
1256:../../libraries/bno055/bno055.c ****  *
1257:../../libraries/bno055/bno055.c ****  *
1258:../../libraries/bno055/bno055.c ****  *
1259:../../libraries/bno055/bno055.c ****  *  @param gyro_y_s16 : The y raw data
1260:../../libraries/bno055/bno055.c ****  *
1261:../../libraries/bno055/bno055.c ****  *
1262:../../libraries/bno055/bno055.c ****  *
1263:../../libraries/bno055/bno055.c ****  *  @return results of bus communication function
1264:../../libraries/bno055/bno055.c ****  *  @retval 0 -> BNO055_SUCCESS
1265:../../libraries/bno055/bno055.c ****  *  @retval 1 -> BNO055_ERROR
1266:../../libraries/bno055/bno055.c ****  *
1267:../../libraries/bno055/bno055.c ****  *
1268:../../libraries/bno055/bno055.c ****  */
1269:../../libraries/bno055/bno055.c **** BNO055_RETURN_FUNCTION_TYPE bno055_read_gyro_y(s16 *gyro_y_s16)
1270:../../libraries/bno055/bno055.c **** {
 3184              		.loc 1 1270 1
 3185              		.cfi_startproc
 3186              		@ args = 0, pretend = 0, frame = 16
 3187              		@ frame_needed = 1, uses_anonymous_args = 0
 3188 0000 F0B5     		push	{r4, r5, r6, r7, lr}
ARM GAS  /tmp/cc84EIjL.s 			page 79


 3189              		.cfi_def_cfa_offset 20
 3190              		.cfi_offset 4, -20
 3191              		.cfi_offset 5, -16
 3192              		.cfi_offset 6, -12
 3193              		.cfi_offset 7, -8
 3194              		.cfi_offset 14, -4
 3195 0002 85B0     		sub	sp, sp, #20
 3196              		.cfi_def_cfa_offset 40
 3197 0004 00AF     		add	r7, sp, #0
 3198              		.cfi_def_cfa_register 7
 3199 0006 7860     		str	r0, [r7, #4]
1271:../../libraries/bno055/bno055.c ****   /* Variable used to return value of
1272:../../libraries/bno055/bno055.c ****    * communication routine*/
1273:../../libraries/bno055/bno055.c ****   BNO055_RETURN_FUNCTION_TYPE com_rslt = BNO055_ERROR;
 3200              		.loc 1 1273 31
 3201 0008 0F23     		movs	r3, #15
 3202 000a FB18     		adds	r3, r7, r3
 3203 000c FF22     		movs	r2, #255
 3204 000e 1A70     		strb	r2, [r3]
1274:../../libraries/bno055/bno055.c ****   u8 data_u8[BNO055_GYRO_DATA_SIZE] = { BNO055_INIT_VALUE, BNO055_INIT_VALUE };
 3205              		.loc 1 1274 6
 3206 0010 0C23     		movs	r3, #12
 3207 0012 FB18     		adds	r3, r7, r3
 3208 0014 0022     		movs	r2, #0
 3209 0016 1A80     		strh	r2, [r3]
1275:../../libraries/bno055/bno055.c ****   s8 stat_s8 = BNO055_ERROR;
 3210              		.loc 1 1275 6
 3211 0018 0E23     		movs	r3, #14
 3212 001a FB18     		adds	r3, r7, r3
 3213 001c FF22     		movs	r2, #255
 3214 001e 1A70     		strb	r2, [r3]
1276:../../libraries/bno055/bno055.c **** 
1277:../../libraries/bno055/bno055.c ****   /* Check the struct p_bno055 is empty */
1278:../../libraries/bno055/bno055.c ****   if (p_bno055 == NULL) {
 3215              		.loc 1 1278 16
 3216 0020 274B     		ldr	r3, .L189
 3217 0022 1B68     		ldr	r3, [r3]
 3218              		.loc 1 1278 6
 3219 0024 002B     		cmp	r3, #0
 3220 0026 02D1     		bne	.L182
1279:../../libraries/bno055/bno055.c ****     return BNO055_E_NULL_PTR;
 3221              		.loc 1 1279 12
 3222 0028 7F23     		movs	r3, #127
 3223 002a 5B42     		rsbs	r3, r3, #0
 3224 002c 43E0     		b	.L188
 3225              	.L182:
1280:../../libraries/bno055/bno055.c ****   }
1281:../../libraries/bno055/bno055.c ****   else{
1282:../../libraries/bno055/bno055.c ****     /*condition check for page, chip id is
1283:../../libraries/bno055/bno055.c ****      * available in the page zero*/
1284:../../libraries/bno055/bno055.c ****     if (p_bno055->page_id != BNO055_PAGE_ZERO) {
 3226              		.loc 1 1284 17
 3227 002e 244B     		ldr	r3, .L189
 3228 0030 1B68     		ldr	r3, [r3]
 3229 0032 1B79     		ldrb	r3, [r3, #4]
 3230              		.loc 1 1284 8
 3231 0034 002B     		cmp	r3, #0
ARM GAS  /tmp/cc84EIjL.s 			page 80


 3232 0036 06D0     		beq	.L184
1285:../../libraries/bno055/bno055.c ****       /* Write the page zero*/
1286:../../libraries/bno055/bno055.c ****       stat_s8 = bno055_write_page_id(BNO055_PAGE_ZERO);
 3233              		.loc 1 1286 17
 3234 0038 0E23     		movs	r3, #14
 3235 003a FC18     		adds	r4, r7, r3
 3236 003c 0020     		movs	r0, #0
 3237 003e FFF7FEFF 		bl	bno055_write_page_id
 3238 0042 0300     		movs	r3, r0
 3239 0044 2370     		strb	r3, [r4]
 3240              	.L184:
1287:../../libraries/bno055/bno055.c ****     }
1288:../../libraries/bno055/bno055.c ****     if ((stat_s8 == BNO055_SUCCESS) || (p_bno055->page_id == BNO055_PAGE_ZERO)) {
 3241              		.loc 1 1288 8
 3242 0046 0E23     		movs	r3, #14
 3243 0048 FB18     		adds	r3, r7, r3
 3244 004a 1B78     		ldrb	r3, [r3]
 3245 004c 5BB2     		sxtb	r3, r3
 3246 004e 002B     		cmp	r3, #0
 3247 0050 04D0     		beq	.L185
 3248              		.loc 1 1288 49 discriminator 1
 3249 0052 1B4B     		ldr	r3, .L189
 3250 0054 1B68     		ldr	r3, [r3]
 3251 0056 1B79     		ldrb	r3, [r3, #4]
 3252              		.loc 1 1288 37 discriminator 1
 3253 0058 002B     		cmp	r3, #0
 3254 005a 24D1     		bne	.L186
 3255              	.L185:
1289:../../libraries/bno055/bno055.c ****       /* Read the value of gyro y */
1290:../../libraries/bno055/bno055.c ****       com_rslt = p_bno055->BNO055_BUS_READ_FUNC(p_bno055->dev_addr,
 3256              		.loc 1 1290 26
 3257 005c 184B     		ldr	r3, .L189
 3258 005e 1B68     		ldr	r3, [r3]
 3259 0060 1D69     		ldr	r5, [r3, #16]
 3260              		.loc 1 1290 28
 3261 0062 174B     		ldr	r3, .L189
 3262 0064 1B68     		ldr	r3, [r3]
 3263              		.loc 1 1290 18
 3264 0066 587A     		ldrb	r0, [r3, #9]
 3265 0068 0F23     		movs	r3, #15
 3266 006a FC18     		adds	r4, r7, r3
 3267 006c 0C26     		movs	r6, #12
 3268 006e BA19     		adds	r2, r7, r6
 3269 0070 0223     		movs	r3, #2
 3270 0072 1621     		movs	r1, #22
 3271 0074 A847     		blx	r5
 3272              	.LVL28:
 3273 0076 0300     		movs	r3, r0
 3274 0078 2370     		strb	r3, [r4]
1291:../../libraries/bno055/bno055.c ****                                                 BNO055_GYRO_DATA_Y_LSB_VALUEY_REG,
1292:../../libraries/bno055/bno055.c ****                                                 data_u8,
1293:../../libraries/bno055/bno055.c ****                                                 BNO055_LSB_MSB_READ_LENGTH);
1294:../../libraries/bno055/bno055.c ****       data_u8[BNO055_SENSOR_DATA_LSB] = BNO055_GET_BITSLICE(data_u8[BNO055_SENSOR_DATA_LSB],
 3275              		.loc 1 1294 41
 3276 007a 3100     		movs	r1, r6
 3277 007c 7B18     		adds	r3, r7, r1
 3278 007e 1A78     		ldrb	r2, [r3]
ARM GAS  /tmp/cc84EIjL.s 			page 81


 3279              		.loc 1 1294 39
 3280 0080 7B18     		adds	r3, r7, r1
 3281 0082 1A70     		strb	r2, [r3]
1295:../../libraries/bno055/bno055.c ****                                                             BNO055_GYRO_DATA_Y_LSB_VALUEY);
1296:../../libraries/bno055/bno055.c ****       data_u8[BNO055_SENSOR_DATA_MSB] = BNO055_GET_BITSLICE(data_u8[BNO055_SENSOR_DATA_MSB],
 3282              		.loc 1 1296 41
 3283 0084 7B18     		adds	r3, r7, r1
 3284 0086 5A78     		ldrb	r2, [r3, #1]
 3285              		.loc 1 1296 39
 3286 0088 7B18     		adds	r3, r7, r1
 3287 008a 5A70     		strb	r2, [r3, #1]
1297:../../libraries/bno055/bno055.c ****                                                             BNO055_GYRO_DATA_Y_MSB_VALUEY);
1298:../../libraries/bno055/bno055.c ****       *gyro_y_s16 =
1299:../../libraries/bno055/bno055.c ****         (s16)((((s32)((s8)data_u8[BNO055_SENSOR_DATA_MSB])) << BNO055_SHIFT_EIGHT_BITS) |
 3288              		.loc 1 1299 34
 3289 008c 7B18     		adds	r3, r7, r1
 3290 008e 5B78     		ldrb	r3, [r3, #1]
 3291              		.loc 1 1299 23
 3292 0090 5BB2     		sxtb	r3, r3
 3293              		.loc 1 1299 61
 3294 0092 1B02     		lsls	r3, r3, #8
 3295              		.loc 1 1299 9
 3296 0094 1AB2     		sxth	r2, r3
1300:../../libraries/bno055/bno055.c ****               (data_u8[BNO055_SENSOR_DATA_LSB]));
 3297              		.loc 1 1300 23
 3298 0096 7B18     		adds	r3, r7, r1
 3299 0098 1B78     		ldrb	r3, [r3]
 3300 009a 1BB2     		sxth	r3, r3
1299:../../libraries/bno055/bno055.c ****               (data_u8[BNO055_SENSOR_DATA_LSB]));
 3301              		.loc 1 1299 9
 3302 009c 1343     		orrs	r3, r2
 3303 009e 1AB2     		sxth	r2, r3
1298:../../libraries/bno055/bno055.c ****         (s16)((((s32)((s8)data_u8[BNO055_SENSOR_DATA_MSB])) << BNO055_SHIFT_EIGHT_BITS) |
 3304              		.loc 1 1298 19
 3305 00a0 7B68     		ldr	r3, [r7, #4]
 3306 00a2 1A80     		strh	r2, [r3]
 3307 00a4 03E0     		b	.L187
 3308              	.L186:
1301:../../libraries/bno055/bno055.c ****     }
1302:../../libraries/bno055/bno055.c ****     else{
1303:../../libraries/bno055/bno055.c ****       com_rslt = BNO055_ERROR;
 3309              		.loc 1 1303 16
 3310 00a6 0F23     		movs	r3, #15
 3311 00a8 FB18     		adds	r3, r7, r3
 3312 00aa FF22     		movs	r2, #255
 3313 00ac 1A70     		strb	r2, [r3]
 3314              	.L187:
1304:../../libraries/bno055/bno055.c ****     }
1305:../../libraries/bno055/bno055.c ****   }
1306:../../libraries/bno055/bno055.c **** 
1307:../../libraries/bno055/bno055.c ****   return com_rslt;
 3315              		.loc 1 1307 10
 3316 00ae 0F23     		movs	r3, #15
 3317 00b0 FB18     		adds	r3, r7, r3
 3318 00b2 1B78     		ldrb	r3, [r3]
 3319 00b4 5BB2     		sxtb	r3, r3
 3320              	.L188:
ARM GAS  /tmp/cc84EIjL.s 			page 82


1308:../../libraries/bno055/bno055.c **** }
 3321              		.loc 1 1308 1 discriminator 1
 3322 00b6 1800     		movs	r0, r3
 3323 00b8 BD46     		mov	sp, r7
 3324 00ba 05B0     		add	sp, sp, #20
 3325              		@ sp needed
 3326 00bc F0BD     		pop	{r4, r5, r6, r7, pc}
 3327              	.L190:
 3328 00be C046     		.align	2
 3329              	.L189:
 3330 00c0 00000000 		.word	p_bno055
 3331              		.cfi_endproc
 3332              	.LFE20:
 3334              		.section	.text.bno055_read_gyro_z,"ax",%progbits
 3335              		.align	1
 3336              		.global	bno055_read_gyro_z
 3337              		.syntax unified
 3338              		.code	16
 3339              		.thumb_func
 3340              		.fpu softvfp
 3342              	bno055_read_gyro_z:
 3343              	.LFB21:
1309:../../libraries/bno055/bno055.c **** 
1310:../../libraries/bno055/bno055.c **** /*!
1311:../../libraries/bno055/bno055.c ****  *  @brief This API reads gyro data z values
1312:../../libraries/bno055/bno055.c ****  *  from register 0x18 and 0x19 it is a two byte data
1313:../../libraries/bno055/bno055.c ****  *
1314:../../libraries/bno055/bno055.c ****  *  @param gyro_z_s16 : The z raw data
1315:../../libraries/bno055/bno055.c ****  *
1316:../../libraries/bno055/bno055.c ****  *  @return results of bus communication function
1317:../../libraries/bno055/bno055.c ****  *  @retval 0 -> BNO055_SUCCESS
1318:../../libraries/bno055/bno055.c ****  *  @retval 1 -> BNO055_ERROR
1319:../../libraries/bno055/bno055.c ****  *
1320:../../libraries/bno055/bno055.c ****  *
1321:../../libraries/bno055/bno055.c ****  */
1322:../../libraries/bno055/bno055.c **** BNO055_RETURN_FUNCTION_TYPE bno055_read_gyro_z(s16 *gyro_z_s16)
1323:../../libraries/bno055/bno055.c **** {
 3344              		.loc 1 1323 1
 3345              		.cfi_startproc
 3346              		@ args = 0, pretend = 0, frame = 16
 3347              		@ frame_needed = 1, uses_anonymous_args = 0
 3348 0000 F0B5     		push	{r4, r5, r6, r7, lr}
 3349              		.cfi_def_cfa_offset 20
 3350              		.cfi_offset 4, -20
 3351              		.cfi_offset 5, -16
 3352              		.cfi_offset 6, -12
 3353              		.cfi_offset 7, -8
 3354              		.cfi_offset 14, -4
 3355 0002 85B0     		sub	sp, sp, #20
 3356              		.cfi_def_cfa_offset 40
 3357 0004 00AF     		add	r7, sp, #0
 3358              		.cfi_def_cfa_register 7
 3359 0006 7860     		str	r0, [r7, #4]
1324:../../libraries/bno055/bno055.c ****   /* Variable used to return value of
1325:../../libraries/bno055/bno055.c ****    * communication routine*/
1326:../../libraries/bno055/bno055.c ****   BNO055_RETURN_FUNCTION_TYPE com_rslt = BNO055_ERROR;
 3360              		.loc 1 1326 31
ARM GAS  /tmp/cc84EIjL.s 			page 83


 3361 0008 0F23     		movs	r3, #15
 3362 000a FB18     		adds	r3, r7, r3
 3363 000c FF22     		movs	r2, #255
 3364 000e 1A70     		strb	r2, [r3]
1327:../../libraries/bno055/bno055.c ****   u8 data_u8[BNO055_GYRO_DATA_SIZE] = { BNO055_INIT_VALUE, BNO055_INIT_VALUE };
 3365              		.loc 1 1327 6
 3366 0010 0C23     		movs	r3, #12
 3367 0012 FB18     		adds	r3, r7, r3
 3368 0014 0022     		movs	r2, #0
 3369 0016 1A80     		strh	r2, [r3]
1328:../../libraries/bno055/bno055.c ****   s8 stat_s8 = BNO055_ERROR;
 3370              		.loc 1 1328 6
 3371 0018 0E23     		movs	r3, #14
 3372 001a FB18     		adds	r3, r7, r3
 3373 001c FF22     		movs	r2, #255
 3374 001e 1A70     		strb	r2, [r3]
1329:../../libraries/bno055/bno055.c **** 
1330:../../libraries/bno055/bno055.c ****   /* Check the struct p_bno055 is empty */
1331:../../libraries/bno055/bno055.c ****   if (p_bno055 == NULL) {
 3375              		.loc 1 1331 16
 3376 0020 274B     		ldr	r3, .L199
 3377 0022 1B68     		ldr	r3, [r3]
 3378              		.loc 1 1331 6
 3379 0024 002B     		cmp	r3, #0
 3380 0026 02D1     		bne	.L192
1332:../../libraries/bno055/bno055.c ****     return BNO055_E_NULL_PTR;
 3381              		.loc 1 1332 12
 3382 0028 7F23     		movs	r3, #127
 3383 002a 5B42     		rsbs	r3, r3, #0
 3384 002c 43E0     		b	.L198
 3385              	.L192:
1333:../../libraries/bno055/bno055.c ****   }
1334:../../libraries/bno055/bno055.c ****   else{
1335:../../libraries/bno055/bno055.c ****     /*condition check for page, chip id is
1336:../../libraries/bno055/bno055.c ****      * available in the page zero*/
1337:../../libraries/bno055/bno055.c ****     if (p_bno055->page_id != BNO055_PAGE_ZERO) {
 3386              		.loc 1 1337 17
 3387 002e 244B     		ldr	r3, .L199
 3388 0030 1B68     		ldr	r3, [r3]
 3389 0032 1B79     		ldrb	r3, [r3, #4]
 3390              		.loc 1 1337 8
 3391 0034 002B     		cmp	r3, #0
 3392 0036 06D0     		beq	.L194
1338:../../libraries/bno055/bno055.c ****       /* Write the page zero*/
1339:../../libraries/bno055/bno055.c ****       stat_s8 = bno055_write_page_id(BNO055_PAGE_ZERO);
 3393              		.loc 1 1339 17
 3394 0038 0E23     		movs	r3, #14
 3395 003a FC18     		adds	r4, r7, r3
 3396 003c 0020     		movs	r0, #0
 3397 003e FFF7FEFF 		bl	bno055_write_page_id
 3398 0042 0300     		movs	r3, r0
 3399 0044 2370     		strb	r3, [r4]
 3400              	.L194:
1340:../../libraries/bno055/bno055.c ****     }
1341:../../libraries/bno055/bno055.c ****     if ((stat_s8 == BNO055_SUCCESS) || (p_bno055->page_id == BNO055_PAGE_ZERO)) {
 3401              		.loc 1 1341 8
 3402 0046 0E23     		movs	r3, #14
ARM GAS  /tmp/cc84EIjL.s 			page 84


 3403 0048 FB18     		adds	r3, r7, r3
 3404 004a 1B78     		ldrb	r3, [r3]
 3405 004c 5BB2     		sxtb	r3, r3
 3406 004e 002B     		cmp	r3, #0
 3407 0050 04D0     		beq	.L195
 3408              		.loc 1 1341 49 discriminator 1
 3409 0052 1B4B     		ldr	r3, .L199
 3410 0054 1B68     		ldr	r3, [r3]
 3411 0056 1B79     		ldrb	r3, [r3, #4]
 3412              		.loc 1 1341 37 discriminator 1
 3413 0058 002B     		cmp	r3, #0
 3414 005a 24D1     		bne	.L196
 3415              	.L195:
1342:../../libraries/bno055/bno055.c ****       /* Read the gyro z 16 bit value*/
1343:../../libraries/bno055/bno055.c ****       com_rslt = p_bno055->BNO055_BUS_READ_FUNC(p_bno055->dev_addr,
 3416              		.loc 1 1343 26
 3417 005c 184B     		ldr	r3, .L199
 3418 005e 1B68     		ldr	r3, [r3]
 3419 0060 1D69     		ldr	r5, [r3, #16]
 3420              		.loc 1 1343 28
 3421 0062 174B     		ldr	r3, .L199
 3422 0064 1B68     		ldr	r3, [r3]
 3423              		.loc 1 1343 18
 3424 0066 587A     		ldrb	r0, [r3, #9]
 3425 0068 0F23     		movs	r3, #15
 3426 006a FC18     		adds	r4, r7, r3
 3427 006c 0C26     		movs	r6, #12
 3428 006e BA19     		adds	r2, r7, r6
 3429 0070 0223     		movs	r3, #2
 3430 0072 1821     		movs	r1, #24
 3431 0074 A847     		blx	r5
 3432              	.LVL29:
 3433 0076 0300     		movs	r3, r0
 3434 0078 2370     		strb	r3, [r4]
1344:../../libraries/bno055/bno055.c ****                                                 BNO055_GYRO_DATA_Z_LSB_VALUEZ_REG,
1345:../../libraries/bno055/bno055.c ****                                                 data_u8,
1346:../../libraries/bno055/bno055.c ****                                                 BNO055_LSB_MSB_READ_LENGTH);
1347:../../libraries/bno055/bno055.c ****       data_u8[BNO055_SENSOR_DATA_LSB] = BNO055_GET_BITSLICE(data_u8[BNO055_SENSOR_DATA_LSB],
 3435              		.loc 1 1347 41
 3436 007a 3100     		movs	r1, r6
 3437 007c 7B18     		adds	r3, r7, r1
 3438 007e 1A78     		ldrb	r2, [r3]
 3439              		.loc 1 1347 39
 3440 0080 7B18     		adds	r3, r7, r1
 3441 0082 1A70     		strb	r2, [r3]
1348:../../libraries/bno055/bno055.c ****                                                             BNO055_GYRO_DATA_Z_LSB_VALUEZ);
1349:../../libraries/bno055/bno055.c ****       data_u8[BNO055_SENSOR_DATA_MSB] = BNO055_GET_BITSLICE(data_u8[BNO055_SENSOR_DATA_MSB],
 3442              		.loc 1 1349 41
 3443 0084 7B18     		adds	r3, r7, r1
 3444 0086 5A78     		ldrb	r2, [r3, #1]
 3445              		.loc 1 1349 39
 3446 0088 7B18     		adds	r3, r7, r1
 3447 008a 5A70     		strb	r2, [r3, #1]
1350:../../libraries/bno055/bno055.c ****                                                             BNO055_GYRO_DATA_Z_MSB_VALUEZ);
1351:../../libraries/bno055/bno055.c ****       *gyro_z_s16 =
1352:../../libraries/bno055/bno055.c ****         (s16)((((s32)((s8)data_u8[BNO055_SENSOR_DATA_MSB])) << BNO055_SHIFT_EIGHT_BITS) |
 3448              		.loc 1 1352 34
ARM GAS  /tmp/cc84EIjL.s 			page 85


 3449 008c 7B18     		adds	r3, r7, r1
 3450 008e 5B78     		ldrb	r3, [r3, #1]
 3451              		.loc 1 1352 23
 3452 0090 5BB2     		sxtb	r3, r3
 3453              		.loc 1 1352 61
 3454 0092 1B02     		lsls	r3, r3, #8
 3455              		.loc 1 1352 9
 3456 0094 1AB2     		sxth	r2, r3
1353:../../libraries/bno055/bno055.c ****               (data_u8[BNO055_SENSOR_DATA_LSB]));
 3457              		.loc 1 1353 23
 3458 0096 7B18     		adds	r3, r7, r1
 3459 0098 1B78     		ldrb	r3, [r3]
 3460 009a 1BB2     		sxth	r3, r3
1352:../../libraries/bno055/bno055.c ****               (data_u8[BNO055_SENSOR_DATA_LSB]));
 3461              		.loc 1 1352 9
 3462 009c 1343     		orrs	r3, r2
 3463 009e 1AB2     		sxth	r2, r3
1351:../../libraries/bno055/bno055.c ****         (s16)((((s32)((s8)data_u8[BNO055_SENSOR_DATA_MSB])) << BNO055_SHIFT_EIGHT_BITS) |
 3464              		.loc 1 1351 19
 3465 00a0 7B68     		ldr	r3, [r7, #4]
 3466 00a2 1A80     		strh	r2, [r3]
 3467 00a4 03E0     		b	.L197
 3468              	.L196:
1354:../../libraries/bno055/bno055.c ****     }
1355:../../libraries/bno055/bno055.c ****     else{
1356:../../libraries/bno055/bno055.c ****       com_rslt = BNO055_ERROR;
 3469              		.loc 1 1356 16
 3470 00a6 0F23     		movs	r3, #15
 3471 00a8 FB18     		adds	r3, r7, r3
 3472 00aa FF22     		movs	r2, #255
 3473 00ac 1A70     		strb	r2, [r3]
 3474              	.L197:
1357:../../libraries/bno055/bno055.c ****     }
1358:../../libraries/bno055/bno055.c ****   }
1359:../../libraries/bno055/bno055.c **** 
1360:../../libraries/bno055/bno055.c ****   return com_rslt;
 3475              		.loc 1 1360 10
 3476 00ae 0F23     		movs	r3, #15
 3477 00b0 FB18     		adds	r3, r7, r3
 3478 00b2 1B78     		ldrb	r3, [r3]
 3479 00b4 5BB2     		sxtb	r3, r3
 3480              	.L198:
1361:../../libraries/bno055/bno055.c **** }
 3481              		.loc 1 1361 1 discriminator 1
 3482 00b6 1800     		movs	r0, r3
 3483 00b8 BD46     		mov	sp, r7
 3484 00ba 05B0     		add	sp, sp, #20
 3485              		@ sp needed
 3486 00bc F0BD     		pop	{r4, r5, r6, r7, pc}
 3487              	.L200:
 3488 00be C046     		.align	2
 3489              	.L199:
 3490 00c0 00000000 		.word	p_bno055
 3491              		.cfi_endproc
 3492              	.LFE21:
 3494              		.section	.text.bno055_read_gyro_xyz,"ax",%progbits
 3495              		.align	1
ARM GAS  /tmp/cc84EIjL.s 			page 86


 3496              		.global	bno055_read_gyro_xyz
 3497              		.syntax unified
 3498              		.code	16
 3499              		.thumb_func
 3500              		.fpu softvfp
 3502              	bno055_read_gyro_xyz:
 3503              	.LFB22:
1362:../../libraries/bno055/bno055.c **** 
1363:../../libraries/bno055/bno055.c **** /*!
1364:../../libraries/bno055/bno055.c ****  *  @brief This API reads gyro data xyz values
1365:../../libraries/bno055/bno055.c ****  *  from register 0x14 to 0x19 it is a six byte data
1366:../../libraries/bno055/bno055.c ****  *
1367:../../libraries/bno055/bno055.c ****  *
1368:../../libraries/bno055/bno055.c ****  *  @param gyro : The value of gyro xyz data's
1369:../../libraries/bno055/bno055.c ****  *
1370:../../libraries/bno055/bno055.c ****  *  Parameter |    result
1371:../../libraries/bno055/bno055.c ****  *  --------- | -----------------
1372:../../libraries/bno055/bno055.c ****  *   x        | The gyro x data
1373:../../libraries/bno055/bno055.c ****  *   y        | The gyro y data
1374:../../libraries/bno055/bno055.c ****  *   z        | The gyro z data
1375:../../libraries/bno055/bno055.c ****  *
1376:../../libraries/bno055/bno055.c ****  *
1377:../../libraries/bno055/bno055.c ****  *
1378:../../libraries/bno055/bno055.c ****  *  @return results of bus communication function
1379:../../libraries/bno055/bno055.c ****  *  @retval 0 -> BNO055_SUCCESS
1380:../../libraries/bno055/bno055.c ****  *  @retval 1 -> BNO055_ERROR
1381:../../libraries/bno055/bno055.c ****  *
1382:../../libraries/bno055/bno055.c ****  */
1383:../../libraries/bno055/bno055.c **** BNO055_RETURN_FUNCTION_TYPE bno055_read_gyro_xyz(struct bno055_gyro_t *gyro)
1384:../../libraries/bno055/bno055.c **** {
 3504              		.loc 1 1384 1
 3505              		.cfi_startproc
 3506              		@ args = 0, pretend = 0, frame = 16
 3507              		@ frame_needed = 1, uses_anonymous_args = 0
 3508 0000 F0B5     		push	{r4, r5, r6, r7, lr}
 3509              		.cfi_def_cfa_offset 20
 3510              		.cfi_offset 4, -20
 3511              		.cfi_offset 5, -16
 3512              		.cfi_offset 6, -12
 3513              		.cfi_offset 7, -8
 3514              		.cfi_offset 14, -4
 3515 0002 85B0     		sub	sp, sp, #20
 3516              		.cfi_def_cfa_offset 40
 3517 0004 00AF     		add	r7, sp, #0
 3518              		.cfi_def_cfa_register 7
 3519 0006 7860     		str	r0, [r7, #4]
1385:../../libraries/bno055/bno055.c ****   /* Variable used to return value of
1386:../../libraries/bno055/bno055.c ****    * communication routine*/
1387:../../libraries/bno055/bno055.c ****   BNO055_RETURN_FUNCTION_TYPE com_rslt = BNO055_ERROR;
 3520              		.loc 1 1387 31
 3521 0008 0F23     		movs	r3, #15
 3522 000a FB18     		adds	r3, r7, r3
 3523 000c FF22     		movs	r2, #255
 3524 000e 1A70     		strb	r2, [r3]
1388:../../libraries/bno055/bno055.c **** 
1389:../../libraries/bno055/bno055.c ****   /* Array holding the gyro xyz value
1390:../../libraries/bno055/bno055.c ****    * data_u8[BNO055_SENSOR_DATA_XYZ_X_LSB] - x->LSB
ARM GAS  /tmp/cc84EIjL.s 			page 87


1391:../../libraries/bno055/bno055.c ****    * data_u8[BNO055_SENSOR_DATA_XYZ_X_MSB] - x->MSB
1392:../../libraries/bno055/bno055.c ****    * data_u8[BNO055_SENSOR_DATA_XYZ_Y_LSB] - y->MSB
1393:../../libraries/bno055/bno055.c ****    * data_u8[BNO055_SENSOR_DATA_XYZ_Y_MSB] - y->MSB
1394:../../libraries/bno055/bno055.c ****    * data_u8[BNO055_SENSOR_DATA_XYZ_Z_LSB] - z->MSB
1395:../../libraries/bno055/bno055.c ****    * data_u8[BNO055_SENSOR_DATA_XYZ_Z_MSB] - z->MSB
1396:../../libraries/bno055/bno055.c ****    */
1397:../../libraries/bno055/bno055.c ****   u8 data_u8[BNO055_GYRO_XYZ_DATA_SIZE] =
 3525              		.loc 1 1397 6
 3526 0010 0823     		movs	r3, #8
 3527 0012 FB18     		adds	r3, r7, r3
 3528 0014 3F4A     		ldr	r2, .L209
 3529 0016 1168     		ldr	r1, [r2]
 3530 0018 1960     		str	r1, [r3]
 3531 001a 9288     		ldrh	r2, [r2, #4]
 3532 001c 9A80     		strh	r2, [r3, #4]
1398:../../libraries/bno055/bno055.c ****   {
1399:../../libraries/bno055/bno055.c ****     BNO055_INIT_VALUE, BNO055_INIT_VALUE, BNO055_INIT_VALUE, BNO055_INIT_VALUE, BNO055_INIT_VALUE, 
1400:../../libraries/bno055/bno055.c ****   };
1401:../../libraries/bno055/bno055.c ****   s8 stat_s8 = BNO055_ERROR;
 3533              		.loc 1 1401 6
 3534 001e 0E23     		movs	r3, #14
 3535 0020 FB18     		adds	r3, r7, r3
 3536 0022 FF22     		movs	r2, #255
 3537 0024 1A70     		strb	r2, [r3]
1402:../../libraries/bno055/bno055.c **** 
1403:../../libraries/bno055/bno055.c ****   /* Check the struct p_bno055 is empty */
1404:../../libraries/bno055/bno055.c ****   if (p_bno055 == NULL) {
 3538              		.loc 1 1404 16
 3539 0026 3C4B     		ldr	r3, .L209+4
 3540 0028 1B68     		ldr	r3, [r3]
 3541              		.loc 1 1404 6
 3542 002a 002B     		cmp	r3, #0
 3543 002c 02D1     		bne	.L202
1405:../../libraries/bno055/bno055.c ****     return BNO055_E_NULL_PTR;
 3544              		.loc 1 1405 12
 3545 002e 7F23     		movs	r3, #127
 3546 0030 5B42     		rsbs	r3, r3, #0
 3547 0032 6BE0     		b	.L208
 3548              	.L202:
1406:../../libraries/bno055/bno055.c ****   }
1407:../../libraries/bno055/bno055.c ****   else{
1408:../../libraries/bno055/bno055.c ****     /*condition check for page, chip id is
1409:../../libraries/bno055/bno055.c ****      * available in the page zero*/
1410:../../libraries/bno055/bno055.c ****     if (p_bno055->page_id != BNO055_PAGE_ZERO) {
 3549              		.loc 1 1410 17
 3550 0034 384B     		ldr	r3, .L209+4
 3551 0036 1B68     		ldr	r3, [r3]
 3552 0038 1B79     		ldrb	r3, [r3, #4]
 3553              		.loc 1 1410 8
 3554 003a 002B     		cmp	r3, #0
 3555 003c 06D0     		beq	.L204
1411:../../libraries/bno055/bno055.c ****       /* Write the page zero*/
1412:../../libraries/bno055/bno055.c ****       stat_s8 = bno055_write_page_id(BNO055_PAGE_ZERO);
 3556              		.loc 1 1412 17
 3557 003e 0E23     		movs	r3, #14
 3558 0040 FC18     		adds	r4, r7, r3
 3559 0042 0020     		movs	r0, #0
ARM GAS  /tmp/cc84EIjL.s 			page 88


 3560 0044 FFF7FEFF 		bl	bno055_write_page_id
 3561 0048 0300     		movs	r3, r0
 3562 004a 2370     		strb	r3, [r4]
 3563              	.L204:
1413:../../libraries/bno055/bno055.c ****     }
1414:../../libraries/bno055/bno055.c ****     if ((stat_s8 == BNO055_SUCCESS) || (p_bno055->page_id == BNO055_PAGE_ZERO)) {
 3564              		.loc 1 1414 8
 3565 004c 0E23     		movs	r3, #14
 3566 004e FB18     		adds	r3, r7, r3
 3567 0050 1B78     		ldrb	r3, [r3]
 3568 0052 5BB2     		sxtb	r3, r3
 3569 0054 002B     		cmp	r3, #0
 3570 0056 04D0     		beq	.L205
 3571              		.loc 1 1414 49 discriminator 1
 3572 0058 2F4B     		ldr	r3, .L209+4
 3573 005a 1B68     		ldr	r3, [r3]
 3574 005c 1B79     		ldrb	r3, [r3, #4]
 3575              		.loc 1 1414 37 discriminator 1
 3576 005e 002B     		cmp	r3, #0
 3577 0060 4CD1     		bne	.L206
 3578              	.L205:
1415:../../libraries/bno055/bno055.c ****       /* Read the six bytes data of gyro xyz*/
1416:../../libraries/bno055/bno055.c ****       com_rslt = p_bno055->BNO055_BUS_READ_FUNC(p_bno055->dev_addr,
 3579              		.loc 1 1416 26
 3580 0062 2D4B     		ldr	r3, .L209+4
 3581 0064 1B68     		ldr	r3, [r3]
 3582 0066 1D69     		ldr	r5, [r3, #16]
 3583              		.loc 1 1416 28
 3584 0068 2B4B     		ldr	r3, .L209+4
 3585 006a 1B68     		ldr	r3, [r3]
 3586              		.loc 1 1416 18
 3587 006c 587A     		ldrb	r0, [r3, #9]
 3588 006e 0F23     		movs	r3, #15
 3589 0070 FC18     		adds	r4, r7, r3
 3590 0072 0826     		movs	r6, #8
 3591 0074 BA19     		adds	r2, r7, r6
 3592 0076 0623     		movs	r3, #6
 3593 0078 1421     		movs	r1, #20
 3594 007a A847     		blx	r5
 3595              	.LVL30:
 3596 007c 0300     		movs	r3, r0
 3597 007e 2370     		strb	r3, [r4]
1417:../../libraries/bno055/bno055.c ****                                                 BNO055_GYRO_DATA_X_LSB_VALUEX_REG,
1418:../../libraries/bno055/bno055.c ****                                                 data_u8,
1419:../../libraries/bno055/bno055.c ****                                                 BNO055_GYRO_XYZ_DATA_SIZE);
1420:../../libraries/bno055/bno055.c **** 
1421:../../libraries/bno055/bno055.c ****       /* Data x*/
1422:../../libraries/bno055/bno055.c ****       data_u8[BNO055_SENSOR_DATA_XYZ_X_LSB] = BNO055_GET_BITSLICE(data_u8[BNO055_SENSOR_DATA_XYZ_X_
 3598              		.loc 1 1422 47
 3599 0080 3100     		movs	r1, r6
 3600 0082 7B18     		adds	r3, r7, r1
 3601 0084 1A78     		ldrb	r2, [r3]
 3602              		.loc 1 1422 45
 3603 0086 7B18     		adds	r3, r7, r1
 3604 0088 1A70     		strb	r2, [r3]
1423:../../libraries/bno055/bno055.c ****                                                                   BNO055_GYRO_DATA_X_LSB_VALUEX);
1424:../../libraries/bno055/bno055.c ****       data_u8[BNO055_SENSOR_DATA_XYZ_X_MSB] = BNO055_GET_BITSLICE(data_u8[BNO055_SENSOR_DATA_XYZ_X_
ARM GAS  /tmp/cc84EIjL.s 			page 89


 3605              		.loc 1 1424 47
 3606 008a 7B18     		adds	r3, r7, r1
 3607 008c 5A78     		ldrb	r2, [r3, #1]
 3608              		.loc 1 1424 45
 3609 008e 7B18     		adds	r3, r7, r1
 3610 0090 5A70     		strb	r2, [r3, #1]
1425:../../libraries/bno055/bno055.c ****                                                                   BNO055_GYRO_DATA_X_MSB_VALUEX);
1426:../../libraries/bno055/bno055.c ****       gyro->x =
1427:../../libraries/bno055/bno055.c ****         (s16)((((s32)((s8)data_u8[BNO055_SENSOR_DATA_XYZ_X_MSB])) << BNO055_SHIFT_EIGHT_BITS) |
 3611              		.loc 1 1427 34
 3612 0092 7B18     		adds	r3, r7, r1
 3613 0094 5B78     		ldrb	r3, [r3, #1]
 3614              		.loc 1 1427 23
 3615 0096 5BB2     		sxtb	r3, r3
 3616              		.loc 1 1427 67
 3617 0098 1B02     		lsls	r3, r3, #8
 3618              		.loc 1 1427 9
 3619 009a 1AB2     		sxth	r2, r3
1428:../../libraries/bno055/bno055.c ****               (data_u8[BNO055_SENSOR_DATA_XYZ_X_LSB]));
 3620              		.loc 1 1428 23
 3621 009c 7B18     		adds	r3, r7, r1
 3622 009e 1B78     		ldrb	r3, [r3]
 3623 00a0 1BB2     		sxth	r3, r3
1427:../../libraries/bno055/bno055.c ****               (data_u8[BNO055_SENSOR_DATA_XYZ_X_LSB]));
 3624              		.loc 1 1427 9
 3625 00a2 1343     		orrs	r3, r2
 3626 00a4 1AB2     		sxth	r2, r3
1426:../../libraries/bno055/bno055.c ****         (s16)((((s32)((s8)data_u8[BNO055_SENSOR_DATA_XYZ_X_MSB])) << BNO055_SHIFT_EIGHT_BITS) |
 3627              		.loc 1 1426 15
 3628 00a6 7B68     		ldr	r3, [r7, #4]
 3629 00a8 1A80     		strh	r2, [r3]
1429:../../libraries/bno055/bno055.c **** 
1430:../../libraries/bno055/bno055.c ****       /* Data y*/
1431:../../libraries/bno055/bno055.c ****       data_u8[BNO055_SENSOR_DATA_XYZ_Y_LSB] = BNO055_GET_BITSLICE(data_u8[BNO055_SENSOR_DATA_XYZ_Y_
 3630              		.loc 1 1431 47
 3631 00aa 7B18     		adds	r3, r7, r1
 3632 00ac 9A78     		ldrb	r2, [r3, #2]
 3633              		.loc 1 1431 45
 3634 00ae 7B18     		adds	r3, r7, r1
 3635 00b0 9A70     		strb	r2, [r3, #2]
1432:../../libraries/bno055/bno055.c ****                                                                   BNO055_GYRO_DATA_Y_LSB_VALUEY);
1433:../../libraries/bno055/bno055.c ****       data_u8[BNO055_SENSOR_DATA_XYZ_Y_MSB] = BNO055_GET_BITSLICE(data_u8[BNO055_SENSOR_DATA_XYZ_Y_
 3636              		.loc 1 1433 47
 3637 00b2 7B18     		adds	r3, r7, r1
 3638 00b4 DA78     		ldrb	r2, [r3, #3]
 3639              		.loc 1 1433 45
 3640 00b6 7B18     		adds	r3, r7, r1
 3641 00b8 DA70     		strb	r2, [r3, #3]
1434:../../libraries/bno055/bno055.c ****                                                                   BNO055_GYRO_DATA_Y_MSB_VALUEY);
1435:../../libraries/bno055/bno055.c ****       gyro->y =
1436:../../libraries/bno055/bno055.c ****         (s16)((((s32)((s8)data_u8[BNO055_SENSOR_DATA_XYZ_Y_MSB])) << BNO055_SHIFT_EIGHT_BITS) |
 3642              		.loc 1 1436 34
 3643 00ba 7B18     		adds	r3, r7, r1
 3644 00bc DB78     		ldrb	r3, [r3, #3]
 3645              		.loc 1 1436 23
 3646 00be 5BB2     		sxtb	r3, r3
 3647              		.loc 1 1436 67
ARM GAS  /tmp/cc84EIjL.s 			page 90


 3648 00c0 1B02     		lsls	r3, r3, #8
 3649              		.loc 1 1436 9
 3650 00c2 1AB2     		sxth	r2, r3
1437:../../libraries/bno055/bno055.c ****               (data_u8[BNO055_SENSOR_DATA_XYZ_Y_LSB]));
 3651              		.loc 1 1437 23
 3652 00c4 7B18     		adds	r3, r7, r1
 3653 00c6 9B78     		ldrb	r3, [r3, #2]
 3654 00c8 1BB2     		sxth	r3, r3
1436:../../libraries/bno055/bno055.c ****               (data_u8[BNO055_SENSOR_DATA_XYZ_Y_LSB]));
 3655              		.loc 1 1436 9
 3656 00ca 1343     		orrs	r3, r2
 3657 00cc 1AB2     		sxth	r2, r3
1435:../../libraries/bno055/bno055.c ****         (s16)((((s32)((s8)data_u8[BNO055_SENSOR_DATA_XYZ_Y_MSB])) << BNO055_SHIFT_EIGHT_BITS) |
 3658              		.loc 1 1435 15
 3659 00ce 7B68     		ldr	r3, [r7, #4]
 3660 00d0 5A80     		strh	r2, [r3, #2]
1438:../../libraries/bno055/bno055.c **** 
1439:../../libraries/bno055/bno055.c ****       /* Data z*/
1440:../../libraries/bno055/bno055.c ****       data_u8[BNO055_SENSOR_DATA_XYZ_Z_LSB] = BNO055_GET_BITSLICE(data_u8[BNO055_SENSOR_DATA_XYZ_Z_
 3661              		.loc 1 1440 47
 3662 00d2 7B18     		adds	r3, r7, r1
 3663 00d4 1A79     		ldrb	r2, [r3, #4]
 3664              		.loc 1 1440 45
 3665 00d6 7B18     		adds	r3, r7, r1
 3666 00d8 1A71     		strb	r2, [r3, #4]
1441:../../libraries/bno055/bno055.c ****                                                                   BNO055_GYRO_DATA_Z_LSB_VALUEZ);
1442:../../libraries/bno055/bno055.c ****       data_u8[BNO055_SENSOR_DATA_XYZ_Z_MSB] = BNO055_GET_BITSLICE(data_u8[BNO055_SENSOR_DATA_XYZ_Z_
 3667              		.loc 1 1442 47
 3668 00da 7B18     		adds	r3, r7, r1
 3669 00dc 5A79     		ldrb	r2, [r3, #5]
 3670              		.loc 1 1442 45
 3671 00de 7B18     		adds	r3, r7, r1
 3672 00e0 5A71     		strb	r2, [r3, #5]
1443:../../libraries/bno055/bno055.c ****                                                                   BNO055_GYRO_DATA_Z_MSB_VALUEZ);
1444:../../libraries/bno055/bno055.c ****       gyro->z =
1445:../../libraries/bno055/bno055.c ****         (s16)((((s32)((s8)data_u8[BNO055_SENSOR_DATA_XYZ_Z_MSB])) << BNO055_SHIFT_EIGHT_BITS) |
 3673              		.loc 1 1445 34
 3674 00e2 7B18     		adds	r3, r7, r1
 3675 00e4 5B79     		ldrb	r3, [r3, #5]
 3676              		.loc 1 1445 23
 3677 00e6 5BB2     		sxtb	r3, r3
 3678              		.loc 1 1445 67
 3679 00e8 1B02     		lsls	r3, r3, #8
 3680              		.loc 1 1445 9
 3681 00ea 1AB2     		sxth	r2, r3
1446:../../libraries/bno055/bno055.c ****               (data_u8[BNO055_SENSOR_DATA_XYZ_Z_LSB]));
 3682              		.loc 1 1446 23
 3683 00ec 7B18     		adds	r3, r7, r1
 3684 00ee 1B79     		ldrb	r3, [r3, #4]
 3685 00f0 1BB2     		sxth	r3, r3
1445:../../libraries/bno055/bno055.c ****               (data_u8[BNO055_SENSOR_DATA_XYZ_Z_LSB]));
 3686              		.loc 1 1445 9
 3687 00f2 1343     		orrs	r3, r2
 3688 00f4 1AB2     		sxth	r2, r3
1444:../../libraries/bno055/bno055.c ****         (s16)((((s32)((s8)data_u8[BNO055_SENSOR_DATA_XYZ_Z_MSB])) << BNO055_SHIFT_EIGHT_BITS) |
 3689              		.loc 1 1444 15
 3690 00f6 7B68     		ldr	r3, [r7, #4]
ARM GAS  /tmp/cc84EIjL.s 			page 91


 3691 00f8 9A80     		strh	r2, [r3, #4]
 3692 00fa 03E0     		b	.L207
 3693              	.L206:
1447:../../libraries/bno055/bno055.c ****     }
1448:../../libraries/bno055/bno055.c ****     else{
1449:../../libraries/bno055/bno055.c ****       com_rslt = BNO055_ERROR;
 3694              		.loc 1 1449 16
 3695 00fc 0F23     		movs	r3, #15
 3696 00fe FB18     		adds	r3, r7, r3
 3697 0100 FF22     		movs	r2, #255
 3698 0102 1A70     		strb	r2, [r3]
 3699              	.L207:
1450:../../libraries/bno055/bno055.c ****     }
1451:../../libraries/bno055/bno055.c ****   }
1452:../../libraries/bno055/bno055.c **** 
1453:../../libraries/bno055/bno055.c ****   return com_rslt;
 3700              		.loc 1 1453 10
 3701 0104 0F23     		movs	r3, #15
 3702 0106 FB18     		adds	r3, r7, r3
 3703 0108 1B78     		ldrb	r3, [r3]
