ARM GAS  /tmp/ccpljSGR.s 			page 1


   1              		.cpu cortex-m0plus
   2              		.eabi_attribute 20, 1
   3              		.eabi_attribute 21, 1
   4              		.eabi_attribute 23, 3
   5              		.eabi_attribute 24, 1
   6              		.eabi_attribute 25, 1
   7              		.eabi_attribute 26, 1
   8              		.eabi_attribute 30, 6
   9              		.eabi_attribute 34, 0
  10              		.eabi_attribute 18, 4
  11              		.file	"main.c"
  12              		.text
  13              	.Ltext0:
  14              		.cfi_sections	.debug_frame
  15              		.section	.text.LL_APB1_GRP1_EnableClock,"ax",%progbits
  16              		.align	1
  17              		.arch armv6s-m
  18              		.syntax unified
  19              		.code	16
  20              		.thumb_func
  21              		.fpu softvfp
  23              	LL_APB1_GRP1_EnableClock:
  24              	.LFB157:
  25              		.file 1 "../../dependencies/STM32CubeL0/Drivers/STM32L0xx_HAL_Driver/Inc/stm32l0xx_ll_bus.h"
   1:../../dependencies/STM32CubeL0/Drivers/STM32L0xx_HAL_Driver/Inc/stm32l0xx_ll_bus.h **** /**
   2:../../dependencies/STM32CubeL0/Drivers/STM32L0xx_HAL_Driver/Inc/stm32l0xx_ll_bus.h ****   ******************************************************************************
   3:../../dependencies/STM32CubeL0/Drivers/STM32L0xx_HAL_Driver/Inc/stm32l0xx_ll_bus.h ****   * @file    stm32l0xx_ll_bus.h
   4:../../dependencies/STM32CubeL0/Drivers/STM32L0xx_HAL_Driver/Inc/stm32l0xx_ll_bus.h ****   * @author  MCD Application Team
   5:../../dependencies/STM32CubeL0/Drivers/STM32L0xx_HAL_Driver/Inc/stm32l0xx_ll_bus.h ****   * @brief   Header file of BUS LL module.
   6:../../dependencies/STM32CubeL0/Drivers/STM32L0xx_HAL_Driver/Inc/stm32l0xx_ll_bus.h **** 
   7:../../dependencies/STM32CubeL0/Drivers/STM32L0xx_HAL_Driver/Inc/stm32l0xx_ll_bus.h ****   @verbatim
   8:../../dependencies/STM32CubeL0/Drivers/STM32L0xx_HAL_Driver/Inc/stm32l0xx_ll_bus.h ****                       ##### RCC Limitations #####
   9:../../dependencies/STM32CubeL0/Drivers/STM32L0xx_HAL_Driver/Inc/stm32l0xx_ll_bus.h ****   ==============================================================================
  10:../../dependencies/STM32CubeL0/Drivers/STM32L0xx_HAL_Driver/Inc/stm32l0xx_ll_bus.h ****     [..]
  11:../../dependencies/STM32CubeL0/Drivers/STM32L0xx_HAL_Driver/Inc/stm32l0xx_ll_bus.h ****       A delay between an RCC peripheral clock enable and the effective peripheral
  12:../../dependencies/STM32CubeL0/Drivers/STM32L0xx_HAL_Driver/Inc/stm32l0xx_ll_bus.h ****       enabling should be taken into account in order to manage the peripheral read/write
  13:../../dependencies/STM32CubeL0/Drivers/STM32L0xx_HAL_Driver/Inc/stm32l0xx_ll_bus.h ****       from/to registers.
  14:../../dependencies/STM32CubeL0/Drivers/STM32L0xx_HAL_Driver/Inc/stm32l0xx_ll_bus.h ****       (+) This delay depends on the peripheral mapping.
  15:../../dependencies/STM32CubeL0/Drivers/STM32L0xx_HAL_Driver/Inc/stm32l0xx_ll_bus.h ****         (++) AHB & APB peripherals, 1 dummy read is necessary
  16:../../dependencies/STM32CubeL0/Drivers/STM32L0xx_HAL_Driver/Inc/stm32l0xx_ll_bus.h **** 
  17:../../dependencies/STM32CubeL0/Drivers/STM32L0xx_HAL_Driver/Inc/stm32l0xx_ll_bus.h ****     [..]
  18:../../dependencies/STM32CubeL0/Drivers/STM32L0xx_HAL_Driver/Inc/stm32l0xx_ll_bus.h ****       Workarounds:
  19:../../dependencies/STM32CubeL0/Drivers/STM32L0xx_HAL_Driver/Inc/stm32l0xx_ll_bus.h ****       (#) For AHB & APB peripherals, a dummy read to the peripheral register has been
  20:../../dependencies/STM32CubeL0/Drivers/STM32L0xx_HAL_Driver/Inc/stm32l0xx_ll_bus.h ****           inserted in each LL_{BUS}_GRP{x}_EnableClock() function.
  21:../../dependencies/STM32CubeL0/Drivers/STM32L0xx_HAL_Driver/Inc/stm32l0xx_ll_bus.h **** 
  22:../../dependencies/STM32CubeL0/Drivers/STM32L0xx_HAL_Driver/Inc/stm32l0xx_ll_bus.h ****   @endverbatim
  23:../../dependencies/STM32CubeL0/Drivers/STM32L0xx_HAL_Driver/Inc/stm32l0xx_ll_bus.h ****   ******************************************************************************
  24:../../dependencies/STM32CubeL0/Drivers/STM32L0xx_HAL_Driver/Inc/stm32l0xx_ll_bus.h ****   * @attention
  25:../../dependencies/STM32CubeL0/Drivers/STM32L0xx_HAL_Driver/Inc/stm32l0xx_ll_bus.h ****   *
  26:../../dependencies/STM32CubeL0/Drivers/STM32L0xx_HAL_Driver/Inc/stm32l0xx_ll_bus.h ****   * <h2><center>&copy; Copyright(c) 2016 STMicroelectronics.
  27:../../dependencies/STM32CubeL0/Drivers/STM32L0xx_HAL_Driver/Inc/stm32l0xx_ll_bus.h ****   * All rights reserved.</center></h2>
  28:../../dependencies/STM32CubeL0/Drivers/STM32L0xx_HAL_Driver/Inc/stm32l0xx_ll_bus.h ****   *
  29:../../dependencies/STM32CubeL0/Drivers/STM32L0xx_HAL_Driver/Inc/stm32l0xx_ll_bus.h ****   * This software component is licensed by ST under BSD 3-Clause license,
  30:../../dependencies/STM32CubeL0/Drivers/STM32L0xx_HAL_Driver/Inc/stm32l0xx_ll_bus.h ****   * the "License"; You may not use this file except in compliance with the
  31:../../dependencies/STM32CubeL0/Drivers/STM32L0xx_HAL_Driver/Inc/stm32l0xx_ll_bus.h ****   * License. You may obtain a copy of the License at:
  32:../../dependencies/STM32CubeL0/Drivers/STM32L0xx_HAL_Driver/Inc/stm32l0xx_ll_bus.h ****   *                        opensource.org/licenses/BSD-3-Clause
  33:../../dependencies/STM32CubeL0/Drivers/STM32L0xx_HAL_Driver/Inc/stm32l0xx_ll_bus.h ****   *
ARM GAS  /tmp/ccpljSGR.s 			page 2


  34:../../dependencies/STM32CubeL0/Drivers/STM32L0xx_HAL_Driver/Inc/stm32l0xx_ll_bus.h ****   ******************************************************************************
  35:../../dependencies/STM32CubeL0/Drivers/STM32L0xx_HAL_Driver/Inc/stm32l0xx_ll_bus.h ****   */
  36:../../dependencies/STM32CubeL0/Drivers/STM32L0xx_HAL_Driver/Inc/stm32l0xx_ll_bus.h **** 
  37:../../dependencies/STM32CubeL0/Drivers/STM32L0xx_HAL_Driver/Inc/stm32l0xx_ll_bus.h **** /* Define to prevent recursive inclusion -------------------------------------*/
  38:../../dependencies/STM32CubeL0/Drivers/STM32L0xx_HAL_Driver/Inc/stm32l0xx_ll_bus.h **** #ifndef __STM32L0xx_LL_BUS_H
  39:../../dependencies/STM32CubeL0/Drivers/STM32L0xx_HAL_Driver/Inc/stm32l0xx_ll_bus.h **** #define __STM32L0xx_LL_BUS_H
  40:../../dependencies/STM32CubeL0/Drivers/STM32L0xx_HAL_Driver/Inc/stm32l0xx_ll_bus.h **** 
  41:../../dependencies/STM32CubeL0/Drivers/STM32L0xx_HAL_Driver/Inc/stm32l0xx_ll_bus.h **** #ifdef __cplusplus
  42:../../dependencies/STM32CubeL0/Drivers/STM32L0xx_HAL_Driver/Inc/stm32l0xx_ll_bus.h **** extern "C" {
  43:../../dependencies/STM32CubeL0/Drivers/STM32L0xx_HAL_Driver/Inc/stm32l0xx_ll_bus.h **** #endif
  44:../../dependencies/STM32CubeL0/Drivers/STM32L0xx_HAL_Driver/Inc/stm32l0xx_ll_bus.h **** 
  45:../../dependencies/STM32CubeL0/Drivers/STM32L0xx_HAL_Driver/Inc/stm32l0xx_ll_bus.h **** /* Includes ------------------------------------------------------------------*/
  46:../../dependencies/STM32CubeL0/Drivers/STM32L0xx_HAL_Driver/Inc/stm32l0xx_ll_bus.h **** #include "stm32l0xx.h"
  47:../../dependencies/STM32CubeL0/Drivers/STM32L0xx_HAL_Driver/Inc/stm32l0xx_ll_bus.h **** 
  48:../../dependencies/STM32CubeL0/Drivers/STM32L0xx_HAL_Driver/Inc/stm32l0xx_ll_bus.h **** /** @addtogroup STM32L0xx_LL_Driver
  49:../../dependencies/STM32CubeL0/Drivers/STM32L0xx_HAL_Driver/Inc/stm32l0xx_ll_bus.h ****   * @{
  50:../../dependencies/STM32CubeL0/Drivers/STM32L0xx_HAL_Driver/Inc/stm32l0xx_ll_bus.h ****   */
  51:../../dependencies/STM32CubeL0/Drivers/STM32L0xx_HAL_Driver/Inc/stm32l0xx_ll_bus.h **** 
  52:../../dependencies/STM32CubeL0/Drivers/STM32L0xx_HAL_Driver/Inc/stm32l0xx_ll_bus.h **** #if defined(RCC)
  53:../../dependencies/STM32CubeL0/Drivers/STM32L0xx_HAL_Driver/Inc/stm32l0xx_ll_bus.h **** 
  54:../../dependencies/STM32CubeL0/Drivers/STM32L0xx_HAL_Driver/Inc/stm32l0xx_ll_bus.h **** /** @defgroup BUS_LL BUS
  55:../../dependencies/STM32CubeL0/Drivers/STM32L0xx_HAL_Driver/Inc/stm32l0xx_ll_bus.h ****   * @{
  56:../../dependencies/STM32CubeL0/Drivers/STM32L0xx_HAL_Driver/Inc/stm32l0xx_ll_bus.h ****   */
  57:../../dependencies/STM32CubeL0/Drivers/STM32L0xx_HAL_Driver/Inc/stm32l0xx_ll_bus.h **** 
  58:../../dependencies/STM32CubeL0/Drivers/STM32L0xx_HAL_Driver/Inc/stm32l0xx_ll_bus.h **** /* Private types -------------------------------------------------------------*/
  59:../../dependencies/STM32CubeL0/Drivers/STM32L0xx_HAL_Driver/Inc/stm32l0xx_ll_bus.h **** /* Private variables ---------------------------------------------------------*/
  60:../../dependencies/STM32CubeL0/Drivers/STM32L0xx_HAL_Driver/Inc/stm32l0xx_ll_bus.h **** 
  61:../../dependencies/STM32CubeL0/Drivers/STM32L0xx_HAL_Driver/Inc/stm32l0xx_ll_bus.h **** /* Private constants ---------------------------------------------------------*/
  62:../../dependencies/STM32CubeL0/Drivers/STM32L0xx_HAL_Driver/Inc/stm32l0xx_ll_bus.h **** 
  63:../../dependencies/STM32CubeL0/Drivers/STM32L0xx_HAL_Driver/Inc/stm32l0xx_ll_bus.h **** /* Private macros ------------------------------------------------------------*/
  64:../../dependencies/STM32CubeL0/Drivers/STM32L0xx_HAL_Driver/Inc/stm32l0xx_ll_bus.h **** 
  65:../../dependencies/STM32CubeL0/Drivers/STM32L0xx_HAL_Driver/Inc/stm32l0xx_ll_bus.h **** /* Exported types ------------------------------------------------------------*/
  66:../../dependencies/STM32CubeL0/Drivers/STM32L0xx_HAL_Driver/Inc/stm32l0xx_ll_bus.h **** /* Exported constants --------------------------------------------------------*/
  67:../../dependencies/STM32CubeL0/Drivers/STM32L0xx_HAL_Driver/Inc/stm32l0xx_ll_bus.h **** /** @defgroup BUS_LL_Exported_Constants BUS Exported Constants
  68:../../dependencies/STM32CubeL0/Drivers/STM32L0xx_HAL_Driver/Inc/stm32l0xx_ll_bus.h ****   * @{
  69:../../dependencies/STM32CubeL0/Drivers/STM32L0xx_HAL_Driver/Inc/stm32l0xx_ll_bus.h ****   */
  70:../../dependencies/STM32CubeL0/Drivers/STM32L0xx_HAL_Driver/Inc/stm32l0xx_ll_bus.h **** 
  71:../../dependencies/STM32CubeL0/Drivers/STM32L0xx_HAL_Driver/Inc/stm32l0xx_ll_bus.h **** /** @defgroup BUS_LL_EC_AHB1_GRP1_PERIPH  AHB1 GRP1 PERIPH
  72:../../dependencies/STM32CubeL0/Drivers/STM32L0xx_HAL_Driver/Inc/stm32l0xx_ll_bus.h ****   * @{
  73:../../dependencies/STM32CubeL0/Drivers/STM32L0xx_HAL_Driver/Inc/stm32l0xx_ll_bus.h ****   */
  74:../../dependencies/STM32CubeL0/Drivers/STM32L0xx_HAL_Driver/Inc/stm32l0xx_ll_bus.h **** #define LL_AHB1_GRP1_PERIPH_ALL            0xFFFFFFFFU
  75:../../dependencies/STM32CubeL0/Drivers/STM32L0xx_HAL_Driver/Inc/stm32l0xx_ll_bus.h **** #define LL_AHB1_GRP1_PERIPH_DMA1           RCC_AHBENR_DMA1EN      /*!< DMA1 clock enable */
  76:../../dependencies/STM32CubeL0/Drivers/STM32L0xx_HAL_Driver/Inc/stm32l0xx_ll_bus.h **** #define LL_AHB1_GRP1_PERIPH_MIF            RCC_AHBENR_MIFEN       /*!< MIF clock enable */
  77:../../dependencies/STM32CubeL0/Drivers/STM32L0xx_HAL_Driver/Inc/stm32l0xx_ll_bus.h **** #define LL_AHB1_GRP1_PERIPH_SRAM           RCC_AHBSMENR_SRAMSMEN  /*!< Sleep Mode SRAM clock enable
  78:../../dependencies/STM32CubeL0/Drivers/STM32L0xx_HAL_Driver/Inc/stm32l0xx_ll_bus.h **** #define LL_AHB1_GRP1_PERIPH_CRC            RCC_AHBENR_CRCEN       /*!< CRC clock enable */
  79:../../dependencies/STM32CubeL0/Drivers/STM32L0xx_HAL_Driver/Inc/stm32l0xx_ll_bus.h **** #if defined(TSC)
  80:../../dependencies/STM32CubeL0/Drivers/STM32L0xx_HAL_Driver/Inc/stm32l0xx_ll_bus.h **** #define LL_AHB1_GRP1_PERIPH_TSC            RCC_AHBENR_TSCEN       /*!< TSC clock enable */
  81:../../dependencies/STM32CubeL0/Drivers/STM32L0xx_HAL_Driver/Inc/stm32l0xx_ll_bus.h **** #endif /*TSC*/
  82:../../dependencies/STM32CubeL0/Drivers/STM32L0xx_HAL_Driver/Inc/stm32l0xx_ll_bus.h **** #if defined(RNG)
  83:../../dependencies/STM32CubeL0/Drivers/STM32L0xx_HAL_Driver/Inc/stm32l0xx_ll_bus.h **** #define LL_AHB1_GRP1_PERIPH_RNG            RCC_AHBENR_RNGEN       /*!< RNG clock enable */
  84:../../dependencies/STM32CubeL0/Drivers/STM32L0xx_HAL_Driver/Inc/stm32l0xx_ll_bus.h **** #endif /*RNG*/
  85:../../dependencies/STM32CubeL0/Drivers/STM32L0xx_HAL_Driver/Inc/stm32l0xx_ll_bus.h **** #if defined(AES)
  86:../../dependencies/STM32CubeL0/Drivers/STM32L0xx_HAL_Driver/Inc/stm32l0xx_ll_bus.h **** #define LL_AHB1_GRP1_PERIPH_CRYP           RCC_AHBENR_CRYPEN      /*!< CRYP clock enable */
  87:../../dependencies/STM32CubeL0/Drivers/STM32L0xx_HAL_Driver/Inc/stm32l0xx_ll_bus.h **** #endif /*AES*/
  88:../../dependencies/STM32CubeL0/Drivers/STM32L0xx_HAL_Driver/Inc/stm32l0xx_ll_bus.h **** /**
  89:../../dependencies/STM32CubeL0/Drivers/STM32L0xx_HAL_Driver/Inc/stm32l0xx_ll_bus.h ****   * @}
  90:../../dependencies/STM32CubeL0/Drivers/STM32L0xx_HAL_Driver/Inc/stm32l0xx_ll_bus.h ****   */
ARM GAS  /tmp/ccpljSGR.s 			page 3


  91:../../dependencies/STM32CubeL0/Drivers/STM32L0xx_HAL_Driver/Inc/stm32l0xx_ll_bus.h **** 
  92:../../dependencies/STM32CubeL0/Drivers/STM32L0xx_HAL_Driver/Inc/stm32l0xx_ll_bus.h **** 
  93:../../dependencies/STM32CubeL0/Drivers/STM32L0xx_HAL_Driver/Inc/stm32l0xx_ll_bus.h **** /** @defgroup BUS_LL_EC_APB1_GRP1_PERIPH  APB1 GRP1 PERIPH
  94:../../dependencies/STM32CubeL0/Drivers/STM32L0xx_HAL_Driver/Inc/stm32l0xx_ll_bus.h ****   * @{
  95:../../dependencies/STM32CubeL0/Drivers/STM32L0xx_HAL_Driver/Inc/stm32l0xx_ll_bus.h ****   */
  96:../../dependencies/STM32CubeL0/Drivers/STM32L0xx_HAL_Driver/Inc/stm32l0xx_ll_bus.h **** #define LL_APB1_GRP1_PERIPH_ALL            0xFFFFFFFFU
  97:../../dependencies/STM32CubeL0/Drivers/STM32L0xx_HAL_Driver/Inc/stm32l0xx_ll_bus.h **** #define LL_APB1_GRP1_PERIPH_TIM2           RCC_APB1ENR_TIM2EN     /*!< TIM2 clock enable */
  98:../../dependencies/STM32CubeL0/Drivers/STM32L0xx_HAL_Driver/Inc/stm32l0xx_ll_bus.h **** #if defined(TIM3)
  99:../../dependencies/STM32CubeL0/Drivers/STM32L0xx_HAL_Driver/Inc/stm32l0xx_ll_bus.h **** #define LL_APB1_GRP1_PERIPH_TIM3           RCC_APB1ENR_TIM3EN     /*!< TIM3 clock enable */
 100:../../dependencies/STM32CubeL0/Drivers/STM32L0xx_HAL_Driver/Inc/stm32l0xx_ll_bus.h **** #endif
 101:../../dependencies/STM32CubeL0/Drivers/STM32L0xx_HAL_Driver/Inc/stm32l0xx_ll_bus.h **** #if defined(TIM6)
 102:../../dependencies/STM32CubeL0/Drivers/STM32L0xx_HAL_Driver/Inc/stm32l0xx_ll_bus.h **** #define LL_APB1_GRP1_PERIPH_TIM6           RCC_APB1ENR_TIM6EN     /*!< TIM6 clock enable */
 103:../../dependencies/STM32CubeL0/Drivers/STM32L0xx_HAL_Driver/Inc/stm32l0xx_ll_bus.h **** #endif
 104:../../dependencies/STM32CubeL0/Drivers/STM32L0xx_HAL_Driver/Inc/stm32l0xx_ll_bus.h **** #if defined(TIM7)
 105:../../dependencies/STM32CubeL0/Drivers/STM32L0xx_HAL_Driver/Inc/stm32l0xx_ll_bus.h **** #define LL_APB1_GRP1_PERIPH_TIM7           RCC_APB1ENR_TIM7EN     /*!< TIM7 clock enable */
 106:../../dependencies/STM32CubeL0/Drivers/STM32L0xx_HAL_Driver/Inc/stm32l0xx_ll_bus.h **** #endif
 107:../../dependencies/STM32CubeL0/Drivers/STM32L0xx_HAL_Driver/Inc/stm32l0xx_ll_bus.h **** #if defined(LCD)
 108:../../dependencies/STM32CubeL0/Drivers/STM32L0xx_HAL_Driver/Inc/stm32l0xx_ll_bus.h **** #define LL_APB1_GRP1_PERIPH_LCD            RCC_APB1ENR_LCDEN      /*!< LCD clock enable */
 109:../../dependencies/STM32CubeL0/Drivers/STM32L0xx_HAL_Driver/Inc/stm32l0xx_ll_bus.h **** #endif /*LCD*/
 110:../../dependencies/STM32CubeL0/Drivers/STM32L0xx_HAL_Driver/Inc/stm32l0xx_ll_bus.h **** #define LL_APB1_GRP1_PERIPH_WWDG           RCC_APB1ENR_WWDGEN     /*!< WWDG clock enable */
 111:../../dependencies/STM32CubeL0/Drivers/STM32L0xx_HAL_Driver/Inc/stm32l0xx_ll_bus.h **** #if defined(SPI2)
 112:../../dependencies/STM32CubeL0/Drivers/STM32L0xx_HAL_Driver/Inc/stm32l0xx_ll_bus.h **** #define LL_APB1_GRP1_PERIPH_SPI2           RCC_APB1ENR_SPI2EN     /*!< SPI2 clock enable */
 113:../../dependencies/STM32CubeL0/Drivers/STM32L0xx_HAL_Driver/Inc/stm32l0xx_ll_bus.h **** #endif
 114:../../dependencies/STM32CubeL0/Drivers/STM32L0xx_HAL_Driver/Inc/stm32l0xx_ll_bus.h **** #define LL_APB1_GRP1_PERIPH_USART2         RCC_APB1ENR_USART2EN   /*!< USART2 clock enable */
 115:../../dependencies/STM32CubeL0/Drivers/STM32L0xx_HAL_Driver/Inc/stm32l0xx_ll_bus.h **** #define LL_APB1_GRP1_PERIPH_LPUART1        RCC_APB1ENR_LPUART1EN  /*!< LPUART1 clock enable */
 116:../../dependencies/STM32CubeL0/Drivers/STM32L0xx_HAL_Driver/Inc/stm32l0xx_ll_bus.h **** #if defined(USART4)
 117:../../dependencies/STM32CubeL0/Drivers/STM32L0xx_HAL_Driver/Inc/stm32l0xx_ll_bus.h **** #define LL_APB1_GRP1_PERIPH_USART4         RCC_APB1ENR_USART4EN   /*!< USART4 clock enable */
 118:../../dependencies/STM32CubeL0/Drivers/STM32L0xx_HAL_Driver/Inc/stm32l0xx_ll_bus.h **** #endif
 119:../../dependencies/STM32CubeL0/Drivers/STM32L0xx_HAL_Driver/Inc/stm32l0xx_ll_bus.h **** #if defined(USART5)
 120:../../dependencies/STM32CubeL0/Drivers/STM32L0xx_HAL_Driver/Inc/stm32l0xx_ll_bus.h **** #define LL_APB1_GRP1_PERIPH_USART5         RCC_APB1ENR_USART5EN   /*!< USART5 clock enable */
 121:../../dependencies/STM32CubeL0/Drivers/STM32L0xx_HAL_Driver/Inc/stm32l0xx_ll_bus.h **** #endif
 122:../../dependencies/STM32CubeL0/Drivers/STM32L0xx_HAL_Driver/Inc/stm32l0xx_ll_bus.h **** #define LL_APB1_GRP1_PERIPH_I2C1           RCC_APB1ENR_I2C1EN     /*!< I2C1 clock enable */
 123:../../dependencies/STM32CubeL0/Drivers/STM32L0xx_HAL_Driver/Inc/stm32l0xx_ll_bus.h **** #if defined(I2C2)
 124:../../dependencies/STM32CubeL0/Drivers/STM32L0xx_HAL_Driver/Inc/stm32l0xx_ll_bus.h **** #define LL_APB1_GRP1_PERIPH_I2C2           RCC_APB1ENR_I2C2EN     /*!< I2C2 clock enable */
 125:../../dependencies/STM32CubeL0/Drivers/STM32L0xx_HAL_Driver/Inc/stm32l0xx_ll_bus.h **** #endif
 126:../../dependencies/STM32CubeL0/Drivers/STM32L0xx_HAL_Driver/Inc/stm32l0xx_ll_bus.h **** #if defined(USB)
 127:../../dependencies/STM32CubeL0/Drivers/STM32L0xx_HAL_Driver/Inc/stm32l0xx_ll_bus.h **** #define LL_APB1_GRP1_PERIPH_USB            RCC_APB1ENR_USBEN      /*!< USB clock enable */
 128:../../dependencies/STM32CubeL0/Drivers/STM32L0xx_HAL_Driver/Inc/stm32l0xx_ll_bus.h **** #endif /*USB*/
 129:../../dependencies/STM32CubeL0/Drivers/STM32L0xx_HAL_Driver/Inc/stm32l0xx_ll_bus.h **** #if defined(CRS)
 130:../../dependencies/STM32CubeL0/Drivers/STM32L0xx_HAL_Driver/Inc/stm32l0xx_ll_bus.h **** #define LL_APB1_GRP1_PERIPH_CRS            RCC_APB1ENR_CRSEN      /*!< CRS clock enable */
 131:../../dependencies/STM32CubeL0/Drivers/STM32L0xx_HAL_Driver/Inc/stm32l0xx_ll_bus.h **** #endif /*CRS*/
 132:../../dependencies/STM32CubeL0/Drivers/STM32L0xx_HAL_Driver/Inc/stm32l0xx_ll_bus.h **** #define LL_APB1_GRP1_PERIPH_PWR            RCC_APB1ENR_PWREN      /*!< PWR clock enable */
 133:../../dependencies/STM32CubeL0/Drivers/STM32L0xx_HAL_Driver/Inc/stm32l0xx_ll_bus.h **** #if defined(DAC)
 134:../../dependencies/STM32CubeL0/Drivers/STM32L0xx_HAL_Driver/Inc/stm32l0xx_ll_bus.h **** #define LL_APB1_GRP1_PERIPH_DAC1           RCC_APB1ENR_DACEN      /*!< DAC clock enable */
 135:../../dependencies/STM32CubeL0/Drivers/STM32L0xx_HAL_Driver/Inc/stm32l0xx_ll_bus.h **** #endif
 136:../../dependencies/STM32CubeL0/Drivers/STM32L0xx_HAL_Driver/Inc/stm32l0xx_ll_bus.h **** #if defined(I2C3)
 137:../../dependencies/STM32CubeL0/Drivers/STM32L0xx_HAL_Driver/Inc/stm32l0xx_ll_bus.h **** #define LL_APB1_GRP1_PERIPH_I2C3           RCC_APB1ENR_I2C3EN     /*!< I2C3 clock enable */
 138:../../dependencies/STM32CubeL0/Drivers/STM32L0xx_HAL_Driver/Inc/stm32l0xx_ll_bus.h **** #endif
 139:../../dependencies/STM32CubeL0/Drivers/STM32L0xx_HAL_Driver/Inc/stm32l0xx_ll_bus.h **** #define LL_APB1_GRP1_PERIPH_LPTIM1         RCC_APB1ENR_LPTIM1EN   /*!< LPTIM1 clock enable */
 140:../../dependencies/STM32CubeL0/Drivers/STM32L0xx_HAL_Driver/Inc/stm32l0xx_ll_bus.h **** /**
 141:../../dependencies/STM32CubeL0/Drivers/STM32L0xx_HAL_Driver/Inc/stm32l0xx_ll_bus.h ****   * @}
 142:../../dependencies/STM32CubeL0/Drivers/STM32L0xx_HAL_Driver/Inc/stm32l0xx_ll_bus.h ****   */
 143:../../dependencies/STM32CubeL0/Drivers/STM32L0xx_HAL_Driver/Inc/stm32l0xx_ll_bus.h **** 
 144:../../dependencies/STM32CubeL0/Drivers/STM32L0xx_HAL_Driver/Inc/stm32l0xx_ll_bus.h **** 
 145:../../dependencies/STM32CubeL0/Drivers/STM32L0xx_HAL_Driver/Inc/stm32l0xx_ll_bus.h **** 
 146:../../dependencies/STM32CubeL0/Drivers/STM32L0xx_HAL_Driver/Inc/stm32l0xx_ll_bus.h **** 
 147:../../dependencies/STM32CubeL0/Drivers/STM32L0xx_HAL_Driver/Inc/stm32l0xx_ll_bus.h **** /** @defgroup BUS_LL_EC_APB2_GRP1_PERIPH  APB2 GRP1 PERIPH
ARM GAS  /tmp/ccpljSGR.s 			page 4


 148:../../dependencies/STM32CubeL0/Drivers/STM32L0xx_HAL_Driver/Inc/stm32l0xx_ll_bus.h ****   * @{
 149:../../dependencies/STM32CubeL0/Drivers/STM32L0xx_HAL_Driver/Inc/stm32l0xx_ll_bus.h ****   */
 150:../../dependencies/STM32CubeL0/Drivers/STM32L0xx_HAL_Driver/Inc/stm32l0xx_ll_bus.h **** #define LL_APB2_GRP1_PERIPH_ALL            0xFFFFFFFFU
 151:../../dependencies/STM32CubeL0/Drivers/STM32L0xx_HAL_Driver/Inc/stm32l0xx_ll_bus.h **** #define LL_APB2_GRP1_PERIPH_SYSCFG         RCC_APB2ENR_SYSCFGEN  /*!< SYSCFG clock enable */
 152:../../dependencies/STM32CubeL0/Drivers/STM32L0xx_HAL_Driver/Inc/stm32l0xx_ll_bus.h **** #define LL_APB2_GRP1_PERIPH_TIM21          RCC_APB2ENR_TIM21EN   /*!< TIM21 clock enable */
 153:../../dependencies/STM32CubeL0/Drivers/STM32L0xx_HAL_Driver/Inc/stm32l0xx_ll_bus.h **** #if defined(TIM22)
 154:../../dependencies/STM32CubeL0/Drivers/STM32L0xx_HAL_Driver/Inc/stm32l0xx_ll_bus.h **** #define LL_APB2_GRP1_PERIPH_TIM22          RCC_APB2ENR_TIM22EN   /*!< TIM22 clock enable */
 155:../../dependencies/STM32CubeL0/Drivers/STM32L0xx_HAL_Driver/Inc/stm32l0xx_ll_bus.h **** #endif
 156:../../dependencies/STM32CubeL0/Drivers/STM32L0xx_HAL_Driver/Inc/stm32l0xx_ll_bus.h **** #define LL_APB2_GRP1_PERIPH_FW             RCC_APB2ENR_FWEN      /*!< FireWall clock enable */
 157:../../dependencies/STM32CubeL0/Drivers/STM32L0xx_HAL_Driver/Inc/stm32l0xx_ll_bus.h **** #define LL_APB2_GRP1_PERIPH_ADC1           RCC_APB2ENR_ADC1EN    /*!< ADC1 clock enable */
 158:../../dependencies/STM32CubeL0/Drivers/STM32L0xx_HAL_Driver/Inc/stm32l0xx_ll_bus.h **** #define LL_APB2_GRP1_PERIPH_SPI1           RCC_APB2ENR_SPI1EN    /*!< SPI1 clock enable */
 159:../../dependencies/STM32CubeL0/Drivers/STM32L0xx_HAL_Driver/Inc/stm32l0xx_ll_bus.h **** #if defined(USART1)
 160:../../dependencies/STM32CubeL0/Drivers/STM32L0xx_HAL_Driver/Inc/stm32l0xx_ll_bus.h **** #define LL_APB2_GRP1_PERIPH_USART1         RCC_APB2ENR_USART1EN  /*!< USART1 clock enable */
 161:../../dependencies/STM32CubeL0/Drivers/STM32L0xx_HAL_Driver/Inc/stm32l0xx_ll_bus.h **** #endif
 162:../../dependencies/STM32CubeL0/Drivers/STM32L0xx_HAL_Driver/Inc/stm32l0xx_ll_bus.h **** #define LL_APB2_GRP1_PERIPH_DBGMCU         RCC_APB2ENR_DBGMCUEN  /*!< DBGMCU clock enable */
 163:../../dependencies/STM32CubeL0/Drivers/STM32L0xx_HAL_Driver/Inc/stm32l0xx_ll_bus.h **** 
 164:../../dependencies/STM32CubeL0/Drivers/STM32L0xx_HAL_Driver/Inc/stm32l0xx_ll_bus.h **** /**
 165:../../dependencies/STM32CubeL0/Drivers/STM32L0xx_HAL_Driver/Inc/stm32l0xx_ll_bus.h ****   * @}
 166:../../dependencies/STM32CubeL0/Drivers/STM32L0xx_HAL_Driver/Inc/stm32l0xx_ll_bus.h ****   */
 167:../../dependencies/STM32CubeL0/Drivers/STM32L0xx_HAL_Driver/Inc/stm32l0xx_ll_bus.h **** 
 168:../../dependencies/STM32CubeL0/Drivers/STM32L0xx_HAL_Driver/Inc/stm32l0xx_ll_bus.h **** 
 169:../../dependencies/STM32CubeL0/Drivers/STM32L0xx_HAL_Driver/Inc/stm32l0xx_ll_bus.h **** 
 170:../../dependencies/STM32CubeL0/Drivers/STM32L0xx_HAL_Driver/Inc/stm32l0xx_ll_bus.h **** /** @defgroup BUS_LL_EC_IOP_GRP1_PERIPH  IOP GRP1 PERIPH
 171:../../dependencies/STM32CubeL0/Drivers/STM32L0xx_HAL_Driver/Inc/stm32l0xx_ll_bus.h ****   * @{
 172:../../dependencies/STM32CubeL0/Drivers/STM32L0xx_HAL_Driver/Inc/stm32l0xx_ll_bus.h ****   */
 173:../../dependencies/STM32CubeL0/Drivers/STM32L0xx_HAL_Driver/Inc/stm32l0xx_ll_bus.h **** #define LL_IOP_GRP1_PERIPH_ALL             0xFFFFFFFFU
 174:../../dependencies/STM32CubeL0/Drivers/STM32L0xx_HAL_Driver/Inc/stm32l0xx_ll_bus.h **** #define LL_IOP_GRP1_PERIPH_GPIOA           RCC_IOPENR_GPIOAEN    /*!< GPIO port A control */
 175:../../dependencies/STM32CubeL0/Drivers/STM32L0xx_HAL_Driver/Inc/stm32l0xx_ll_bus.h **** #define LL_IOP_GRP1_PERIPH_GPIOB           RCC_IOPENR_GPIOBEN    /*!< GPIO port B control */
 176:../../dependencies/STM32CubeL0/Drivers/STM32L0xx_HAL_Driver/Inc/stm32l0xx_ll_bus.h **** #define LL_IOP_GRP1_PERIPH_GPIOC           RCC_IOPENR_GPIOCEN    /*!< GPIO port C control */
 177:../../dependencies/STM32CubeL0/Drivers/STM32L0xx_HAL_Driver/Inc/stm32l0xx_ll_bus.h **** #if defined(GPIOD)
 178:../../dependencies/STM32CubeL0/Drivers/STM32L0xx_HAL_Driver/Inc/stm32l0xx_ll_bus.h **** #define LL_IOP_GRP1_PERIPH_GPIOD           RCC_IOPENR_GPIODEN    /*!< GPIO port D control */
 179:../../dependencies/STM32CubeL0/Drivers/STM32L0xx_HAL_Driver/Inc/stm32l0xx_ll_bus.h **** #endif /*GPIOD*/
 180:../../dependencies/STM32CubeL0/Drivers/STM32L0xx_HAL_Driver/Inc/stm32l0xx_ll_bus.h **** #if defined(GPIOE)
 181:../../dependencies/STM32CubeL0/Drivers/STM32L0xx_HAL_Driver/Inc/stm32l0xx_ll_bus.h **** #define LL_IOP_GRP1_PERIPH_GPIOE           RCC_IOPENR_GPIOEEN    /*!< GPIO port H control */
 182:../../dependencies/STM32CubeL0/Drivers/STM32L0xx_HAL_Driver/Inc/stm32l0xx_ll_bus.h **** #endif /*GPIOE*/
 183:../../dependencies/STM32CubeL0/Drivers/STM32L0xx_HAL_Driver/Inc/stm32l0xx_ll_bus.h **** #if defined(GPIOH)
 184:../../dependencies/STM32CubeL0/Drivers/STM32L0xx_HAL_Driver/Inc/stm32l0xx_ll_bus.h **** #define LL_IOP_GRP1_PERIPH_GPIOH           RCC_IOPENR_GPIOHEN    /*!< GPIO port H control */
 185:../../dependencies/STM32CubeL0/Drivers/STM32L0xx_HAL_Driver/Inc/stm32l0xx_ll_bus.h **** #endif /*GPIOH*/
 186:../../dependencies/STM32CubeL0/Drivers/STM32L0xx_HAL_Driver/Inc/stm32l0xx_ll_bus.h **** /**
 187:../../dependencies/STM32CubeL0/Drivers/STM32L0xx_HAL_Driver/Inc/stm32l0xx_ll_bus.h ****   * @}
 188:../../dependencies/STM32CubeL0/Drivers/STM32L0xx_HAL_Driver/Inc/stm32l0xx_ll_bus.h ****   */
 189:../../dependencies/STM32CubeL0/Drivers/STM32L0xx_HAL_Driver/Inc/stm32l0xx_ll_bus.h **** 
 190:../../dependencies/STM32CubeL0/Drivers/STM32L0xx_HAL_Driver/Inc/stm32l0xx_ll_bus.h **** 
 191:../../dependencies/STM32CubeL0/Drivers/STM32L0xx_HAL_Driver/Inc/stm32l0xx_ll_bus.h **** /**
 192:../../dependencies/STM32CubeL0/Drivers/STM32L0xx_HAL_Driver/Inc/stm32l0xx_ll_bus.h ****   * @}
 193:../../dependencies/STM32CubeL0/Drivers/STM32L0xx_HAL_Driver/Inc/stm32l0xx_ll_bus.h ****   */
 194:../../dependencies/STM32CubeL0/Drivers/STM32L0xx_HAL_Driver/Inc/stm32l0xx_ll_bus.h **** 
 195:../../dependencies/STM32CubeL0/Drivers/STM32L0xx_HAL_Driver/Inc/stm32l0xx_ll_bus.h **** /* Exported macro ------------------------------------------------------------*/
 196:../../dependencies/STM32CubeL0/Drivers/STM32L0xx_HAL_Driver/Inc/stm32l0xx_ll_bus.h **** /* Exported functions --------------------------------------------------------*/
 197:../../dependencies/STM32CubeL0/Drivers/STM32L0xx_HAL_Driver/Inc/stm32l0xx_ll_bus.h **** /** @defgroup BUS_LL_Exported_Functions BUS Exported Functions
 198:../../dependencies/STM32CubeL0/Drivers/STM32L0xx_HAL_Driver/Inc/stm32l0xx_ll_bus.h ****   * @{
 199:../../dependencies/STM32CubeL0/Drivers/STM32L0xx_HAL_Driver/Inc/stm32l0xx_ll_bus.h ****   */
 200:../../dependencies/STM32CubeL0/Drivers/STM32L0xx_HAL_Driver/Inc/stm32l0xx_ll_bus.h **** 
 201:../../dependencies/STM32CubeL0/Drivers/STM32L0xx_HAL_Driver/Inc/stm32l0xx_ll_bus.h **** /** @defgroup BUS_LL_EF_AHB1 AHB1
 202:../../dependencies/STM32CubeL0/Drivers/STM32L0xx_HAL_Driver/Inc/stm32l0xx_ll_bus.h ****   * @{
 203:../../dependencies/STM32CubeL0/Drivers/STM32L0xx_HAL_Driver/Inc/stm32l0xx_ll_bus.h ****   */
 204:../../dependencies/STM32CubeL0/Drivers/STM32L0xx_HAL_Driver/Inc/stm32l0xx_ll_bus.h **** 
ARM GAS  /tmp/ccpljSGR.s 			page 5


 205:../../dependencies/STM32CubeL0/Drivers/STM32L0xx_HAL_Driver/Inc/stm32l0xx_ll_bus.h **** /**
 206:../../dependencies/STM32CubeL0/Drivers/STM32L0xx_HAL_Driver/Inc/stm32l0xx_ll_bus.h ****   * @brief  Enable AHB1 peripherals clock.
 207:../../dependencies/STM32CubeL0/Drivers/STM32L0xx_HAL_Driver/Inc/stm32l0xx_ll_bus.h ****   * @rmtoll AHBENR      DMAEN        LL_AHB1_GRP1_EnableClock\n
 208:../../dependencies/STM32CubeL0/Drivers/STM32L0xx_HAL_Driver/Inc/stm32l0xx_ll_bus.h ****   *         AHBENR      MIFEN        LL_AHB1_GRP1_EnableClock\n
 209:../../dependencies/STM32CubeL0/Drivers/STM32L0xx_HAL_Driver/Inc/stm32l0xx_ll_bus.h ****   *         AHBENR      CRCEN        LL_AHB1_GRP1_EnableClock\n
 210:../../dependencies/STM32CubeL0/Drivers/STM32L0xx_HAL_Driver/Inc/stm32l0xx_ll_bus.h ****   *         AHBENR      TSCEN        LL_AHB1_GRP1_EnableClock\n
 211:../../dependencies/STM32CubeL0/Drivers/STM32L0xx_HAL_Driver/Inc/stm32l0xx_ll_bus.h ****   *         AHBENR      RNGEN        LL_AHB1_GRP1_EnableClock\n
 212:../../dependencies/STM32CubeL0/Drivers/STM32L0xx_HAL_Driver/Inc/stm32l0xx_ll_bus.h ****   *         AHBENR      CRYPEN       LL_AHB1_GRP1_EnableClock
 213:../../dependencies/STM32CubeL0/Drivers/STM32L0xx_HAL_Driver/Inc/stm32l0xx_ll_bus.h ****   * @param  Periphs This parameter can be a combination of the following values:
 214:../../dependencies/STM32CubeL0/Drivers/STM32L0xx_HAL_Driver/Inc/stm32l0xx_ll_bus.h ****   *         @arg @ref LL_AHB1_GRP1_PERIPH_DMA1
 215:../../dependencies/STM32CubeL0/Drivers/STM32L0xx_HAL_Driver/Inc/stm32l0xx_ll_bus.h ****   *         @arg @ref LL_AHB1_GRP1_PERIPH_MIF
 216:../../dependencies/STM32CubeL0/Drivers/STM32L0xx_HAL_Driver/Inc/stm32l0xx_ll_bus.h ****   *         @arg @ref LL_AHB1_GRP1_PERIPH_CRC
 217:../../dependencies/STM32CubeL0/Drivers/STM32L0xx_HAL_Driver/Inc/stm32l0xx_ll_bus.h ****   *         @arg @ref LL_AHB1_GRP1_PERIPH_TSC (*)
 218:../../dependencies/STM32CubeL0/Drivers/STM32L0xx_HAL_Driver/Inc/stm32l0xx_ll_bus.h ****   *         @arg @ref LL_AHB1_GRP1_PERIPH_RNG (*)
 219:../../dependencies/STM32CubeL0/Drivers/STM32L0xx_HAL_Driver/Inc/stm32l0xx_ll_bus.h ****   *         @arg @ref LL_AHB1_GRP1_PERIPH_CRYP (*)
 220:../../dependencies/STM32CubeL0/Drivers/STM32L0xx_HAL_Driver/Inc/stm32l0xx_ll_bus.h ****   *
 221:../../dependencies/STM32CubeL0/Drivers/STM32L0xx_HAL_Driver/Inc/stm32l0xx_ll_bus.h ****   *         (*) value not defined in all devices.
 222:../../dependencies/STM32CubeL0/Drivers/STM32L0xx_HAL_Driver/Inc/stm32l0xx_ll_bus.h ****   * @retval None
 223:../../dependencies/STM32CubeL0/Drivers/STM32L0xx_HAL_Driver/Inc/stm32l0xx_ll_bus.h **** */
 224:../../dependencies/STM32CubeL0/Drivers/STM32L0xx_HAL_Driver/Inc/stm32l0xx_ll_bus.h **** __STATIC_INLINE void LL_AHB1_GRP1_EnableClock(uint32_t Periphs)
 225:../../dependencies/STM32CubeL0/Drivers/STM32L0xx_HAL_Driver/Inc/stm32l0xx_ll_bus.h **** {
 226:../../dependencies/STM32CubeL0/Drivers/STM32L0xx_HAL_Driver/Inc/stm32l0xx_ll_bus.h ****   __IO uint32_t tmpreg;
 227:../../dependencies/STM32CubeL0/Drivers/STM32L0xx_HAL_Driver/Inc/stm32l0xx_ll_bus.h ****   SET_BIT(RCC->AHBENR, Periphs);
 228:../../dependencies/STM32CubeL0/Drivers/STM32L0xx_HAL_Driver/Inc/stm32l0xx_ll_bus.h ****   /* Delay after an RCC peripheral clock enabling */
 229:../../dependencies/STM32CubeL0/Drivers/STM32L0xx_HAL_Driver/Inc/stm32l0xx_ll_bus.h ****   tmpreg = READ_BIT(RCC->AHBENR, Periphs);
 230:../../dependencies/STM32CubeL0/Drivers/STM32L0xx_HAL_Driver/Inc/stm32l0xx_ll_bus.h ****   (void)tmpreg;
 231:../../dependencies/STM32CubeL0/Drivers/STM32L0xx_HAL_Driver/Inc/stm32l0xx_ll_bus.h **** }
 232:../../dependencies/STM32CubeL0/Drivers/STM32L0xx_HAL_Driver/Inc/stm32l0xx_ll_bus.h **** 
 233:../../dependencies/STM32CubeL0/Drivers/STM32L0xx_HAL_Driver/Inc/stm32l0xx_ll_bus.h **** /**
 234:../../dependencies/STM32CubeL0/Drivers/STM32L0xx_HAL_Driver/Inc/stm32l0xx_ll_bus.h ****   * @brief  Check if AHB1 peripheral clock is enabled or not
 235:../../dependencies/STM32CubeL0/Drivers/STM32L0xx_HAL_Driver/Inc/stm32l0xx_ll_bus.h ****   * @rmtoll AHBENR      DMAEN        LL_AHB1_GRP1_IsEnabledClock\n
 236:../../dependencies/STM32CubeL0/Drivers/STM32L0xx_HAL_Driver/Inc/stm32l0xx_ll_bus.h ****   *         AHBENR      MIFEN        LL_AHB1_GRP1_IsEnabledClock\n
 237:../../dependencies/STM32CubeL0/Drivers/STM32L0xx_HAL_Driver/Inc/stm32l0xx_ll_bus.h ****   *         AHBENR      CRCEN        LL_AHB1_GRP1_IsEnabledClock\n
 238:../../dependencies/STM32CubeL0/Drivers/STM32L0xx_HAL_Driver/Inc/stm32l0xx_ll_bus.h ****   *         AHBENR      TSCEN        LL_AHB1_GRP1_IsEnabledClock\n
 239:../../dependencies/STM32CubeL0/Drivers/STM32L0xx_HAL_Driver/Inc/stm32l0xx_ll_bus.h ****   *         AHBENR      RNGEN        LL_AHB1_GRP1_IsEnabledClock\n
 240:../../dependencies/STM32CubeL0/Drivers/STM32L0xx_HAL_Driver/Inc/stm32l0xx_ll_bus.h ****   *         AHBENR      CRYPEN       LL_AHB1_GRP1_IsEnabledClock
 241:../../dependencies/STM32CubeL0/Drivers/STM32L0xx_HAL_Driver/Inc/stm32l0xx_ll_bus.h ****   * @param  Periphs This parameter can be a combination of the following values:
 242:../../dependencies/STM32CubeL0/Drivers/STM32L0xx_HAL_Driver/Inc/stm32l0xx_ll_bus.h ****   *         @arg @ref LL_AHB1_GRP1_PERIPH_DMA1
 243:../../dependencies/STM32CubeL0/Drivers/STM32L0xx_HAL_Driver/Inc/stm32l0xx_ll_bus.h ****   *         @arg @ref LL_AHB1_GRP1_PERIPH_MIF
 244:../../dependencies/STM32CubeL0/Drivers/STM32L0xx_HAL_Driver/Inc/stm32l0xx_ll_bus.h ****   *         @arg @ref LL_AHB1_GRP1_PERIPH_CRC
 245:../../dependencies/STM32CubeL0/Drivers/STM32L0xx_HAL_Driver/Inc/stm32l0xx_ll_bus.h ****   *         @arg @ref LL_AHB1_GRP1_PERIPH_TSC (*)
 246:../../dependencies/STM32CubeL0/Drivers/STM32L0xx_HAL_Driver/Inc/stm32l0xx_ll_bus.h ****   *         @arg @ref LL_AHB1_GRP1_PERIPH_RNG (*)
 247:../../dependencies/STM32CubeL0/Drivers/STM32L0xx_HAL_Driver/Inc/stm32l0xx_ll_bus.h ****   *         @arg @ref LL_AHB1_GRP1_PERIPH_CRYP (*)
 248:../../dependencies/STM32CubeL0/Drivers/STM32L0xx_HAL_Driver/Inc/stm32l0xx_ll_bus.h ****   *
 249:../../dependencies/STM32CubeL0/Drivers/STM32L0xx_HAL_Driver/Inc/stm32l0xx_ll_bus.h ****   *         (*) value not defined in all devices.
 250:../../dependencies/STM32CubeL0/Drivers/STM32L0xx_HAL_Driver/Inc/stm32l0xx_ll_bus.h ****   * @retval State of Periphs (1 or 0).
 251:../../dependencies/STM32CubeL0/Drivers/STM32L0xx_HAL_Driver/Inc/stm32l0xx_ll_bus.h **** */
 252:../../dependencies/STM32CubeL0/Drivers/STM32L0xx_HAL_Driver/Inc/stm32l0xx_ll_bus.h **** __STATIC_INLINE uint32_t LL_AHB1_GRP1_IsEnabledClock(uint32_t Periphs)
 253:../../dependencies/STM32CubeL0/Drivers/STM32L0xx_HAL_Driver/Inc/stm32l0xx_ll_bus.h **** {
 254:../../dependencies/STM32CubeL0/Drivers/STM32L0xx_HAL_Driver/Inc/stm32l0xx_ll_bus.h ****   return ((READ_BIT(RCC->AHBENR, Periphs) == (Periphs)) ? 1UL : 0UL);
 255:../../dependencies/STM32CubeL0/Drivers/STM32L0xx_HAL_Driver/Inc/stm32l0xx_ll_bus.h **** }
 256:../../dependencies/STM32CubeL0/Drivers/STM32L0xx_HAL_Driver/Inc/stm32l0xx_ll_bus.h **** 
 257:../../dependencies/STM32CubeL0/Drivers/STM32L0xx_HAL_Driver/Inc/stm32l0xx_ll_bus.h **** /**
 258:../../dependencies/STM32CubeL0/Drivers/STM32L0xx_HAL_Driver/Inc/stm32l0xx_ll_bus.h ****   * @brief  Disable AHB1 peripherals clock.
 259:../../dependencies/STM32CubeL0/Drivers/STM32L0xx_HAL_Driver/Inc/stm32l0xx_ll_bus.h ****   * @rmtoll AHBENR      DMAEN        LL_AHB1_GRP1_DisableClock\n
 260:../../dependencies/STM32CubeL0/Drivers/STM32L0xx_HAL_Driver/Inc/stm32l0xx_ll_bus.h ****   *         AHBENR      MIFEN        LL_AHB1_GRP1_DisableClock\n
 261:../../dependencies/STM32CubeL0/Drivers/STM32L0xx_HAL_Driver/Inc/stm32l0xx_ll_bus.h ****   *         AHBENR      CRCEN        LL_AHB1_GRP1_DisableClock\n
ARM GAS  /tmp/ccpljSGR.s 			page 6


 262:../../dependencies/STM32CubeL0/Drivers/STM32L0xx_HAL_Driver/Inc/stm32l0xx_ll_bus.h ****   *         AHBENR      TSCEN        LL_AHB1_GRP1_DisableClock\n
 263:../../dependencies/STM32CubeL0/Drivers/STM32L0xx_HAL_Driver/Inc/stm32l0xx_ll_bus.h ****   *         AHBENR      RNGEN        LL_AHB1_GRP1_DisableClock\n
 264:../../dependencies/STM32CubeL0/Drivers/STM32L0xx_HAL_Driver/Inc/stm32l0xx_ll_bus.h ****   *         AHBENR      CRYPEN       LL_AHB1_GRP1_DisableClock
 265:../../dependencies/STM32CubeL0/Drivers/STM32L0xx_HAL_Driver/Inc/stm32l0xx_ll_bus.h ****   * @param  Periphs This parameter can be a combination of the following values:
 266:../../dependencies/STM32CubeL0/Drivers/STM32L0xx_HAL_Driver/Inc/stm32l0xx_ll_bus.h ****   *         @arg @ref LL_AHB1_GRP1_PERIPH_DMA1
 267:../../dependencies/STM32CubeL0/Drivers/STM32L0xx_HAL_Driver/Inc/stm32l0xx_ll_bus.h ****   *         @arg @ref LL_AHB1_GRP1_PERIPH_MIF
 268:../../dependencies/STM32CubeL0/Drivers/STM32L0xx_HAL_Driver/Inc/stm32l0xx_ll_bus.h ****   *         @arg @ref LL_AHB1_GRP1_PERIPH_CRC
 269:../../dependencies/STM32CubeL0/Drivers/STM32L0xx_HAL_Driver/Inc/stm32l0xx_ll_bus.h ****   *         @arg @ref LL_AHB1_GRP1_PERIPH_TSC (*)
 270:../../dependencies/STM32CubeL0/Drivers/STM32L0xx_HAL_Driver/Inc/stm32l0xx_ll_bus.h ****   *         @arg @ref LL_AHB1_GRP1_PERIPH_RNG (*)
 271:../../dependencies/STM32CubeL0/Drivers/STM32L0xx_HAL_Driver/Inc/stm32l0xx_ll_bus.h ****   *         @arg @ref LL_AHB1_GRP1_PERIPH_CRYP (*)
 272:../../dependencies/STM32CubeL0/Drivers/STM32L0xx_HAL_Driver/Inc/stm32l0xx_ll_bus.h ****   *
 273:../../dependencies/STM32CubeL0/Drivers/STM32L0xx_HAL_Driver/Inc/stm32l0xx_ll_bus.h ****   *         (*) value not defined in all devices.
 274:../../dependencies/STM32CubeL0/Drivers/STM32L0xx_HAL_Driver/Inc/stm32l0xx_ll_bus.h ****   * @retval None
 275:../../dependencies/STM32CubeL0/Drivers/STM32L0xx_HAL_Driver/Inc/stm32l0xx_ll_bus.h **** */
 276:../../dependencies/STM32CubeL0/Drivers/STM32L0xx_HAL_Driver/Inc/stm32l0xx_ll_bus.h **** __STATIC_INLINE void LL_AHB1_GRP1_DisableClock(uint32_t Periphs)
 277:../../dependencies/STM32CubeL0/Drivers/STM32L0xx_HAL_Driver/Inc/stm32l0xx_ll_bus.h **** {
 278:../../dependencies/STM32CubeL0/Drivers/STM32L0xx_HAL_Driver/Inc/stm32l0xx_ll_bus.h ****   CLEAR_BIT(RCC->AHBENR, Periphs);
 279:../../dependencies/STM32CubeL0/Drivers/STM32L0xx_HAL_Driver/Inc/stm32l0xx_ll_bus.h **** }
 280:../../dependencies/STM32CubeL0/Drivers/STM32L0xx_HAL_Driver/Inc/stm32l0xx_ll_bus.h **** 
 281:../../dependencies/STM32CubeL0/Drivers/STM32L0xx_HAL_Driver/Inc/stm32l0xx_ll_bus.h **** /**
 282:../../dependencies/STM32CubeL0/Drivers/STM32L0xx_HAL_Driver/Inc/stm32l0xx_ll_bus.h ****   * @brief  Force AHB1 peripherals reset.
 283:../../dependencies/STM32CubeL0/Drivers/STM32L0xx_HAL_Driver/Inc/stm32l0xx_ll_bus.h ****   * @rmtoll AHBRSTR      DMARST        LL_AHB1_GRP1_ForceReset\n
 284:../../dependencies/STM32CubeL0/Drivers/STM32L0xx_HAL_Driver/Inc/stm32l0xx_ll_bus.h ****   *         AHBRSTR      MIFRST        LL_AHB1_GRP1_ForceReset\n
 285:../../dependencies/STM32CubeL0/Drivers/STM32L0xx_HAL_Driver/Inc/stm32l0xx_ll_bus.h ****   *         AHBRSTR      CRCRST        LL_AHB1_GRP1_ForceReset\n
 286:../../dependencies/STM32CubeL0/Drivers/STM32L0xx_HAL_Driver/Inc/stm32l0xx_ll_bus.h ****   *         AHBRSTR      TSCRST        LL_AHB1_GRP1_ForceReset\n
 287:../../dependencies/STM32CubeL0/Drivers/STM32L0xx_HAL_Driver/Inc/stm32l0xx_ll_bus.h ****   *         AHBRSTR      RNGRST        LL_AHB1_GRP1_ForceReset\n
 288:../../dependencies/STM32CubeL0/Drivers/STM32L0xx_HAL_Driver/Inc/stm32l0xx_ll_bus.h ****   *         AHBRSTR      CRYPRST       LL_AHB1_GRP1_ForceReset
 289:../../dependencies/STM32CubeL0/Drivers/STM32L0xx_HAL_Driver/Inc/stm32l0xx_ll_bus.h ****   * @param  Periphs This parameter can be a combination of the following values:
 290:../../dependencies/STM32CubeL0/Drivers/STM32L0xx_HAL_Driver/Inc/stm32l0xx_ll_bus.h ****   *         @arg @ref LL_AHB1_GRP1_PERIPH_ALL
 291:../../dependencies/STM32CubeL0/Drivers/STM32L0xx_HAL_Driver/Inc/stm32l0xx_ll_bus.h ****   *         @arg @ref LL_AHB1_GRP1_PERIPH_DMA1
 292:../../dependencies/STM32CubeL0/Drivers/STM32L0xx_HAL_Driver/Inc/stm32l0xx_ll_bus.h ****   *         @arg @ref LL_AHB1_GRP1_PERIPH_MIF
 293:../../dependencies/STM32CubeL0/Drivers/STM32L0xx_HAL_Driver/Inc/stm32l0xx_ll_bus.h ****   *         @arg @ref LL_AHB1_GRP1_PERIPH_CRC
 294:../../dependencies/STM32CubeL0/Drivers/STM32L0xx_HAL_Driver/Inc/stm32l0xx_ll_bus.h ****   *         @arg @ref LL_AHB1_GRP1_PERIPH_TSC (*)
 295:../../dependencies/STM32CubeL0/Drivers/STM32L0xx_HAL_Driver/Inc/stm32l0xx_ll_bus.h ****   *         @arg @ref LL_AHB1_GRP1_PERIPH_RNG (*)
 296:../../dependencies/STM32CubeL0/Drivers/STM32L0xx_HAL_Driver/Inc/stm32l0xx_ll_bus.h ****   *         @arg @ref LL_AHB1_GRP1_PERIPH_CRYP (*)
 297:../../dependencies/STM32CubeL0/Drivers/STM32L0xx_HAL_Driver/Inc/stm32l0xx_ll_bus.h ****   *
 298:../../dependencies/STM32CubeL0/Drivers/STM32L0xx_HAL_Driver/Inc/stm32l0xx_ll_bus.h ****   *         (*) value not defined in all devices.
 299:../../dependencies/STM32CubeL0/Drivers/STM32L0xx_HAL_Driver/Inc/stm32l0xx_ll_bus.h ****   * @retval None
 300:../../dependencies/STM32CubeL0/Drivers/STM32L0xx_HAL_Driver/Inc/stm32l0xx_ll_bus.h **** */
 301:../../dependencies/STM32CubeL0/Drivers/STM32L0xx_HAL_Driver/Inc/stm32l0xx_ll_bus.h **** __STATIC_INLINE void LL_AHB1_GRP1_ForceReset(uint32_t Periphs)
 302:../../dependencies/STM32CubeL0/Drivers/STM32L0xx_HAL_Driver/Inc/stm32l0xx_ll_bus.h **** {
 303:../../dependencies/STM32CubeL0/Drivers/STM32L0xx_HAL_Driver/Inc/stm32l0xx_ll_bus.h ****   SET_BIT(RCC->AHBRSTR, Periphs);
 304:../../dependencies/STM32CubeL0/Drivers/STM32L0xx_HAL_Driver/Inc/stm32l0xx_ll_bus.h **** }
 305:../../dependencies/STM32CubeL0/Drivers/STM32L0xx_HAL_Driver/Inc/stm32l0xx_ll_bus.h **** 
 306:../../dependencies/STM32CubeL0/Drivers/STM32L0xx_HAL_Driver/Inc/stm32l0xx_ll_bus.h **** /**
 307:../../dependencies/STM32CubeL0/Drivers/STM32L0xx_HAL_Driver/Inc/stm32l0xx_ll_bus.h ****   * @brief  Release AHB1 peripherals reset.
 308:../../dependencies/STM32CubeL0/Drivers/STM32L0xx_HAL_Driver/Inc/stm32l0xx_ll_bus.h ****   * @rmtoll AHBRSTR      DMARST        LL_AHB1_GRP1_ReleaseReset\n
 309:../../dependencies/STM32CubeL0/Drivers/STM32L0xx_HAL_Driver/Inc/stm32l0xx_ll_bus.h ****   *         AHBRSTR      MIFRST        LL_AHB1_GRP1_ReleaseReset\n
 310:../../dependencies/STM32CubeL0/Drivers/STM32L0xx_HAL_Driver/Inc/stm32l0xx_ll_bus.h ****   *         AHBRSTR      CRCRST        LL_AHB1_GRP1_ReleaseReset\n
 311:../../dependencies/STM32CubeL0/Drivers/STM32L0xx_HAL_Driver/Inc/stm32l0xx_ll_bus.h ****   *         AHBRSTR      TSCRST        LL_AHB1_GRP1_ReleaseReset\n
 312:../../dependencies/STM32CubeL0/Drivers/STM32L0xx_HAL_Driver/Inc/stm32l0xx_ll_bus.h ****   *         AHBRSTR      RNGRST        LL_AHB1_GRP1_ReleaseReset\n
 313:../../dependencies/STM32CubeL0/Drivers/STM32L0xx_HAL_Driver/Inc/stm32l0xx_ll_bus.h ****   *         AHBRSTR      CRYPRST       LL_AHB1_GRP1_ReleaseReset
 314:../../dependencies/STM32CubeL0/Drivers/STM32L0xx_HAL_Driver/Inc/stm32l0xx_ll_bus.h ****   * @param  Periphs This parameter can be a combination of the following values:
 315:../../dependencies/STM32CubeL0/Drivers/STM32L0xx_HAL_Driver/Inc/stm32l0xx_ll_bus.h ****   *         @arg @ref LL_AHB1_GRP1_PERIPH_ALL
 316:../../dependencies/STM32CubeL0/Drivers/STM32L0xx_HAL_Driver/Inc/stm32l0xx_ll_bus.h ****   *         @arg @ref LL_AHB1_GRP1_PERIPH_DMA1
 317:../../dependencies/STM32CubeL0/Drivers/STM32L0xx_HAL_Driver/Inc/stm32l0xx_ll_bus.h ****   *         @arg @ref LL_AHB1_GRP1_PERIPH_MIF
 318:../../dependencies/STM32CubeL0/Drivers/STM32L0xx_HAL_Driver/Inc/stm32l0xx_ll_bus.h ****   *         @arg @ref LL_AHB1_GRP1_PERIPH_CRC
ARM GAS  /tmp/ccpljSGR.s 			page 7


 319:../../dependencies/STM32CubeL0/Drivers/STM32L0xx_HAL_Driver/Inc/stm32l0xx_ll_bus.h ****   *         @arg @ref LL_AHB1_GRP1_PERIPH_TSC (*)
 320:../../dependencies/STM32CubeL0/Drivers/STM32L0xx_HAL_Driver/Inc/stm32l0xx_ll_bus.h ****   *         @arg @ref LL_AHB1_GRP1_PERIPH_RNG (*)
 321:../../dependencies/STM32CubeL0/Drivers/STM32L0xx_HAL_Driver/Inc/stm32l0xx_ll_bus.h ****   *         @arg @ref LL_AHB1_GRP1_PERIPH_CRYP (*)
 322:../../dependencies/STM32CubeL0/Drivers/STM32L0xx_HAL_Driver/Inc/stm32l0xx_ll_bus.h ****   *
 323:../../dependencies/STM32CubeL0/Drivers/STM32L0xx_HAL_Driver/Inc/stm32l0xx_ll_bus.h ****   *         (*) value not defined in all devices.
 324:../../dependencies/STM32CubeL0/Drivers/STM32L0xx_HAL_Driver/Inc/stm32l0xx_ll_bus.h ****   * @retval None
 325:../../dependencies/STM32CubeL0/Drivers/STM32L0xx_HAL_Driver/Inc/stm32l0xx_ll_bus.h **** */
 326:../../dependencies/STM32CubeL0/Drivers/STM32L0xx_HAL_Driver/Inc/stm32l0xx_ll_bus.h **** __STATIC_INLINE void LL_AHB1_GRP1_ReleaseReset(uint32_t Periphs)
 327:../../dependencies/STM32CubeL0/Drivers/STM32L0xx_HAL_Driver/Inc/stm32l0xx_ll_bus.h **** {
 328:../../dependencies/STM32CubeL0/Drivers/STM32L0xx_HAL_Driver/Inc/stm32l0xx_ll_bus.h ****   CLEAR_BIT(RCC->AHBRSTR, Periphs);
 329:../../dependencies/STM32CubeL0/Drivers/STM32L0xx_HAL_Driver/Inc/stm32l0xx_ll_bus.h **** }
 330:../../dependencies/STM32CubeL0/Drivers/STM32L0xx_HAL_Driver/Inc/stm32l0xx_ll_bus.h **** 
 331:../../dependencies/STM32CubeL0/Drivers/STM32L0xx_HAL_Driver/Inc/stm32l0xx_ll_bus.h **** /**
 332:../../dependencies/STM32CubeL0/Drivers/STM32L0xx_HAL_Driver/Inc/stm32l0xx_ll_bus.h ****   * @brief  Enable AHB1 peripherals clock during Low Power (Sleep) mode.
 333:../../dependencies/STM32CubeL0/Drivers/STM32L0xx_HAL_Driver/Inc/stm32l0xx_ll_bus.h ****   * @rmtoll AHBSMENR     DMASMEN       LL_AHB1_GRP1_EnableClockSleep\n
 334:../../dependencies/STM32CubeL0/Drivers/STM32L0xx_HAL_Driver/Inc/stm32l0xx_ll_bus.h ****   *         AHBSMENR     MIFSMEN       LL_AHB1_GRP1_EnableClockSleep\n
 335:../../dependencies/STM32CubeL0/Drivers/STM32L0xx_HAL_Driver/Inc/stm32l0xx_ll_bus.h ****   *         AHBSMENR     SRAMSMEN      LL_AHB1_GRP1_EnableClockSleep\n
 336:../../dependencies/STM32CubeL0/Drivers/STM32L0xx_HAL_Driver/Inc/stm32l0xx_ll_bus.h ****   *         AHBSMENR     CRCSMEN       LL_AHB1_GRP1_EnableClockSleep\n
 337:../../dependencies/STM32CubeL0/Drivers/STM32L0xx_HAL_Driver/Inc/stm32l0xx_ll_bus.h ****   *         AHBSMENR     TSCSMEN       LL_AHB1_GRP1_EnableClockSleep\n
 338:../../dependencies/STM32CubeL0/Drivers/STM32L0xx_HAL_Driver/Inc/stm32l0xx_ll_bus.h ****   *         AHBSMENR     RNGSMEN       LL_AHB1_GRP1_EnableClockSleep\n
 339:../../dependencies/STM32CubeL0/Drivers/STM32L0xx_HAL_Driver/Inc/stm32l0xx_ll_bus.h ****   *         AHBSMENR     CRYPSMEN      LL_AHB1_GRP1_EnableClockSleep
 340:../../dependencies/STM32CubeL0/Drivers/STM32L0xx_HAL_Driver/Inc/stm32l0xx_ll_bus.h ****   * @param  Periphs This parameter can be a combination of the following values:
 341:../../dependencies/STM32CubeL0/Drivers/STM32L0xx_HAL_Driver/Inc/stm32l0xx_ll_bus.h ****   *         @arg @ref LL_AHB1_GRP1_PERIPH_DMA1
 342:../../dependencies/STM32CubeL0/Drivers/STM32L0xx_HAL_Driver/Inc/stm32l0xx_ll_bus.h ****   *         @arg @ref LL_AHB1_GRP1_PERIPH_MIF
 343:../../dependencies/STM32CubeL0/Drivers/STM32L0xx_HAL_Driver/Inc/stm32l0xx_ll_bus.h ****   *         @arg @ref LL_AHB1_GRP1_PERIPH_SRAM
 344:../../dependencies/STM32CubeL0/Drivers/STM32L0xx_HAL_Driver/Inc/stm32l0xx_ll_bus.h ****   *         @arg @ref LL_AHB1_GRP1_PERIPH_CRC
 345:../../dependencies/STM32CubeL0/Drivers/STM32L0xx_HAL_Driver/Inc/stm32l0xx_ll_bus.h ****   *         @arg @ref LL_AHB1_GRP1_PERIPH_TSC (*)
 346:../../dependencies/STM32CubeL0/Drivers/STM32L0xx_HAL_Driver/Inc/stm32l0xx_ll_bus.h ****   *         @arg @ref LL_AHB1_GRP1_PERIPH_RNG (*)
 347:../../dependencies/STM32CubeL0/Drivers/STM32L0xx_HAL_Driver/Inc/stm32l0xx_ll_bus.h ****   *         @arg @ref LL_AHB1_GRP1_PERIPH_CRYP (*)
 348:../../dependencies/STM32CubeL0/Drivers/STM32L0xx_HAL_Driver/Inc/stm32l0xx_ll_bus.h ****   *
 349:../../dependencies/STM32CubeL0/Drivers/STM32L0xx_HAL_Driver/Inc/stm32l0xx_ll_bus.h ****   *         (*) value not defined in all devices.
 350:../../dependencies/STM32CubeL0/Drivers/STM32L0xx_HAL_Driver/Inc/stm32l0xx_ll_bus.h ****   * @retval None
 351:../../dependencies/STM32CubeL0/Drivers/STM32L0xx_HAL_Driver/Inc/stm32l0xx_ll_bus.h **** */
 352:../../dependencies/STM32CubeL0/Drivers/STM32L0xx_HAL_Driver/Inc/stm32l0xx_ll_bus.h **** __STATIC_INLINE void LL_AHB1_GRP1_EnableClockSleep(uint32_t Periphs)
 353:../../dependencies/STM32CubeL0/Drivers/STM32L0xx_HAL_Driver/Inc/stm32l0xx_ll_bus.h **** {
 354:../../dependencies/STM32CubeL0/Drivers/STM32L0xx_HAL_Driver/Inc/stm32l0xx_ll_bus.h ****   __IO uint32_t tmpreg;
 355:../../dependencies/STM32CubeL0/Drivers/STM32L0xx_HAL_Driver/Inc/stm32l0xx_ll_bus.h ****   SET_BIT(RCC->AHBSMENR, Periphs);
 356:../../dependencies/STM32CubeL0/Drivers/STM32L0xx_HAL_Driver/Inc/stm32l0xx_ll_bus.h ****   /* Delay after an RCC peripheral clock enabling */
 357:../../dependencies/STM32CubeL0/Drivers/STM32L0xx_HAL_Driver/Inc/stm32l0xx_ll_bus.h ****   tmpreg = READ_BIT(RCC->AHBSMENR, Periphs);
 358:../../dependencies/STM32CubeL0/Drivers/STM32L0xx_HAL_Driver/Inc/stm32l0xx_ll_bus.h ****   (void)tmpreg;
 359:../../dependencies/STM32CubeL0/Drivers/STM32L0xx_HAL_Driver/Inc/stm32l0xx_ll_bus.h **** }
 360:../../dependencies/STM32CubeL0/Drivers/STM32L0xx_HAL_Driver/Inc/stm32l0xx_ll_bus.h **** 
 361:../../dependencies/STM32CubeL0/Drivers/STM32L0xx_HAL_Driver/Inc/stm32l0xx_ll_bus.h **** /**
 362:../../dependencies/STM32CubeL0/Drivers/STM32L0xx_HAL_Driver/Inc/stm32l0xx_ll_bus.h ****   * @brief  Disable AHB1 peripherals clock during Low Power (Sleep) mode.
 363:../../dependencies/STM32CubeL0/Drivers/STM32L0xx_HAL_Driver/Inc/stm32l0xx_ll_bus.h ****   * @rmtoll AHBSMENR     DMASMEN       LL_AHB1_GRP1_DisableClockSleep\n
 364:../../dependencies/STM32CubeL0/Drivers/STM32L0xx_HAL_Driver/Inc/stm32l0xx_ll_bus.h ****   *         AHBSMENR     MIFSMEN       LL_AHB1_GRP1_DisableClockSleep\n
 365:../../dependencies/STM32CubeL0/Drivers/STM32L0xx_HAL_Driver/Inc/stm32l0xx_ll_bus.h ****   *         AHBSMENR     SRAMSMEN      LL_AHB1_GRP1_DisableClockSleep\n
 366:../../dependencies/STM32CubeL0/Drivers/STM32L0xx_HAL_Driver/Inc/stm32l0xx_ll_bus.h ****   *         AHBSMENR     CRCSMEN       LL_AHB1_GRP1_DisableClockSleep\n
 367:../../dependencies/STM32CubeL0/Drivers/STM32L0xx_HAL_Driver/Inc/stm32l0xx_ll_bus.h ****   *         AHBSMENR     TSCSMEN       LL_AHB1_GRP1_DisableClockSleep\n
 368:../../dependencies/STM32CubeL0/Drivers/STM32L0xx_HAL_Driver/Inc/stm32l0xx_ll_bus.h ****   *         AHBSMENR     RNGSMEN       LL_AHB1_GRP1_DisableClockSleep\n
 369:../../dependencies/STM32CubeL0/Drivers/STM32L0xx_HAL_Driver/Inc/stm32l0xx_ll_bus.h ****   *         AHBSMENR     CRYPSMEN      LL_AHB1_GRP1_DisableClockSleep
 370:../../dependencies/STM32CubeL0/Drivers/STM32L0xx_HAL_Driver/Inc/stm32l0xx_ll_bus.h ****   * @param  Periphs This parameter can be a combination of the following values:
 371:../../dependencies/STM32CubeL0/Drivers/STM32L0xx_HAL_Driver/Inc/stm32l0xx_ll_bus.h ****   *         @arg @ref LL_AHB1_GRP1_PERIPH_DMA1
 372:../../dependencies/STM32CubeL0/Drivers/STM32L0xx_HAL_Driver/Inc/stm32l0xx_ll_bus.h ****   *         @arg @ref LL_AHB1_GRP1_PERIPH_MIF
 373:../../dependencies/STM32CubeL0/Drivers/STM32L0xx_HAL_Driver/Inc/stm32l0xx_ll_bus.h ****   *         @arg @ref LL_AHB1_GRP1_PERIPH_SRAM
 374:../../dependencies/STM32CubeL0/Drivers/STM32L0xx_HAL_Driver/Inc/stm32l0xx_ll_bus.h ****   *         @arg @ref LL_AHB1_GRP1_PERIPH_CRC
 375:../../dependencies/STM32CubeL0/Drivers/STM32L0xx_HAL_Driver/Inc/stm32l0xx_ll_bus.h ****   *         @arg @ref LL_AHB1_GRP1_PERIPH_TSC (*)
ARM GAS  /tmp/ccpljSGR.s 			page 8


 376:../../dependencies/STM32CubeL0/Drivers/STM32L0xx_HAL_Driver/Inc/stm32l0xx_ll_bus.h ****   *         @arg @ref LL_AHB1_GRP1_PERIPH_RNG (*)
 377:../../dependencies/STM32CubeL0/Drivers/STM32L0xx_HAL_Driver/Inc/stm32l0xx_ll_bus.h ****   *         @arg @ref LL_AHB1_GRP1_PERIPH_CRYP (*)
 378:../../dependencies/STM32CubeL0/Drivers/STM32L0xx_HAL_Driver/Inc/stm32l0xx_ll_bus.h ****   *
 379:../../dependencies/STM32CubeL0/Drivers/STM32L0xx_HAL_Driver/Inc/stm32l0xx_ll_bus.h ****   *         (*) value not defined in all devices.
 380:../../dependencies/STM32CubeL0/Drivers/STM32L0xx_HAL_Driver/Inc/stm32l0xx_ll_bus.h ****   * @retval None
 381:../../dependencies/STM32CubeL0/Drivers/STM32L0xx_HAL_Driver/Inc/stm32l0xx_ll_bus.h **** */
 382:../../dependencies/STM32CubeL0/Drivers/STM32L0xx_HAL_Driver/Inc/stm32l0xx_ll_bus.h **** __STATIC_INLINE void LL_AHB1_GRP1_DisableClockSleep(uint32_t Periphs)
 383:../../dependencies/STM32CubeL0/Drivers/STM32L0xx_HAL_Driver/Inc/stm32l0xx_ll_bus.h **** {
 384:../../dependencies/STM32CubeL0/Drivers/STM32L0xx_HAL_Driver/Inc/stm32l0xx_ll_bus.h ****   CLEAR_BIT(RCC->AHBSMENR, Periphs);
 385:../../dependencies/STM32CubeL0/Drivers/STM32L0xx_HAL_Driver/Inc/stm32l0xx_ll_bus.h **** }
 386:../../dependencies/STM32CubeL0/Drivers/STM32L0xx_HAL_Driver/Inc/stm32l0xx_ll_bus.h **** 
 387:../../dependencies/STM32CubeL0/Drivers/STM32L0xx_HAL_Driver/Inc/stm32l0xx_ll_bus.h **** /**
 388:../../dependencies/STM32CubeL0/Drivers/STM32L0xx_HAL_Driver/Inc/stm32l0xx_ll_bus.h ****   * @}
 389:../../dependencies/STM32CubeL0/Drivers/STM32L0xx_HAL_Driver/Inc/stm32l0xx_ll_bus.h ****   */
 390:../../dependencies/STM32CubeL0/Drivers/STM32L0xx_HAL_Driver/Inc/stm32l0xx_ll_bus.h **** 
 391:../../dependencies/STM32CubeL0/Drivers/STM32L0xx_HAL_Driver/Inc/stm32l0xx_ll_bus.h **** /** @defgroup BUS_LL_EF_APB1 APB1
 392:../../dependencies/STM32CubeL0/Drivers/STM32L0xx_HAL_Driver/Inc/stm32l0xx_ll_bus.h ****   * @{
 393:../../dependencies/STM32CubeL0/Drivers/STM32L0xx_HAL_Driver/Inc/stm32l0xx_ll_bus.h ****   */
 394:../../dependencies/STM32CubeL0/Drivers/STM32L0xx_HAL_Driver/Inc/stm32l0xx_ll_bus.h **** 
 395:../../dependencies/STM32CubeL0/Drivers/STM32L0xx_HAL_Driver/Inc/stm32l0xx_ll_bus.h **** /**
 396:../../dependencies/STM32CubeL0/Drivers/STM32L0xx_HAL_Driver/Inc/stm32l0xx_ll_bus.h ****   * @brief  Enable APB1 peripherals clock.
 397:../../dependencies/STM32CubeL0/Drivers/STM32L0xx_HAL_Driver/Inc/stm32l0xx_ll_bus.h ****   * @rmtoll APB1ENR     TIM2EN        LL_APB1_GRP1_EnableClock\n
 398:../../dependencies/STM32CubeL0/Drivers/STM32L0xx_HAL_Driver/Inc/stm32l0xx_ll_bus.h ****   *         APB1ENR     TIM3EN        LL_APB1_GRP1_EnableClock\n
 399:../../dependencies/STM32CubeL0/Drivers/STM32L0xx_HAL_Driver/Inc/stm32l0xx_ll_bus.h ****   *         APB1ENR     TIM6EN        LL_APB1_GRP1_EnableClock\n
 400:../../dependencies/STM32CubeL0/Drivers/STM32L0xx_HAL_Driver/Inc/stm32l0xx_ll_bus.h ****   *         APB1ENR     TIM7EN        LL_APB1_GRP1_EnableClock\n
 401:../../dependencies/STM32CubeL0/Drivers/STM32L0xx_HAL_Driver/Inc/stm32l0xx_ll_bus.h ****   *         APB1ENR     LCDEN         LL_APB1_GRP1_EnableClock\n
 402:../../dependencies/STM32CubeL0/Drivers/STM32L0xx_HAL_Driver/Inc/stm32l0xx_ll_bus.h ****   *         APB1ENR     WWDGEN        LL_APB1_GRP1_EnableClock\n
 403:../../dependencies/STM32CubeL0/Drivers/STM32L0xx_HAL_Driver/Inc/stm32l0xx_ll_bus.h ****   *         APB1ENR     SPI2EN        LL_APB1_GRP1_EnableClock\n
 404:../../dependencies/STM32CubeL0/Drivers/STM32L0xx_HAL_Driver/Inc/stm32l0xx_ll_bus.h ****   *         APB1ENR     USART2EN      LL_APB1_GRP1_EnableClock\n
 405:../../dependencies/STM32CubeL0/Drivers/STM32L0xx_HAL_Driver/Inc/stm32l0xx_ll_bus.h ****   *         APB1ENR     LPUART1EN     LL_APB1_GRP1_EnableClock\n
 406:../../dependencies/STM32CubeL0/Drivers/STM32L0xx_HAL_Driver/Inc/stm32l0xx_ll_bus.h ****   *         APB1ENR     USART4EN      LL_APB1_GRP1_EnableClock\n
 407:../../dependencies/STM32CubeL0/Drivers/STM32L0xx_HAL_Driver/Inc/stm32l0xx_ll_bus.h ****   *         APB1ENR     USART5EN      LL_APB1_GRP1_EnableClock\n
 408:../../dependencies/STM32CubeL0/Drivers/STM32L0xx_HAL_Driver/Inc/stm32l0xx_ll_bus.h ****   *         APB1ENR     I2C1EN        LL_APB1_GRP1_EnableClock\n
 409:../../dependencies/STM32CubeL0/Drivers/STM32L0xx_HAL_Driver/Inc/stm32l0xx_ll_bus.h ****   *         APB1ENR     I2C2EN        LL_APB1_GRP1_EnableClock\n
 410:../../dependencies/STM32CubeL0/Drivers/STM32L0xx_HAL_Driver/Inc/stm32l0xx_ll_bus.h ****   *         APB1ENR     USBEN         LL_APB1_GRP1_EnableClock\n
 411:../../dependencies/STM32CubeL0/Drivers/STM32L0xx_HAL_Driver/Inc/stm32l0xx_ll_bus.h ****   *         APB1ENR     CRSEN         LL_APB1_GRP1_EnableClock\n
 412:../../dependencies/STM32CubeL0/Drivers/STM32L0xx_HAL_Driver/Inc/stm32l0xx_ll_bus.h ****   *         APB1ENR     PWREN         LL_APB1_GRP1_EnableClock\n
 413:../../dependencies/STM32CubeL0/Drivers/STM32L0xx_HAL_Driver/Inc/stm32l0xx_ll_bus.h ****   *         APB1ENR     DACEN         LL_APB1_GRP1_EnableClock\n
 414:../../dependencies/STM32CubeL0/Drivers/STM32L0xx_HAL_Driver/Inc/stm32l0xx_ll_bus.h ****   *         APB1ENR     I2C3EN        LL_APB1_GRP1_EnableClock\n
 415:../../dependencies/STM32CubeL0/Drivers/STM32L0xx_HAL_Driver/Inc/stm32l0xx_ll_bus.h ****   *         APB1ENR     LPTIM1EN      LL_APB1_GRP1_EnableClock
 416:../../dependencies/STM32CubeL0/Drivers/STM32L0xx_HAL_Driver/Inc/stm32l0xx_ll_bus.h ****   * @param  Periphs This parameter can be a combination of the following values:
 417:../../dependencies/STM32CubeL0/Drivers/STM32L0xx_HAL_Driver/Inc/stm32l0xx_ll_bus.h ****   *         @arg @ref LL_APB1_GRP1_PERIPH_TIM2
 418:../../dependencies/STM32CubeL0/Drivers/STM32L0xx_HAL_Driver/Inc/stm32l0xx_ll_bus.h ****   *         @arg @ref LL_APB1_GRP1_PERIPH_TIM3 (*)
 419:../../dependencies/STM32CubeL0/Drivers/STM32L0xx_HAL_Driver/Inc/stm32l0xx_ll_bus.h ****   *         @arg @ref LL_APB1_GRP1_PERIPH_TIM6 (*)
 420:../../dependencies/STM32CubeL0/Drivers/STM32L0xx_HAL_Driver/Inc/stm32l0xx_ll_bus.h ****   *         @arg @ref LL_APB1_GRP1_PERIPH_TIM7 (*)
 421:../../dependencies/STM32CubeL0/Drivers/STM32L0xx_HAL_Driver/Inc/stm32l0xx_ll_bus.h ****   *         @arg @ref LL_APB1_GRP1_PERIPH_LCD (*)
 422:../../dependencies/STM32CubeL0/Drivers/STM32L0xx_HAL_Driver/Inc/stm32l0xx_ll_bus.h ****   *         @arg @ref LL_APB1_GRP1_PERIPH_WWDG
 423:../../dependencies/STM32CubeL0/Drivers/STM32L0xx_HAL_Driver/Inc/stm32l0xx_ll_bus.h ****   *         @arg @ref LL_APB1_GRP1_PERIPH_SPI2 (*)
 424:../../dependencies/STM32CubeL0/Drivers/STM32L0xx_HAL_Driver/Inc/stm32l0xx_ll_bus.h ****   *         @arg @ref LL_APB1_GRP1_PERIPH_USART2
 425:../../dependencies/STM32CubeL0/Drivers/STM32L0xx_HAL_Driver/Inc/stm32l0xx_ll_bus.h ****   *         @arg @ref LL_APB1_GRP1_PERIPH_LPUART1
 426:../../dependencies/STM32CubeL0/Drivers/STM32L0xx_HAL_Driver/Inc/stm32l0xx_ll_bus.h ****   *         @arg @ref LL_APB1_GRP1_PERIPH_USART4 (*)
 427:../../dependencies/STM32CubeL0/Drivers/STM32L0xx_HAL_Driver/Inc/stm32l0xx_ll_bus.h ****   *         @arg @ref LL_APB1_GRP1_PERIPH_USART5 (*)
 428:../../dependencies/STM32CubeL0/Drivers/STM32L0xx_HAL_Driver/Inc/stm32l0xx_ll_bus.h ****   *         @arg @ref LL_APB1_GRP1_PERIPH_I2C1
 429:../../dependencies/STM32CubeL0/Drivers/STM32L0xx_HAL_Driver/Inc/stm32l0xx_ll_bus.h ****   *         @arg @ref LL_APB1_GRP1_PERIPH_I2C2 (*)
 430:../../dependencies/STM32CubeL0/Drivers/STM32L0xx_HAL_Driver/Inc/stm32l0xx_ll_bus.h ****   *         @arg @ref LL_APB1_GRP1_PERIPH_USB (*)
 431:../../dependencies/STM32CubeL0/Drivers/STM32L0xx_HAL_Driver/Inc/stm32l0xx_ll_bus.h ****   *         @arg @ref LL_APB1_GRP1_PERIPH_CRS (*)
 432:../../dependencies/STM32CubeL0/Drivers/STM32L0xx_HAL_Driver/Inc/stm32l0xx_ll_bus.h ****   *         @arg @ref LL_APB1_GRP1_PERIPH_PWR
ARM GAS  /tmp/ccpljSGR.s 			page 9


 433:../../dependencies/STM32CubeL0/Drivers/STM32L0xx_HAL_Driver/Inc/stm32l0xx_ll_bus.h ****   *         @arg @ref LL_APB1_GRP1_PERIPH_DAC1 (*)
 434:../../dependencies/STM32CubeL0/Drivers/STM32L0xx_HAL_Driver/Inc/stm32l0xx_ll_bus.h ****   *         @arg @ref LL_APB1_GRP1_PERIPH_I2C3 (*)
 435:../../dependencies/STM32CubeL0/Drivers/STM32L0xx_HAL_Driver/Inc/stm32l0xx_ll_bus.h ****   *         @arg @ref LL_APB1_GRP1_PERIPH_LPTIM1
 436:../../dependencies/STM32CubeL0/Drivers/STM32L0xx_HAL_Driver/Inc/stm32l0xx_ll_bus.h ****   *
 437:../../dependencies/STM32CubeL0/Drivers/STM32L0xx_HAL_Driver/Inc/stm32l0xx_ll_bus.h ****   *         (*) value not defined in all devices.
 438:../../dependencies/STM32CubeL0/Drivers/STM32L0xx_HAL_Driver/Inc/stm32l0xx_ll_bus.h ****   * @retval None
 439:../../dependencies/STM32CubeL0/Drivers/STM32L0xx_HAL_Driver/Inc/stm32l0xx_ll_bus.h **** */
 440:../../dependencies/STM32CubeL0/Drivers/STM32L0xx_HAL_Driver/Inc/stm32l0xx_ll_bus.h **** __STATIC_INLINE void LL_APB1_GRP1_EnableClock(uint32_t Periphs)
 441:../../dependencies/STM32CubeL0/Drivers/STM32L0xx_HAL_Driver/Inc/stm32l0xx_ll_bus.h **** {
  26              		.loc 1 441 1
  27              		.cfi_startproc
  28              		@ args = 0, pretend = 0, frame = 16
  29              		@ frame_needed = 1, uses_anonymous_args = 0
  30 0000 80B5     		push	{r7, lr}
  31              		.cfi_def_cfa_offset 8
  32              		.cfi_offset 7, -8
  33              		.cfi_offset 14, -4
  34 0002 84B0     		sub	sp, sp, #16
  35              		.cfi_def_cfa_offset 24
  36 0004 00AF     		add	r7, sp, #0
  37              		.cfi_def_cfa_register 7
  38 0006 7860     		str	r0, [r7, #4]
 442:../../dependencies/STM32CubeL0/Drivers/STM32L0xx_HAL_Driver/Inc/stm32l0xx_ll_bus.h ****   __IO uint32_t tmpreg;
 443:../../dependencies/STM32CubeL0/Drivers/STM32L0xx_HAL_Driver/Inc/stm32l0xx_ll_bus.h ****   SET_BIT(RCC->APB1ENR, Periphs);
  39              		.loc 1 443 3
  40 0008 074B     		ldr	r3, .L2
  41 000a 996B     		ldr	r1, [r3, #56]
  42 000c 064B     		ldr	r3, .L2
  43 000e 7A68     		ldr	r2, [r7, #4]
  44 0010 0A43     		orrs	r2, r1
  45 0012 9A63     		str	r2, [r3, #56]
 444:../../dependencies/STM32CubeL0/Drivers/STM32L0xx_HAL_Driver/Inc/stm32l0xx_ll_bus.h ****   /* Delay after an RCC peripheral clock enabling */
 445:../../dependencies/STM32CubeL0/Drivers/STM32L0xx_HAL_Driver/Inc/stm32l0xx_ll_bus.h ****   tmpreg = READ_BIT(RCC->APB1ENR, Periphs);
  46              		.loc 1 445 12
  47 0014 044B     		ldr	r3, .L2
  48 0016 9B6B     		ldr	r3, [r3, #56]
  49 0018 7A68     		ldr	r2, [r7, #4]
  50 001a 1340     		ands	r3, r2
  51              		.loc 1 445 10
  52 001c FB60     		str	r3, [r7, #12]
 446:../../dependencies/STM32CubeL0/Drivers/STM32L0xx_HAL_Driver/Inc/stm32l0xx_ll_bus.h ****   (void)tmpreg;
  53              		.loc 1 446 3
  54 001e FB68     		ldr	r3, [r7, #12]
 447:../../dependencies/STM32CubeL0/Drivers/STM32L0xx_HAL_Driver/Inc/stm32l0xx_ll_bus.h **** }
  55              		.loc 1 447 1
  56 0020 C046     		nop
  57 0022 BD46     		mov	sp, r7
  58 0024 04B0     		add	sp, sp, #16
  59              		@ sp needed
  60 0026 80BD     		pop	{r7, pc}
  61              	.L3:
  62              		.align	2
  63              	.L2:
  64 0028 00100240 		.word	1073876992
  65              		.cfi_endproc
  66              	.LFE157:
  68              		.section	.text.LL_APB2_GRP1_EnableClock,"ax",%progbits
ARM GAS  /tmp/ccpljSGR.s 			page 10


  69              		.align	1
  70              		.syntax unified
  71              		.code	16
  72              		.thumb_func
  73              		.fpu softvfp
  75              	LL_APB2_GRP1_EnableClock:
  76              	.LFB164:
 448:../../dependencies/STM32CubeL0/Drivers/STM32L0xx_HAL_Driver/Inc/stm32l0xx_ll_bus.h **** 
 449:../../dependencies/STM32CubeL0/Drivers/STM32L0xx_HAL_Driver/Inc/stm32l0xx_ll_bus.h **** /**
 450:../../dependencies/STM32CubeL0/Drivers/STM32L0xx_HAL_Driver/Inc/stm32l0xx_ll_bus.h ****   * @brief  Check if APB1 peripheral clock is enabled or not
 451:../../dependencies/STM32CubeL0/Drivers/STM32L0xx_HAL_Driver/Inc/stm32l0xx_ll_bus.h ****   * @rmtoll APB1ENR     TIM2EN        LL_APB1_GRP1_IsEnabledClock\n
 452:../../dependencies/STM32CubeL0/Drivers/STM32L0xx_HAL_Driver/Inc/stm32l0xx_ll_bus.h ****   *         APB1ENR     TIM3EN        LL_APB1_GRP1_IsEnabledClock\n
 453:../../dependencies/STM32CubeL0/Drivers/STM32L0xx_HAL_Driver/Inc/stm32l0xx_ll_bus.h ****   *         APB1ENR     TIM6EN        LL_APB1_GRP1_IsEnabledClock\n
 454:../../dependencies/STM32CubeL0/Drivers/STM32L0xx_HAL_Driver/Inc/stm32l0xx_ll_bus.h ****   *         APB1ENR     TIM7EN        LL_APB1_GRP1_IsEnabledClock\n
 455:../../dependencies/STM32CubeL0/Drivers/STM32L0xx_HAL_Driver/Inc/stm32l0xx_ll_bus.h ****   *         APB1ENR     LCDEN         LL_APB1_GRP1_IsEnabledClock\n
 456:../../dependencies/STM32CubeL0/Drivers/STM32L0xx_HAL_Driver/Inc/stm32l0xx_ll_bus.h ****   *         APB1ENR     WWDGEN        LL_APB1_GRP1_IsEnabledClock\n
 457:../../dependencies/STM32CubeL0/Drivers/STM32L0xx_HAL_Driver/Inc/stm32l0xx_ll_bus.h ****   *         APB1ENR     SPI2EN        LL_APB1_GRP1_IsEnabledClock\n
 458:../../dependencies/STM32CubeL0/Drivers/STM32L0xx_HAL_Driver/Inc/stm32l0xx_ll_bus.h ****   *         APB1ENR     USART2EN      LL_APB1_GRP1_IsEnabledClock\n
 459:../../dependencies/STM32CubeL0/Drivers/STM32L0xx_HAL_Driver/Inc/stm32l0xx_ll_bus.h ****   *         APB1ENR     LPUART1EN     LL_APB1_GRP1_IsEnabledClock\n
 460:../../dependencies/STM32CubeL0/Drivers/STM32L0xx_HAL_Driver/Inc/stm32l0xx_ll_bus.h ****   *         APB1ENR     USART4EN      LL_APB1_GRP1_IsEnabledClock\n
 461:../../dependencies/STM32CubeL0/Drivers/STM32L0xx_HAL_Driver/Inc/stm32l0xx_ll_bus.h ****   *         APB1ENR     USART5EN      LL_APB1_GRP1_IsEnabledClock\n
 462:../../dependencies/STM32CubeL0/Drivers/STM32L0xx_HAL_Driver/Inc/stm32l0xx_ll_bus.h ****   *         APB1ENR     I2C1EN        LL_APB1_GRP1_IsEnabledClock\n
 463:../../dependencies/STM32CubeL0/Drivers/STM32L0xx_HAL_Driver/Inc/stm32l0xx_ll_bus.h ****   *         APB1ENR     I2C2EN        LL_APB1_GRP1_IsEnabledClock\n
 464:../../dependencies/STM32CubeL0/Drivers/STM32L0xx_HAL_Driver/Inc/stm32l0xx_ll_bus.h ****   *         APB1ENR     USBEN         LL_APB1_GRP1_IsEnabledClock\n
 465:../../dependencies/STM32CubeL0/Drivers/STM32L0xx_HAL_Driver/Inc/stm32l0xx_ll_bus.h ****   *         APB1ENR     CRSEN         LL_APB1_GRP1_IsEnabledClock\n
 466:../../dependencies/STM32CubeL0/Drivers/STM32L0xx_HAL_Driver/Inc/stm32l0xx_ll_bus.h ****   *         APB1ENR     PWREN         LL_APB1_GRP1_IsEnabledClock\n
 467:../../dependencies/STM32CubeL0/Drivers/STM32L0xx_HAL_Driver/Inc/stm32l0xx_ll_bus.h ****   *         APB1ENR     DACEN         LL_APB1_GRP1_IsEnabledClock\n
 468:../../dependencies/STM32CubeL0/Drivers/STM32L0xx_HAL_Driver/Inc/stm32l0xx_ll_bus.h ****   *         APB1ENR     I2C3EN        LL_APB1_GRP1_IsEnabledClock\n
 469:../../dependencies/STM32CubeL0/Drivers/STM32L0xx_HAL_Driver/Inc/stm32l0xx_ll_bus.h ****   *         APB1ENR     LPTIM1EN      LL_APB1_GRP1_IsEnabledClock
 470:../../dependencies/STM32CubeL0/Drivers/STM32L0xx_HAL_Driver/Inc/stm32l0xx_ll_bus.h ****   * @param  Periphs This parameter can be a combination of the following values:
 471:../../dependencies/STM32CubeL0/Drivers/STM32L0xx_HAL_Driver/Inc/stm32l0xx_ll_bus.h ****   *         @arg @ref LL_APB1_GRP1_PERIPH_TIM2
 472:../../dependencies/STM32CubeL0/Drivers/STM32L0xx_HAL_Driver/Inc/stm32l0xx_ll_bus.h ****   *         @arg @ref LL_APB1_GRP1_PERIPH_TIM3 (*)
 473:../../dependencies/STM32CubeL0/Drivers/STM32L0xx_HAL_Driver/Inc/stm32l0xx_ll_bus.h ****   *         @arg @ref LL_APB1_GRP1_PERIPH_TIM6 (*)
 474:../../dependencies/STM32CubeL0/Drivers/STM32L0xx_HAL_Driver/Inc/stm32l0xx_ll_bus.h ****   *         @arg @ref LL_APB1_GRP1_PERIPH_TIM7 (*)
 475:../../dependencies/STM32CubeL0/Drivers/STM32L0xx_HAL_Driver/Inc/stm32l0xx_ll_bus.h ****   *         @arg @ref LL_APB1_GRP1_PERIPH_LCD (*)
 476:../../dependencies/STM32CubeL0/Drivers/STM32L0xx_HAL_Driver/Inc/stm32l0xx_ll_bus.h ****   *         @arg @ref LL_APB1_GRP1_PERIPH_WWDG
 477:../../dependencies/STM32CubeL0/Drivers/STM32L0xx_HAL_Driver/Inc/stm32l0xx_ll_bus.h ****   *         @arg @ref LL_APB1_GRP1_PERIPH_SPI2 (*)
 478:../../dependencies/STM32CubeL0/Drivers/STM32L0xx_HAL_Driver/Inc/stm32l0xx_ll_bus.h ****   *         @arg @ref LL_APB1_GRP1_PERIPH_USART2
 479:../../dependencies/STM32CubeL0/Drivers/STM32L0xx_HAL_Driver/Inc/stm32l0xx_ll_bus.h ****   *         @arg @ref LL_APB1_GRP1_PERIPH_LPUART1
 480:../../dependencies/STM32CubeL0/Drivers/STM32L0xx_HAL_Driver/Inc/stm32l0xx_ll_bus.h ****   *         @arg @ref LL_APB1_GRP1_PERIPH_USART4 (*)
 481:../../dependencies/STM32CubeL0/Drivers/STM32L0xx_HAL_Driver/Inc/stm32l0xx_ll_bus.h ****   *         @arg @ref LL_APB1_GRP1_PERIPH_USART5 (*)
 482:../../dependencies/STM32CubeL0/Drivers/STM32L0xx_HAL_Driver/Inc/stm32l0xx_ll_bus.h ****   *         @arg @ref LL_APB1_GRP1_PERIPH_I2C1
 483:../../dependencies/STM32CubeL0/Drivers/STM32L0xx_HAL_Driver/Inc/stm32l0xx_ll_bus.h ****   *         @arg @ref LL_APB1_GRP1_PERIPH_I2C2 (*)
 484:../../dependencies/STM32CubeL0/Drivers/STM32L0xx_HAL_Driver/Inc/stm32l0xx_ll_bus.h ****   *         @arg @ref LL_APB1_GRP1_PERIPH_USB (*)
 485:../../dependencies/STM32CubeL0/Drivers/STM32L0xx_HAL_Driver/Inc/stm32l0xx_ll_bus.h ****   *         @arg @ref LL_APB1_GRP1_PERIPH_CRS (*)
 486:../../dependencies/STM32CubeL0/Drivers/STM32L0xx_HAL_Driver/Inc/stm32l0xx_ll_bus.h ****   *         @arg @ref LL_APB1_GRP1_PERIPH_PWR
 487:../../dependencies/STM32CubeL0/Drivers/STM32L0xx_HAL_Driver/Inc/stm32l0xx_ll_bus.h ****   *         @arg @ref LL_APB1_GRP1_PERIPH_DAC1 (*)
 488:../../dependencies/STM32CubeL0/Drivers/STM32L0xx_HAL_Driver/Inc/stm32l0xx_ll_bus.h ****   *         @arg @ref LL_APB1_GRP1_PERIPH_I2C3 (*)
 489:../../dependencies/STM32CubeL0/Drivers/STM32L0xx_HAL_Driver/Inc/stm32l0xx_ll_bus.h ****   *         @arg @ref LL_APB1_GRP1_PERIPH_LPTIM1
 490:../../dependencies/STM32CubeL0/Drivers/STM32L0xx_HAL_Driver/Inc/stm32l0xx_ll_bus.h ****   *
 491:../../dependencies/STM32CubeL0/Drivers/STM32L0xx_HAL_Driver/Inc/stm32l0xx_ll_bus.h ****   *         (*) value not defined in all devices.
 492:../../dependencies/STM32CubeL0/Drivers/STM32L0xx_HAL_Driver/Inc/stm32l0xx_ll_bus.h ****   * @retval State of Periphs (1 or 0).
 493:../../dependencies/STM32CubeL0/Drivers/STM32L0xx_HAL_Driver/Inc/stm32l0xx_ll_bus.h **** */
 494:../../dependencies/STM32CubeL0/Drivers/STM32L0xx_HAL_Driver/Inc/stm32l0xx_ll_bus.h **** __STATIC_INLINE uint32_t LL_APB1_GRP1_IsEnabledClock(uint32_t Periphs)
 495:../../dependencies/STM32CubeL0/Drivers/STM32L0xx_HAL_Driver/Inc/stm32l0xx_ll_bus.h **** {
 496:../../dependencies/STM32CubeL0/Drivers/STM32L0xx_HAL_Driver/Inc/stm32l0xx_ll_bus.h ****   return ((READ_BIT(RCC->APB1ENR, Periphs) == (Periphs)) ? 1UL : 0UL);
 497:../../dependencies/STM32CubeL0/Drivers/STM32L0xx_HAL_Driver/Inc/stm32l0xx_ll_bus.h **** }
ARM GAS  /tmp/ccpljSGR.s 			page 11


 498:../../dependencies/STM32CubeL0/Drivers/STM32L0xx_HAL_Driver/Inc/stm32l0xx_ll_bus.h **** 
 499:../../dependencies/STM32CubeL0/Drivers/STM32L0xx_HAL_Driver/Inc/stm32l0xx_ll_bus.h **** /**
 500:../../dependencies/STM32CubeL0/Drivers/STM32L0xx_HAL_Driver/Inc/stm32l0xx_ll_bus.h ****   * @brief  Disable APB1 peripherals clock.
 501:../../dependencies/STM32CubeL0/Drivers/STM32L0xx_HAL_Driver/Inc/stm32l0xx_ll_bus.h ****   * @rmtoll APB1ENR     TIM2EN        LL_APB1_GRP1_DisableClock\n
 502:../../dependencies/STM32CubeL0/Drivers/STM32L0xx_HAL_Driver/Inc/stm32l0xx_ll_bus.h ****   *         APB1ENR     TIM3EN        LL_APB1_GRP1_DisableClock\n
 503:../../dependencies/STM32CubeL0/Drivers/STM32L0xx_HAL_Driver/Inc/stm32l0xx_ll_bus.h ****   *         APB1ENR     TIM6EN        LL_APB1_GRP1_DisableClock\n
 504:../../dependencies/STM32CubeL0/Drivers/STM32L0xx_HAL_Driver/Inc/stm32l0xx_ll_bus.h ****   *         APB1ENR     TIM7EN        LL_APB1_GRP1_DisableClock\n
 505:../../dependencies/STM32CubeL0/Drivers/STM32L0xx_HAL_Driver/Inc/stm32l0xx_ll_bus.h ****   *         APB1ENR     LCDEN         LL_APB1_GRP1_DisableClock\n
 506:../../dependencies/STM32CubeL0/Drivers/STM32L0xx_HAL_Driver/Inc/stm32l0xx_ll_bus.h ****   *         APB1ENR     WWDGEN        LL_APB1_GRP1_DisableClock\n
 507:../../dependencies/STM32CubeL0/Drivers/STM32L0xx_HAL_Driver/Inc/stm32l0xx_ll_bus.h ****   *         APB1ENR     SPI2EN        LL_APB1_GRP1_DisableClock\n
 508:../../dependencies/STM32CubeL0/Drivers/STM32L0xx_HAL_Driver/Inc/stm32l0xx_ll_bus.h ****   *         APB1ENR     USART2EN      LL_APB1_GRP1_DisableClock\n
 509:../../dependencies/STM32CubeL0/Drivers/STM32L0xx_HAL_Driver/Inc/stm32l0xx_ll_bus.h ****   *         APB1ENR     LPUART1EN     LL_APB1_GRP1_DisableClock\n
 510:../../dependencies/STM32CubeL0/Drivers/STM32L0xx_HAL_Driver/Inc/stm32l0xx_ll_bus.h ****   *         APB1ENR     USART4EN      LL_APB1_GRP1_DisableClock\n
 511:../../dependencies/STM32CubeL0/Drivers/STM32L0xx_HAL_Driver/Inc/stm32l0xx_ll_bus.h ****   *         APB1ENR     USART5EN      LL_APB1_GRP1_DisableClock\n
 512:../../dependencies/STM32CubeL0/Drivers/STM32L0xx_HAL_Driver/Inc/stm32l0xx_ll_bus.h ****   *         APB1ENR     I2C1EN        LL_APB1_GRP1_DisableClock\n
 513:../../dependencies/STM32CubeL0/Drivers/STM32L0xx_HAL_Driver/Inc/stm32l0xx_ll_bus.h ****   *         APB1ENR     I2C2EN        LL_APB1_GRP1_DisableClock\n
 514:../../dependencies/STM32CubeL0/Drivers/STM32L0xx_HAL_Driver/Inc/stm32l0xx_ll_bus.h ****   *         APB1ENR     USBEN         LL_APB1_GRP1_DisableClock\n
 515:../../dependencies/STM32CubeL0/Drivers/STM32L0xx_HAL_Driver/Inc/stm32l0xx_ll_bus.h ****   *         APB1ENR     CRSEN         LL_APB1_GRP1_DisableClock\n
 516:../../dependencies/STM32CubeL0/Drivers/STM32L0xx_HAL_Driver/Inc/stm32l0xx_ll_bus.h ****   *         APB1ENR     PWREN         LL_APB1_GRP1_DisableClock\n
 517:../../dependencies/STM32CubeL0/Drivers/STM32L0xx_HAL_Driver/Inc/stm32l0xx_ll_bus.h ****   *         APB1ENR     DACEN         LL_APB1_GRP1_DisableClock\n
 518:../../dependencies/STM32CubeL0/Drivers/STM32L0xx_HAL_Driver/Inc/stm32l0xx_ll_bus.h ****   *         APB1ENR     I2C3EN        LL_APB1_GRP1_DisableClock\n
 519:../../dependencies/STM32CubeL0/Drivers/STM32L0xx_HAL_Driver/Inc/stm32l0xx_ll_bus.h ****   *         APB1ENR     LPTIM1EN      LL_APB1_GRP1_DisableClock
 520:../../dependencies/STM32CubeL0/Drivers/STM32L0xx_HAL_Driver/Inc/stm32l0xx_ll_bus.h ****   * @param  Periphs This parameter can be a combination of the following values:
 521:../../dependencies/STM32CubeL0/Drivers/STM32L0xx_HAL_Driver/Inc/stm32l0xx_ll_bus.h ****   *         @arg @ref LL_APB1_GRP1_PERIPH_TIM2
 522:../../dependencies/STM32CubeL0/Drivers/STM32L0xx_HAL_Driver/Inc/stm32l0xx_ll_bus.h ****   *         @arg @ref LL_APB1_GRP1_PERIPH_TIM3 (*)
 523:../../dependencies/STM32CubeL0/Drivers/STM32L0xx_HAL_Driver/Inc/stm32l0xx_ll_bus.h ****   *         @arg @ref LL_APB1_GRP1_PERIPH_TIM6 (*)
 524:../../dependencies/STM32CubeL0/Drivers/STM32L0xx_HAL_Driver/Inc/stm32l0xx_ll_bus.h ****   *         @arg @ref LL_APB1_GRP1_PERIPH_TIM7 (*)
 525:../../dependencies/STM32CubeL0/Drivers/STM32L0xx_HAL_Driver/Inc/stm32l0xx_ll_bus.h ****   *         @arg @ref LL_APB1_GRP1_PERIPH_LCD (*)
 526:../../dependencies/STM32CubeL0/Drivers/STM32L0xx_HAL_Driver/Inc/stm32l0xx_ll_bus.h ****   *         @arg @ref LL_APB1_GRP1_PERIPH_WWDG
 527:../../dependencies/STM32CubeL0/Drivers/STM32L0xx_HAL_Driver/Inc/stm32l0xx_ll_bus.h ****   *         @arg @ref LL_APB1_GRP1_PERIPH_SPI2 (*)
 528:../../dependencies/STM32CubeL0/Drivers/STM32L0xx_HAL_Driver/Inc/stm32l0xx_ll_bus.h ****   *         @arg @ref LL_APB1_GRP1_PERIPH_USART2
 529:../../dependencies/STM32CubeL0/Drivers/STM32L0xx_HAL_Driver/Inc/stm32l0xx_ll_bus.h ****   *         @arg @ref LL_APB1_GRP1_PERIPH_LPUART1
 530:../../dependencies/STM32CubeL0/Drivers/STM32L0xx_HAL_Driver/Inc/stm32l0xx_ll_bus.h ****   *         @arg @ref LL_APB1_GRP1_PERIPH_USART4 (*)
 531:../../dependencies/STM32CubeL0/Drivers/STM32L0xx_HAL_Driver/Inc/stm32l0xx_ll_bus.h ****   *         @arg @ref LL_APB1_GRP1_PERIPH_USART5 (*)
 532:../../dependencies/STM32CubeL0/Drivers/STM32L0xx_HAL_Driver/Inc/stm32l0xx_ll_bus.h ****   *         @arg @ref LL_APB1_GRP1_PERIPH_I2C1
 533:../../dependencies/STM32CubeL0/Drivers/STM32L0xx_HAL_Driver/Inc/stm32l0xx_ll_bus.h ****   *         @arg @ref LL_APB1_GRP1_PERIPH_I2C2 (*)
 534:../../dependencies/STM32CubeL0/Drivers/STM32L0xx_HAL_Driver/Inc/stm32l0xx_ll_bus.h ****   *         @arg @ref LL_APB1_GRP1_PERIPH_USB (*)
 535:../../dependencies/STM32CubeL0/Drivers/STM32L0xx_HAL_Driver/Inc/stm32l0xx_ll_bus.h ****   *         @arg @ref LL_APB1_GRP1_PERIPH_CRS (*)
 536:../../dependencies/STM32CubeL0/Drivers/STM32L0xx_HAL_Driver/Inc/stm32l0xx_ll_bus.h ****   *         @arg @ref LL_APB1_GRP1_PERIPH_PWR
 537:../../dependencies/STM32CubeL0/Drivers/STM32L0xx_HAL_Driver/Inc/stm32l0xx_ll_bus.h ****   *         @arg @ref LL_APB1_GRP1_PERIPH_DAC1 (*)
 538:../../dependencies/STM32CubeL0/Drivers/STM32L0xx_HAL_Driver/Inc/stm32l0xx_ll_bus.h ****   *         @arg @ref LL_APB1_GRP1_PERIPH_I2C3 (*)
 539:../../dependencies/STM32CubeL0/Drivers/STM32L0xx_HAL_Driver/Inc/stm32l0xx_ll_bus.h ****   *         @arg @ref LL_APB1_GRP1_PERIPH_LPTIM1
 540:../../dependencies/STM32CubeL0/Drivers/STM32L0xx_HAL_Driver/Inc/stm32l0xx_ll_bus.h ****   *
 541:../../dependencies/STM32CubeL0/Drivers/STM32L0xx_HAL_Driver/Inc/stm32l0xx_ll_bus.h ****   *         (*) value not defined in all devices.
 542:../../dependencies/STM32CubeL0/Drivers/STM32L0xx_HAL_Driver/Inc/stm32l0xx_ll_bus.h ****   * @retval None
 543:../../dependencies/STM32CubeL0/Drivers/STM32L0xx_HAL_Driver/Inc/stm32l0xx_ll_bus.h **** */
 544:../../dependencies/STM32CubeL0/Drivers/STM32L0xx_HAL_Driver/Inc/stm32l0xx_ll_bus.h **** __STATIC_INLINE void LL_APB1_GRP1_DisableClock(uint32_t Periphs)
 545:../../dependencies/STM32CubeL0/Drivers/STM32L0xx_HAL_Driver/Inc/stm32l0xx_ll_bus.h **** {
 546:../../dependencies/STM32CubeL0/Drivers/STM32L0xx_HAL_Driver/Inc/stm32l0xx_ll_bus.h ****   CLEAR_BIT(RCC->APB1ENR, Periphs);
 547:../../dependencies/STM32CubeL0/Drivers/STM32L0xx_HAL_Driver/Inc/stm32l0xx_ll_bus.h **** }
 548:../../dependencies/STM32CubeL0/Drivers/STM32L0xx_HAL_Driver/Inc/stm32l0xx_ll_bus.h **** 
 549:../../dependencies/STM32CubeL0/Drivers/STM32L0xx_HAL_Driver/Inc/stm32l0xx_ll_bus.h **** /**
 550:../../dependencies/STM32CubeL0/Drivers/STM32L0xx_HAL_Driver/Inc/stm32l0xx_ll_bus.h ****   * @brief  Force APB1 peripherals reset.
 551:../../dependencies/STM32CubeL0/Drivers/STM32L0xx_HAL_Driver/Inc/stm32l0xx_ll_bus.h ****   * @rmtoll APB1RSTR     TIM2RST        LL_APB1_GRP1_ForceReset\n
 552:../../dependencies/STM32CubeL0/Drivers/STM32L0xx_HAL_Driver/Inc/stm32l0xx_ll_bus.h ****   *         APB1RSTR     TIM3RST        LL_APB1_GRP1_ForceReset\n
 553:../../dependencies/STM32CubeL0/Drivers/STM32L0xx_HAL_Driver/Inc/stm32l0xx_ll_bus.h ****   *         APB1RSTR     TIM6RST        LL_APB1_GRP1_ForceReset\n
 554:../../dependencies/STM32CubeL0/Drivers/STM32L0xx_HAL_Driver/Inc/stm32l0xx_ll_bus.h ****   *         APB1RSTR     TIM7RST        LL_APB1_GRP1_ForceReset\n
ARM GAS  /tmp/ccpljSGR.s 			page 12


 555:../../dependencies/STM32CubeL0/Drivers/STM32L0xx_HAL_Driver/Inc/stm32l0xx_ll_bus.h ****   *         APB1RSTR     LCDRST         LL_APB1_GRP1_ForceReset\n
 556:../../dependencies/STM32CubeL0/Drivers/STM32L0xx_HAL_Driver/Inc/stm32l0xx_ll_bus.h ****   *         APB1RSTR     WWDGRST        LL_APB1_GRP1_ForceReset\n
 557:../../dependencies/STM32CubeL0/Drivers/STM32L0xx_HAL_Driver/Inc/stm32l0xx_ll_bus.h ****   *         APB1RSTR     SPI2RST        LL_APB1_GRP1_ForceReset\n
 558:../../dependencies/STM32CubeL0/Drivers/STM32L0xx_HAL_Driver/Inc/stm32l0xx_ll_bus.h ****   *         APB1RSTR     USART2RST      LL_APB1_GRP1_ForceReset\n
 559:../../dependencies/STM32CubeL0/Drivers/STM32L0xx_HAL_Driver/Inc/stm32l0xx_ll_bus.h ****   *         APB1RSTR     LPUART1RST     LL_APB1_GRP1_ForceReset\n
 560:../../dependencies/STM32CubeL0/Drivers/STM32L0xx_HAL_Driver/Inc/stm32l0xx_ll_bus.h ****   *         APB1RSTR     USART4RST      LL_APB1_GRP1_ForceReset\n
 561:../../dependencies/STM32CubeL0/Drivers/STM32L0xx_HAL_Driver/Inc/stm32l0xx_ll_bus.h ****   *         APB1RSTR     USART5RST      LL_APB1_GRP1_ForceReset\n
 562:../../dependencies/STM32CubeL0/Drivers/STM32L0xx_HAL_Driver/Inc/stm32l0xx_ll_bus.h ****   *         APB1RSTR     I2C1RST        LL_APB1_GRP1_ForceReset\n
 563:../../dependencies/STM32CubeL0/Drivers/STM32L0xx_HAL_Driver/Inc/stm32l0xx_ll_bus.h ****   *         APB1RSTR     I2C2RST        LL_APB1_GRP1_ForceReset\n
 564:../../dependencies/STM32CubeL0/Drivers/STM32L0xx_HAL_Driver/Inc/stm32l0xx_ll_bus.h ****   *         APB1RSTR     USBRST         LL_APB1_GRP1_ForceReset\n
 565:../../dependencies/STM32CubeL0/Drivers/STM32L0xx_HAL_Driver/Inc/stm32l0xx_ll_bus.h ****   *         APB1RSTR     CRSRST         LL_APB1_GRP1_ForceReset\n
 566:../../dependencies/STM32CubeL0/Drivers/STM32L0xx_HAL_Driver/Inc/stm32l0xx_ll_bus.h ****   *         APB1RSTR     PWRRST         LL_APB1_GRP1_ForceReset\n
 567:../../dependencies/STM32CubeL0/Drivers/STM32L0xx_HAL_Driver/Inc/stm32l0xx_ll_bus.h ****   *         APB1RSTR     DACRST         LL_APB1_GRP1_ForceReset\n
 568:../../dependencies/STM32CubeL0/Drivers/STM32L0xx_HAL_Driver/Inc/stm32l0xx_ll_bus.h ****   *         APB1RSTR     I2C3RST        LL_APB1_GRP1_ForceReset\n
 569:../../dependencies/STM32CubeL0/Drivers/STM32L0xx_HAL_Driver/Inc/stm32l0xx_ll_bus.h ****   *         APB1RSTR     LPTIM1RST      LL_APB1_GRP1_ForceReset
 570:../../dependencies/STM32CubeL0/Drivers/STM32L0xx_HAL_Driver/Inc/stm32l0xx_ll_bus.h ****   * @param  Periphs This parameter can be a combination of the following values:
 571:../../dependencies/STM32CubeL0/Drivers/STM32L0xx_HAL_Driver/Inc/stm32l0xx_ll_bus.h ****   *         @arg @ref LL_APB1_GRP1_PERIPH_ALL
 572:../../dependencies/STM32CubeL0/Drivers/STM32L0xx_HAL_Driver/Inc/stm32l0xx_ll_bus.h ****   *         @arg @ref LL_APB1_GRP1_PERIPH_TIM2
 573:../../dependencies/STM32CubeL0/Drivers/STM32L0xx_HAL_Driver/Inc/stm32l0xx_ll_bus.h ****   *         @arg @ref LL_APB1_GRP1_PERIPH_TIM3 (*)
 574:../../dependencies/STM32CubeL0/Drivers/STM32L0xx_HAL_Driver/Inc/stm32l0xx_ll_bus.h ****   *         @arg @ref LL_APB1_GRP1_PERIPH_TIM6 (*)
 575:../../dependencies/STM32CubeL0/Drivers/STM32L0xx_HAL_Driver/Inc/stm32l0xx_ll_bus.h ****   *         @arg @ref LL_APB1_GRP1_PERIPH_TIM7 (*)
 576:../../dependencies/STM32CubeL0/Drivers/STM32L0xx_HAL_Driver/Inc/stm32l0xx_ll_bus.h ****   *         @arg @ref LL_APB1_GRP1_PERIPH_LCD (*)
 577:../../dependencies/STM32CubeL0/Drivers/STM32L0xx_HAL_Driver/Inc/stm32l0xx_ll_bus.h ****   *         @arg @ref LL_APB1_GRP1_PERIPH_WWDG
 578:../../dependencies/STM32CubeL0/Drivers/STM32L0xx_HAL_Driver/Inc/stm32l0xx_ll_bus.h ****   *         @arg @ref LL_APB1_GRP1_PERIPH_SPI2 (*)
 579:../../dependencies/STM32CubeL0/Drivers/STM32L0xx_HAL_Driver/Inc/stm32l0xx_ll_bus.h ****   *         @arg @ref LL_APB1_GRP1_PERIPH_USART2
 580:../../dependencies/STM32CubeL0/Drivers/STM32L0xx_HAL_Driver/Inc/stm32l0xx_ll_bus.h ****   *         @arg @ref LL_APB1_GRP1_PERIPH_LPUART1
 581:../../dependencies/STM32CubeL0/Drivers/STM32L0xx_HAL_Driver/Inc/stm32l0xx_ll_bus.h ****   *         @arg @ref LL_APB1_GRP1_PERIPH_USART4 (*)
 582:../../dependencies/STM32CubeL0/Drivers/STM32L0xx_HAL_Driver/Inc/stm32l0xx_ll_bus.h ****   *         @arg @ref LL_APB1_GRP1_PERIPH_USART5 (*)
 583:../../dependencies/STM32CubeL0/Drivers/STM32L0xx_HAL_Driver/Inc/stm32l0xx_ll_bus.h ****   *         @arg @ref LL_APB1_GRP1_PERIPH_I2C1
 584:../../dependencies/STM32CubeL0/Drivers/STM32L0xx_HAL_Driver/Inc/stm32l0xx_ll_bus.h ****   *         @arg @ref LL_APB1_GRP1_PERIPH_I2C2 (*)
 585:../../dependencies/STM32CubeL0/Drivers/STM32L0xx_HAL_Driver/Inc/stm32l0xx_ll_bus.h ****   *         @arg @ref LL_APB1_GRP1_PERIPH_USB (*)
 586:../../dependencies/STM32CubeL0/Drivers/STM32L0xx_HAL_Driver/Inc/stm32l0xx_ll_bus.h ****   *         @arg @ref LL_APB1_GRP1_PERIPH_CRS (*)
 587:../../dependencies/STM32CubeL0/Drivers/STM32L0xx_HAL_Driver/Inc/stm32l0xx_ll_bus.h ****   *         @arg @ref LL_APB1_GRP1_PERIPH_PWR
 588:../../dependencies/STM32CubeL0/Drivers/STM32L0xx_HAL_Driver/Inc/stm32l0xx_ll_bus.h ****   *         @arg @ref LL_APB1_GRP1_PERIPH_DAC1 (*)
 589:../../dependencies/STM32CubeL0/Drivers/STM32L0xx_HAL_Driver/Inc/stm32l0xx_ll_bus.h ****   *         @arg @ref LL_APB1_GRP1_PERIPH_I2C3 (*)
 590:../../dependencies/STM32CubeL0/Drivers/STM32L0xx_HAL_Driver/Inc/stm32l0xx_ll_bus.h ****   *         @arg @ref LL_APB1_GRP1_PERIPH_LPTIM1
 591:../../dependencies/STM32CubeL0/Drivers/STM32L0xx_HAL_Driver/Inc/stm32l0xx_ll_bus.h ****   *
 592:../../dependencies/STM32CubeL0/Drivers/STM32L0xx_HAL_Driver/Inc/stm32l0xx_ll_bus.h ****   *         (*) value not defined in all devices.
 593:../../dependencies/STM32CubeL0/Drivers/STM32L0xx_HAL_Driver/Inc/stm32l0xx_ll_bus.h ****   * @retval None
 594:../../dependencies/STM32CubeL0/Drivers/STM32L0xx_HAL_Driver/Inc/stm32l0xx_ll_bus.h **** */
 595:../../dependencies/STM32CubeL0/Drivers/STM32L0xx_HAL_Driver/Inc/stm32l0xx_ll_bus.h **** __STATIC_INLINE void LL_APB1_GRP1_ForceReset(uint32_t Periphs)
 596:../../dependencies/STM32CubeL0/Drivers/STM32L0xx_HAL_Driver/Inc/stm32l0xx_ll_bus.h **** {
 597:../../dependencies/STM32CubeL0/Drivers/STM32L0xx_HAL_Driver/Inc/stm32l0xx_ll_bus.h ****   SET_BIT(RCC->APB1RSTR, Periphs);
 598:../../dependencies/STM32CubeL0/Drivers/STM32L0xx_HAL_Driver/Inc/stm32l0xx_ll_bus.h **** }
 599:../../dependencies/STM32CubeL0/Drivers/STM32L0xx_HAL_Driver/Inc/stm32l0xx_ll_bus.h **** 
 600:../../dependencies/STM32CubeL0/Drivers/STM32L0xx_HAL_Driver/Inc/stm32l0xx_ll_bus.h **** /**
 601:../../dependencies/STM32CubeL0/Drivers/STM32L0xx_HAL_Driver/Inc/stm32l0xx_ll_bus.h ****   * @brief  Release APB1 peripherals reset.
 602:../../dependencies/STM32CubeL0/Drivers/STM32L0xx_HAL_Driver/Inc/stm32l0xx_ll_bus.h ****   * @rmtoll APB1RSTR     TIM2RST        LL_APB1_GRP1_ReleaseReset\n
 603:../../dependencies/STM32CubeL0/Drivers/STM32L0xx_HAL_Driver/Inc/stm32l0xx_ll_bus.h ****   *         APB1RSTR     TIM3RST        LL_APB1_GRP1_ReleaseReset\n
 604:../../dependencies/STM32CubeL0/Drivers/STM32L0xx_HAL_Driver/Inc/stm32l0xx_ll_bus.h ****   *         APB1RSTR     TIM6RST        LL_APB1_GRP1_ReleaseReset\n
 605:../../dependencies/STM32CubeL0/Drivers/STM32L0xx_HAL_Driver/Inc/stm32l0xx_ll_bus.h ****   *         APB1RSTR     TIM7RST        LL_APB1_GRP1_ReleaseReset\n
 606:../../dependencies/STM32CubeL0/Drivers/STM32L0xx_HAL_Driver/Inc/stm32l0xx_ll_bus.h ****   *         APB1RSTR     LCDRST         LL_APB1_GRP1_ReleaseReset\n
 607:../../dependencies/STM32CubeL0/Drivers/STM32L0xx_HAL_Driver/Inc/stm32l0xx_ll_bus.h ****   *         APB1RSTR     WWDGRST        LL_APB1_GRP1_ReleaseReset\n
 608:../../dependencies/STM32CubeL0/Drivers/STM32L0xx_HAL_Driver/Inc/stm32l0xx_ll_bus.h ****   *         APB1RSTR     SPI2RST        LL_APB1_GRP1_ReleaseReset\n
 609:../../dependencies/STM32CubeL0/Drivers/STM32L0xx_HAL_Driver/Inc/stm32l0xx_ll_bus.h ****   *         APB1RSTR     USART2RST      LL_APB1_GRP1_ReleaseReset\n
 610:../../dependencies/STM32CubeL0/Drivers/STM32L0xx_HAL_Driver/Inc/stm32l0xx_ll_bus.h ****   *         APB1RSTR     LPUART1RST     LL_APB1_GRP1_ReleaseReset\n
 611:../../dependencies/STM32CubeL0/Drivers/STM32L0xx_HAL_Driver/Inc/stm32l0xx_ll_bus.h ****   *         APB1RSTR     USART4RST      LL_APB1_GRP1_ReleaseReset\n
ARM GAS  /tmp/ccpljSGR.s 			page 13


 612:../../dependencies/STM32CubeL0/Drivers/STM32L0xx_HAL_Driver/Inc/stm32l0xx_ll_bus.h ****   *         APB1RSTR     USART5RST      LL_APB1_GRP1_ReleaseReset\n
 613:../../dependencies/STM32CubeL0/Drivers/STM32L0xx_HAL_Driver/Inc/stm32l0xx_ll_bus.h ****   *         APB1RSTR     I2C1RST        LL_APB1_GRP1_ReleaseReset\n
 614:../../dependencies/STM32CubeL0/Drivers/STM32L0xx_HAL_Driver/Inc/stm32l0xx_ll_bus.h ****   *         APB1RSTR     I2C2RST        LL_APB1_GRP1_ReleaseReset\n
 615:../../dependencies/STM32CubeL0/Drivers/STM32L0xx_HAL_Driver/Inc/stm32l0xx_ll_bus.h ****   *         APB1RSTR     USBRST         LL_APB1_GRP1_ReleaseReset\n
 616:../../dependencies/STM32CubeL0/Drivers/STM32L0xx_HAL_Driver/Inc/stm32l0xx_ll_bus.h ****   *         APB1RSTR     CRSRST         LL_APB1_GRP1_ReleaseReset\n
 617:../../dependencies/STM32CubeL0/Drivers/STM32L0xx_HAL_Driver/Inc/stm32l0xx_ll_bus.h ****   *         APB1RSTR     PWRRST         LL_APB1_GRP1_ReleaseReset\n
 618:../../dependencies/STM32CubeL0/Drivers/STM32L0xx_HAL_Driver/Inc/stm32l0xx_ll_bus.h ****   *         APB1RSTR     DACRST         LL_APB1_GRP1_ReleaseReset\n
 619:../../dependencies/STM32CubeL0/Drivers/STM32L0xx_HAL_Driver/Inc/stm32l0xx_ll_bus.h ****   *         APB1RSTR     I2C3RST        LL_APB1_GRP1_ReleaseReset\n
 620:../../dependencies/STM32CubeL0/Drivers/STM32L0xx_HAL_Driver/Inc/stm32l0xx_ll_bus.h ****   *         APB1RSTR     LPTIM1RST      LL_APB1_GRP1_ReleaseReset
 621:../../dependencies/STM32CubeL0/Drivers/STM32L0xx_HAL_Driver/Inc/stm32l0xx_ll_bus.h ****   * @param  Periphs This parameter can be a combination of the following values:
 622:../../dependencies/STM32CubeL0/Drivers/STM32L0xx_HAL_Driver/Inc/stm32l0xx_ll_bus.h ****   *         @arg @ref LL_APB1_GRP1_PERIPH_ALL
 623:../../dependencies/STM32CubeL0/Drivers/STM32L0xx_HAL_Driver/Inc/stm32l0xx_ll_bus.h ****   *         @arg @ref LL_APB1_GRP1_PERIPH_TIM2
 624:../../dependencies/STM32CubeL0/Drivers/STM32L0xx_HAL_Driver/Inc/stm32l0xx_ll_bus.h ****   *         @arg @ref LL_APB1_GRP1_PERIPH_TIM3 (*)
 625:../../dependencies/STM32CubeL0/Drivers/STM32L0xx_HAL_Driver/Inc/stm32l0xx_ll_bus.h ****   *         @arg @ref LL_APB1_GRP1_PERIPH_TIM6 (*)
 626:../../dependencies/STM32CubeL0/Drivers/STM32L0xx_HAL_Driver/Inc/stm32l0xx_ll_bus.h ****   *         @arg @ref LL_APB1_GRP1_PERIPH_TIM7 (*)
 627:../../dependencies/STM32CubeL0/Drivers/STM32L0xx_HAL_Driver/Inc/stm32l0xx_ll_bus.h ****   *         @arg @ref LL_APB1_GRP1_PERIPH_LCD (*)
 628:../../dependencies/STM32CubeL0/Drivers/STM32L0xx_HAL_Driver/Inc/stm32l0xx_ll_bus.h ****   *         @arg @ref LL_APB1_GRP1_PERIPH_WWDG
 629:../../dependencies/STM32CubeL0/Drivers/STM32L0xx_HAL_Driver/Inc/stm32l0xx_ll_bus.h ****   *         @arg @ref LL_APB1_GRP1_PERIPH_SPI2 (*)
 630:../../dependencies/STM32CubeL0/Drivers/STM32L0xx_HAL_Driver/Inc/stm32l0xx_ll_bus.h ****   *         @arg @ref LL_APB1_GRP1_PERIPH_USART2
 631:../../dependencies/STM32CubeL0/Drivers/STM32L0xx_HAL_Driver/Inc/stm32l0xx_ll_bus.h ****   *         @arg @ref LL_APB1_GRP1_PERIPH_LPUART1
 632:../../dependencies/STM32CubeL0/Drivers/STM32L0xx_HAL_Driver/Inc/stm32l0xx_ll_bus.h ****   *         @arg @ref LL_APB1_GRP1_PERIPH_USART4 (*)
 633:../../dependencies/STM32CubeL0/Drivers/STM32L0xx_HAL_Driver/Inc/stm32l0xx_ll_bus.h ****   *         @arg @ref LL_APB1_GRP1_PERIPH_USART5 (*)
 634:../../dependencies/STM32CubeL0/Drivers/STM32L0xx_HAL_Driver/Inc/stm32l0xx_ll_bus.h ****   *         @arg @ref LL_APB1_GRP1_PERIPH_I2C1
 635:../../dependencies/STM32CubeL0/Drivers/STM32L0xx_HAL_Driver/Inc/stm32l0xx_ll_bus.h ****   *         @arg @ref LL_APB1_GRP1_PERIPH_I2C2 (*)
 636:../../dependencies/STM32CubeL0/Drivers/STM32L0xx_HAL_Driver/Inc/stm32l0xx_ll_bus.h ****   *         @arg @ref LL_APB1_GRP1_PERIPH_USB (*)
 637:../../dependencies/STM32CubeL0/Drivers/STM32L0xx_HAL_Driver/Inc/stm32l0xx_ll_bus.h ****   *         @arg @ref LL_APB1_GRP1_PERIPH_CRS (*)
 638:../../dependencies/STM32CubeL0/Drivers/STM32L0xx_HAL_Driver/Inc/stm32l0xx_ll_bus.h ****   *         @arg @ref LL_APB1_GRP1_PERIPH_PWR
 639:../../dependencies/STM32CubeL0/Drivers/STM32L0xx_HAL_Driver/Inc/stm32l0xx_ll_bus.h ****   *         @arg @ref LL_APB1_GRP1_PERIPH_DAC1 (*)
 640:../../dependencies/STM32CubeL0/Drivers/STM32L0xx_HAL_Driver/Inc/stm32l0xx_ll_bus.h ****   *         @arg @ref LL_APB1_GRP1_PERIPH_I2C3 (*)
 641:../../dependencies/STM32CubeL0/Drivers/STM32L0xx_HAL_Driver/Inc/stm32l0xx_ll_bus.h ****   *         @arg @ref LL_APB1_GRP1_PERIPH_LPTIM1
 642:../../dependencies/STM32CubeL0/Drivers/STM32L0xx_HAL_Driver/Inc/stm32l0xx_ll_bus.h ****   *
 643:../../dependencies/STM32CubeL0/Drivers/STM32L0xx_HAL_Driver/Inc/stm32l0xx_ll_bus.h ****   *         (*) value not defined in all devices.
 644:../../dependencies/STM32CubeL0/Drivers/STM32L0xx_HAL_Driver/Inc/stm32l0xx_ll_bus.h ****   * @retval None
 645:../../dependencies/STM32CubeL0/Drivers/STM32L0xx_HAL_Driver/Inc/stm32l0xx_ll_bus.h **** */
 646:../../dependencies/STM32CubeL0/Drivers/STM32L0xx_HAL_Driver/Inc/stm32l0xx_ll_bus.h **** __STATIC_INLINE void LL_APB1_GRP1_ReleaseReset(uint32_t Periphs)
 647:../../dependencies/STM32CubeL0/Drivers/STM32L0xx_HAL_Driver/Inc/stm32l0xx_ll_bus.h **** {
 648:../../dependencies/STM32CubeL0/Drivers/STM32L0xx_HAL_Driver/Inc/stm32l0xx_ll_bus.h ****   CLEAR_BIT(RCC->APB1RSTR, Periphs);
 649:../../dependencies/STM32CubeL0/Drivers/STM32L0xx_HAL_Driver/Inc/stm32l0xx_ll_bus.h **** }
 650:../../dependencies/STM32CubeL0/Drivers/STM32L0xx_HAL_Driver/Inc/stm32l0xx_ll_bus.h **** 
 651:../../dependencies/STM32CubeL0/Drivers/STM32L0xx_HAL_Driver/Inc/stm32l0xx_ll_bus.h **** /**
 652:../../dependencies/STM32CubeL0/Drivers/STM32L0xx_HAL_Driver/Inc/stm32l0xx_ll_bus.h ****   * @brief  Enable APB1 peripherals clock during Low Power (Sleep) mode.
 653:../../dependencies/STM32CubeL0/Drivers/STM32L0xx_HAL_Driver/Inc/stm32l0xx_ll_bus.h ****   * @rmtoll APB1SMENR    TIM2SMEN      LL_APB1_GRP1_EnableClockSleep\n
 654:../../dependencies/STM32CubeL0/Drivers/STM32L0xx_HAL_Driver/Inc/stm32l0xx_ll_bus.h ****   *         APB1SMENR    TIM3SMEN      LL_APB1_GRP1_EnableClockSleep\n
 655:../../dependencies/STM32CubeL0/Drivers/STM32L0xx_HAL_Driver/Inc/stm32l0xx_ll_bus.h ****   *         APB1SMENR    TIM6SMEN      LL_APB1_GRP1_EnableClockSleep\n
 656:../../dependencies/STM32CubeL0/Drivers/STM32L0xx_HAL_Driver/Inc/stm32l0xx_ll_bus.h ****   *         APB1SMENR    TIM7SMEN      LL_APB1_GRP1_EnableClockSleep\n
 657:../../dependencies/STM32CubeL0/Drivers/STM32L0xx_HAL_Driver/Inc/stm32l0xx_ll_bus.h ****   *         APB1SMENR    LCDSMEN       LL_APB1_GRP1_EnableClockSleep\n
 658:../../dependencies/STM32CubeL0/Drivers/STM32L0xx_HAL_Driver/Inc/stm32l0xx_ll_bus.h ****   *         APB1SMENR    WWDGSMEN      LL_APB1_GRP1_EnableClockSleep\n
 659:../../dependencies/STM32CubeL0/Drivers/STM32L0xx_HAL_Driver/Inc/stm32l0xx_ll_bus.h ****   *         APB1SMENR    SPI2SMEN      LL_APB1_GRP1_EnableClockSleep\n
 660:../../dependencies/STM32CubeL0/Drivers/STM32L0xx_HAL_Driver/Inc/stm32l0xx_ll_bus.h ****   *         APB1SMENR    USART2SMEN    LL_APB1_GRP1_EnableClockSleep\n
 661:../../dependencies/STM32CubeL0/Drivers/STM32L0xx_HAL_Driver/Inc/stm32l0xx_ll_bus.h ****   *         APB1SMENR    LPUART1SMEN   LL_APB1_GRP1_EnableClockSleep\n
 662:../../dependencies/STM32CubeL0/Drivers/STM32L0xx_HAL_Driver/Inc/stm32l0xx_ll_bus.h ****   *         APB1SMENR    USART4SMEN    LL_APB1_GRP1_EnableClockSleep\n
 663:../../dependencies/STM32CubeL0/Drivers/STM32L0xx_HAL_Driver/Inc/stm32l0xx_ll_bus.h ****   *         APB1SMENR    USART5SMEN    LL_APB1_GRP1_EnableClockSleep\n
 664:../../dependencies/STM32CubeL0/Drivers/STM32L0xx_HAL_Driver/Inc/stm32l0xx_ll_bus.h ****   *         APB1SMENR    I2C1SMEN      LL_APB1_GRP1_EnableClockSleep\n
 665:../../dependencies/STM32CubeL0/Drivers/STM32L0xx_HAL_Driver/Inc/stm32l0xx_ll_bus.h ****   *         APB1SMENR    I2C2SMEN      LL_APB1_GRP1_EnableClockSleep\n
 666:../../dependencies/STM32CubeL0/Drivers/STM32L0xx_HAL_Driver/Inc/stm32l0xx_ll_bus.h ****   *         APB1SMENR    USBSMEN       LL_APB1_GRP1_EnableClockSleep\n
 667:../../dependencies/STM32CubeL0/Drivers/STM32L0xx_HAL_Driver/Inc/stm32l0xx_ll_bus.h ****   *         APB1SMENR    CRSSMEN       LL_APB1_GRP1_EnableClockSleep\n
 668:../../dependencies/STM32CubeL0/Drivers/STM32L0xx_HAL_Driver/Inc/stm32l0xx_ll_bus.h ****   *         APB1SMENR    PWRSMEN       LL_APB1_GRP1_EnableClockSleep\n
ARM GAS  /tmp/ccpljSGR.s 			page 14


 669:../../dependencies/STM32CubeL0/Drivers/STM32L0xx_HAL_Driver/Inc/stm32l0xx_ll_bus.h ****   *         APB1SMENR    DACSMEN       LL_APB1_GRP1_EnableClockSleep\n
 670:../../dependencies/STM32CubeL0/Drivers/STM32L0xx_HAL_Driver/Inc/stm32l0xx_ll_bus.h ****   *         APB1SMENR    I2C3SMEN      LL_APB1_GRP1_EnableClockSleep\n
 671:../../dependencies/STM32CubeL0/Drivers/STM32L0xx_HAL_Driver/Inc/stm32l0xx_ll_bus.h ****   *         APB1SMENR    LPTIM1SMEN    LL_APB1_GRP1_EnableClockSleep
 672:../../dependencies/STM32CubeL0/Drivers/STM32L0xx_HAL_Driver/Inc/stm32l0xx_ll_bus.h ****   * @param  Periphs This parameter can be a combination of the following values:
 673:../../dependencies/STM32CubeL0/Drivers/STM32L0xx_HAL_Driver/Inc/stm32l0xx_ll_bus.h ****   *         @arg @ref LL_APB1_GRP1_PERIPH_TIM2
 674:../../dependencies/STM32CubeL0/Drivers/STM32L0xx_HAL_Driver/Inc/stm32l0xx_ll_bus.h ****   *         @arg @ref LL_APB1_GRP1_PERIPH_TIM3 (*)
 675:../../dependencies/STM32CubeL0/Drivers/STM32L0xx_HAL_Driver/Inc/stm32l0xx_ll_bus.h ****   *         @arg @ref LL_APB1_GRP1_PERIPH_TIM6 (*)
 676:../../dependencies/STM32CubeL0/Drivers/STM32L0xx_HAL_Driver/Inc/stm32l0xx_ll_bus.h ****   *         @arg @ref LL_APB1_GRP1_PERIPH_TIM7 (*)
 677:../../dependencies/STM32CubeL0/Drivers/STM32L0xx_HAL_Driver/Inc/stm32l0xx_ll_bus.h ****   *         @arg @ref LL_APB1_GRP1_PERIPH_LCD (*)
 678:../../dependencies/STM32CubeL0/Drivers/STM32L0xx_HAL_Driver/Inc/stm32l0xx_ll_bus.h ****   *         @arg @ref LL_APB1_GRP1_PERIPH_WWDG
 679:../../dependencies/STM32CubeL0/Drivers/STM32L0xx_HAL_Driver/Inc/stm32l0xx_ll_bus.h ****   *         @arg @ref LL_APB1_GRP1_PERIPH_SPI2 (*)
 680:../../dependencies/STM32CubeL0/Drivers/STM32L0xx_HAL_Driver/Inc/stm32l0xx_ll_bus.h ****   *         @arg @ref LL_APB1_GRP1_PERIPH_USART2
 681:../../dependencies/STM32CubeL0/Drivers/STM32L0xx_HAL_Driver/Inc/stm32l0xx_ll_bus.h ****   *         @arg @ref LL_APB1_GRP1_PERIPH_LPUART1
 682:../../dependencies/STM32CubeL0/Drivers/STM32L0xx_HAL_Driver/Inc/stm32l0xx_ll_bus.h ****   *         @arg @ref LL_APB1_GRP1_PERIPH_USART4 (*)
 683:../../dependencies/STM32CubeL0/Drivers/STM32L0xx_HAL_Driver/Inc/stm32l0xx_ll_bus.h ****   *         @arg @ref LL_APB1_GRP1_PERIPH_USART5 (*)
 684:../../dependencies/STM32CubeL0/Drivers/STM32L0xx_HAL_Driver/Inc/stm32l0xx_ll_bus.h ****   *         @arg @ref LL_APB1_GRP1_PERIPH_I2C1
 685:../../dependencies/STM32CubeL0/Drivers/STM32L0xx_HAL_Driver/Inc/stm32l0xx_ll_bus.h ****   *         @arg @ref LL_APB1_GRP1_PERIPH_I2C2 (*)
 686:../../dependencies/STM32CubeL0/Drivers/STM32L0xx_HAL_Driver/Inc/stm32l0xx_ll_bus.h ****   *         @arg @ref LL_APB1_GRP1_PERIPH_USB (*)
 687:../../dependencies/STM32CubeL0/Drivers/STM32L0xx_HAL_Driver/Inc/stm32l0xx_ll_bus.h ****   *         @arg @ref LL_APB1_GRP1_PERIPH_CRS (*)
 688:../../dependencies/STM32CubeL0/Drivers/STM32L0xx_HAL_Driver/Inc/stm32l0xx_ll_bus.h ****   *         @arg @ref LL_APB1_GRP1_PERIPH_PWR
 689:../../dependencies/STM32CubeL0/Drivers/STM32L0xx_HAL_Driver/Inc/stm32l0xx_ll_bus.h ****   *         @arg @ref LL_APB1_GRP1_PERIPH_DAC1 (*)
 690:../../dependencies/STM32CubeL0/Drivers/STM32L0xx_HAL_Driver/Inc/stm32l0xx_ll_bus.h ****   *         @arg @ref LL_APB1_GRP1_PERIPH_I2C3 (*)
 691:../../dependencies/STM32CubeL0/Drivers/STM32L0xx_HAL_Driver/Inc/stm32l0xx_ll_bus.h ****   *         @arg @ref LL_APB1_GRP1_PERIPH_LPTIM1
 692:../../dependencies/STM32CubeL0/Drivers/STM32L0xx_HAL_Driver/Inc/stm32l0xx_ll_bus.h ****   *
 693:../../dependencies/STM32CubeL0/Drivers/STM32L0xx_HAL_Driver/Inc/stm32l0xx_ll_bus.h ****   *         (*) value not defined in all devices.
 694:../../dependencies/STM32CubeL0/Drivers/STM32L0xx_HAL_Driver/Inc/stm32l0xx_ll_bus.h ****   * @retval None
 695:../../dependencies/STM32CubeL0/Drivers/STM32L0xx_HAL_Driver/Inc/stm32l0xx_ll_bus.h **** */
 696:../../dependencies/STM32CubeL0/Drivers/STM32L0xx_HAL_Driver/Inc/stm32l0xx_ll_bus.h **** __STATIC_INLINE void LL_APB1_GRP1_EnableClockSleep(uint32_t Periphs)
 697:../../dependencies/STM32CubeL0/Drivers/STM32L0xx_HAL_Driver/Inc/stm32l0xx_ll_bus.h **** {
 698:../../dependencies/STM32CubeL0/Drivers/STM32L0xx_HAL_Driver/Inc/stm32l0xx_ll_bus.h ****   __IO uint32_t tmpreg;
 699:../../dependencies/STM32CubeL0/Drivers/STM32L0xx_HAL_Driver/Inc/stm32l0xx_ll_bus.h ****   SET_BIT(RCC->APB1SMENR, Periphs);
 700:../../dependencies/STM32CubeL0/Drivers/STM32L0xx_HAL_Driver/Inc/stm32l0xx_ll_bus.h ****   /* Delay after an RCC peripheral clock enabling */
 701:../../dependencies/STM32CubeL0/Drivers/STM32L0xx_HAL_Driver/Inc/stm32l0xx_ll_bus.h ****   tmpreg = READ_BIT(RCC->APB1SMENR, Periphs);
 702:../../dependencies/STM32CubeL0/Drivers/STM32L0xx_HAL_Driver/Inc/stm32l0xx_ll_bus.h ****   (void)tmpreg;
 703:../../dependencies/STM32CubeL0/Drivers/STM32L0xx_HAL_Driver/Inc/stm32l0xx_ll_bus.h **** }
 704:../../dependencies/STM32CubeL0/Drivers/STM32L0xx_HAL_Driver/Inc/stm32l0xx_ll_bus.h **** 
 705:../../dependencies/STM32CubeL0/Drivers/STM32L0xx_HAL_Driver/Inc/stm32l0xx_ll_bus.h **** /**
 706:../../dependencies/STM32CubeL0/Drivers/STM32L0xx_HAL_Driver/Inc/stm32l0xx_ll_bus.h ****   * @brief  Disable APB1 peripherals clock during Low Power (Sleep) mode.
 707:../../dependencies/STM32CubeL0/Drivers/STM32L0xx_HAL_Driver/Inc/stm32l0xx_ll_bus.h ****   * @rmtoll APB1SMENR    TIM2SMEN      LL_APB1_GRP1_DisableClockSleep\n
 708:../../dependencies/STM32CubeL0/Drivers/STM32L0xx_HAL_Driver/Inc/stm32l0xx_ll_bus.h ****   *         APB1SMENR    TIM3SMEN      LL_APB1_GRP1_DisableClockSleep\n
 709:../../dependencies/STM32CubeL0/Drivers/STM32L0xx_HAL_Driver/Inc/stm32l0xx_ll_bus.h ****   *         APB1SMENR    TIM6SMEN      LL_APB1_GRP1_DisableClockSleep\n
 710:../../dependencies/STM32CubeL0/Drivers/STM32L0xx_HAL_Driver/Inc/stm32l0xx_ll_bus.h ****   *         APB1SMENR    TIM7SMEN      LL_APB1_GRP1_DisableClockSleep\n
 711:../../dependencies/STM32CubeL0/Drivers/STM32L0xx_HAL_Driver/Inc/stm32l0xx_ll_bus.h ****   *         APB1SMENR    LCDSMEN       LL_APB1_GRP1_DisableClockSleep\n
 712:../../dependencies/STM32CubeL0/Drivers/STM32L0xx_HAL_Driver/Inc/stm32l0xx_ll_bus.h ****   *         APB1SMENR    WWDGSMEN      LL_APB1_GRP1_DisableClockSleep\n
 713:../../dependencies/STM32CubeL0/Drivers/STM32L0xx_HAL_Driver/Inc/stm32l0xx_ll_bus.h ****   *         APB1SMENR    SPI2SMEN      LL_APB1_GRP1_DisableClockSleep\n
 714:../../dependencies/STM32CubeL0/Drivers/STM32L0xx_HAL_Driver/Inc/stm32l0xx_ll_bus.h ****   *         APB1SMENR    USART2SMEN    LL_APB1_GRP1_DisableClockSleep\n
 715:../../dependencies/STM32CubeL0/Drivers/STM32L0xx_HAL_Driver/Inc/stm32l0xx_ll_bus.h ****   *         APB1SMENR    LPUART1SMEN   LL_APB1_GRP1_DisableClockSleep\n
 716:../../dependencies/STM32CubeL0/Drivers/STM32L0xx_HAL_Driver/Inc/stm32l0xx_ll_bus.h ****   *         APB1SMENR    USART4SMEN    LL_APB1_GRP1_DisableClockSleep\n
 717:../../dependencies/STM32CubeL0/Drivers/STM32L0xx_HAL_Driver/Inc/stm32l0xx_ll_bus.h ****   *         APB1SMENR    USART5SMEN    LL_APB1_GRP1_DisableClockSleep\n
 718:../../dependencies/STM32CubeL0/Drivers/STM32L0xx_HAL_Driver/Inc/stm32l0xx_ll_bus.h ****   *         APB1SMENR    I2C1SMEN      LL_APB1_GRP1_DisableClockSleep\n
 719:../../dependencies/STM32CubeL0/Drivers/STM32L0xx_HAL_Driver/Inc/stm32l0xx_ll_bus.h ****   *         APB1SMENR    I2C2SMEN      LL_APB1_GRP1_DisableClockSleep\n
 720:../../dependencies/STM32CubeL0/Drivers/STM32L0xx_HAL_Driver/Inc/stm32l0xx_ll_bus.h ****   *         APB1SMENR    USBSMEN       LL_APB1_GRP1_DisableClockSleep\n
 721:../../dependencies/STM32CubeL0/Drivers/STM32L0xx_HAL_Driver/Inc/stm32l0xx_ll_bus.h ****   *         APB1SMENR    CRSSMEN       LL_APB1_GRP1_DisableClockSleep\n
 722:../../dependencies/STM32CubeL0/Drivers/STM32L0xx_HAL_Driver/Inc/stm32l0xx_ll_bus.h ****   *         APB1SMENR    PWRSMEN       LL_APB1_GRP1_DisableClockSleep\n
 723:../../dependencies/STM32CubeL0/Drivers/STM32L0xx_HAL_Driver/Inc/stm32l0xx_ll_bus.h ****   *         APB1SMENR    DACSMEN       LL_APB1_GRP1_DisableClockSleep\n
 724:../../dependencies/STM32CubeL0/Drivers/STM32L0xx_HAL_Driver/Inc/stm32l0xx_ll_bus.h ****   *         APB1SMENR    I2C3SMEN      LL_APB1_GRP1_DisableClockSleep\n
 725:../../dependencies/STM32CubeL0/Drivers/STM32L0xx_HAL_Driver/Inc/stm32l0xx_ll_bus.h ****   *         APB1SMENR    LPTIM1SMEN    LL_APB1_GRP1_DisableClockSleep
ARM GAS  /tmp/ccpljSGR.s 			page 15


 726:../../dependencies/STM32CubeL0/Drivers/STM32L0xx_HAL_Driver/Inc/stm32l0xx_ll_bus.h ****   * @param  Periphs This parameter can be a combination of the following values:
 727:../../dependencies/STM32CubeL0/Drivers/STM32L0xx_HAL_Driver/Inc/stm32l0xx_ll_bus.h ****   *         @arg @ref LL_APB1_GRP1_PERIPH_TIM2
 728:../../dependencies/STM32CubeL0/Drivers/STM32L0xx_HAL_Driver/Inc/stm32l0xx_ll_bus.h ****   *         @arg @ref LL_APB1_GRP1_PERIPH_TIM3 (*)
 729:../../dependencies/STM32CubeL0/Drivers/STM32L0xx_HAL_Driver/Inc/stm32l0xx_ll_bus.h ****   *         @arg @ref LL_APB1_GRP1_PERIPH_TIM6 (*)
 730:../../dependencies/STM32CubeL0/Drivers/STM32L0xx_HAL_Driver/Inc/stm32l0xx_ll_bus.h ****   *         @arg @ref LL_APB1_GRP1_PERIPH_TIM7 (*)
 731:../../dependencies/STM32CubeL0/Drivers/STM32L0xx_HAL_Driver/Inc/stm32l0xx_ll_bus.h ****   *         @arg @ref LL_APB1_GRP1_PERIPH_LCD (*)
 732:../../dependencies/STM32CubeL0/Drivers/STM32L0xx_HAL_Driver/Inc/stm32l0xx_ll_bus.h ****   *         @arg @ref LL_APB1_GRP1_PERIPH_WWDG
 733:../../dependencies/STM32CubeL0/Drivers/STM32L0xx_HAL_Driver/Inc/stm32l0xx_ll_bus.h ****   *         @arg @ref LL_APB1_GRP1_PERIPH_SPI2 (*)
 734:../../dependencies/STM32CubeL0/Drivers/STM32L0xx_HAL_Driver/Inc/stm32l0xx_ll_bus.h ****   *         @arg @ref LL_APB1_GRP1_PERIPH_USART2
 735:../../dependencies/STM32CubeL0/Drivers/STM32L0xx_HAL_Driver/Inc/stm32l0xx_ll_bus.h ****   *         @arg @ref LL_APB1_GRP1_PERIPH_LPUART1
 736:../../dependencies/STM32CubeL0/Drivers/STM32L0xx_HAL_Driver/Inc/stm32l0xx_ll_bus.h ****   *         @arg @ref LL_APB1_GRP1_PERIPH_USART4 (*)
 737:../../dependencies/STM32CubeL0/Drivers/STM32L0xx_HAL_Driver/Inc/stm32l0xx_ll_bus.h ****   *         @arg @ref LL_APB1_GRP1_PERIPH_USART5 (*)
 738:../../dependencies/STM32CubeL0/Drivers/STM32L0xx_HAL_Driver/Inc/stm32l0xx_ll_bus.h ****   *         @arg @ref LL_APB1_GRP1_PERIPH_I2C1
 739:../../dependencies/STM32CubeL0/Drivers/STM32L0xx_HAL_Driver/Inc/stm32l0xx_ll_bus.h ****   *         @arg @ref LL_APB1_GRP1_PERIPH_I2C2 (*)
 740:../../dependencies/STM32CubeL0/Drivers/STM32L0xx_HAL_Driver/Inc/stm32l0xx_ll_bus.h ****   *         @arg @ref LL_APB1_GRP1_PERIPH_USB (*)
 741:../../dependencies/STM32CubeL0/Drivers/STM32L0xx_HAL_Driver/Inc/stm32l0xx_ll_bus.h ****   *         @arg @ref LL_APB1_GRP1_PERIPH_CRS (*)
 742:../../dependencies/STM32CubeL0/Drivers/STM32L0xx_HAL_Driver/Inc/stm32l0xx_ll_bus.h ****   *         @arg @ref LL_APB1_GRP1_PERIPH_PWR
 743:../../dependencies/STM32CubeL0/Drivers/STM32L0xx_HAL_Driver/Inc/stm32l0xx_ll_bus.h ****   *         @arg @ref LL_APB1_GRP1_PERIPH_DAC1 (*)
 744:../../dependencies/STM32CubeL0/Drivers/STM32L0xx_HAL_Driver/Inc/stm32l0xx_ll_bus.h ****   *         @arg @ref LL_APB1_GRP1_PERIPH_I2C3 (*)
 745:../../dependencies/STM32CubeL0/Drivers/STM32L0xx_HAL_Driver/Inc/stm32l0xx_ll_bus.h ****   *         @arg @ref LL_APB1_GRP1_PERIPH_LPTIM1
 746:../../dependencies/STM32CubeL0/Drivers/STM32L0xx_HAL_Driver/Inc/stm32l0xx_ll_bus.h ****   *
 747:../../dependencies/STM32CubeL0/Drivers/STM32L0xx_HAL_Driver/Inc/stm32l0xx_ll_bus.h ****   *         (*) value not defined in all devices.
 748:../../dependencies/STM32CubeL0/Drivers/STM32L0xx_HAL_Driver/Inc/stm32l0xx_ll_bus.h ****   * @retval None
 749:../../dependencies/STM32CubeL0/Drivers/STM32L0xx_HAL_Driver/Inc/stm32l0xx_ll_bus.h **** */
 750:../../dependencies/STM32CubeL0/Drivers/STM32L0xx_HAL_Driver/Inc/stm32l0xx_ll_bus.h **** __STATIC_INLINE void LL_APB1_GRP1_DisableClockSleep(uint32_t Periphs)
 751:../../dependencies/STM32CubeL0/Drivers/STM32L0xx_HAL_Driver/Inc/stm32l0xx_ll_bus.h **** {
 752:../../dependencies/STM32CubeL0/Drivers/STM32L0xx_HAL_Driver/Inc/stm32l0xx_ll_bus.h ****   CLEAR_BIT(RCC->APB1SMENR, Periphs);
 753:../../dependencies/STM32CubeL0/Drivers/STM32L0xx_HAL_Driver/Inc/stm32l0xx_ll_bus.h **** }
 754:../../dependencies/STM32CubeL0/Drivers/STM32L0xx_HAL_Driver/Inc/stm32l0xx_ll_bus.h **** 
 755:../../dependencies/STM32CubeL0/Drivers/STM32L0xx_HAL_Driver/Inc/stm32l0xx_ll_bus.h **** /**
 756:../../dependencies/STM32CubeL0/Drivers/STM32L0xx_HAL_Driver/Inc/stm32l0xx_ll_bus.h ****   * @}
 757:../../dependencies/STM32CubeL0/Drivers/STM32L0xx_HAL_Driver/Inc/stm32l0xx_ll_bus.h ****   */
 758:../../dependencies/STM32CubeL0/Drivers/STM32L0xx_HAL_Driver/Inc/stm32l0xx_ll_bus.h **** 
 759:../../dependencies/STM32CubeL0/Drivers/STM32L0xx_HAL_Driver/Inc/stm32l0xx_ll_bus.h **** /** @defgroup BUS_LL_EF_APB2 APB2
 760:../../dependencies/STM32CubeL0/Drivers/STM32L0xx_HAL_Driver/Inc/stm32l0xx_ll_bus.h ****   * @{
 761:../../dependencies/STM32CubeL0/Drivers/STM32L0xx_HAL_Driver/Inc/stm32l0xx_ll_bus.h ****   */
 762:../../dependencies/STM32CubeL0/Drivers/STM32L0xx_HAL_Driver/Inc/stm32l0xx_ll_bus.h **** 
 763:../../dependencies/STM32CubeL0/Drivers/STM32L0xx_HAL_Driver/Inc/stm32l0xx_ll_bus.h **** /**
 764:../../dependencies/STM32CubeL0/Drivers/STM32L0xx_HAL_Driver/Inc/stm32l0xx_ll_bus.h ****   * @brief  Enable APB2 peripherals clock.
 765:../../dependencies/STM32CubeL0/Drivers/STM32L0xx_HAL_Driver/Inc/stm32l0xx_ll_bus.h ****   * @rmtoll APB2ENR      SYSCFGEN      LL_APB2_GRP1_EnableClock\n
 766:../../dependencies/STM32CubeL0/Drivers/STM32L0xx_HAL_Driver/Inc/stm32l0xx_ll_bus.h ****   *         APB2ENR      TIM21EN       LL_APB2_GRP1_EnableClock\n
 767:../../dependencies/STM32CubeL0/Drivers/STM32L0xx_HAL_Driver/Inc/stm32l0xx_ll_bus.h ****   *         APB2ENR      TIM22EN       LL_APB2_GRP1_EnableClock\n
 768:../../dependencies/STM32CubeL0/Drivers/STM32L0xx_HAL_Driver/Inc/stm32l0xx_ll_bus.h ****   *         APB2ENR      FWEN          LL_APB2_GRP1_EnableClock\n
 769:../../dependencies/STM32CubeL0/Drivers/STM32L0xx_HAL_Driver/Inc/stm32l0xx_ll_bus.h ****   *         APB2ENR      ADCEN         LL_APB2_GRP1_EnableClock\n
 770:../../dependencies/STM32CubeL0/Drivers/STM32L0xx_HAL_Driver/Inc/stm32l0xx_ll_bus.h ****   *         APB2ENR      SPI1EN        LL_APB2_GRP1_EnableClock\n
 771:../../dependencies/STM32CubeL0/Drivers/STM32L0xx_HAL_Driver/Inc/stm32l0xx_ll_bus.h ****   *         APB2ENR      USART1EN      LL_APB2_GRP1_EnableClock\n
 772:../../dependencies/STM32CubeL0/Drivers/STM32L0xx_HAL_Driver/Inc/stm32l0xx_ll_bus.h ****   *         APB2ENR      DBGEN         LL_APB2_GRP1_EnableClock
 773:../../dependencies/STM32CubeL0/Drivers/STM32L0xx_HAL_Driver/Inc/stm32l0xx_ll_bus.h ****   * @param  Periphs This parameter can be a combination of the following values:
 774:../../dependencies/STM32CubeL0/Drivers/STM32L0xx_HAL_Driver/Inc/stm32l0xx_ll_bus.h ****   *         @arg @ref LL_APB2_GRP1_PERIPH_SYSCFG
 775:../../dependencies/STM32CubeL0/Drivers/STM32L0xx_HAL_Driver/Inc/stm32l0xx_ll_bus.h ****   *         @arg @ref LL_APB2_GRP1_PERIPH_TIM21
 776:../../dependencies/STM32CubeL0/Drivers/STM32L0xx_HAL_Driver/Inc/stm32l0xx_ll_bus.h ****   *         @arg @ref LL_APB2_GRP1_PERIPH_TIM22  (*)
 777:../../dependencies/STM32CubeL0/Drivers/STM32L0xx_HAL_Driver/Inc/stm32l0xx_ll_bus.h ****   *         @arg @ref LL_APB2_GRP1_PERIPH_FW
 778:../../dependencies/STM32CubeL0/Drivers/STM32L0xx_HAL_Driver/Inc/stm32l0xx_ll_bus.h ****   *         @arg @ref LL_APB2_GRP1_PERIPH_ADC1
 779:../../dependencies/STM32CubeL0/Drivers/STM32L0xx_HAL_Driver/Inc/stm32l0xx_ll_bus.h ****   *         @arg @ref LL_APB2_GRP1_PERIPH_SPI1
 780:../../dependencies/STM32CubeL0/Drivers/STM32L0xx_HAL_Driver/Inc/stm32l0xx_ll_bus.h ****   *         @arg @ref LL_APB2_GRP1_PERIPH_USART1 (*)
 781:../../dependencies/STM32CubeL0/Drivers/STM32L0xx_HAL_Driver/Inc/stm32l0xx_ll_bus.h ****   *         @arg @ref LL_APB2_GRP1_PERIPH_DBGMCU
 782:../../dependencies/STM32CubeL0/Drivers/STM32L0xx_HAL_Driver/Inc/stm32l0xx_ll_bus.h ****   *
ARM GAS  /tmp/ccpljSGR.s 			page 16


 783:../../dependencies/STM32CubeL0/Drivers/STM32L0xx_HAL_Driver/Inc/stm32l0xx_ll_bus.h ****   *         (*) value not defined in all devices.
 784:../../dependencies/STM32CubeL0/Drivers/STM32L0xx_HAL_Driver/Inc/stm32l0xx_ll_bus.h ****   * @retval None
 785:../../dependencies/STM32CubeL0/Drivers/STM32L0xx_HAL_Driver/Inc/stm32l0xx_ll_bus.h **** */
 786:../../dependencies/STM32CubeL0/Drivers/STM32L0xx_HAL_Driver/Inc/stm32l0xx_ll_bus.h **** __STATIC_INLINE void LL_APB2_GRP1_EnableClock(uint32_t Periphs)
 787:../../dependencies/STM32CubeL0/Drivers/STM32L0xx_HAL_Driver/Inc/stm32l0xx_ll_bus.h **** {
  77              		.loc 1 787 1
  78              		.cfi_startproc
  79              		@ args = 0, pretend = 0, frame = 16
  80              		@ frame_needed = 1, uses_anonymous_args = 0
  81 0000 80B5     		push	{r7, lr}
  82              		.cfi_def_cfa_offset 8
  83              		.cfi_offset 7, -8
  84              		.cfi_offset 14, -4
  85 0002 84B0     		sub	sp, sp, #16
  86              		.cfi_def_cfa_offset 24
  87 0004 00AF     		add	r7, sp, #0
  88              		.cfi_def_cfa_register 7
  89 0006 7860     		str	r0, [r7, #4]
 788:../../dependencies/STM32CubeL0/Drivers/STM32L0xx_HAL_Driver/Inc/stm32l0xx_ll_bus.h ****   __IO uint32_t tmpreg;
 789:../../dependencies/STM32CubeL0/Drivers/STM32L0xx_HAL_Driver/Inc/stm32l0xx_ll_bus.h ****   SET_BIT(RCC->APB2ENR, Periphs);
  90              		.loc 1 789 3
  91 0008 074B     		ldr	r3, .L5
  92 000a 596B     		ldr	r1, [r3, #52]
  93 000c 064B     		ldr	r3, .L5
  94 000e 7A68     		ldr	r2, [r7, #4]
  95 0010 0A43     		orrs	r2, r1
  96 0012 5A63     		str	r2, [r3, #52]
 790:../../dependencies/STM32CubeL0/Drivers/STM32L0xx_HAL_Driver/Inc/stm32l0xx_ll_bus.h ****   /* Delay after an RCC peripheral clock enabling */
 791:../../dependencies/STM32CubeL0/Drivers/STM32L0xx_HAL_Driver/Inc/stm32l0xx_ll_bus.h ****   tmpreg = READ_BIT(RCC->APB2ENR, Periphs);
  97              		.loc 1 791 12
  98 0014 044B     		ldr	r3, .L5
  99 0016 5B6B     		ldr	r3, [r3, #52]
 100 0018 7A68     		ldr	r2, [r7, #4]
 101 001a 1340     		ands	r3, r2
 102              		.loc 1 791 10
 103 001c FB60     		str	r3, [r7, #12]
 792:../../dependencies/STM32CubeL0/Drivers/STM32L0xx_HAL_Driver/Inc/stm32l0xx_ll_bus.h ****   (void)tmpreg;
 104              		.loc 1 792 3
 105 001e FB68     		ldr	r3, [r7, #12]
 793:../../dependencies/STM32CubeL0/Drivers/STM32L0xx_HAL_Driver/Inc/stm32l0xx_ll_bus.h **** }
 106              		.loc 1 793 1
 107 0020 C046     		nop
 108 0022 BD46     		mov	sp, r7
 109 0024 04B0     		add	sp, sp, #16
 110              		@ sp needed
 111 0026 80BD     		pop	{r7, pc}
 112              	.L6:
 113              		.align	2
 114              	.L5:
 115 0028 00100240 		.word	1073876992
 116              		.cfi_endproc
 117              	.LFE164:
 119              		.section	.rodata.CHANNEL_OFFSET_TAB,"a"
 120              		.align	2
 123              	CHANNEL_OFFSET_TAB:
 124 0000 081C3044 		.ascii	"\010\0340DXl\200"
 124      586C80
ARM GAS  /tmp/ccpljSGR.s 			page 17


 125              		.section	.text.LL_PWR_SetRegulVoltageScaling,"ax",%progbits
 126              		.align	1
 127              		.syntax unified
 128              		.code	16
 129              		.thumb_func
 130              		.fpu softvfp
 132              	LL_PWR_SetRegulVoltageScaling:
 133              	.LFB610:
 134              		.file 2 "../../dependencies/STM32CubeL0/Drivers/STM32L0xx_HAL_Driver/Inc/stm32l0xx_ll_pwr.h"
   1:../../dependencies/STM32CubeL0/Drivers/STM32L0xx_HAL_Driver/Inc/stm32l0xx_ll_pwr.h **** /**
   2:../../dependencies/STM32CubeL0/Drivers/STM32L0xx_HAL_Driver/Inc/stm32l0xx_ll_pwr.h ****   ******************************************************************************
   3:../../dependencies/STM32CubeL0/Drivers/STM32L0xx_HAL_Driver/Inc/stm32l0xx_ll_pwr.h ****   * @file    stm32l0xx_ll_pwr.h
   4:../../dependencies/STM32CubeL0/Drivers/STM32L0xx_HAL_Driver/Inc/stm32l0xx_ll_pwr.h ****   * @author  MCD Application Team
   5:../../dependencies/STM32CubeL0/Drivers/STM32L0xx_HAL_Driver/Inc/stm32l0xx_ll_pwr.h ****   * @brief   Header file of PWR LL module.
   6:../../dependencies/STM32CubeL0/Drivers/STM32L0xx_HAL_Driver/Inc/stm32l0xx_ll_pwr.h ****   ******************************************************************************
   7:../../dependencies/STM32CubeL0/Drivers/STM32L0xx_HAL_Driver/Inc/stm32l0xx_ll_pwr.h ****   * @attention
   8:../../dependencies/STM32CubeL0/Drivers/STM32L0xx_HAL_Driver/Inc/stm32l0xx_ll_pwr.h ****   *
   9:../../dependencies/STM32CubeL0/Drivers/STM32L0xx_HAL_Driver/Inc/stm32l0xx_ll_pwr.h ****   * <h2><center>&copy; Copyright(c) 2016 STMicroelectronics.
  10:../../dependencies/STM32CubeL0/Drivers/STM32L0xx_HAL_Driver/Inc/stm32l0xx_ll_pwr.h ****   * All rights reserved.</center></h2>
  11:../../dependencies/STM32CubeL0/Drivers/STM32L0xx_HAL_Driver/Inc/stm32l0xx_ll_pwr.h ****   *
  12:../../dependencies/STM32CubeL0/Drivers/STM32L0xx_HAL_Driver/Inc/stm32l0xx_ll_pwr.h ****   * This software component is licensed by ST under BSD 3-Clause license,
  13:../../dependencies/STM32CubeL0/Drivers/STM32L0xx_HAL_Driver/Inc/stm32l0xx_ll_pwr.h ****   * the "License"; You may not use this file except in compliance with the
  14:../../dependencies/STM32CubeL0/Drivers/STM32L0xx_HAL_Driver/Inc/stm32l0xx_ll_pwr.h ****   * License. You may obtain a copy of the License at:
  15:../../dependencies/STM32CubeL0/Drivers/STM32L0xx_HAL_Driver/Inc/stm32l0xx_ll_pwr.h ****   *                        opensource.org/licenses/BSD-3-Clause
  16:../../dependencies/STM32CubeL0/Drivers/STM32L0xx_HAL_Driver/Inc/stm32l0xx_ll_pwr.h ****   *
  17:../../dependencies/STM32CubeL0/Drivers/STM32L0xx_HAL_Driver/Inc/stm32l0xx_ll_pwr.h ****   ******************************************************************************
  18:../../dependencies/STM32CubeL0/Drivers/STM32L0xx_HAL_Driver/Inc/stm32l0xx_ll_pwr.h ****   */
  19:../../dependencies/STM32CubeL0/Drivers/STM32L0xx_HAL_Driver/Inc/stm32l0xx_ll_pwr.h **** 
  20:../../dependencies/STM32CubeL0/Drivers/STM32L0xx_HAL_Driver/Inc/stm32l0xx_ll_pwr.h **** /* Define to prevent recursive inclusion -------------------------------------*/
  21:../../dependencies/STM32CubeL0/Drivers/STM32L0xx_HAL_Driver/Inc/stm32l0xx_ll_pwr.h **** #ifndef __STM32L0xx_LL_PWR_H
  22:../../dependencies/STM32CubeL0/Drivers/STM32L0xx_HAL_Driver/Inc/stm32l0xx_ll_pwr.h **** #define __STM32L0xx_LL_PWR_H
  23:../../dependencies/STM32CubeL0/Drivers/STM32L0xx_HAL_Driver/Inc/stm32l0xx_ll_pwr.h **** 
  24:../../dependencies/STM32CubeL0/Drivers/STM32L0xx_HAL_Driver/Inc/stm32l0xx_ll_pwr.h **** #ifdef __cplusplus
  25:../../dependencies/STM32CubeL0/Drivers/STM32L0xx_HAL_Driver/Inc/stm32l0xx_ll_pwr.h **** extern "C" {
  26:../../dependencies/STM32CubeL0/Drivers/STM32L0xx_HAL_Driver/Inc/stm32l0xx_ll_pwr.h **** #endif
  27:../../dependencies/STM32CubeL0/Drivers/STM32L0xx_HAL_Driver/Inc/stm32l0xx_ll_pwr.h **** 
  28:../../dependencies/STM32CubeL0/Drivers/STM32L0xx_HAL_Driver/Inc/stm32l0xx_ll_pwr.h **** /* Includes ------------------------------------------------------------------*/
  29:../../dependencies/STM32CubeL0/Drivers/STM32L0xx_HAL_Driver/Inc/stm32l0xx_ll_pwr.h **** #include "stm32l0xx.h"
  30:../../dependencies/STM32CubeL0/Drivers/STM32L0xx_HAL_Driver/Inc/stm32l0xx_ll_pwr.h **** 
  31:../../dependencies/STM32CubeL0/Drivers/STM32L0xx_HAL_Driver/Inc/stm32l0xx_ll_pwr.h **** /** @addtogroup STM32L0xx_LL_Driver
  32:../../dependencies/STM32CubeL0/Drivers/STM32L0xx_HAL_Driver/Inc/stm32l0xx_ll_pwr.h ****   * @{
  33:../../dependencies/STM32CubeL0/Drivers/STM32L0xx_HAL_Driver/Inc/stm32l0xx_ll_pwr.h ****   */
  34:../../dependencies/STM32CubeL0/Drivers/STM32L0xx_HAL_Driver/Inc/stm32l0xx_ll_pwr.h **** 
  35:../../dependencies/STM32CubeL0/Drivers/STM32L0xx_HAL_Driver/Inc/stm32l0xx_ll_pwr.h **** #if defined(PWR)
  36:../../dependencies/STM32CubeL0/Drivers/STM32L0xx_HAL_Driver/Inc/stm32l0xx_ll_pwr.h **** 
  37:../../dependencies/STM32CubeL0/Drivers/STM32L0xx_HAL_Driver/Inc/stm32l0xx_ll_pwr.h **** /** @defgroup PWR_LL PWR
  38:../../dependencies/STM32CubeL0/Drivers/STM32L0xx_HAL_Driver/Inc/stm32l0xx_ll_pwr.h ****   * @{
  39:../../dependencies/STM32CubeL0/Drivers/STM32L0xx_HAL_Driver/Inc/stm32l0xx_ll_pwr.h ****   */
  40:../../dependencies/STM32CubeL0/Drivers/STM32L0xx_HAL_Driver/Inc/stm32l0xx_ll_pwr.h **** 
  41:../../dependencies/STM32CubeL0/Drivers/STM32L0xx_HAL_Driver/Inc/stm32l0xx_ll_pwr.h **** /* Private types -------------------------------------------------------------*/
  42:../../dependencies/STM32CubeL0/Drivers/STM32L0xx_HAL_Driver/Inc/stm32l0xx_ll_pwr.h **** /* Private variables ---------------------------------------------------------*/
  43:../../dependencies/STM32CubeL0/Drivers/STM32L0xx_HAL_Driver/Inc/stm32l0xx_ll_pwr.h **** /* Private constants ---------------------------------------------------------*/
  44:../../dependencies/STM32CubeL0/Drivers/STM32L0xx_HAL_Driver/Inc/stm32l0xx_ll_pwr.h **** /* Private macros ------------------------------------------------------------*/
  45:../../dependencies/STM32CubeL0/Drivers/STM32L0xx_HAL_Driver/Inc/stm32l0xx_ll_pwr.h **** /* Exported types ------------------------------------------------------------*/
  46:../../dependencies/STM32CubeL0/Drivers/STM32L0xx_HAL_Driver/Inc/stm32l0xx_ll_pwr.h **** /* Exported constants --------------------------------------------------------*/
  47:../../dependencies/STM32CubeL0/Drivers/STM32L0xx_HAL_Driver/Inc/stm32l0xx_ll_pwr.h **** /** @defgroup PWR_LL_Exported_Constants PWR Exported Constants
  48:../../dependencies/STM32CubeL0/Drivers/STM32L0xx_HAL_Driver/Inc/stm32l0xx_ll_pwr.h ****   * @{
ARM GAS  /tmp/ccpljSGR.s 			page 18


  49:../../dependencies/STM32CubeL0/Drivers/STM32L0xx_HAL_Driver/Inc/stm32l0xx_ll_pwr.h ****   */
  50:../../dependencies/STM32CubeL0/Drivers/STM32L0xx_HAL_Driver/Inc/stm32l0xx_ll_pwr.h **** 
  51:../../dependencies/STM32CubeL0/Drivers/STM32L0xx_HAL_Driver/Inc/stm32l0xx_ll_pwr.h **** /** @defgroup PWR_LL_EC_CLEAR_FLAG Clear Flags Defines
  52:../../dependencies/STM32CubeL0/Drivers/STM32L0xx_HAL_Driver/Inc/stm32l0xx_ll_pwr.h ****   * @brief    Flags defines which can be used with LL_PWR_WriteReg function
  53:../../dependencies/STM32CubeL0/Drivers/STM32L0xx_HAL_Driver/Inc/stm32l0xx_ll_pwr.h ****   * @{
  54:../../dependencies/STM32CubeL0/Drivers/STM32L0xx_HAL_Driver/Inc/stm32l0xx_ll_pwr.h ****   */
  55:../../dependencies/STM32CubeL0/Drivers/STM32L0xx_HAL_Driver/Inc/stm32l0xx_ll_pwr.h **** #define LL_PWR_CR_CSBF                     PWR_CR_CSBF            /*!< Clear standby flag */
  56:../../dependencies/STM32CubeL0/Drivers/STM32L0xx_HAL_Driver/Inc/stm32l0xx_ll_pwr.h **** #define LL_PWR_CR_CWUF                     PWR_CR_CWUF            /*!< Clear wakeup flag */
  57:../../dependencies/STM32CubeL0/Drivers/STM32L0xx_HAL_Driver/Inc/stm32l0xx_ll_pwr.h **** /**
  58:../../dependencies/STM32CubeL0/Drivers/STM32L0xx_HAL_Driver/Inc/stm32l0xx_ll_pwr.h ****   * @}
  59:../../dependencies/STM32CubeL0/Drivers/STM32L0xx_HAL_Driver/Inc/stm32l0xx_ll_pwr.h ****   */
  60:../../dependencies/STM32CubeL0/Drivers/STM32L0xx_HAL_Driver/Inc/stm32l0xx_ll_pwr.h **** 
  61:../../dependencies/STM32CubeL0/Drivers/STM32L0xx_HAL_Driver/Inc/stm32l0xx_ll_pwr.h **** /** @defgroup PWR_LL_EC_GET_FLAG Get Flags Defines
  62:../../dependencies/STM32CubeL0/Drivers/STM32L0xx_HAL_Driver/Inc/stm32l0xx_ll_pwr.h ****   * @brief    Flags defines which can be used with LL_PWR_ReadReg function
  63:../../dependencies/STM32CubeL0/Drivers/STM32L0xx_HAL_Driver/Inc/stm32l0xx_ll_pwr.h ****   * @{
  64:../../dependencies/STM32CubeL0/Drivers/STM32L0xx_HAL_Driver/Inc/stm32l0xx_ll_pwr.h ****   */
  65:../../dependencies/STM32CubeL0/Drivers/STM32L0xx_HAL_Driver/Inc/stm32l0xx_ll_pwr.h **** #define LL_PWR_CSR_WUF                     PWR_CSR_WUF            /*!< Wakeup flag */
  66:../../dependencies/STM32CubeL0/Drivers/STM32L0xx_HAL_Driver/Inc/stm32l0xx_ll_pwr.h **** #define LL_PWR_CSR_SBF                     PWR_CSR_SBF            /*!< Standby flag */
  67:../../dependencies/STM32CubeL0/Drivers/STM32L0xx_HAL_Driver/Inc/stm32l0xx_ll_pwr.h **** #if defined(PWR_PVD_SUPPORT)
  68:../../dependencies/STM32CubeL0/Drivers/STM32L0xx_HAL_Driver/Inc/stm32l0xx_ll_pwr.h **** #define LL_PWR_CSR_PVDO                    PWR_CSR_PVDO           /*!< Power voltage detector outpu
  69:../../dependencies/STM32CubeL0/Drivers/STM32L0xx_HAL_Driver/Inc/stm32l0xx_ll_pwr.h **** #endif /* PWR_PVD_SUPPORT */
  70:../../dependencies/STM32CubeL0/Drivers/STM32L0xx_HAL_Driver/Inc/stm32l0xx_ll_pwr.h **** #if defined(PWR_CSR_VREFINTRDYF)
  71:../../dependencies/STM32CubeL0/Drivers/STM32L0xx_HAL_Driver/Inc/stm32l0xx_ll_pwr.h **** #define LL_PWR_CSR_VREFINTRDYF             PWR_CSR_VREFINTRDYF    /*!< VREFINT ready flag */
  72:../../dependencies/STM32CubeL0/Drivers/STM32L0xx_HAL_Driver/Inc/stm32l0xx_ll_pwr.h **** #endif /* PWR_CSR_VREFINTRDYF */
  73:../../dependencies/STM32CubeL0/Drivers/STM32L0xx_HAL_Driver/Inc/stm32l0xx_ll_pwr.h **** #define LL_PWR_CSR_VOS                     PWR_CSR_VOSF           /*!< Voltage scaling select flag 
  74:../../dependencies/STM32CubeL0/Drivers/STM32L0xx_HAL_Driver/Inc/stm32l0xx_ll_pwr.h **** #define LL_PWR_CSR_REGLPF                  PWR_CSR_REGLPF         /*!< Regulator low power flag */
  75:../../dependencies/STM32CubeL0/Drivers/STM32L0xx_HAL_Driver/Inc/stm32l0xx_ll_pwr.h **** #define LL_PWR_CSR_EWUP1                   PWR_CSR_EWUP1          /*!< Enable WKUP pin 1 */
  76:../../dependencies/STM32CubeL0/Drivers/STM32L0xx_HAL_Driver/Inc/stm32l0xx_ll_pwr.h **** #define LL_PWR_CSR_EWUP2                   PWR_CSR_EWUP2          /*!< Enable WKUP pin 2 */
  77:../../dependencies/STM32CubeL0/Drivers/STM32L0xx_HAL_Driver/Inc/stm32l0xx_ll_pwr.h **** #if defined(PWR_CSR_EWUP3)
  78:../../dependencies/STM32CubeL0/Drivers/STM32L0xx_HAL_Driver/Inc/stm32l0xx_ll_pwr.h **** #define LL_PWR_CSR_EWUP3                   PWR_CSR_EWUP3          /*!< Enable WKUP pin 3 */
  79:../../dependencies/STM32CubeL0/Drivers/STM32L0xx_HAL_Driver/Inc/stm32l0xx_ll_pwr.h **** #endif /* PWR_CSR_EWUP3 */
  80:../../dependencies/STM32CubeL0/Drivers/STM32L0xx_HAL_Driver/Inc/stm32l0xx_ll_pwr.h **** /**
  81:../../dependencies/STM32CubeL0/Drivers/STM32L0xx_HAL_Driver/Inc/stm32l0xx_ll_pwr.h ****   * @}
  82:../../dependencies/STM32CubeL0/Drivers/STM32L0xx_HAL_Driver/Inc/stm32l0xx_ll_pwr.h ****   */
  83:../../dependencies/STM32CubeL0/Drivers/STM32L0xx_HAL_Driver/Inc/stm32l0xx_ll_pwr.h **** 
  84:../../dependencies/STM32CubeL0/Drivers/STM32L0xx_HAL_Driver/Inc/stm32l0xx_ll_pwr.h **** /** @defgroup PWR_LL_EC_REGU_VOLTAGE Regulator Voltage
  85:../../dependencies/STM32CubeL0/Drivers/STM32L0xx_HAL_Driver/Inc/stm32l0xx_ll_pwr.h ****   * @{
  86:../../dependencies/STM32CubeL0/Drivers/STM32L0xx_HAL_Driver/Inc/stm32l0xx_ll_pwr.h ****   */
  87:../../dependencies/STM32CubeL0/Drivers/STM32L0xx_HAL_Driver/Inc/stm32l0xx_ll_pwr.h **** #define LL_PWR_REGU_VOLTAGE_SCALE1         (PWR_CR_VOS_0)                   /*!< 1.8V (range 1) */
  88:../../dependencies/STM32CubeL0/Drivers/STM32L0xx_HAL_Driver/Inc/stm32l0xx_ll_pwr.h **** #define LL_PWR_REGU_VOLTAGE_SCALE2         (PWR_CR_VOS_1)                   /*!< 1.5V (range 2) */
  89:../../dependencies/STM32CubeL0/Drivers/STM32L0xx_HAL_Driver/Inc/stm32l0xx_ll_pwr.h **** #define LL_PWR_REGU_VOLTAGE_SCALE3         (PWR_CR_VOS_0 | PWR_CR_VOS_1)    /*!< 1.2V (range 3) */
  90:../../dependencies/STM32CubeL0/Drivers/STM32L0xx_HAL_Driver/Inc/stm32l0xx_ll_pwr.h **** /**
  91:../../dependencies/STM32CubeL0/Drivers/STM32L0xx_HAL_Driver/Inc/stm32l0xx_ll_pwr.h ****   * @}
  92:../../dependencies/STM32CubeL0/Drivers/STM32L0xx_HAL_Driver/Inc/stm32l0xx_ll_pwr.h ****   */
  93:../../dependencies/STM32CubeL0/Drivers/STM32L0xx_HAL_Driver/Inc/stm32l0xx_ll_pwr.h **** 
  94:../../dependencies/STM32CubeL0/Drivers/STM32L0xx_HAL_Driver/Inc/stm32l0xx_ll_pwr.h **** /** @defgroup PWR_LL_EC_MODE_PWR Mode Power
  95:../../dependencies/STM32CubeL0/Drivers/STM32L0xx_HAL_Driver/Inc/stm32l0xx_ll_pwr.h ****   * @{
  96:../../dependencies/STM32CubeL0/Drivers/STM32L0xx_HAL_Driver/Inc/stm32l0xx_ll_pwr.h ****   */
  97:../../dependencies/STM32CubeL0/Drivers/STM32L0xx_HAL_Driver/Inc/stm32l0xx_ll_pwr.h **** #define LL_PWR_MODE_STOP                      0x00000000U                    /*!< Enter Stop mode w
  98:../../dependencies/STM32CubeL0/Drivers/STM32L0xx_HAL_Driver/Inc/stm32l0xx_ll_pwr.h **** #define LL_PWR_MODE_STANDBY                   (PWR_CR_PDDS)                  /*!< Enter Standby mod
  99:../../dependencies/STM32CubeL0/Drivers/STM32L0xx_HAL_Driver/Inc/stm32l0xx_ll_pwr.h **** /**
 100:../../dependencies/STM32CubeL0/Drivers/STM32L0xx_HAL_Driver/Inc/stm32l0xx_ll_pwr.h ****   * @}
 101:../../dependencies/STM32CubeL0/Drivers/STM32L0xx_HAL_Driver/Inc/stm32l0xx_ll_pwr.h ****   */
 102:../../dependencies/STM32CubeL0/Drivers/STM32L0xx_HAL_Driver/Inc/stm32l0xx_ll_pwr.h **** 
 103:../../dependencies/STM32CubeL0/Drivers/STM32L0xx_HAL_Driver/Inc/stm32l0xx_ll_pwr.h **** /** @defgroup PWR_LL_EC_REGU_MODE_LP_MODES  Regulator Mode In Low Power Modes
 104:../../dependencies/STM32CubeL0/Drivers/STM32L0xx_HAL_Driver/Inc/stm32l0xx_ll_pwr.h ****   * @{
 105:../../dependencies/STM32CubeL0/Drivers/STM32L0xx_HAL_Driver/Inc/stm32l0xx_ll_pwr.h ****   */
ARM GAS  /tmp/ccpljSGR.s 			page 19


 106:../../dependencies/STM32CubeL0/Drivers/STM32L0xx_HAL_Driver/Inc/stm32l0xx_ll_pwr.h **** #define LL_PWR_REGU_LPMODES_MAIN           0x00000000U        /*!< Voltage regulator in main mode d
 107:../../dependencies/STM32CubeL0/Drivers/STM32L0xx_HAL_Driver/Inc/stm32l0xx_ll_pwr.h **** #define LL_PWR_REGU_LPMODES_LOW_POWER      (PWR_CR_LPSDSR)    /*!< Voltage regulator in low-power m
 108:../../dependencies/STM32CubeL0/Drivers/STM32L0xx_HAL_Driver/Inc/stm32l0xx_ll_pwr.h **** /**
 109:../../dependencies/STM32CubeL0/Drivers/STM32L0xx_HAL_Driver/Inc/stm32l0xx_ll_pwr.h ****   * @}
 110:../../dependencies/STM32CubeL0/Drivers/STM32L0xx_HAL_Driver/Inc/stm32l0xx_ll_pwr.h ****   */
 111:../../dependencies/STM32CubeL0/Drivers/STM32L0xx_HAL_Driver/Inc/stm32l0xx_ll_pwr.h **** #if defined(PWR_CR_LPDS)
 112:../../dependencies/STM32CubeL0/Drivers/STM32L0xx_HAL_Driver/Inc/stm32l0xx_ll_pwr.h **** /** @defgroup PWR_LL_EC_REGU_MODE_DS_MODE  Regulator Mode In Deep Sleep Mode
 113:../../dependencies/STM32CubeL0/Drivers/STM32L0xx_HAL_Driver/Inc/stm32l0xx_ll_pwr.h ****  * @{
 114:../../dependencies/STM32CubeL0/Drivers/STM32L0xx_HAL_Driver/Inc/stm32l0xx_ll_pwr.h ****  */
 115:../../dependencies/STM32CubeL0/Drivers/STM32L0xx_HAL_Driver/Inc/stm32l0xx_ll_pwr.h **** #define LL_PWR_REGU_DSMODE_MAIN        0x00000000U           /*!< Voltage regulator in main mode du
 116:../../dependencies/STM32CubeL0/Drivers/STM32L0xx_HAL_Driver/Inc/stm32l0xx_ll_pwr.h **** #define LL_PWR_REGU_DSMODE_LOW_POWER   (PWR_CR_LPDS)         /*!< Voltage regulator in low-power mo
 117:../../dependencies/STM32CubeL0/Drivers/STM32L0xx_HAL_Driver/Inc/stm32l0xx_ll_pwr.h **** /**
 118:../../dependencies/STM32CubeL0/Drivers/STM32L0xx_HAL_Driver/Inc/stm32l0xx_ll_pwr.h ****   * @}
 119:../../dependencies/STM32CubeL0/Drivers/STM32L0xx_HAL_Driver/Inc/stm32l0xx_ll_pwr.h ****   */
 120:../../dependencies/STM32CubeL0/Drivers/STM32L0xx_HAL_Driver/Inc/stm32l0xx_ll_pwr.h **** #endif /* PWR_CR_LPDS */
 121:../../dependencies/STM32CubeL0/Drivers/STM32L0xx_HAL_Driver/Inc/stm32l0xx_ll_pwr.h **** 
 122:../../dependencies/STM32CubeL0/Drivers/STM32L0xx_HAL_Driver/Inc/stm32l0xx_ll_pwr.h **** #if defined(PWR_PVD_SUPPORT)
 123:../../dependencies/STM32CubeL0/Drivers/STM32L0xx_HAL_Driver/Inc/stm32l0xx_ll_pwr.h **** /** @defgroup PWR_LL_EC_PVDLEVEL Power Voltage Detector Level
 124:../../dependencies/STM32CubeL0/Drivers/STM32L0xx_HAL_Driver/Inc/stm32l0xx_ll_pwr.h ****   * @{
 125:../../dependencies/STM32CubeL0/Drivers/STM32L0xx_HAL_Driver/Inc/stm32l0xx_ll_pwr.h ****   */
 126:../../dependencies/STM32CubeL0/Drivers/STM32L0xx_HAL_Driver/Inc/stm32l0xx_ll_pwr.h **** #define LL_PWR_PVDLEVEL_0                  (PWR_CR_PLS_LEV0)      /*!< Voltage threshold detected b
 127:../../dependencies/STM32CubeL0/Drivers/STM32L0xx_HAL_Driver/Inc/stm32l0xx_ll_pwr.h **** #define LL_PWR_PVDLEVEL_1                  (PWR_CR_PLS_LEV1)      /*!< Voltage threshold detected b
 128:../../dependencies/STM32CubeL0/Drivers/STM32L0xx_HAL_Driver/Inc/stm32l0xx_ll_pwr.h **** #define LL_PWR_PVDLEVEL_2                  (PWR_CR_PLS_LEV2)      /*!< Voltage threshold detected b
 129:../../dependencies/STM32CubeL0/Drivers/STM32L0xx_HAL_Driver/Inc/stm32l0xx_ll_pwr.h **** #define LL_PWR_PVDLEVEL_3                  (PWR_CR_PLS_LEV3)      /*!< Voltage threshold detected b
 130:../../dependencies/STM32CubeL0/Drivers/STM32L0xx_HAL_Driver/Inc/stm32l0xx_ll_pwr.h **** #define LL_PWR_PVDLEVEL_4                  (PWR_CR_PLS_LEV4)      /*!< Voltage threshold detected b
 131:../../dependencies/STM32CubeL0/Drivers/STM32L0xx_HAL_Driver/Inc/stm32l0xx_ll_pwr.h **** #define LL_PWR_PVDLEVEL_5                  (PWR_CR_PLS_LEV5)      /*!< Voltage threshold detected b
 132:../../dependencies/STM32CubeL0/Drivers/STM32L0xx_HAL_Driver/Inc/stm32l0xx_ll_pwr.h **** #define LL_PWR_PVDLEVEL_6                  (PWR_CR_PLS_LEV6)      /*!< Voltage threshold detected b
 133:../../dependencies/STM32CubeL0/Drivers/STM32L0xx_HAL_Driver/Inc/stm32l0xx_ll_pwr.h **** #define LL_PWR_PVDLEVEL_7                  (PWR_CR_PLS_LEV7)      /*!< External input analog voltag
 134:../../dependencies/STM32CubeL0/Drivers/STM32L0xx_HAL_Driver/Inc/stm32l0xx_ll_pwr.h **** /**
 135:../../dependencies/STM32CubeL0/Drivers/STM32L0xx_HAL_Driver/Inc/stm32l0xx_ll_pwr.h ****   * @}
 136:../../dependencies/STM32CubeL0/Drivers/STM32L0xx_HAL_Driver/Inc/stm32l0xx_ll_pwr.h ****   */
 137:../../dependencies/STM32CubeL0/Drivers/STM32L0xx_HAL_Driver/Inc/stm32l0xx_ll_pwr.h **** #endif /* PWR_PVD_SUPPORT */
 138:../../dependencies/STM32CubeL0/Drivers/STM32L0xx_HAL_Driver/Inc/stm32l0xx_ll_pwr.h **** /** @defgroup PWR_LL_EC_WAKEUP_PIN  Wakeup Pins
 139:../../dependencies/STM32CubeL0/Drivers/STM32L0xx_HAL_Driver/Inc/stm32l0xx_ll_pwr.h ****   * @{
 140:../../dependencies/STM32CubeL0/Drivers/STM32L0xx_HAL_Driver/Inc/stm32l0xx_ll_pwr.h ****   */
 141:../../dependencies/STM32CubeL0/Drivers/STM32L0xx_HAL_Driver/Inc/stm32l0xx_ll_pwr.h **** #define LL_PWR_WAKEUP_PIN1                 (PWR_CSR_EWUP1)        /*!< WKUP pin 1 : PA0 */
 142:../../dependencies/STM32CubeL0/Drivers/STM32L0xx_HAL_Driver/Inc/stm32l0xx_ll_pwr.h **** #define LL_PWR_WAKEUP_PIN2                 (PWR_CSR_EWUP2)        /*!< WKUP pin 2 : PC13 */
 143:../../dependencies/STM32CubeL0/Drivers/STM32L0xx_HAL_Driver/Inc/stm32l0xx_ll_pwr.h **** #if defined(PWR_CSR_EWUP3)
 144:../../dependencies/STM32CubeL0/Drivers/STM32L0xx_HAL_Driver/Inc/stm32l0xx_ll_pwr.h **** #define LL_PWR_WAKEUP_PIN3                 (PWR_CSR_EWUP3)        /*!< WKUP pin 3 : PE6 or PA2 acco
 145:../../dependencies/STM32CubeL0/Drivers/STM32L0xx_HAL_Driver/Inc/stm32l0xx_ll_pwr.h **** #endif /* PWR_CSR_EWUP3 */
 146:../../dependencies/STM32CubeL0/Drivers/STM32L0xx_HAL_Driver/Inc/stm32l0xx_ll_pwr.h **** /**
 147:../../dependencies/STM32CubeL0/Drivers/STM32L0xx_HAL_Driver/Inc/stm32l0xx_ll_pwr.h ****   * @}
 148:../../dependencies/STM32CubeL0/Drivers/STM32L0xx_HAL_Driver/Inc/stm32l0xx_ll_pwr.h ****   */
 149:../../dependencies/STM32CubeL0/Drivers/STM32L0xx_HAL_Driver/Inc/stm32l0xx_ll_pwr.h **** 
 150:../../dependencies/STM32CubeL0/Drivers/STM32L0xx_HAL_Driver/Inc/stm32l0xx_ll_pwr.h **** /**
 151:../../dependencies/STM32CubeL0/Drivers/STM32L0xx_HAL_Driver/Inc/stm32l0xx_ll_pwr.h ****   * @}
 152:../../dependencies/STM32CubeL0/Drivers/STM32L0xx_HAL_Driver/Inc/stm32l0xx_ll_pwr.h ****   */
 153:../../dependencies/STM32CubeL0/Drivers/STM32L0xx_HAL_Driver/Inc/stm32l0xx_ll_pwr.h **** 
 154:../../dependencies/STM32CubeL0/Drivers/STM32L0xx_HAL_Driver/Inc/stm32l0xx_ll_pwr.h **** 
 155:../../dependencies/STM32CubeL0/Drivers/STM32L0xx_HAL_Driver/Inc/stm32l0xx_ll_pwr.h **** /* Exported macro ------------------------------------------------------------*/
 156:../../dependencies/STM32CubeL0/Drivers/STM32L0xx_HAL_Driver/Inc/stm32l0xx_ll_pwr.h **** /** @defgroup PWR_LL_Exported_Macros PWR Exported Macros
 157:../../dependencies/STM32CubeL0/Drivers/STM32L0xx_HAL_Driver/Inc/stm32l0xx_ll_pwr.h ****   * @{
 158:../../dependencies/STM32CubeL0/Drivers/STM32L0xx_HAL_Driver/Inc/stm32l0xx_ll_pwr.h ****   */
 159:../../dependencies/STM32CubeL0/Drivers/STM32L0xx_HAL_Driver/Inc/stm32l0xx_ll_pwr.h **** 
 160:../../dependencies/STM32CubeL0/Drivers/STM32L0xx_HAL_Driver/Inc/stm32l0xx_ll_pwr.h **** /** @defgroup PWR_LL_EM_WRITE_READ Common write and read registers Macros
 161:../../dependencies/STM32CubeL0/Drivers/STM32L0xx_HAL_Driver/Inc/stm32l0xx_ll_pwr.h ****   * @{
 162:../../dependencies/STM32CubeL0/Drivers/STM32L0xx_HAL_Driver/Inc/stm32l0xx_ll_pwr.h ****   */
ARM GAS  /tmp/ccpljSGR.s 			page 20


 163:../../dependencies/STM32CubeL0/Drivers/STM32L0xx_HAL_Driver/Inc/stm32l0xx_ll_pwr.h **** 
 164:../../dependencies/STM32CubeL0/Drivers/STM32L0xx_HAL_Driver/Inc/stm32l0xx_ll_pwr.h **** /**
 165:../../dependencies/STM32CubeL0/Drivers/STM32L0xx_HAL_Driver/Inc/stm32l0xx_ll_pwr.h ****   * @brief  Write a value in PWR register
 166:../../dependencies/STM32CubeL0/Drivers/STM32L0xx_HAL_Driver/Inc/stm32l0xx_ll_pwr.h ****   * @param  __REG__ Register to be written
 167:../../dependencies/STM32CubeL0/Drivers/STM32L0xx_HAL_Driver/Inc/stm32l0xx_ll_pwr.h ****   * @param  __VALUE__ Value to be written in the register
 168:../../dependencies/STM32CubeL0/Drivers/STM32L0xx_HAL_Driver/Inc/stm32l0xx_ll_pwr.h ****   * @retval None
 169:../../dependencies/STM32CubeL0/Drivers/STM32L0xx_HAL_Driver/Inc/stm32l0xx_ll_pwr.h ****   */
 170:../../dependencies/STM32CubeL0/Drivers/STM32L0xx_HAL_Driver/Inc/stm32l0xx_ll_pwr.h **** #define LL_PWR_WriteReg(__REG__, __VALUE__) WRITE_REG(PWR->__REG__, (__VALUE__))
 171:../../dependencies/STM32CubeL0/Drivers/STM32L0xx_HAL_Driver/Inc/stm32l0xx_ll_pwr.h **** 
 172:../../dependencies/STM32CubeL0/Drivers/STM32L0xx_HAL_Driver/Inc/stm32l0xx_ll_pwr.h **** /**
 173:../../dependencies/STM32CubeL0/Drivers/STM32L0xx_HAL_Driver/Inc/stm32l0xx_ll_pwr.h ****   * @brief  Read a value in PWR register
 174:../../dependencies/STM32CubeL0/Drivers/STM32L0xx_HAL_Driver/Inc/stm32l0xx_ll_pwr.h ****   * @param  __REG__ Register to be read
 175:../../dependencies/STM32CubeL0/Drivers/STM32L0xx_HAL_Driver/Inc/stm32l0xx_ll_pwr.h ****   * @retval Register value
 176:../../dependencies/STM32CubeL0/Drivers/STM32L0xx_HAL_Driver/Inc/stm32l0xx_ll_pwr.h ****   */
 177:../../dependencies/STM32CubeL0/Drivers/STM32L0xx_HAL_Driver/Inc/stm32l0xx_ll_pwr.h **** #define LL_PWR_ReadReg(__REG__) READ_REG(PWR->__REG__)
 178:../../dependencies/STM32CubeL0/Drivers/STM32L0xx_HAL_Driver/Inc/stm32l0xx_ll_pwr.h **** /**
 179:../../dependencies/STM32CubeL0/Drivers/STM32L0xx_HAL_Driver/Inc/stm32l0xx_ll_pwr.h ****   * @}
 180:../../dependencies/STM32CubeL0/Drivers/STM32L0xx_HAL_Driver/Inc/stm32l0xx_ll_pwr.h ****   */
 181:../../dependencies/STM32CubeL0/Drivers/STM32L0xx_HAL_Driver/Inc/stm32l0xx_ll_pwr.h **** 
 182:../../dependencies/STM32CubeL0/Drivers/STM32L0xx_HAL_Driver/Inc/stm32l0xx_ll_pwr.h **** /**
 183:../../dependencies/STM32CubeL0/Drivers/STM32L0xx_HAL_Driver/Inc/stm32l0xx_ll_pwr.h ****   * @}
 184:../../dependencies/STM32CubeL0/Drivers/STM32L0xx_HAL_Driver/Inc/stm32l0xx_ll_pwr.h ****   */
 185:../../dependencies/STM32CubeL0/Drivers/STM32L0xx_HAL_Driver/Inc/stm32l0xx_ll_pwr.h **** 
 186:../../dependencies/STM32CubeL0/Drivers/STM32L0xx_HAL_Driver/Inc/stm32l0xx_ll_pwr.h **** /* Exported functions --------------------------------------------------------*/
 187:../../dependencies/STM32CubeL0/Drivers/STM32L0xx_HAL_Driver/Inc/stm32l0xx_ll_pwr.h **** /** @defgroup PWR_LL_Exported_Functions PWR Exported Functions
 188:../../dependencies/STM32CubeL0/Drivers/STM32L0xx_HAL_Driver/Inc/stm32l0xx_ll_pwr.h ****   * @{
 189:../../dependencies/STM32CubeL0/Drivers/STM32L0xx_HAL_Driver/Inc/stm32l0xx_ll_pwr.h ****   */
 190:../../dependencies/STM32CubeL0/Drivers/STM32L0xx_HAL_Driver/Inc/stm32l0xx_ll_pwr.h **** 
 191:../../dependencies/STM32CubeL0/Drivers/STM32L0xx_HAL_Driver/Inc/stm32l0xx_ll_pwr.h **** /** @defgroup PWR_LL_EF_Configuration Configuration
 192:../../dependencies/STM32CubeL0/Drivers/STM32L0xx_HAL_Driver/Inc/stm32l0xx_ll_pwr.h ****   * @{
 193:../../dependencies/STM32CubeL0/Drivers/STM32L0xx_HAL_Driver/Inc/stm32l0xx_ll_pwr.h ****   */
 194:../../dependencies/STM32CubeL0/Drivers/STM32L0xx_HAL_Driver/Inc/stm32l0xx_ll_pwr.h **** /**
 195:../../dependencies/STM32CubeL0/Drivers/STM32L0xx_HAL_Driver/Inc/stm32l0xx_ll_pwr.h ****   * @brief  Switch the regulator from main mode to low-power mode
 196:../../dependencies/STM32CubeL0/Drivers/STM32L0xx_HAL_Driver/Inc/stm32l0xx_ll_pwr.h ****   * @rmtoll CR    LPRUN       LL_PWR_EnableLowPowerRunMode
 197:../../dependencies/STM32CubeL0/Drivers/STM32L0xx_HAL_Driver/Inc/stm32l0xx_ll_pwr.h ****   * @note   Remind to set the regulator to low power before enabling
 198:../../dependencies/STM32CubeL0/Drivers/STM32L0xx_HAL_Driver/Inc/stm32l0xx_ll_pwr.h ****   *         LowPower run mode (bit @ref LL_PWR_REGU_LPMODES_LOW_POWER).
 199:../../dependencies/STM32CubeL0/Drivers/STM32L0xx_HAL_Driver/Inc/stm32l0xx_ll_pwr.h ****   * @retval None
 200:../../dependencies/STM32CubeL0/Drivers/STM32L0xx_HAL_Driver/Inc/stm32l0xx_ll_pwr.h ****   */
 201:../../dependencies/STM32CubeL0/Drivers/STM32L0xx_HAL_Driver/Inc/stm32l0xx_ll_pwr.h **** __STATIC_INLINE void LL_PWR_EnableLowPowerRunMode(void)
 202:../../dependencies/STM32CubeL0/Drivers/STM32L0xx_HAL_Driver/Inc/stm32l0xx_ll_pwr.h **** {
 203:../../dependencies/STM32CubeL0/Drivers/STM32L0xx_HAL_Driver/Inc/stm32l0xx_ll_pwr.h ****   SET_BIT(PWR->CR, PWR_CR_LPRUN);
 204:../../dependencies/STM32CubeL0/Drivers/STM32L0xx_HAL_Driver/Inc/stm32l0xx_ll_pwr.h **** }
 205:../../dependencies/STM32CubeL0/Drivers/STM32L0xx_HAL_Driver/Inc/stm32l0xx_ll_pwr.h **** 
 206:../../dependencies/STM32CubeL0/Drivers/STM32L0xx_HAL_Driver/Inc/stm32l0xx_ll_pwr.h **** /**
 207:../../dependencies/STM32CubeL0/Drivers/STM32L0xx_HAL_Driver/Inc/stm32l0xx_ll_pwr.h ****   * @brief  Switch the regulator from low-power mode to main mode
 208:../../dependencies/STM32CubeL0/Drivers/STM32L0xx_HAL_Driver/Inc/stm32l0xx_ll_pwr.h ****   * @rmtoll CR    LPRUN       LL_PWR_DisableLowPowerRunMode
 209:../../dependencies/STM32CubeL0/Drivers/STM32L0xx_HAL_Driver/Inc/stm32l0xx_ll_pwr.h ****   * @retval None
 210:../../dependencies/STM32CubeL0/Drivers/STM32L0xx_HAL_Driver/Inc/stm32l0xx_ll_pwr.h ****   */
 211:../../dependencies/STM32CubeL0/Drivers/STM32L0xx_HAL_Driver/Inc/stm32l0xx_ll_pwr.h **** __STATIC_INLINE void LL_PWR_DisableLowPowerRunMode(void)
 212:../../dependencies/STM32CubeL0/Drivers/STM32L0xx_HAL_Driver/Inc/stm32l0xx_ll_pwr.h **** {
 213:../../dependencies/STM32CubeL0/Drivers/STM32L0xx_HAL_Driver/Inc/stm32l0xx_ll_pwr.h ****   CLEAR_BIT(PWR->CR, PWR_CR_LPRUN);
 214:../../dependencies/STM32CubeL0/Drivers/STM32L0xx_HAL_Driver/Inc/stm32l0xx_ll_pwr.h **** }
 215:../../dependencies/STM32CubeL0/Drivers/STM32L0xx_HAL_Driver/Inc/stm32l0xx_ll_pwr.h **** 
 216:../../dependencies/STM32CubeL0/Drivers/STM32L0xx_HAL_Driver/Inc/stm32l0xx_ll_pwr.h **** /**
 217:../../dependencies/STM32CubeL0/Drivers/STM32L0xx_HAL_Driver/Inc/stm32l0xx_ll_pwr.h ****   * @brief  Check if the regulator is in low-power mode
 218:../../dependencies/STM32CubeL0/Drivers/STM32L0xx_HAL_Driver/Inc/stm32l0xx_ll_pwr.h ****   * @rmtoll CR    LPRUN       LL_PWR_IsEnabledLowPowerRunMode
 219:../../dependencies/STM32CubeL0/Drivers/STM32L0xx_HAL_Driver/Inc/stm32l0xx_ll_pwr.h ****   * @retval State of bit (1 or 0).
ARM GAS  /tmp/ccpljSGR.s 			page 21


 220:../../dependencies/STM32CubeL0/Drivers/STM32L0xx_HAL_Driver/Inc/stm32l0xx_ll_pwr.h ****   */
 221:../../dependencies/STM32CubeL0/Drivers/STM32L0xx_HAL_Driver/Inc/stm32l0xx_ll_pwr.h **** __STATIC_INLINE uint32_t LL_PWR_IsEnabledLowPowerRunMode(void)
 222:../../dependencies/STM32CubeL0/Drivers/STM32L0xx_HAL_Driver/Inc/stm32l0xx_ll_pwr.h **** {
 223:../../dependencies/STM32CubeL0/Drivers/STM32L0xx_HAL_Driver/Inc/stm32l0xx_ll_pwr.h ****   return (READ_BIT(PWR->CR, PWR_CR_LPRUN) == (PWR_CR_LPRUN));
 224:../../dependencies/STM32CubeL0/Drivers/STM32L0xx_HAL_Driver/Inc/stm32l0xx_ll_pwr.h **** }
 225:../../dependencies/STM32CubeL0/Drivers/STM32L0xx_HAL_Driver/Inc/stm32l0xx_ll_pwr.h **** 
 226:../../dependencies/STM32CubeL0/Drivers/STM32L0xx_HAL_Driver/Inc/stm32l0xx_ll_pwr.h **** /**
 227:../../dependencies/STM32CubeL0/Drivers/STM32L0xx_HAL_Driver/Inc/stm32l0xx_ll_pwr.h ****   * @brief  Set voltage regulator to low-power and switch from 
 228:../../dependencies/STM32CubeL0/Drivers/STM32L0xx_HAL_Driver/Inc/stm32l0xx_ll_pwr.h ****   *         run main mode to run low-power mode.
 229:../../dependencies/STM32CubeL0/Drivers/STM32L0xx_HAL_Driver/Inc/stm32l0xx_ll_pwr.h ****   * @rmtoll CR    LPSDSR       LL_PWR_EnterLowPowerRunMode\n
 230:../../dependencies/STM32CubeL0/Drivers/STM32L0xx_HAL_Driver/Inc/stm32l0xx_ll_pwr.h ****   *         CR    LPRUN        LL_PWR_EnterLowPowerRunMode
 231:../../dependencies/STM32CubeL0/Drivers/STM32L0xx_HAL_Driver/Inc/stm32l0xx_ll_pwr.h ****   * @note   This "high level" function is introduced to provide functional
 232:../../dependencies/STM32CubeL0/Drivers/STM32L0xx_HAL_Driver/Inc/stm32l0xx_ll_pwr.h ****   *         compatibility with other families. Notice that the two registers
 233:../../dependencies/STM32CubeL0/Drivers/STM32L0xx_HAL_Driver/Inc/stm32l0xx_ll_pwr.h ****   *         have to be written sequentially, so this function is not atomic.
 234:../../dependencies/STM32CubeL0/Drivers/STM32L0xx_HAL_Driver/Inc/stm32l0xx_ll_pwr.h ****   *         To assure atomicity you can call separately the following functions:
 235:../../dependencies/STM32CubeL0/Drivers/STM32L0xx_HAL_Driver/Inc/stm32l0xx_ll_pwr.h ****   *         - @ref LL_PWR_SetRegulModeLP(@ref LL_PWR_REGU_LPMODES_LOW_POWER);
 236:../../dependencies/STM32CubeL0/Drivers/STM32L0xx_HAL_Driver/Inc/stm32l0xx_ll_pwr.h ****   *         - @ref LL_PWR_EnableLowPowerRunMode();
 237:../../dependencies/STM32CubeL0/Drivers/STM32L0xx_HAL_Driver/Inc/stm32l0xx_ll_pwr.h ****   * @retval None
 238:../../dependencies/STM32CubeL0/Drivers/STM32L0xx_HAL_Driver/Inc/stm32l0xx_ll_pwr.h ****   */
 239:../../dependencies/STM32CubeL0/Drivers/STM32L0xx_HAL_Driver/Inc/stm32l0xx_ll_pwr.h **** __STATIC_INLINE void LL_PWR_EnterLowPowerRunMode(void)
 240:../../dependencies/STM32CubeL0/Drivers/STM32L0xx_HAL_Driver/Inc/stm32l0xx_ll_pwr.h **** {
 241:../../dependencies/STM32CubeL0/Drivers/STM32L0xx_HAL_Driver/Inc/stm32l0xx_ll_pwr.h ****   SET_BIT(PWR->CR, PWR_CR_LPSDSR); /* => LL_PWR_SetRegulModeLP(LL_PWR_REGU_LPMODES_LOW_POWER) */
 242:../../dependencies/STM32CubeL0/Drivers/STM32L0xx_HAL_Driver/Inc/stm32l0xx_ll_pwr.h ****   SET_BIT(PWR->CR, PWR_CR_LPRUN);  /* => LL_PWR_EnableLowPowerRunMode() */
 243:../../dependencies/STM32CubeL0/Drivers/STM32L0xx_HAL_Driver/Inc/stm32l0xx_ll_pwr.h **** }
 244:../../dependencies/STM32CubeL0/Drivers/STM32L0xx_HAL_Driver/Inc/stm32l0xx_ll_pwr.h **** 
 245:../../dependencies/STM32CubeL0/Drivers/STM32L0xx_HAL_Driver/Inc/stm32l0xx_ll_pwr.h **** /**
 246:../../dependencies/STM32CubeL0/Drivers/STM32L0xx_HAL_Driver/Inc/stm32l0xx_ll_pwr.h ****   * @brief  Set voltage regulator to main and switch from 
 247:../../dependencies/STM32CubeL0/Drivers/STM32L0xx_HAL_Driver/Inc/stm32l0xx_ll_pwr.h ****   *         run main mode to low-power mode.
 248:../../dependencies/STM32CubeL0/Drivers/STM32L0xx_HAL_Driver/Inc/stm32l0xx_ll_pwr.h ****   * @rmtoll CR    LPSDSR       LL_PWR_ExitLowPowerRunMode\n
 249:../../dependencies/STM32CubeL0/Drivers/STM32L0xx_HAL_Driver/Inc/stm32l0xx_ll_pwr.h ****   *         CR    LPRUN        LL_PWR_ExitLowPowerRunMode
 250:../../dependencies/STM32CubeL0/Drivers/STM32L0xx_HAL_Driver/Inc/stm32l0xx_ll_pwr.h ****   * @note   This "high level" function is introduced to provide functional   
 251:../../dependencies/STM32CubeL0/Drivers/STM32L0xx_HAL_Driver/Inc/stm32l0xx_ll_pwr.h ****   *         compatibility with other families. Notice that the two registers 
 252:../../dependencies/STM32CubeL0/Drivers/STM32L0xx_HAL_Driver/Inc/stm32l0xx_ll_pwr.h ****   *         have to be written sequentially, so this function is not atomic.
 253:../../dependencies/STM32CubeL0/Drivers/STM32L0xx_HAL_Driver/Inc/stm32l0xx_ll_pwr.h ****   *         To assure atomicity you can call separately the following functions:
 254:../../dependencies/STM32CubeL0/Drivers/STM32L0xx_HAL_Driver/Inc/stm32l0xx_ll_pwr.h ****   *         - @ref LL_PWR_DisableLowPowerRunMode();
 255:../../dependencies/STM32CubeL0/Drivers/STM32L0xx_HAL_Driver/Inc/stm32l0xx_ll_pwr.h ****   *         - @ref LL_PWR_SetRegulModeLP(@ref LL_PWR_REGU_LPMODES_MAIN);
 256:../../dependencies/STM32CubeL0/Drivers/STM32L0xx_HAL_Driver/Inc/stm32l0xx_ll_pwr.h ****   * @retval None
 257:../../dependencies/STM32CubeL0/Drivers/STM32L0xx_HAL_Driver/Inc/stm32l0xx_ll_pwr.h ****   */
 258:../../dependencies/STM32CubeL0/Drivers/STM32L0xx_HAL_Driver/Inc/stm32l0xx_ll_pwr.h **** __STATIC_INLINE void LL_PWR_ExitLowPowerRunMode(void)
 259:../../dependencies/STM32CubeL0/Drivers/STM32L0xx_HAL_Driver/Inc/stm32l0xx_ll_pwr.h **** {
 260:../../dependencies/STM32CubeL0/Drivers/STM32L0xx_HAL_Driver/Inc/stm32l0xx_ll_pwr.h ****   CLEAR_BIT(PWR->CR, PWR_CR_LPRUN);   /* => LL_PWR_DisableLowPowerRunMode() */
 261:../../dependencies/STM32CubeL0/Drivers/STM32L0xx_HAL_Driver/Inc/stm32l0xx_ll_pwr.h ****   CLEAR_BIT(PWR->CR, PWR_CR_LPSDSR);  /* => LL_PWR_SetRegulModeLP(LL_PWR_REGU_LPMODES_MAIN) */
 262:../../dependencies/STM32CubeL0/Drivers/STM32L0xx_HAL_Driver/Inc/stm32l0xx_ll_pwr.h **** }
 263:../../dependencies/STM32CubeL0/Drivers/STM32L0xx_HAL_Driver/Inc/stm32l0xx_ll_pwr.h **** /**
 264:../../dependencies/STM32CubeL0/Drivers/STM32L0xx_HAL_Driver/Inc/stm32l0xx_ll_pwr.h ****   * @brief  Set the main internal regulator output voltage
 265:../../dependencies/STM32CubeL0/Drivers/STM32L0xx_HAL_Driver/Inc/stm32l0xx_ll_pwr.h ****   * @rmtoll CR    VOS       LL_PWR_SetRegulVoltageScaling
 266:../../dependencies/STM32CubeL0/Drivers/STM32L0xx_HAL_Driver/Inc/stm32l0xx_ll_pwr.h ****   * @param  VoltageScaling This parameter can be one of the following values:
 267:../../dependencies/STM32CubeL0/Drivers/STM32L0xx_HAL_Driver/Inc/stm32l0xx_ll_pwr.h ****   *         @arg @ref LL_PWR_REGU_VOLTAGE_SCALE1
 268:../../dependencies/STM32CubeL0/Drivers/STM32L0xx_HAL_Driver/Inc/stm32l0xx_ll_pwr.h ****   *         @arg @ref LL_PWR_REGU_VOLTAGE_SCALE2
 269:../../dependencies/STM32CubeL0/Drivers/STM32L0xx_HAL_Driver/Inc/stm32l0xx_ll_pwr.h ****   *         @arg @ref LL_PWR_REGU_VOLTAGE_SCALE3
 270:../../dependencies/STM32CubeL0/Drivers/STM32L0xx_HAL_Driver/Inc/stm32l0xx_ll_pwr.h ****   * @retval None
 271:../../dependencies/STM32CubeL0/Drivers/STM32L0xx_HAL_Driver/Inc/stm32l0xx_ll_pwr.h ****   */
 272:../../dependencies/STM32CubeL0/Drivers/STM32L0xx_HAL_Driver/Inc/stm32l0xx_ll_pwr.h **** __STATIC_INLINE void LL_PWR_SetRegulVoltageScaling(uint32_t VoltageScaling)
 273:../../dependencies/STM32CubeL0/Drivers/STM32L0xx_HAL_Driver/Inc/stm32l0xx_ll_pwr.h **** {
 135              		.loc 2 273 1
 136              		.cfi_startproc
 137              		@ args = 0, pretend = 0, frame = 8
ARM GAS  /tmp/ccpljSGR.s 			page 22


 138              		@ frame_needed = 1, uses_anonymous_args = 0
 139 0000 80B5     		push	{r7, lr}
 140              		.cfi_def_cfa_offset 8
 141              		.cfi_offset 7, -8
 142              		.cfi_offset 14, -4
 143 0002 82B0     		sub	sp, sp, #8
 144              		.cfi_def_cfa_offset 16
 145 0004 00AF     		add	r7, sp, #0
 146              		.cfi_def_cfa_register 7
 147 0006 7860     		str	r0, [r7, #4]
 274:../../dependencies/STM32CubeL0/Drivers/STM32L0xx_HAL_Driver/Inc/stm32l0xx_ll_pwr.h ****   MODIFY_REG(PWR->CR, PWR_CR_VOS, VoltageScaling);
 148              		.loc 2 274 3
 149 0008 064B     		ldr	r3, .L8
 150 000a 1B68     		ldr	r3, [r3]
 151 000c 064A     		ldr	r2, .L8+4
 152 000e 1340     		ands	r3, r2
 153 0010 1900     		movs	r1, r3
 154 0012 044B     		ldr	r3, .L8
 155 0014 7A68     		ldr	r2, [r7, #4]
 156 0016 0A43     		orrs	r2, r1
 157 0018 1A60     		str	r2, [r3]
 275:../../dependencies/STM32CubeL0/Drivers/STM32L0xx_HAL_Driver/Inc/stm32l0xx_ll_pwr.h **** }
 158              		.loc 2 275 1
 159 001a C046     		nop
 160 001c BD46     		mov	sp, r7
 161 001e 02B0     		add	sp, sp, #8
 162              		@ sp needed
 163 0020 80BD     		pop	{r7, pc}
 164              	.L9:
 165 0022 C046     		.align	2
 166              	.L8:
 167 0024 00700040 		.word	1073770496
 168 0028 FFE7FFFF 		.word	-6145
 169              		.cfi_endproc
 170              	.LFE610:
 172              		.section	.text.LL_RCC_HSI_Enable,"ax",%progbits
 173              		.align	1
 174              		.syntax unified
 175              		.code	16
 176              		.thumb_func
 177              		.fpu softvfp
 179              	LL_RCC_HSI_Enable:
 180              	.LFB652:
 181              		.file 3 "../../dependencies/STM32CubeL0/Drivers/STM32L0xx_HAL_Driver/Inc/stm32l0xx_ll_rcc.h"
   1:../../dependencies/STM32CubeL0/Drivers/STM32L0xx_HAL_Driver/Inc/stm32l0xx_ll_rcc.h **** /**
   2:../../dependencies/STM32CubeL0/Drivers/STM32L0xx_HAL_Driver/Inc/stm32l0xx_ll_rcc.h ****   ******************************************************************************
   3:../../dependencies/STM32CubeL0/Drivers/STM32L0xx_HAL_Driver/Inc/stm32l0xx_ll_rcc.h ****   * @file    stm32l0xx_ll_rcc.h
   4:../../dependencies/STM32CubeL0/Drivers/STM32L0xx_HAL_Driver/Inc/stm32l0xx_ll_rcc.h ****   * @author  MCD Application Team
   5:../../dependencies/STM32CubeL0/Drivers/STM32L0xx_HAL_Driver/Inc/stm32l0xx_ll_rcc.h ****   * @brief   Header file of RCC LL module.
   6:../../dependencies/STM32CubeL0/Drivers/STM32L0xx_HAL_Driver/Inc/stm32l0xx_ll_rcc.h ****   ******************************************************************************
   7:../../dependencies/STM32CubeL0/Drivers/STM32L0xx_HAL_Driver/Inc/stm32l0xx_ll_rcc.h ****   * @attention
   8:../../dependencies/STM32CubeL0/Drivers/STM32L0xx_HAL_Driver/Inc/stm32l0xx_ll_rcc.h ****   *
   9:../../dependencies/STM32CubeL0/Drivers/STM32L0xx_HAL_Driver/Inc/stm32l0xx_ll_rcc.h ****   * <h2><center>&copy; Copyright(c) 2016 STMicroelectronics.
  10:../../dependencies/STM32CubeL0/Drivers/STM32L0xx_HAL_Driver/Inc/stm32l0xx_ll_rcc.h ****   * All rights reserved.</center></h2>
  11:../../dependencies/STM32CubeL0/Drivers/STM32L0xx_HAL_Driver/Inc/stm32l0xx_ll_rcc.h ****   *
  12:../../dependencies/STM32CubeL0/Drivers/STM32L0xx_HAL_Driver/Inc/stm32l0xx_ll_rcc.h ****   * This software component is licensed by ST under BSD 3-Clause license,
  13:../../dependencies/STM32CubeL0/Drivers/STM32L0xx_HAL_Driver/Inc/stm32l0xx_ll_rcc.h ****   * the "License"; You may not use this file except in compliance with the
ARM GAS  /tmp/ccpljSGR.s 			page 23


  14:../../dependencies/STM32CubeL0/Drivers/STM32L0xx_HAL_Driver/Inc/stm32l0xx_ll_rcc.h ****   * License. You may obtain a copy of the License at:
  15:../../dependencies/STM32CubeL0/Drivers/STM32L0xx_HAL_Driver/Inc/stm32l0xx_ll_rcc.h ****   *                        opensource.org/licenses/BSD-3-Clause
  16:../../dependencies/STM32CubeL0/Drivers/STM32L0xx_HAL_Driver/Inc/stm32l0xx_ll_rcc.h ****   *
  17:../../dependencies/STM32CubeL0/Drivers/STM32L0xx_HAL_Driver/Inc/stm32l0xx_ll_rcc.h ****   ******************************************************************************
  18:../../dependencies/STM32CubeL0/Drivers/STM32L0xx_HAL_Driver/Inc/stm32l0xx_ll_rcc.h ****   */
  19:../../dependencies/STM32CubeL0/Drivers/STM32L0xx_HAL_Driver/Inc/stm32l0xx_ll_rcc.h **** 
  20:../../dependencies/STM32CubeL0/Drivers/STM32L0xx_HAL_Driver/Inc/stm32l0xx_ll_rcc.h **** /* Define to prevent recursive inclusion -------------------------------------*/
  21:../../dependencies/STM32CubeL0/Drivers/STM32L0xx_HAL_Driver/Inc/stm32l0xx_ll_rcc.h **** #ifndef __STM32L0xx_LL_RCC_H
  22:../../dependencies/STM32CubeL0/Drivers/STM32L0xx_HAL_Driver/Inc/stm32l0xx_ll_rcc.h **** #define __STM32L0xx_LL_RCC_H
  23:../../dependencies/STM32CubeL0/Drivers/STM32L0xx_HAL_Driver/Inc/stm32l0xx_ll_rcc.h **** 
  24:../../dependencies/STM32CubeL0/Drivers/STM32L0xx_HAL_Driver/Inc/stm32l0xx_ll_rcc.h **** #ifdef __cplusplus
  25:../../dependencies/STM32CubeL0/Drivers/STM32L0xx_HAL_Driver/Inc/stm32l0xx_ll_rcc.h **** extern "C" {
  26:../../dependencies/STM32CubeL0/Drivers/STM32L0xx_HAL_Driver/Inc/stm32l0xx_ll_rcc.h **** #endif
  27:../../dependencies/STM32CubeL0/Drivers/STM32L0xx_HAL_Driver/Inc/stm32l0xx_ll_rcc.h **** 
  28:../../dependencies/STM32CubeL0/Drivers/STM32L0xx_HAL_Driver/Inc/stm32l0xx_ll_rcc.h **** /* Includes ------------------------------------------------------------------*/
  29:../../dependencies/STM32CubeL0/Drivers/STM32L0xx_HAL_Driver/Inc/stm32l0xx_ll_rcc.h **** #include "stm32l0xx.h"
  30:../../dependencies/STM32CubeL0/Drivers/STM32L0xx_HAL_Driver/Inc/stm32l0xx_ll_rcc.h **** 
  31:../../dependencies/STM32CubeL0/Drivers/STM32L0xx_HAL_Driver/Inc/stm32l0xx_ll_rcc.h **** /** @addtogroup STM32L0xx_LL_Driver
  32:../../dependencies/STM32CubeL0/Drivers/STM32L0xx_HAL_Driver/Inc/stm32l0xx_ll_rcc.h ****   * @{
  33:../../dependencies/STM32CubeL0/Drivers/STM32L0xx_HAL_Driver/Inc/stm32l0xx_ll_rcc.h ****   */
  34:../../dependencies/STM32CubeL0/Drivers/STM32L0xx_HAL_Driver/Inc/stm32l0xx_ll_rcc.h **** 
  35:../../dependencies/STM32CubeL0/Drivers/STM32L0xx_HAL_Driver/Inc/stm32l0xx_ll_rcc.h **** #if defined(RCC)
  36:../../dependencies/STM32CubeL0/Drivers/STM32L0xx_HAL_Driver/Inc/stm32l0xx_ll_rcc.h **** 
  37:../../dependencies/STM32CubeL0/Drivers/STM32L0xx_HAL_Driver/Inc/stm32l0xx_ll_rcc.h **** /** @defgroup RCC_LL RCC
  38:../../dependencies/STM32CubeL0/Drivers/STM32L0xx_HAL_Driver/Inc/stm32l0xx_ll_rcc.h ****   * @{
  39:../../dependencies/STM32CubeL0/Drivers/STM32L0xx_HAL_Driver/Inc/stm32l0xx_ll_rcc.h ****   */
  40:../../dependencies/STM32CubeL0/Drivers/STM32L0xx_HAL_Driver/Inc/stm32l0xx_ll_rcc.h **** 
  41:../../dependencies/STM32CubeL0/Drivers/STM32L0xx_HAL_Driver/Inc/stm32l0xx_ll_rcc.h **** /* Private types -------------------------------------------------------------*/
  42:../../dependencies/STM32CubeL0/Drivers/STM32L0xx_HAL_Driver/Inc/stm32l0xx_ll_rcc.h **** /* Private variables ---------------------------------------------------------*/
  43:../../dependencies/STM32CubeL0/Drivers/STM32L0xx_HAL_Driver/Inc/stm32l0xx_ll_rcc.h **** /** @defgroup RCC_LL_Private_Variables RCC Private Variables
  44:../../dependencies/STM32CubeL0/Drivers/STM32L0xx_HAL_Driver/Inc/stm32l0xx_ll_rcc.h ****   * @{
  45:../../dependencies/STM32CubeL0/Drivers/STM32L0xx_HAL_Driver/Inc/stm32l0xx_ll_rcc.h ****   */
  46:../../dependencies/STM32CubeL0/Drivers/STM32L0xx_HAL_Driver/Inc/stm32l0xx_ll_rcc.h **** 
  47:../../dependencies/STM32CubeL0/Drivers/STM32L0xx_HAL_Driver/Inc/stm32l0xx_ll_rcc.h **** /**
  48:../../dependencies/STM32CubeL0/Drivers/STM32L0xx_HAL_Driver/Inc/stm32l0xx_ll_rcc.h ****   * @}
  49:../../dependencies/STM32CubeL0/Drivers/STM32L0xx_HAL_Driver/Inc/stm32l0xx_ll_rcc.h ****   */
  50:../../dependencies/STM32CubeL0/Drivers/STM32L0xx_HAL_Driver/Inc/stm32l0xx_ll_rcc.h **** 
  51:../../dependencies/STM32CubeL0/Drivers/STM32L0xx_HAL_Driver/Inc/stm32l0xx_ll_rcc.h **** /* Private constants ---------------------------------------------------------*/
  52:../../dependencies/STM32CubeL0/Drivers/STM32L0xx_HAL_Driver/Inc/stm32l0xx_ll_rcc.h **** /** @defgroup RCC_LL_Private_Constants RCC Private Constants
  53:../../dependencies/STM32CubeL0/Drivers/STM32L0xx_HAL_Driver/Inc/stm32l0xx_ll_rcc.h ****   * @{
  54:../../dependencies/STM32CubeL0/Drivers/STM32L0xx_HAL_Driver/Inc/stm32l0xx_ll_rcc.h ****   */
  55:../../dependencies/STM32CubeL0/Drivers/STM32L0xx_HAL_Driver/Inc/stm32l0xx_ll_rcc.h **** 
  56:../../dependencies/STM32CubeL0/Drivers/STM32L0xx_HAL_Driver/Inc/stm32l0xx_ll_rcc.h **** /**
  57:../../dependencies/STM32CubeL0/Drivers/STM32L0xx_HAL_Driver/Inc/stm32l0xx_ll_rcc.h ****   * @}
  58:../../dependencies/STM32CubeL0/Drivers/STM32L0xx_HAL_Driver/Inc/stm32l0xx_ll_rcc.h ****   */
  59:../../dependencies/STM32CubeL0/Drivers/STM32L0xx_HAL_Driver/Inc/stm32l0xx_ll_rcc.h **** 
  60:../../dependencies/STM32CubeL0/Drivers/STM32L0xx_HAL_Driver/Inc/stm32l0xx_ll_rcc.h **** /* Private macros ------------------------------------------------------------*/
  61:../../dependencies/STM32CubeL0/Drivers/STM32L0xx_HAL_Driver/Inc/stm32l0xx_ll_rcc.h **** #if defined(USE_FULL_LL_DRIVER)
  62:../../dependencies/STM32CubeL0/Drivers/STM32L0xx_HAL_Driver/Inc/stm32l0xx_ll_rcc.h **** /** @defgroup RCC_LL_Private_Macros RCC Private Macros
  63:../../dependencies/STM32CubeL0/Drivers/STM32L0xx_HAL_Driver/Inc/stm32l0xx_ll_rcc.h ****   * @{
  64:../../dependencies/STM32CubeL0/Drivers/STM32L0xx_HAL_Driver/Inc/stm32l0xx_ll_rcc.h ****   */
  65:../../dependencies/STM32CubeL0/Drivers/STM32L0xx_HAL_Driver/Inc/stm32l0xx_ll_rcc.h **** /**
  66:../../dependencies/STM32CubeL0/Drivers/STM32L0xx_HAL_Driver/Inc/stm32l0xx_ll_rcc.h ****   * @}
  67:../../dependencies/STM32CubeL0/Drivers/STM32L0xx_HAL_Driver/Inc/stm32l0xx_ll_rcc.h ****   */
  68:../../dependencies/STM32CubeL0/Drivers/STM32L0xx_HAL_Driver/Inc/stm32l0xx_ll_rcc.h **** #endif /*USE_FULL_LL_DRIVER*/
  69:../../dependencies/STM32CubeL0/Drivers/STM32L0xx_HAL_Driver/Inc/stm32l0xx_ll_rcc.h **** /* Exported types ------------------------------------------------------------*/
  70:../../dependencies/STM32CubeL0/Drivers/STM32L0xx_HAL_Driver/Inc/stm32l0xx_ll_rcc.h **** #if defined(USE_FULL_LL_DRIVER)
ARM GAS  /tmp/ccpljSGR.s 			page 24


  71:../../dependencies/STM32CubeL0/Drivers/STM32L0xx_HAL_Driver/Inc/stm32l0xx_ll_rcc.h **** /** @defgroup RCC_LL_Exported_Types RCC Exported Types
  72:../../dependencies/STM32CubeL0/Drivers/STM32L0xx_HAL_Driver/Inc/stm32l0xx_ll_rcc.h ****   * @{
  73:../../dependencies/STM32CubeL0/Drivers/STM32L0xx_HAL_Driver/Inc/stm32l0xx_ll_rcc.h ****   */
  74:../../dependencies/STM32CubeL0/Drivers/STM32L0xx_HAL_Driver/Inc/stm32l0xx_ll_rcc.h **** 
  75:../../dependencies/STM32CubeL0/Drivers/STM32L0xx_HAL_Driver/Inc/stm32l0xx_ll_rcc.h **** /** @defgroup LL_ES_CLOCK_FREQ Clocks Frequency Structure
  76:../../dependencies/STM32CubeL0/Drivers/STM32L0xx_HAL_Driver/Inc/stm32l0xx_ll_rcc.h ****   * @{
  77:../../dependencies/STM32CubeL0/Drivers/STM32L0xx_HAL_Driver/Inc/stm32l0xx_ll_rcc.h ****   */
  78:../../dependencies/STM32CubeL0/Drivers/STM32L0xx_HAL_Driver/Inc/stm32l0xx_ll_rcc.h **** 
  79:../../dependencies/STM32CubeL0/Drivers/STM32L0xx_HAL_Driver/Inc/stm32l0xx_ll_rcc.h **** /**
  80:../../dependencies/STM32CubeL0/Drivers/STM32L0xx_HAL_Driver/Inc/stm32l0xx_ll_rcc.h ****   * @brief  RCC Clocks Frequency Structure
  81:../../dependencies/STM32CubeL0/Drivers/STM32L0xx_HAL_Driver/Inc/stm32l0xx_ll_rcc.h ****   */
  82:../../dependencies/STM32CubeL0/Drivers/STM32L0xx_HAL_Driver/Inc/stm32l0xx_ll_rcc.h **** typedef struct
  83:../../dependencies/STM32CubeL0/Drivers/STM32L0xx_HAL_Driver/Inc/stm32l0xx_ll_rcc.h **** {
  84:../../dependencies/STM32CubeL0/Drivers/STM32L0xx_HAL_Driver/Inc/stm32l0xx_ll_rcc.h ****   uint32_t SYSCLK_Frequency;        /*!< SYSCLK clock frequency */
  85:../../dependencies/STM32CubeL0/Drivers/STM32L0xx_HAL_Driver/Inc/stm32l0xx_ll_rcc.h ****   uint32_t HCLK_Frequency;          /*!< HCLK clock frequency */
  86:../../dependencies/STM32CubeL0/Drivers/STM32L0xx_HAL_Driver/Inc/stm32l0xx_ll_rcc.h ****   uint32_t PCLK1_Frequency;         /*!< PCLK1 clock frequency */
  87:../../dependencies/STM32CubeL0/Drivers/STM32L0xx_HAL_Driver/Inc/stm32l0xx_ll_rcc.h ****   uint32_t PCLK2_Frequency;         /*!< PCLK2 clock frequency */
  88:../../dependencies/STM32CubeL0/Drivers/STM32L0xx_HAL_Driver/Inc/stm32l0xx_ll_rcc.h **** } LL_RCC_ClocksTypeDef;
  89:../../dependencies/STM32CubeL0/Drivers/STM32L0xx_HAL_Driver/Inc/stm32l0xx_ll_rcc.h **** 
  90:../../dependencies/STM32CubeL0/Drivers/STM32L0xx_HAL_Driver/Inc/stm32l0xx_ll_rcc.h **** /**
  91:../../dependencies/STM32CubeL0/Drivers/STM32L0xx_HAL_Driver/Inc/stm32l0xx_ll_rcc.h ****   * @}
  92:../../dependencies/STM32CubeL0/Drivers/STM32L0xx_HAL_Driver/Inc/stm32l0xx_ll_rcc.h ****   */
  93:../../dependencies/STM32CubeL0/Drivers/STM32L0xx_HAL_Driver/Inc/stm32l0xx_ll_rcc.h **** 
  94:../../dependencies/STM32CubeL0/Drivers/STM32L0xx_HAL_Driver/Inc/stm32l0xx_ll_rcc.h **** /**
  95:../../dependencies/STM32CubeL0/Drivers/STM32L0xx_HAL_Driver/Inc/stm32l0xx_ll_rcc.h ****   * @}
  96:../../dependencies/STM32CubeL0/Drivers/STM32L0xx_HAL_Driver/Inc/stm32l0xx_ll_rcc.h ****   */
  97:../../dependencies/STM32CubeL0/Drivers/STM32L0xx_HAL_Driver/Inc/stm32l0xx_ll_rcc.h **** #endif /* USE_FULL_LL_DRIVER */
  98:../../dependencies/STM32CubeL0/Drivers/STM32L0xx_HAL_Driver/Inc/stm32l0xx_ll_rcc.h **** 
  99:../../dependencies/STM32CubeL0/Drivers/STM32L0xx_HAL_Driver/Inc/stm32l0xx_ll_rcc.h **** /* Exported constants --------------------------------------------------------*/
 100:../../dependencies/STM32CubeL0/Drivers/STM32L0xx_HAL_Driver/Inc/stm32l0xx_ll_rcc.h **** /** @defgroup RCC_LL_Exported_Constants RCC Exported Constants
 101:../../dependencies/STM32CubeL0/Drivers/STM32L0xx_HAL_Driver/Inc/stm32l0xx_ll_rcc.h ****   * @{
 102:../../dependencies/STM32CubeL0/Drivers/STM32L0xx_HAL_Driver/Inc/stm32l0xx_ll_rcc.h ****   */
 103:../../dependencies/STM32CubeL0/Drivers/STM32L0xx_HAL_Driver/Inc/stm32l0xx_ll_rcc.h **** 
 104:../../dependencies/STM32CubeL0/Drivers/STM32L0xx_HAL_Driver/Inc/stm32l0xx_ll_rcc.h **** /** @defgroup RCC_LL_EC_OSC_VALUES Oscillator Values adaptation
 105:../../dependencies/STM32CubeL0/Drivers/STM32L0xx_HAL_Driver/Inc/stm32l0xx_ll_rcc.h ****   * @brief    Defines used to adapt values of different oscillators
 106:../../dependencies/STM32CubeL0/Drivers/STM32L0xx_HAL_Driver/Inc/stm32l0xx_ll_rcc.h ****   * @note     These values could be modified in the user environment according to
 107:../../dependencies/STM32CubeL0/Drivers/STM32L0xx_HAL_Driver/Inc/stm32l0xx_ll_rcc.h ****   *           HW set-up.
 108:../../dependencies/STM32CubeL0/Drivers/STM32L0xx_HAL_Driver/Inc/stm32l0xx_ll_rcc.h ****   * @{
 109:../../dependencies/STM32CubeL0/Drivers/STM32L0xx_HAL_Driver/Inc/stm32l0xx_ll_rcc.h ****   */
 110:../../dependencies/STM32CubeL0/Drivers/STM32L0xx_HAL_Driver/Inc/stm32l0xx_ll_rcc.h **** #if !defined  (HSE_VALUE)
 111:../../dependencies/STM32CubeL0/Drivers/STM32L0xx_HAL_Driver/Inc/stm32l0xx_ll_rcc.h **** #define HSE_VALUE    (8000000U)  /*!< Value of the HSE oscillator in Hz */
 112:../../dependencies/STM32CubeL0/Drivers/STM32L0xx_HAL_Driver/Inc/stm32l0xx_ll_rcc.h **** #endif /* HSE_VALUE */
 113:../../dependencies/STM32CubeL0/Drivers/STM32L0xx_HAL_Driver/Inc/stm32l0xx_ll_rcc.h **** 
 114:../../dependencies/STM32CubeL0/Drivers/STM32L0xx_HAL_Driver/Inc/stm32l0xx_ll_rcc.h **** #if !defined  (HSI_VALUE)
 115:../../dependencies/STM32CubeL0/Drivers/STM32L0xx_HAL_Driver/Inc/stm32l0xx_ll_rcc.h **** #define HSI_VALUE    (16000000U) /*!< Value of the HSI oscillator in Hz */
 116:../../dependencies/STM32CubeL0/Drivers/STM32L0xx_HAL_Driver/Inc/stm32l0xx_ll_rcc.h **** #endif /* HSI_VALUE */
 117:../../dependencies/STM32CubeL0/Drivers/STM32L0xx_HAL_Driver/Inc/stm32l0xx_ll_rcc.h **** 
 118:../../dependencies/STM32CubeL0/Drivers/STM32L0xx_HAL_Driver/Inc/stm32l0xx_ll_rcc.h **** #if !defined  (LSE_VALUE)
 119:../../dependencies/STM32CubeL0/Drivers/STM32L0xx_HAL_Driver/Inc/stm32l0xx_ll_rcc.h **** #define LSE_VALUE    (32768U)    /*!< Value of the LSE oscillator in Hz */
 120:../../dependencies/STM32CubeL0/Drivers/STM32L0xx_HAL_Driver/Inc/stm32l0xx_ll_rcc.h **** #endif /* LSE_VALUE */
 121:../../dependencies/STM32CubeL0/Drivers/STM32L0xx_HAL_Driver/Inc/stm32l0xx_ll_rcc.h **** 
 122:../../dependencies/STM32CubeL0/Drivers/STM32L0xx_HAL_Driver/Inc/stm32l0xx_ll_rcc.h **** #if !defined  (LSI_VALUE)
 123:../../dependencies/STM32CubeL0/Drivers/STM32L0xx_HAL_Driver/Inc/stm32l0xx_ll_rcc.h **** #define LSI_VALUE    (37000U)    /*!< Value of the LSI oscillator in Hz */
 124:../../dependencies/STM32CubeL0/Drivers/STM32L0xx_HAL_Driver/Inc/stm32l0xx_ll_rcc.h **** #endif /* LSI_VALUE */
 125:../../dependencies/STM32CubeL0/Drivers/STM32L0xx_HAL_Driver/Inc/stm32l0xx_ll_rcc.h **** #if defined(RCC_HSI48_SUPPORT)
 126:../../dependencies/STM32CubeL0/Drivers/STM32L0xx_HAL_Driver/Inc/stm32l0xx_ll_rcc.h **** 
 127:../../dependencies/STM32CubeL0/Drivers/STM32L0xx_HAL_Driver/Inc/stm32l0xx_ll_rcc.h **** #if !defined  (HSI48_VALUE)
ARM GAS  /tmp/ccpljSGR.s 			page 25


 128:../../dependencies/STM32CubeL0/Drivers/STM32L0xx_HAL_Driver/Inc/stm32l0xx_ll_rcc.h **** #define HSI48_VALUE  (48000000U) /*!< Value of the HSI48 oscillator in Hz */
 129:../../dependencies/STM32CubeL0/Drivers/STM32L0xx_HAL_Driver/Inc/stm32l0xx_ll_rcc.h **** #endif /* HSI48_VALUE */
 130:../../dependencies/STM32CubeL0/Drivers/STM32L0xx_HAL_Driver/Inc/stm32l0xx_ll_rcc.h **** #endif /* RCC_HSI48_SUPPORT */
 131:../../dependencies/STM32CubeL0/Drivers/STM32L0xx_HAL_Driver/Inc/stm32l0xx_ll_rcc.h **** /**
 132:../../dependencies/STM32CubeL0/Drivers/STM32L0xx_HAL_Driver/Inc/stm32l0xx_ll_rcc.h ****   * @}
 133:../../dependencies/STM32CubeL0/Drivers/STM32L0xx_HAL_Driver/Inc/stm32l0xx_ll_rcc.h ****   */
 134:../../dependencies/STM32CubeL0/Drivers/STM32L0xx_HAL_Driver/Inc/stm32l0xx_ll_rcc.h **** 
 135:../../dependencies/STM32CubeL0/Drivers/STM32L0xx_HAL_Driver/Inc/stm32l0xx_ll_rcc.h **** /** @defgroup RCC_LL_EC_CLEAR_FLAG Clear Flags Defines
 136:../../dependencies/STM32CubeL0/Drivers/STM32L0xx_HAL_Driver/Inc/stm32l0xx_ll_rcc.h ****   * @brief    Flags defines which can be used with LL_RCC_WriteReg function
 137:../../dependencies/STM32CubeL0/Drivers/STM32L0xx_HAL_Driver/Inc/stm32l0xx_ll_rcc.h ****   * @{
 138:../../dependencies/STM32CubeL0/Drivers/STM32L0xx_HAL_Driver/Inc/stm32l0xx_ll_rcc.h ****   */
 139:../../dependencies/STM32CubeL0/Drivers/STM32L0xx_HAL_Driver/Inc/stm32l0xx_ll_rcc.h **** #define LL_RCC_CICR_LSIRDYC                RCC_CICR_LSIRDYC     /*!< LSI Ready Interrupt Clear */
 140:../../dependencies/STM32CubeL0/Drivers/STM32L0xx_HAL_Driver/Inc/stm32l0xx_ll_rcc.h **** #define LL_RCC_CICR_LSERDYC                RCC_CICR_LSERDYC     /*!< LSE Ready Interrupt Clear */
 141:../../dependencies/STM32CubeL0/Drivers/STM32L0xx_HAL_Driver/Inc/stm32l0xx_ll_rcc.h **** #define LL_RCC_CICR_HSIRDYC                RCC_CICR_HSIRDYC     /*!< HSI Ready Interrupt Clear */
 142:../../dependencies/STM32CubeL0/Drivers/STM32L0xx_HAL_Driver/Inc/stm32l0xx_ll_rcc.h **** #define LL_RCC_CICR_HSERDYC                RCC_CICR_HSERDYC     /*!< HSE Ready Interrupt Clear */
 143:../../dependencies/STM32CubeL0/Drivers/STM32L0xx_HAL_Driver/Inc/stm32l0xx_ll_rcc.h **** #define LL_RCC_CICR_PLLRDYC                RCC_CICR_PLLRDYC     /*!< PLL Ready Interrupt Clear */
 144:../../dependencies/STM32CubeL0/Drivers/STM32L0xx_HAL_Driver/Inc/stm32l0xx_ll_rcc.h **** #define LL_RCC_CICR_MSIRDYC                RCC_CICR_MSIRDYC     /*!< MSI Ready Interrupt Clear */
 145:../../dependencies/STM32CubeL0/Drivers/STM32L0xx_HAL_Driver/Inc/stm32l0xx_ll_rcc.h **** #if defined(RCC_HSI48_SUPPORT)
 146:../../dependencies/STM32CubeL0/Drivers/STM32L0xx_HAL_Driver/Inc/stm32l0xx_ll_rcc.h **** #define LL_RCC_CICR_HSI48RDYC               RCC_CICR_HSI48RDYC  /*!< HSI48 Ready Interrupt Clear */
 147:../../dependencies/STM32CubeL0/Drivers/STM32L0xx_HAL_Driver/Inc/stm32l0xx_ll_rcc.h **** #endif /* RCC_HSI48_SUPPORT */
 148:../../dependencies/STM32CubeL0/Drivers/STM32L0xx_HAL_Driver/Inc/stm32l0xx_ll_rcc.h **** #define LL_RCC_CICR_LSECSSC                RCC_CICR_LSECSSC     /*!< LSE Clock Security System Inte
 149:../../dependencies/STM32CubeL0/Drivers/STM32L0xx_HAL_Driver/Inc/stm32l0xx_ll_rcc.h **** #define LL_RCC_CICR_CSSC                   RCC_CICR_CSSC        /*!< Clock Security System Interrup
 150:../../dependencies/STM32CubeL0/Drivers/STM32L0xx_HAL_Driver/Inc/stm32l0xx_ll_rcc.h **** /**
 151:../../dependencies/STM32CubeL0/Drivers/STM32L0xx_HAL_Driver/Inc/stm32l0xx_ll_rcc.h ****   * @}
 152:../../dependencies/STM32CubeL0/Drivers/STM32L0xx_HAL_Driver/Inc/stm32l0xx_ll_rcc.h ****   */
 153:../../dependencies/STM32CubeL0/Drivers/STM32L0xx_HAL_Driver/Inc/stm32l0xx_ll_rcc.h **** 
 154:../../dependencies/STM32CubeL0/Drivers/STM32L0xx_HAL_Driver/Inc/stm32l0xx_ll_rcc.h **** /** @defgroup RCC_LL_EC_GET_FLAG Get Flags Defines
 155:../../dependencies/STM32CubeL0/Drivers/STM32L0xx_HAL_Driver/Inc/stm32l0xx_ll_rcc.h ****   * @brief    Flags defines which can be used with LL_RCC_ReadReg function
 156:../../dependencies/STM32CubeL0/Drivers/STM32L0xx_HAL_Driver/Inc/stm32l0xx_ll_rcc.h ****   * @{
 157:../../dependencies/STM32CubeL0/Drivers/STM32L0xx_HAL_Driver/Inc/stm32l0xx_ll_rcc.h ****   */
 158:../../dependencies/STM32CubeL0/Drivers/STM32L0xx_HAL_Driver/Inc/stm32l0xx_ll_rcc.h **** #define LL_RCC_CIFR_LSIRDYF                RCC_CIFR_LSIRDYF     /*!< LSI Ready Interrupt flag */
 159:../../dependencies/STM32CubeL0/Drivers/STM32L0xx_HAL_Driver/Inc/stm32l0xx_ll_rcc.h **** #define LL_RCC_CIFR_LSERDYF                RCC_CIFR_LSERDYF     /*!< LSE Ready Interrupt flag */
 160:../../dependencies/STM32CubeL0/Drivers/STM32L0xx_HAL_Driver/Inc/stm32l0xx_ll_rcc.h **** #define LL_RCC_CIFR_HSIRDYF                RCC_CIFR_HSIRDYF     /*!< HSI Ready Interrupt flag */
 161:../../dependencies/STM32CubeL0/Drivers/STM32L0xx_HAL_Driver/Inc/stm32l0xx_ll_rcc.h **** #define LL_RCC_CIFR_HSERDYF                RCC_CIFR_HSERDYF     /*!< HSE Ready Interrupt flag */
 162:../../dependencies/STM32CubeL0/Drivers/STM32L0xx_HAL_Driver/Inc/stm32l0xx_ll_rcc.h **** #define LL_RCC_CIFR_PLLRDYF                RCC_CIFR_PLLRDYF     /*!< PLL Ready Interrupt flag */
 163:../../dependencies/STM32CubeL0/Drivers/STM32L0xx_HAL_Driver/Inc/stm32l0xx_ll_rcc.h **** #define LL_RCC_CIFR_MSIRDYF                RCC_CIFR_MSIRDYF     /*!< MSI Ready Interrupt flag */
 164:../../dependencies/STM32CubeL0/Drivers/STM32L0xx_HAL_Driver/Inc/stm32l0xx_ll_rcc.h **** #if defined(RCC_HSI48_SUPPORT)
 165:../../dependencies/STM32CubeL0/Drivers/STM32L0xx_HAL_Driver/Inc/stm32l0xx_ll_rcc.h **** #define LL_RCC_CIFR_HSI48RDYF               RCC_CIFR_HSI48RDYF  /*!< HSI48 Ready Interrupt flag */
 166:../../dependencies/STM32CubeL0/Drivers/STM32L0xx_HAL_Driver/Inc/stm32l0xx_ll_rcc.h **** #endif /* RCC_HSI48_SUPPORT */
 167:../../dependencies/STM32CubeL0/Drivers/STM32L0xx_HAL_Driver/Inc/stm32l0xx_ll_rcc.h **** #define LL_RCC_CIFR_LSECSSF                RCC_CIFR_LSECSSF    /*!< LSE Clock Security System Inter
 168:../../dependencies/STM32CubeL0/Drivers/STM32L0xx_HAL_Driver/Inc/stm32l0xx_ll_rcc.h **** #define LL_RCC_CIFR_CSSF                   RCC_CIFR_CSSF       /*!< Clock Security System Interrupt
 169:../../dependencies/STM32CubeL0/Drivers/STM32L0xx_HAL_Driver/Inc/stm32l0xx_ll_rcc.h **** #define LL_RCC_CSR_FWRSTF                 RCC_CSR_FWRSTF          /*!< Firewall reset flag */
 170:../../dependencies/STM32CubeL0/Drivers/STM32L0xx_HAL_Driver/Inc/stm32l0xx_ll_rcc.h **** #define LL_RCC_CSR_OBLRSTF                RCC_CSR_OBLRSTF         /*!< OBL reset flag */
 171:../../dependencies/STM32CubeL0/Drivers/STM32L0xx_HAL_Driver/Inc/stm32l0xx_ll_rcc.h **** #define LL_RCC_CSR_PINRSTF                RCC_CSR_PINRSTF         /*!< PIN reset flag */
 172:../../dependencies/STM32CubeL0/Drivers/STM32L0xx_HAL_Driver/Inc/stm32l0xx_ll_rcc.h **** #define LL_RCC_CSR_PORRSTF                RCC_CSR_PORRSTF         /*!< POR/PDR reset flag */
 173:../../dependencies/STM32CubeL0/Drivers/STM32L0xx_HAL_Driver/Inc/stm32l0xx_ll_rcc.h **** #define LL_RCC_CSR_SFTRSTF                RCC_CSR_SFTRSTF         /*!< Software Reset flag */
 174:../../dependencies/STM32CubeL0/Drivers/STM32L0xx_HAL_Driver/Inc/stm32l0xx_ll_rcc.h **** #define LL_RCC_CSR_IWDGRSTF               RCC_CSR_IWDGRSTF        /*!< Independent Watchdog reset f
 175:../../dependencies/STM32CubeL0/Drivers/STM32L0xx_HAL_Driver/Inc/stm32l0xx_ll_rcc.h **** #define LL_RCC_CSR_WWDGRSTF               RCC_CSR_WWDGRSTF        /*!< Window watchdog reset flag *
 176:../../dependencies/STM32CubeL0/Drivers/STM32L0xx_HAL_Driver/Inc/stm32l0xx_ll_rcc.h **** #define LL_RCC_CSR_LPWRRSTF               RCC_CSR_LPWRRSTF        /*!< Low-Power reset flag */
 177:../../dependencies/STM32CubeL0/Drivers/STM32L0xx_HAL_Driver/Inc/stm32l0xx_ll_rcc.h **** /**
 178:../../dependencies/STM32CubeL0/Drivers/STM32L0xx_HAL_Driver/Inc/stm32l0xx_ll_rcc.h ****   * @}
 179:../../dependencies/STM32CubeL0/Drivers/STM32L0xx_HAL_Driver/Inc/stm32l0xx_ll_rcc.h ****   */
 180:../../dependencies/STM32CubeL0/Drivers/STM32L0xx_HAL_Driver/Inc/stm32l0xx_ll_rcc.h **** 
 181:../../dependencies/STM32CubeL0/Drivers/STM32L0xx_HAL_Driver/Inc/stm32l0xx_ll_rcc.h **** /** @defgroup RCC_LL_EC_IT IT Defines
 182:../../dependencies/STM32CubeL0/Drivers/STM32L0xx_HAL_Driver/Inc/stm32l0xx_ll_rcc.h ****   * @brief    IT defines which can be used with LL_RCC_ReadReg and  LL_RCC_WriteReg functions
 183:../../dependencies/STM32CubeL0/Drivers/STM32L0xx_HAL_Driver/Inc/stm32l0xx_ll_rcc.h ****   * @{
 184:../../dependencies/STM32CubeL0/Drivers/STM32L0xx_HAL_Driver/Inc/stm32l0xx_ll_rcc.h ****   */
ARM GAS  /tmp/ccpljSGR.s 			page 26


 185:../../dependencies/STM32CubeL0/Drivers/STM32L0xx_HAL_Driver/Inc/stm32l0xx_ll_rcc.h **** #define LL_RCC_CIER_LSIRDYIE               RCC_CIER_LSIRDYIE      /*!< LSI Ready Interrupt Enable *
 186:../../dependencies/STM32CubeL0/Drivers/STM32L0xx_HAL_Driver/Inc/stm32l0xx_ll_rcc.h **** #define LL_RCC_CIER_LSERDYIE               RCC_CIER_LSERDYIE      /*!< LSE Ready Interrupt Enable *
 187:../../dependencies/STM32CubeL0/Drivers/STM32L0xx_HAL_Driver/Inc/stm32l0xx_ll_rcc.h **** #define LL_RCC_CIER_HSIRDYIE               RCC_CIER_HSIRDYIE      /*!< HSI Ready Interrupt Enable *
 188:../../dependencies/STM32CubeL0/Drivers/STM32L0xx_HAL_Driver/Inc/stm32l0xx_ll_rcc.h **** #define LL_RCC_CIER_HSERDYIE               RCC_CIER_HSERDYIE      /*!< HSE Ready Interrupt Enable *
 189:../../dependencies/STM32CubeL0/Drivers/STM32L0xx_HAL_Driver/Inc/stm32l0xx_ll_rcc.h **** #define LL_RCC_CIER_PLLRDYIE               RCC_CIER_PLLRDYIE      /*!< PLL Ready Interrupt Enable *
 190:../../dependencies/STM32CubeL0/Drivers/STM32L0xx_HAL_Driver/Inc/stm32l0xx_ll_rcc.h **** #define LL_RCC_CIER_MSIRDYIE               RCC_CIER_MSIRDYIE      /*!< MSI Ready Interrupt Enable *
 191:../../dependencies/STM32CubeL0/Drivers/STM32L0xx_HAL_Driver/Inc/stm32l0xx_ll_rcc.h **** #if defined(RCC_HSI48_SUPPORT)
 192:../../dependencies/STM32CubeL0/Drivers/STM32L0xx_HAL_Driver/Inc/stm32l0xx_ll_rcc.h **** #define LL_RCC_CIER_HSI48RDYIE              RCC_CIER_HSI48RDYIE   /*!< HSI48 Ready Interrupt Enable
 193:../../dependencies/STM32CubeL0/Drivers/STM32L0xx_HAL_Driver/Inc/stm32l0xx_ll_rcc.h **** #endif /* RCC_HSI48_SUPPORT */
 194:../../dependencies/STM32CubeL0/Drivers/STM32L0xx_HAL_Driver/Inc/stm32l0xx_ll_rcc.h **** #define LL_RCC_CIER_LSECSSIE               RCC_CIER_LSECSSIE      /*!< LSE CSS Interrupt Enable */
 195:../../dependencies/STM32CubeL0/Drivers/STM32L0xx_HAL_Driver/Inc/stm32l0xx_ll_rcc.h **** /**
 196:../../dependencies/STM32CubeL0/Drivers/STM32L0xx_HAL_Driver/Inc/stm32l0xx_ll_rcc.h ****   * @}
 197:../../dependencies/STM32CubeL0/Drivers/STM32L0xx_HAL_Driver/Inc/stm32l0xx_ll_rcc.h ****   */
 198:../../dependencies/STM32CubeL0/Drivers/STM32L0xx_HAL_Driver/Inc/stm32l0xx_ll_rcc.h **** 
 199:../../dependencies/STM32CubeL0/Drivers/STM32L0xx_HAL_Driver/Inc/stm32l0xx_ll_rcc.h **** /** @defgroup RCC_LL_EC_LSEDRIVE  LSE oscillator drive capability
 200:../../dependencies/STM32CubeL0/Drivers/STM32L0xx_HAL_Driver/Inc/stm32l0xx_ll_rcc.h ****   * @{
 201:../../dependencies/STM32CubeL0/Drivers/STM32L0xx_HAL_Driver/Inc/stm32l0xx_ll_rcc.h ****   */
 202:../../dependencies/STM32CubeL0/Drivers/STM32L0xx_HAL_Driver/Inc/stm32l0xx_ll_rcc.h **** #define LL_RCC_LSEDRIVE_LOW                (0x00000000U) /*!< Xtal mode lower driving capability */
 203:../../dependencies/STM32CubeL0/Drivers/STM32L0xx_HAL_Driver/Inc/stm32l0xx_ll_rcc.h **** #define LL_RCC_LSEDRIVE_MEDIUMLOW          RCC_CSR_LSEDRV_0 /*!< Xtal mode medium low driving capab
 204:../../dependencies/STM32CubeL0/Drivers/STM32L0xx_HAL_Driver/Inc/stm32l0xx_ll_rcc.h **** #define LL_RCC_LSEDRIVE_MEDIUMHIGH         RCC_CSR_LSEDRV_1 /*!< Xtal mode medium high driving capa
 205:../../dependencies/STM32CubeL0/Drivers/STM32L0xx_HAL_Driver/Inc/stm32l0xx_ll_rcc.h **** #define LL_RCC_LSEDRIVE_HIGH               RCC_CSR_LSEDRV   /*!< Xtal mode higher driving capabilit
 206:../../dependencies/STM32CubeL0/Drivers/STM32L0xx_HAL_Driver/Inc/stm32l0xx_ll_rcc.h **** /**
 207:../../dependencies/STM32CubeL0/Drivers/STM32L0xx_HAL_Driver/Inc/stm32l0xx_ll_rcc.h ****   * @}
 208:../../dependencies/STM32CubeL0/Drivers/STM32L0xx_HAL_Driver/Inc/stm32l0xx_ll_rcc.h ****   */
 209:../../dependencies/STM32CubeL0/Drivers/STM32L0xx_HAL_Driver/Inc/stm32l0xx_ll_rcc.h **** 
 210:../../dependencies/STM32CubeL0/Drivers/STM32L0xx_HAL_Driver/Inc/stm32l0xx_ll_rcc.h **** /** @defgroup RCC_LL_EC_RTC_HSE_DIV RTC HSE Prescaler
 211:../../dependencies/STM32CubeL0/Drivers/STM32L0xx_HAL_Driver/Inc/stm32l0xx_ll_rcc.h ****   * @{
 212:../../dependencies/STM32CubeL0/Drivers/STM32L0xx_HAL_Driver/Inc/stm32l0xx_ll_rcc.h ****   */
 213:../../dependencies/STM32CubeL0/Drivers/STM32L0xx_HAL_Driver/Inc/stm32l0xx_ll_rcc.h **** #define LL_RCC_RTC_HSE_DIV_2               0x00000000U          /*!< HSE is divided by 2 for RTC cl
 214:../../dependencies/STM32CubeL0/Drivers/STM32L0xx_HAL_Driver/Inc/stm32l0xx_ll_rcc.h **** #define LL_RCC_RTC_HSE_DIV_4               RCC_CR_RTCPRE_0      /*!< HSE is divided by 4 for RTC cl
 215:../../dependencies/STM32CubeL0/Drivers/STM32L0xx_HAL_Driver/Inc/stm32l0xx_ll_rcc.h **** #define LL_RCC_RTC_HSE_DIV_8               RCC_CR_RTCPRE_1      /*!< HSE is divided by 8 for RTC cl
 216:../../dependencies/STM32CubeL0/Drivers/STM32L0xx_HAL_Driver/Inc/stm32l0xx_ll_rcc.h **** #define LL_RCC_RTC_HSE_DIV_16              RCC_CR_RTCPRE        /*!< HSE is divided by 16 for RTC c
 217:../../dependencies/STM32CubeL0/Drivers/STM32L0xx_HAL_Driver/Inc/stm32l0xx_ll_rcc.h **** /**
 218:../../dependencies/STM32CubeL0/Drivers/STM32L0xx_HAL_Driver/Inc/stm32l0xx_ll_rcc.h ****   * @}
 219:../../dependencies/STM32CubeL0/Drivers/STM32L0xx_HAL_Driver/Inc/stm32l0xx_ll_rcc.h ****   */
 220:../../dependencies/STM32CubeL0/Drivers/STM32L0xx_HAL_Driver/Inc/stm32l0xx_ll_rcc.h **** 
 221:../../dependencies/STM32CubeL0/Drivers/STM32L0xx_HAL_Driver/Inc/stm32l0xx_ll_rcc.h **** /** @defgroup RCC_LL_EC_MSIRANGE  MSI clock ranges
 222:../../dependencies/STM32CubeL0/Drivers/STM32L0xx_HAL_Driver/Inc/stm32l0xx_ll_rcc.h ****   * @{
 223:../../dependencies/STM32CubeL0/Drivers/STM32L0xx_HAL_Driver/Inc/stm32l0xx_ll_rcc.h ****   */
 224:../../dependencies/STM32CubeL0/Drivers/STM32L0xx_HAL_Driver/Inc/stm32l0xx_ll_rcc.h **** #define LL_RCC_MSIRANGE_0                  RCC_ICSCR_MSIRANGE_0  /*!< MSI = 65.536 KHz */
 225:../../dependencies/STM32CubeL0/Drivers/STM32L0xx_HAL_Driver/Inc/stm32l0xx_ll_rcc.h **** #define LL_RCC_MSIRANGE_1                  RCC_ICSCR_MSIRANGE_1  /*!< MSI = 131.072 KHz*/
 226:../../dependencies/STM32CubeL0/Drivers/STM32L0xx_HAL_Driver/Inc/stm32l0xx_ll_rcc.h **** #define LL_RCC_MSIRANGE_2                  RCC_ICSCR_MSIRANGE_2  /*!< MSI = 262.144 KHz */
 227:../../dependencies/STM32CubeL0/Drivers/STM32L0xx_HAL_Driver/Inc/stm32l0xx_ll_rcc.h **** #define LL_RCC_MSIRANGE_3                  RCC_ICSCR_MSIRANGE_3  /*!< MSI = 524.288 KHz */
 228:../../dependencies/STM32CubeL0/Drivers/STM32L0xx_HAL_Driver/Inc/stm32l0xx_ll_rcc.h **** #define LL_RCC_MSIRANGE_4                  RCC_ICSCR_MSIRANGE_4  /*!< MSI = 1.048 MHz */
 229:../../dependencies/STM32CubeL0/Drivers/STM32L0xx_HAL_Driver/Inc/stm32l0xx_ll_rcc.h **** #define LL_RCC_MSIRANGE_5                  RCC_ICSCR_MSIRANGE_5  /*!< MSI = 2.097 MHz */
 230:../../dependencies/STM32CubeL0/Drivers/STM32L0xx_HAL_Driver/Inc/stm32l0xx_ll_rcc.h **** #define LL_RCC_MSIRANGE_6                  RCC_ICSCR_MSIRANGE_6  /*!< MSI = 4.194 MHz */
 231:../../dependencies/STM32CubeL0/Drivers/STM32L0xx_HAL_Driver/Inc/stm32l0xx_ll_rcc.h **** /**
 232:../../dependencies/STM32CubeL0/Drivers/STM32L0xx_HAL_Driver/Inc/stm32l0xx_ll_rcc.h ****   * @}
 233:../../dependencies/STM32CubeL0/Drivers/STM32L0xx_HAL_Driver/Inc/stm32l0xx_ll_rcc.h ****   */
 234:../../dependencies/STM32CubeL0/Drivers/STM32L0xx_HAL_Driver/Inc/stm32l0xx_ll_rcc.h **** 
 235:../../dependencies/STM32CubeL0/Drivers/STM32L0xx_HAL_Driver/Inc/stm32l0xx_ll_rcc.h **** /** @defgroup RCC_LL_EC_SYS_CLKSOURCE  System clock switch
 236:../../dependencies/STM32CubeL0/Drivers/STM32L0xx_HAL_Driver/Inc/stm32l0xx_ll_rcc.h ****   * @{
 237:../../dependencies/STM32CubeL0/Drivers/STM32L0xx_HAL_Driver/Inc/stm32l0xx_ll_rcc.h ****   */
 238:../../dependencies/STM32CubeL0/Drivers/STM32L0xx_HAL_Driver/Inc/stm32l0xx_ll_rcc.h **** #define LL_RCC_SYS_CLKSOURCE_MSI           RCC_CFGR_SW_MSI    /*!< MSI selection as system clock */
 239:../../dependencies/STM32CubeL0/Drivers/STM32L0xx_HAL_Driver/Inc/stm32l0xx_ll_rcc.h **** #define LL_RCC_SYS_CLKSOURCE_HSI           RCC_CFGR_SW_HSI    /*!< HSI selection as system clock */
 240:../../dependencies/STM32CubeL0/Drivers/STM32L0xx_HAL_Driver/Inc/stm32l0xx_ll_rcc.h **** #define LL_RCC_SYS_CLKSOURCE_HSE           RCC_CFGR_SW_HSE    /*!< HSE selection as system clock */
 241:../../dependencies/STM32CubeL0/Drivers/STM32L0xx_HAL_Driver/Inc/stm32l0xx_ll_rcc.h **** #define LL_RCC_SYS_CLKSOURCE_PLL           RCC_CFGR_SW_PLL    /*!< PLL selection as system clock */
ARM GAS  /tmp/ccpljSGR.s 			page 27


 242:../../dependencies/STM32CubeL0/Drivers/STM32L0xx_HAL_Driver/Inc/stm32l0xx_ll_rcc.h **** /**
 243:../../dependencies/STM32CubeL0/Drivers/STM32L0xx_HAL_Driver/Inc/stm32l0xx_ll_rcc.h ****   * @}
 244:../../dependencies/STM32CubeL0/Drivers/STM32L0xx_HAL_Driver/Inc/stm32l0xx_ll_rcc.h ****   */
 245:../../dependencies/STM32CubeL0/Drivers/STM32L0xx_HAL_Driver/Inc/stm32l0xx_ll_rcc.h **** 
 246:../../dependencies/STM32CubeL0/Drivers/STM32L0xx_HAL_Driver/Inc/stm32l0xx_ll_rcc.h **** /** @defgroup RCC_LL_EC_SYS_CLKSOURCE_STATUS  System clock switch status
 247:../../dependencies/STM32CubeL0/Drivers/STM32L0xx_HAL_Driver/Inc/stm32l0xx_ll_rcc.h ****   * @{
 248:../../dependencies/STM32CubeL0/Drivers/STM32L0xx_HAL_Driver/Inc/stm32l0xx_ll_rcc.h ****   */
 249:../../dependencies/STM32CubeL0/Drivers/STM32L0xx_HAL_Driver/Inc/stm32l0xx_ll_rcc.h **** #define LL_RCC_SYS_CLKSOURCE_STATUS_MSI    RCC_CFGR_SWS_MSI   /*!< MSI used as system clock */
 250:../../dependencies/STM32CubeL0/Drivers/STM32L0xx_HAL_Driver/Inc/stm32l0xx_ll_rcc.h **** #define LL_RCC_SYS_CLKSOURCE_STATUS_HSI    RCC_CFGR_SWS_HSI   /*!< HSI used as system clock */
 251:../../dependencies/STM32CubeL0/Drivers/STM32L0xx_HAL_Driver/Inc/stm32l0xx_ll_rcc.h **** #define LL_RCC_SYS_CLKSOURCE_STATUS_HSE    RCC_CFGR_SWS_HSE   /*!< HSE used as system clock */
 252:../../dependencies/STM32CubeL0/Drivers/STM32L0xx_HAL_Driver/Inc/stm32l0xx_ll_rcc.h **** #define LL_RCC_SYS_CLKSOURCE_STATUS_PLL    RCC_CFGR_SWS_PLL   /*!< PLL used as system clock */
 253:../../dependencies/STM32CubeL0/Drivers/STM32L0xx_HAL_Driver/Inc/stm32l0xx_ll_rcc.h **** /**
 254:../../dependencies/STM32CubeL0/Drivers/STM32L0xx_HAL_Driver/Inc/stm32l0xx_ll_rcc.h ****   * @}
 255:../../dependencies/STM32CubeL0/Drivers/STM32L0xx_HAL_Driver/Inc/stm32l0xx_ll_rcc.h ****   */
 256:../../dependencies/STM32CubeL0/Drivers/STM32L0xx_HAL_Driver/Inc/stm32l0xx_ll_rcc.h **** 
 257:../../dependencies/STM32CubeL0/Drivers/STM32L0xx_HAL_Driver/Inc/stm32l0xx_ll_rcc.h **** /** @defgroup RCC_LL_EC_SYSCLK_DIV  AHB prescaler
 258:../../dependencies/STM32CubeL0/Drivers/STM32L0xx_HAL_Driver/Inc/stm32l0xx_ll_rcc.h ****   * @{
 259:../../dependencies/STM32CubeL0/Drivers/STM32L0xx_HAL_Driver/Inc/stm32l0xx_ll_rcc.h ****   */
 260:../../dependencies/STM32CubeL0/Drivers/STM32L0xx_HAL_Driver/Inc/stm32l0xx_ll_rcc.h **** #define LL_RCC_SYSCLK_DIV_1                RCC_CFGR_HPRE_DIV1   /*!< SYSCLK not divided */
 261:../../dependencies/STM32CubeL0/Drivers/STM32L0xx_HAL_Driver/Inc/stm32l0xx_ll_rcc.h **** #define LL_RCC_SYSCLK_DIV_2                RCC_CFGR_HPRE_DIV2   /*!< SYSCLK divided by 2 */
 262:../../dependencies/STM32CubeL0/Drivers/STM32L0xx_HAL_Driver/Inc/stm32l0xx_ll_rcc.h **** #define LL_RCC_SYSCLK_DIV_4                RCC_CFGR_HPRE_DIV4   /*!< SYSCLK divided by 4 */
 263:../../dependencies/STM32CubeL0/Drivers/STM32L0xx_HAL_Driver/Inc/stm32l0xx_ll_rcc.h **** #define LL_RCC_SYSCLK_DIV_8                RCC_CFGR_HPRE_DIV8   /*!< SYSCLK divided by 8 */
 264:../../dependencies/STM32CubeL0/Drivers/STM32L0xx_HAL_Driver/Inc/stm32l0xx_ll_rcc.h **** #define LL_RCC_SYSCLK_DIV_16               RCC_CFGR_HPRE_DIV16  /*!< SYSCLK divided by 16 */
 265:../../dependencies/STM32CubeL0/Drivers/STM32L0xx_HAL_Driver/Inc/stm32l0xx_ll_rcc.h **** #define LL_RCC_SYSCLK_DIV_64               RCC_CFGR_HPRE_DIV64  /*!< SYSCLK divided by 64 */
 266:../../dependencies/STM32CubeL0/Drivers/STM32L0xx_HAL_Driver/Inc/stm32l0xx_ll_rcc.h **** #define LL_RCC_SYSCLK_DIV_128              RCC_CFGR_HPRE_DIV128 /*!< SYSCLK divided by 128 */
 267:../../dependencies/STM32CubeL0/Drivers/STM32L0xx_HAL_Driver/Inc/stm32l0xx_ll_rcc.h **** #define LL_RCC_SYSCLK_DIV_256              RCC_CFGR_HPRE_DIV256 /*!< SYSCLK divided by 256 */
 268:../../dependencies/STM32CubeL0/Drivers/STM32L0xx_HAL_Driver/Inc/stm32l0xx_ll_rcc.h **** #define LL_RCC_SYSCLK_DIV_512              RCC_CFGR_HPRE_DIV512 /*!< SYSCLK divided by 512 */
 269:../../dependencies/STM32CubeL0/Drivers/STM32L0xx_HAL_Driver/Inc/stm32l0xx_ll_rcc.h **** /**
 270:../../dependencies/STM32CubeL0/Drivers/STM32L0xx_HAL_Driver/Inc/stm32l0xx_ll_rcc.h ****   * @}
 271:../../dependencies/STM32CubeL0/Drivers/STM32L0xx_HAL_Driver/Inc/stm32l0xx_ll_rcc.h ****   */
 272:../../dependencies/STM32CubeL0/Drivers/STM32L0xx_HAL_Driver/Inc/stm32l0xx_ll_rcc.h **** 
 273:../../dependencies/STM32CubeL0/Drivers/STM32L0xx_HAL_Driver/Inc/stm32l0xx_ll_rcc.h **** /** @defgroup RCC_LL_EC_APB1_DIV  APB low-speed prescaler (APB1)
 274:../../dependencies/STM32CubeL0/Drivers/STM32L0xx_HAL_Driver/Inc/stm32l0xx_ll_rcc.h ****   * @{
 275:../../dependencies/STM32CubeL0/Drivers/STM32L0xx_HAL_Driver/Inc/stm32l0xx_ll_rcc.h ****   */
 276:../../dependencies/STM32CubeL0/Drivers/STM32L0xx_HAL_Driver/Inc/stm32l0xx_ll_rcc.h **** #define LL_RCC_APB1_DIV_1                  RCC_CFGR_PPRE1_DIV1  /*!< HCLK not divided */
 277:../../dependencies/STM32CubeL0/Drivers/STM32L0xx_HAL_Driver/Inc/stm32l0xx_ll_rcc.h **** #define LL_RCC_APB1_DIV_2                  RCC_CFGR_PPRE1_DIV2  /*!< HCLK divided by 2 */
 278:../../dependencies/STM32CubeL0/Drivers/STM32L0xx_HAL_Driver/Inc/stm32l0xx_ll_rcc.h **** #define LL_RCC_APB1_DIV_4                  RCC_CFGR_PPRE1_DIV4  /*!< HCLK divided by 4 */
 279:../../dependencies/STM32CubeL0/Drivers/STM32L0xx_HAL_Driver/Inc/stm32l0xx_ll_rcc.h **** #define LL_RCC_APB1_DIV_8                  RCC_CFGR_PPRE1_DIV8  /*!< HCLK divided by 8 */
 280:../../dependencies/STM32CubeL0/Drivers/STM32L0xx_HAL_Driver/Inc/stm32l0xx_ll_rcc.h **** #define LL_RCC_APB1_DIV_16                 RCC_CFGR_PPRE1_DIV16 /*!< HCLK divided by 16 */
 281:../../dependencies/STM32CubeL0/Drivers/STM32L0xx_HAL_Driver/Inc/stm32l0xx_ll_rcc.h **** /**
 282:../../dependencies/STM32CubeL0/Drivers/STM32L0xx_HAL_Driver/Inc/stm32l0xx_ll_rcc.h ****   * @}
 283:../../dependencies/STM32CubeL0/Drivers/STM32L0xx_HAL_Driver/Inc/stm32l0xx_ll_rcc.h ****   */
 284:../../dependencies/STM32CubeL0/Drivers/STM32L0xx_HAL_Driver/Inc/stm32l0xx_ll_rcc.h **** 
 285:../../dependencies/STM32CubeL0/Drivers/STM32L0xx_HAL_Driver/Inc/stm32l0xx_ll_rcc.h **** /** @defgroup RCC_LL_EC_APB2_DIV  APB high-speed prescaler (APB2)
 286:../../dependencies/STM32CubeL0/Drivers/STM32L0xx_HAL_Driver/Inc/stm32l0xx_ll_rcc.h ****   * @{
 287:../../dependencies/STM32CubeL0/Drivers/STM32L0xx_HAL_Driver/Inc/stm32l0xx_ll_rcc.h ****   */
 288:../../dependencies/STM32CubeL0/Drivers/STM32L0xx_HAL_Driver/Inc/stm32l0xx_ll_rcc.h **** #define LL_RCC_APB2_DIV_1                  RCC_CFGR_PPRE2_DIV1  /*!< HCLK not divided */
 289:../../dependencies/STM32CubeL0/Drivers/STM32L0xx_HAL_Driver/Inc/stm32l0xx_ll_rcc.h **** #define LL_RCC_APB2_DIV_2                  RCC_CFGR_PPRE2_DIV2  /*!< HCLK divided by 2 */
 290:../../dependencies/STM32CubeL0/Drivers/STM32L0xx_HAL_Driver/Inc/stm32l0xx_ll_rcc.h **** #define LL_RCC_APB2_DIV_4                  RCC_CFGR_PPRE2_DIV4  /*!< HCLK divided by 4 */
 291:../../dependencies/STM32CubeL0/Drivers/STM32L0xx_HAL_Driver/Inc/stm32l0xx_ll_rcc.h **** #define LL_RCC_APB2_DIV_8                  RCC_CFGR_PPRE2_DIV8  /*!< HCLK divided by 8 */
 292:../../dependencies/STM32CubeL0/Drivers/STM32L0xx_HAL_Driver/Inc/stm32l0xx_ll_rcc.h **** #define LL_RCC_APB2_DIV_16                 RCC_CFGR_PPRE2_DIV16 /*!< HCLK divided by 16 */
 293:../../dependencies/STM32CubeL0/Drivers/STM32L0xx_HAL_Driver/Inc/stm32l0xx_ll_rcc.h **** /**
 294:../../dependencies/STM32CubeL0/Drivers/STM32L0xx_HAL_Driver/Inc/stm32l0xx_ll_rcc.h ****   * @}
 295:../../dependencies/STM32CubeL0/Drivers/STM32L0xx_HAL_Driver/Inc/stm32l0xx_ll_rcc.h ****   */
 296:../../dependencies/STM32CubeL0/Drivers/STM32L0xx_HAL_Driver/Inc/stm32l0xx_ll_rcc.h **** 
 297:../../dependencies/STM32CubeL0/Drivers/STM32L0xx_HAL_Driver/Inc/stm32l0xx_ll_rcc.h **** /** @defgroup RCC_LL_EC_STOP_WAKEUPCLOCK  Wakeup from Stop and CSS backup clock selection
 298:../../dependencies/STM32CubeL0/Drivers/STM32L0xx_HAL_Driver/Inc/stm32l0xx_ll_rcc.h ****   * @{
ARM GAS  /tmp/ccpljSGR.s 			page 28


 299:../../dependencies/STM32CubeL0/Drivers/STM32L0xx_HAL_Driver/Inc/stm32l0xx_ll_rcc.h ****   */
 300:../../dependencies/STM32CubeL0/Drivers/STM32L0xx_HAL_Driver/Inc/stm32l0xx_ll_rcc.h **** #define LL_RCC_STOP_WAKEUPCLOCK_MSI        (0x00000000U) /*!< MSI selection after wake-up from STOP
 301:../../dependencies/STM32CubeL0/Drivers/STM32L0xx_HAL_Driver/Inc/stm32l0xx_ll_rcc.h **** #define LL_RCC_STOP_WAKEUPCLOCK_HSI        RCC_CFGR_STOPWUCK       /*!< HSI selection after wake-up
 302:../../dependencies/STM32CubeL0/Drivers/STM32L0xx_HAL_Driver/Inc/stm32l0xx_ll_rcc.h **** /**
 303:../../dependencies/STM32CubeL0/Drivers/STM32L0xx_HAL_Driver/Inc/stm32l0xx_ll_rcc.h ****   * @}
 304:../../dependencies/STM32CubeL0/Drivers/STM32L0xx_HAL_Driver/Inc/stm32l0xx_ll_rcc.h ****   */
 305:../../dependencies/STM32CubeL0/Drivers/STM32L0xx_HAL_Driver/Inc/stm32l0xx_ll_rcc.h **** 
 306:../../dependencies/STM32CubeL0/Drivers/STM32L0xx_HAL_Driver/Inc/stm32l0xx_ll_rcc.h **** /** @defgroup RCC_LL_EC_MCO1SOURCE  MCO1 SOURCE selection
 307:../../dependencies/STM32CubeL0/Drivers/STM32L0xx_HAL_Driver/Inc/stm32l0xx_ll_rcc.h ****   * @{
 308:../../dependencies/STM32CubeL0/Drivers/STM32L0xx_HAL_Driver/Inc/stm32l0xx_ll_rcc.h ****   */
 309:../../dependencies/STM32CubeL0/Drivers/STM32L0xx_HAL_Driver/Inc/stm32l0xx_ll_rcc.h **** #define LL_RCC_MCO1SOURCE_NOCLOCK          RCC_CFGR_MCOSEL_NOCLOCK      /*!< MCO output disabled, n
 310:../../dependencies/STM32CubeL0/Drivers/STM32L0xx_HAL_Driver/Inc/stm32l0xx_ll_rcc.h **** #define LL_RCC_MCO1SOURCE_SYSCLK           RCC_CFGR_MCOSEL_SYSCLK       /*!< SYSCLK selection as MC
 311:../../dependencies/STM32CubeL0/Drivers/STM32L0xx_HAL_Driver/Inc/stm32l0xx_ll_rcc.h **** #define LL_RCC_MCO1SOURCE_HSI              RCC_CFGR_MCOSEL_HSI          /*!< HSI selection as MCO s
 312:../../dependencies/STM32CubeL0/Drivers/STM32L0xx_HAL_Driver/Inc/stm32l0xx_ll_rcc.h **** #define LL_RCC_MCO1SOURCE_MSI              RCC_CFGR_MCOSEL_MSI          /*!< MSI selection as MCO s
 313:../../dependencies/STM32CubeL0/Drivers/STM32L0xx_HAL_Driver/Inc/stm32l0xx_ll_rcc.h **** #define LL_RCC_MCO1SOURCE_HSE              RCC_CFGR_MCOSEL_HSE          /*!< HSE selection as MCO s
 314:../../dependencies/STM32CubeL0/Drivers/STM32L0xx_HAL_Driver/Inc/stm32l0xx_ll_rcc.h **** #define LL_RCC_MCO1SOURCE_LSI              RCC_CFGR_MCOSEL_LSI          /*!< LSI selection as MCO s
 315:../../dependencies/STM32CubeL0/Drivers/STM32L0xx_HAL_Driver/Inc/stm32l0xx_ll_rcc.h **** #define LL_RCC_MCO1SOURCE_LSE              RCC_CFGR_MCOSEL_LSE          /*!< LSE selection as MCO s
 316:../../dependencies/STM32CubeL0/Drivers/STM32L0xx_HAL_Driver/Inc/stm32l0xx_ll_rcc.h **** #if defined(RCC_CFGR_MCOSEL_HSI48)
 317:../../dependencies/STM32CubeL0/Drivers/STM32L0xx_HAL_Driver/Inc/stm32l0xx_ll_rcc.h **** #define LL_RCC_MCO1SOURCE_HSI48            RCC_CFGR_MCOSEL_HSI48        /*!< HSI48 selection as MCO
 318:../../dependencies/STM32CubeL0/Drivers/STM32L0xx_HAL_Driver/Inc/stm32l0xx_ll_rcc.h **** #endif /* RCC_CFGR_MCOSEL_HSI48 */
 319:../../dependencies/STM32CubeL0/Drivers/STM32L0xx_HAL_Driver/Inc/stm32l0xx_ll_rcc.h **** #define LL_RCC_MCO1SOURCE_PLLCLK           RCC_CFGR_MCOSEL_PLL          /*!< PLLCLK selection as MC
 320:../../dependencies/STM32CubeL0/Drivers/STM32L0xx_HAL_Driver/Inc/stm32l0xx_ll_rcc.h **** /**
 321:../../dependencies/STM32CubeL0/Drivers/STM32L0xx_HAL_Driver/Inc/stm32l0xx_ll_rcc.h ****   * @}
 322:../../dependencies/STM32CubeL0/Drivers/STM32L0xx_HAL_Driver/Inc/stm32l0xx_ll_rcc.h ****   */
 323:../../dependencies/STM32CubeL0/Drivers/STM32L0xx_HAL_Driver/Inc/stm32l0xx_ll_rcc.h **** 
 324:../../dependencies/STM32CubeL0/Drivers/STM32L0xx_HAL_Driver/Inc/stm32l0xx_ll_rcc.h **** /** @defgroup RCC_LL_EC_MCO1_DIV  MCO1 prescaler
 325:../../dependencies/STM32CubeL0/Drivers/STM32L0xx_HAL_Driver/Inc/stm32l0xx_ll_rcc.h ****   * @{
 326:../../dependencies/STM32CubeL0/Drivers/STM32L0xx_HAL_Driver/Inc/stm32l0xx_ll_rcc.h ****   */
 327:../../dependencies/STM32CubeL0/Drivers/STM32L0xx_HAL_Driver/Inc/stm32l0xx_ll_rcc.h **** #define LL_RCC_MCO1_DIV_1                  RCC_CFGR_MCOPRE_DIV1  /*!< MCO Clock divided by 1  */
 328:../../dependencies/STM32CubeL0/Drivers/STM32L0xx_HAL_Driver/Inc/stm32l0xx_ll_rcc.h **** #define LL_RCC_MCO1_DIV_2                  RCC_CFGR_MCOPRE_DIV2  /*!< MCO Clock divided by 2  */
 329:../../dependencies/STM32CubeL0/Drivers/STM32L0xx_HAL_Driver/Inc/stm32l0xx_ll_rcc.h **** #define LL_RCC_MCO1_DIV_4                  RCC_CFGR_MCOPRE_DIV4  /*!< MCO Clock divided by 4  */
 330:../../dependencies/STM32CubeL0/Drivers/STM32L0xx_HAL_Driver/Inc/stm32l0xx_ll_rcc.h **** #define LL_RCC_MCO1_DIV_8                  RCC_CFGR_MCOPRE_DIV8  /*!< MCO Clock divided by 8  */
 331:../../dependencies/STM32CubeL0/Drivers/STM32L0xx_HAL_Driver/Inc/stm32l0xx_ll_rcc.h **** #define LL_RCC_MCO1_DIV_16                 RCC_CFGR_MCOPRE_DIV16 /*!< MCO Clock divided by 16 */
 332:../../dependencies/STM32CubeL0/Drivers/STM32L0xx_HAL_Driver/Inc/stm32l0xx_ll_rcc.h **** /**
 333:../../dependencies/STM32CubeL0/Drivers/STM32L0xx_HAL_Driver/Inc/stm32l0xx_ll_rcc.h ****   * @}
 334:../../dependencies/STM32CubeL0/Drivers/STM32L0xx_HAL_Driver/Inc/stm32l0xx_ll_rcc.h ****   */
 335:../../dependencies/STM32CubeL0/Drivers/STM32L0xx_HAL_Driver/Inc/stm32l0xx_ll_rcc.h **** #if defined(USE_FULL_LL_DRIVER)
 336:../../dependencies/STM32CubeL0/Drivers/STM32L0xx_HAL_Driver/Inc/stm32l0xx_ll_rcc.h **** /** @defgroup RCC_LL_EC_PERIPH_FREQUENCY Peripheral clock frequency
 337:../../dependencies/STM32CubeL0/Drivers/STM32L0xx_HAL_Driver/Inc/stm32l0xx_ll_rcc.h ****   * @{
 338:../../dependencies/STM32CubeL0/Drivers/STM32L0xx_HAL_Driver/Inc/stm32l0xx_ll_rcc.h ****   */
 339:../../dependencies/STM32CubeL0/Drivers/STM32L0xx_HAL_Driver/Inc/stm32l0xx_ll_rcc.h **** #define LL_RCC_PERIPH_FREQUENCY_NO         0x00000000U      /*!< No clock enabled for the periphera
 340:../../dependencies/STM32CubeL0/Drivers/STM32L0xx_HAL_Driver/Inc/stm32l0xx_ll_rcc.h **** #define LL_RCC_PERIPH_FREQUENCY_NA         0xFFFFFFFFU      /*!< Frequency cannot be provided as ex
 341:../../dependencies/STM32CubeL0/Drivers/STM32L0xx_HAL_Driver/Inc/stm32l0xx_ll_rcc.h **** /**
 342:../../dependencies/STM32CubeL0/Drivers/STM32L0xx_HAL_Driver/Inc/stm32l0xx_ll_rcc.h ****   * @}
 343:../../dependencies/STM32CubeL0/Drivers/STM32L0xx_HAL_Driver/Inc/stm32l0xx_ll_rcc.h ****   */
 344:../../dependencies/STM32CubeL0/Drivers/STM32L0xx_HAL_Driver/Inc/stm32l0xx_ll_rcc.h **** #endif /* USE_FULL_LL_DRIVER */
 345:../../dependencies/STM32CubeL0/Drivers/STM32L0xx_HAL_Driver/Inc/stm32l0xx_ll_rcc.h **** 
 346:../../dependencies/STM32CubeL0/Drivers/STM32L0xx_HAL_Driver/Inc/stm32l0xx_ll_rcc.h **** /** @defgroup RCC_LL_EC_USART1_CLKSOURCE  Peripheral USART clock source selection
 347:../../dependencies/STM32CubeL0/Drivers/STM32L0xx_HAL_Driver/Inc/stm32l0xx_ll_rcc.h ****   * @{
 348:../../dependencies/STM32CubeL0/Drivers/STM32L0xx_HAL_Driver/Inc/stm32l0xx_ll_rcc.h ****   */
 349:../../dependencies/STM32CubeL0/Drivers/STM32L0xx_HAL_Driver/Inc/stm32l0xx_ll_rcc.h **** #if defined(RCC_CCIPR_USART1SEL)
 350:../../dependencies/STM32CubeL0/Drivers/STM32L0xx_HAL_Driver/Inc/stm32l0xx_ll_rcc.h **** #define LL_RCC_USART1_CLKSOURCE_PCLK2      (uint32_t)((RCC_CCIPR_USART1SEL << 16U) | 0x00000000U)  
 351:../../dependencies/STM32CubeL0/Drivers/STM32L0xx_HAL_Driver/Inc/stm32l0xx_ll_rcc.h **** #define LL_RCC_USART1_CLKSOURCE_SYSCLK     (uint32_t)((RCC_CCIPR_USART1SEL << 16U) | RCC_CCIPR_USAR
 352:../../dependencies/STM32CubeL0/Drivers/STM32L0xx_HAL_Driver/Inc/stm32l0xx_ll_rcc.h **** #define LL_RCC_USART1_CLKSOURCE_HSI        (uint32_t)((RCC_CCIPR_USART1SEL << 16U) | RCC_CCIPR_USAR
 353:../../dependencies/STM32CubeL0/Drivers/STM32L0xx_HAL_Driver/Inc/stm32l0xx_ll_rcc.h **** #define LL_RCC_USART1_CLKSOURCE_LSE        (uint32_t)((RCC_CCIPR_USART1SEL << 16U) | RCC_CCIPR_USAR
 354:../../dependencies/STM32CubeL0/Drivers/STM32L0xx_HAL_Driver/Inc/stm32l0xx_ll_rcc.h **** #endif /* RCC_CCIPR_USART1SEL */
 355:../../dependencies/STM32CubeL0/Drivers/STM32L0xx_HAL_Driver/Inc/stm32l0xx_ll_rcc.h **** #define LL_RCC_USART2_CLKSOURCE_PCLK1      (uint32_t)((RCC_CCIPR_USART2SEL << 16U) | 0x00000000U)  
ARM GAS  /tmp/ccpljSGR.s 			page 29


 356:../../dependencies/STM32CubeL0/Drivers/STM32L0xx_HAL_Driver/Inc/stm32l0xx_ll_rcc.h **** #define LL_RCC_USART2_CLKSOURCE_SYSCLK     (uint32_t)((RCC_CCIPR_USART2SEL << 16U) | RCC_CCIPR_USAR
 357:../../dependencies/STM32CubeL0/Drivers/STM32L0xx_HAL_Driver/Inc/stm32l0xx_ll_rcc.h **** #define LL_RCC_USART2_CLKSOURCE_HSI        (uint32_t)((RCC_CCIPR_USART2SEL << 16U) | RCC_CCIPR_USAR
 358:../../dependencies/STM32CubeL0/Drivers/STM32L0xx_HAL_Driver/Inc/stm32l0xx_ll_rcc.h **** #define LL_RCC_USART2_CLKSOURCE_LSE        (uint32_t)((RCC_CCIPR_USART2SEL << 16U) | RCC_CCIPR_USAR
 359:../../dependencies/STM32CubeL0/Drivers/STM32L0xx_HAL_Driver/Inc/stm32l0xx_ll_rcc.h **** /**
 360:../../dependencies/STM32CubeL0/Drivers/STM32L0xx_HAL_Driver/Inc/stm32l0xx_ll_rcc.h ****   * @}
 361:../../dependencies/STM32CubeL0/Drivers/STM32L0xx_HAL_Driver/Inc/stm32l0xx_ll_rcc.h ****   */
 362:../../dependencies/STM32CubeL0/Drivers/STM32L0xx_HAL_Driver/Inc/stm32l0xx_ll_rcc.h **** 
 363:../../dependencies/STM32CubeL0/Drivers/STM32L0xx_HAL_Driver/Inc/stm32l0xx_ll_rcc.h **** 
 364:../../dependencies/STM32CubeL0/Drivers/STM32L0xx_HAL_Driver/Inc/stm32l0xx_ll_rcc.h **** 
 365:../../dependencies/STM32CubeL0/Drivers/STM32L0xx_HAL_Driver/Inc/stm32l0xx_ll_rcc.h **** /** @defgroup RCC_LL_EC_LPUART1_CLKSOURCE  Peripheral LPUART clock source selection
 366:../../dependencies/STM32CubeL0/Drivers/STM32L0xx_HAL_Driver/Inc/stm32l0xx_ll_rcc.h ****   * @{
 367:../../dependencies/STM32CubeL0/Drivers/STM32L0xx_HAL_Driver/Inc/stm32l0xx_ll_rcc.h ****   */
 368:../../dependencies/STM32CubeL0/Drivers/STM32L0xx_HAL_Driver/Inc/stm32l0xx_ll_rcc.h **** #define LL_RCC_LPUART1_CLKSOURCE_PCLK1     0x00000000U   /*!< PCLK1 selected as LPUART1 clock */
 369:../../dependencies/STM32CubeL0/Drivers/STM32L0xx_HAL_Driver/Inc/stm32l0xx_ll_rcc.h **** #define LL_RCC_LPUART1_CLKSOURCE_SYSCLK    RCC_CCIPR_LPUART1SEL_0  /*!< SYSCLK selected as LPUART1 
 370:../../dependencies/STM32CubeL0/Drivers/STM32L0xx_HAL_Driver/Inc/stm32l0xx_ll_rcc.h **** #define LL_RCC_LPUART1_CLKSOURCE_HSI       RCC_CCIPR_LPUART1SEL_1  /*!< HSI selected as LPUART1 clo
 371:../../dependencies/STM32CubeL0/Drivers/STM32L0xx_HAL_Driver/Inc/stm32l0xx_ll_rcc.h **** #define LL_RCC_LPUART1_CLKSOURCE_LSE       RCC_CCIPR_LPUART1SEL    /*!< LSE selected as LPUART1 clo
 372:../../dependencies/STM32CubeL0/Drivers/STM32L0xx_HAL_Driver/Inc/stm32l0xx_ll_rcc.h **** /**
 373:../../dependencies/STM32CubeL0/Drivers/STM32L0xx_HAL_Driver/Inc/stm32l0xx_ll_rcc.h ****   * @}
 374:../../dependencies/STM32CubeL0/Drivers/STM32L0xx_HAL_Driver/Inc/stm32l0xx_ll_rcc.h ****   */
 375:../../dependencies/STM32CubeL0/Drivers/STM32L0xx_HAL_Driver/Inc/stm32l0xx_ll_rcc.h **** 
 376:../../dependencies/STM32CubeL0/Drivers/STM32L0xx_HAL_Driver/Inc/stm32l0xx_ll_rcc.h **** /** @defgroup RCC_LL_EC_I2C1_CLKSOURCE  Peripheral I2C clock source selection
 377:../../dependencies/STM32CubeL0/Drivers/STM32L0xx_HAL_Driver/Inc/stm32l0xx_ll_rcc.h ****   * @{
 378:../../dependencies/STM32CubeL0/Drivers/STM32L0xx_HAL_Driver/Inc/stm32l0xx_ll_rcc.h ****   */
 379:../../dependencies/STM32CubeL0/Drivers/STM32L0xx_HAL_Driver/Inc/stm32l0xx_ll_rcc.h **** #define LL_RCC_I2C1_CLKSOURCE_PCLK1        (uint32_t)((RCC_CCIPR_I2C1SEL << 4U) | (0x00000000U >> 4
 380:../../dependencies/STM32CubeL0/Drivers/STM32L0xx_HAL_Driver/Inc/stm32l0xx_ll_rcc.h **** #define LL_RCC_I2C1_CLKSOURCE_SYSCLK       (uint32_t)((RCC_CCIPR_I2C1SEL << 4U) | (RCC_CCIPR_I2C1SE
 381:../../dependencies/STM32CubeL0/Drivers/STM32L0xx_HAL_Driver/Inc/stm32l0xx_ll_rcc.h **** #define LL_RCC_I2C1_CLKSOURCE_HSI          (uint32_t)((RCC_CCIPR_I2C1SEL << 4U) | (RCC_CCIPR_I2C1SE
 382:../../dependencies/STM32CubeL0/Drivers/STM32L0xx_HAL_Driver/Inc/stm32l0xx_ll_rcc.h **** #if defined(RCC_CCIPR_I2C3SEL)
 383:../../dependencies/STM32CubeL0/Drivers/STM32L0xx_HAL_Driver/Inc/stm32l0xx_ll_rcc.h **** #define LL_RCC_I2C3_CLKSOURCE_PCLK1        (uint32_t)((RCC_CCIPR_I2C3SEL << 4U) | (0x00000000U >> 4
 384:../../dependencies/STM32CubeL0/Drivers/STM32L0xx_HAL_Driver/Inc/stm32l0xx_ll_rcc.h **** #define LL_RCC_I2C3_CLKSOURCE_SYSCLK       (uint32_t)((RCC_CCIPR_I2C3SEL << 4U) | (RCC_CCIPR_I2C3SE
 385:../../dependencies/STM32CubeL0/Drivers/STM32L0xx_HAL_Driver/Inc/stm32l0xx_ll_rcc.h **** #define LL_RCC_I2C3_CLKSOURCE_HSI          (uint32_t)((RCC_CCIPR_I2C3SEL << 4U) | (RCC_CCIPR_I2C3SE
 386:../../dependencies/STM32CubeL0/Drivers/STM32L0xx_HAL_Driver/Inc/stm32l0xx_ll_rcc.h **** #endif /*RCC_CCIPR_I2C3SEL*/
 387:../../dependencies/STM32CubeL0/Drivers/STM32L0xx_HAL_Driver/Inc/stm32l0xx_ll_rcc.h **** /**
 388:../../dependencies/STM32CubeL0/Drivers/STM32L0xx_HAL_Driver/Inc/stm32l0xx_ll_rcc.h ****   * @}
 389:../../dependencies/STM32CubeL0/Drivers/STM32L0xx_HAL_Driver/Inc/stm32l0xx_ll_rcc.h ****   */
 390:../../dependencies/STM32CubeL0/Drivers/STM32L0xx_HAL_Driver/Inc/stm32l0xx_ll_rcc.h **** 
 391:../../dependencies/STM32CubeL0/Drivers/STM32L0xx_HAL_Driver/Inc/stm32l0xx_ll_rcc.h **** /** @defgroup RCC_LL_EC_LPTIM1_CLKSOURCE  Peripheral LPTIM clock source selection
 392:../../dependencies/STM32CubeL0/Drivers/STM32L0xx_HAL_Driver/Inc/stm32l0xx_ll_rcc.h ****   * @{
 393:../../dependencies/STM32CubeL0/Drivers/STM32L0xx_HAL_Driver/Inc/stm32l0xx_ll_rcc.h ****   */
 394:../../dependencies/STM32CubeL0/Drivers/STM32L0xx_HAL_Driver/Inc/stm32l0xx_ll_rcc.h **** #define LL_RCC_LPTIM1_CLKSOURCE_PCLK1      (0x00000000U)          /*!< PCLK1 selected as LPTIM1 clo
 395:../../dependencies/STM32CubeL0/Drivers/STM32L0xx_HAL_Driver/Inc/stm32l0xx_ll_rcc.h **** #define LL_RCC_LPTIM1_CLKSOURCE_LSI        RCC_CCIPR_LPTIM1SEL_0  /*!< LSI selected as LPTIM1 clock
 396:../../dependencies/STM32CubeL0/Drivers/STM32L0xx_HAL_Driver/Inc/stm32l0xx_ll_rcc.h **** #define LL_RCC_LPTIM1_CLKSOURCE_HSI        RCC_CCIPR_LPTIM1SEL_1  /*!< HSI selected as LPTIM1 clock
 397:../../dependencies/STM32CubeL0/Drivers/STM32L0xx_HAL_Driver/Inc/stm32l0xx_ll_rcc.h **** #define LL_RCC_LPTIM1_CLKSOURCE_LSE        RCC_CCIPR_LPTIM1SEL    /*!< LSE selected as LPTIM1 clock
 398:../../dependencies/STM32CubeL0/Drivers/STM32L0xx_HAL_Driver/Inc/stm32l0xx_ll_rcc.h **** /**
 399:../../dependencies/STM32CubeL0/Drivers/STM32L0xx_HAL_Driver/Inc/stm32l0xx_ll_rcc.h ****   * @}
 400:../../dependencies/STM32CubeL0/Drivers/STM32L0xx_HAL_Driver/Inc/stm32l0xx_ll_rcc.h ****   */
 401:../../dependencies/STM32CubeL0/Drivers/STM32L0xx_HAL_Driver/Inc/stm32l0xx_ll_rcc.h **** 
 402:../../dependencies/STM32CubeL0/Drivers/STM32L0xx_HAL_Driver/Inc/stm32l0xx_ll_rcc.h **** #if defined(RCC_CCIPR_HSI48SEL)
 403:../../dependencies/STM32CubeL0/Drivers/STM32L0xx_HAL_Driver/Inc/stm32l0xx_ll_rcc.h **** 
 404:../../dependencies/STM32CubeL0/Drivers/STM32L0xx_HAL_Driver/Inc/stm32l0xx_ll_rcc.h **** #if defined(RNG)
 405:../../dependencies/STM32CubeL0/Drivers/STM32L0xx_HAL_Driver/Inc/stm32l0xx_ll_rcc.h **** /** @defgroup RCC_LL_EC_RNG_CLKSOURCE  Peripheral RNG clock source selection
 406:../../dependencies/STM32CubeL0/Drivers/STM32L0xx_HAL_Driver/Inc/stm32l0xx_ll_rcc.h ****   * @{
 407:../../dependencies/STM32CubeL0/Drivers/STM32L0xx_HAL_Driver/Inc/stm32l0xx_ll_rcc.h ****   */
 408:../../dependencies/STM32CubeL0/Drivers/STM32L0xx_HAL_Driver/Inc/stm32l0xx_ll_rcc.h **** #define LL_RCC_RNG_CLKSOURCE_PLL           (0x00000000U)          /*!< PLL selected as RNG clock */
 409:../../dependencies/STM32CubeL0/Drivers/STM32L0xx_HAL_Driver/Inc/stm32l0xx_ll_rcc.h **** #define LL_RCC_RNG_CLKSOURCE_HSI48         RCC_CCIPR_HSI48SEL   /*!< HSI48 selected as RNG clock*/
 410:../../dependencies/STM32CubeL0/Drivers/STM32L0xx_HAL_Driver/Inc/stm32l0xx_ll_rcc.h **** /**
 411:../../dependencies/STM32CubeL0/Drivers/STM32L0xx_HAL_Driver/Inc/stm32l0xx_ll_rcc.h ****   * @}
 412:../../dependencies/STM32CubeL0/Drivers/STM32L0xx_HAL_Driver/Inc/stm32l0xx_ll_rcc.h ****   */
ARM GAS  /tmp/ccpljSGR.s 			page 30


 413:../../dependencies/STM32CubeL0/Drivers/STM32L0xx_HAL_Driver/Inc/stm32l0xx_ll_rcc.h **** #endif /* RNG */
 414:../../dependencies/STM32CubeL0/Drivers/STM32L0xx_HAL_Driver/Inc/stm32l0xx_ll_rcc.h **** #if defined(USB)
 415:../../dependencies/STM32CubeL0/Drivers/STM32L0xx_HAL_Driver/Inc/stm32l0xx_ll_rcc.h **** /** @defgroup RCC_LL_EC_USB_CLKSOURCE  Peripheral USB clock source selection
 416:../../dependencies/STM32CubeL0/Drivers/STM32L0xx_HAL_Driver/Inc/stm32l0xx_ll_rcc.h ****   * @{
 417:../../dependencies/STM32CubeL0/Drivers/STM32L0xx_HAL_Driver/Inc/stm32l0xx_ll_rcc.h ****   */
 418:../../dependencies/STM32CubeL0/Drivers/STM32L0xx_HAL_Driver/Inc/stm32l0xx_ll_rcc.h **** #define LL_RCC_USB_CLKSOURCE_PLL           (0x00000000U)          /*!< PLL selected as USB clock */
 419:../../dependencies/STM32CubeL0/Drivers/STM32L0xx_HAL_Driver/Inc/stm32l0xx_ll_rcc.h **** #define LL_RCC_USB_CLKSOURCE_HSI48         RCC_CCIPR_HSI48SEL   /*!< HSI48 selected as USB clock*/
 420:../../dependencies/STM32CubeL0/Drivers/STM32L0xx_HAL_Driver/Inc/stm32l0xx_ll_rcc.h **** /**
 421:../../dependencies/STM32CubeL0/Drivers/STM32L0xx_HAL_Driver/Inc/stm32l0xx_ll_rcc.h ****   * @}
 422:../../dependencies/STM32CubeL0/Drivers/STM32L0xx_HAL_Driver/Inc/stm32l0xx_ll_rcc.h ****   */
 423:../../dependencies/STM32CubeL0/Drivers/STM32L0xx_HAL_Driver/Inc/stm32l0xx_ll_rcc.h **** 
 424:../../dependencies/STM32CubeL0/Drivers/STM32L0xx_HAL_Driver/Inc/stm32l0xx_ll_rcc.h **** #endif /* USB */
 425:../../dependencies/STM32CubeL0/Drivers/STM32L0xx_HAL_Driver/Inc/stm32l0xx_ll_rcc.h **** #endif /* RCC_CCIPR_HSI48SEL */
 426:../../dependencies/STM32CubeL0/Drivers/STM32L0xx_HAL_Driver/Inc/stm32l0xx_ll_rcc.h **** 
 427:../../dependencies/STM32CubeL0/Drivers/STM32L0xx_HAL_Driver/Inc/stm32l0xx_ll_rcc.h **** 
 428:../../dependencies/STM32CubeL0/Drivers/STM32L0xx_HAL_Driver/Inc/stm32l0xx_ll_rcc.h **** /** @defgroup RCC_LL_EC_USART1 Peripheral USART get clock source
 429:../../dependencies/STM32CubeL0/Drivers/STM32L0xx_HAL_Driver/Inc/stm32l0xx_ll_rcc.h ****   * @{
 430:../../dependencies/STM32CubeL0/Drivers/STM32L0xx_HAL_Driver/Inc/stm32l0xx_ll_rcc.h ****   */
 431:../../dependencies/STM32CubeL0/Drivers/STM32L0xx_HAL_Driver/Inc/stm32l0xx_ll_rcc.h **** #if defined(RCC_CCIPR_USART1SEL)
 432:../../dependencies/STM32CubeL0/Drivers/STM32L0xx_HAL_Driver/Inc/stm32l0xx_ll_rcc.h **** #define LL_RCC_USART1_CLKSOURCE            RCC_CCIPR_USART1SEL    /*!< USART1 clock source selectio
 433:../../dependencies/STM32CubeL0/Drivers/STM32L0xx_HAL_Driver/Inc/stm32l0xx_ll_rcc.h **** #endif /* RCC_CCIPR_USART1SEL */
 434:../../dependencies/STM32CubeL0/Drivers/STM32L0xx_HAL_Driver/Inc/stm32l0xx_ll_rcc.h **** #define LL_RCC_USART2_CLKSOURCE            RCC_CCIPR_USART2SEL    /*!< USART2 clock source selectio
 435:../../dependencies/STM32CubeL0/Drivers/STM32L0xx_HAL_Driver/Inc/stm32l0xx_ll_rcc.h **** /**
 436:../../dependencies/STM32CubeL0/Drivers/STM32L0xx_HAL_Driver/Inc/stm32l0xx_ll_rcc.h ****   * @}
 437:../../dependencies/STM32CubeL0/Drivers/STM32L0xx_HAL_Driver/Inc/stm32l0xx_ll_rcc.h ****   */
 438:../../dependencies/STM32CubeL0/Drivers/STM32L0xx_HAL_Driver/Inc/stm32l0xx_ll_rcc.h **** 
 439:../../dependencies/STM32CubeL0/Drivers/STM32L0xx_HAL_Driver/Inc/stm32l0xx_ll_rcc.h **** 
 440:../../dependencies/STM32CubeL0/Drivers/STM32L0xx_HAL_Driver/Inc/stm32l0xx_ll_rcc.h **** /** @defgroup RCC_LL_EC_LPUART1 Peripheral LPUART get clock source
 441:../../dependencies/STM32CubeL0/Drivers/STM32L0xx_HAL_Driver/Inc/stm32l0xx_ll_rcc.h ****   * @{
 442:../../dependencies/STM32CubeL0/Drivers/STM32L0xx_HAL_Driver/Inc/stm32l0xx_ll_rcc.h ****   */
 443:../../dependencies/STM32CubeL0/Drivers/STM32L0xx_HAL_Driver/Inc/stm32l0xx_ll_rcc.h **** #define LL_RCC_LPUART1_CLKSOURCE           RCC_CCIPR_LPUART1SEL   /*!< LPUART1 clock source selecti
 444:../../dependencies/STM32CubeL0/Drivers/STM32L0xx_HAL_Driver/Inc/stm32l0xx_ll_rcc.h **** /**
 445:../../dependencies/STM32CubeL0/Drivers/STM32L0xx_HAL_Driver/Inc/stm32l0xx_ll_rcc.h ****   * @}
 446:../../dependencies/STM32CubeL0/Drivers/STM32L0xx_HAL_Driver/Inc/stm32l0xx_ll_rcc.h ****   */
 447:../../dependencies/STM32CubeL0/Drivers/STM32L0xx_HAL_Driver/Inc/stm32l0xx_ll_rcc.h **** 
 448:../../dependencies/STM32CubeL0/Drivers/STM32L0xx_HAL_Driver/Inc/stm32l0xx_ll_rcc.h **** /** @defgroup RCC_LL_EC_I2C1 Peripheral I2C get clock source
 449:../../dependencies/STM32CubeL0/Drivers/STM32L0xx_HAL_Driver/Inc/stm32l0xx_ll_rcc.h ****   * @{
 450:../../dependencies/STM32CubeL0/Drivers/STM32L0xx_HAL_Driver/Inc/stm32l0xx_ll_rcc.h ****   */
 451:../../dependencies/STM32CubeL0/Drivers/STM32L0xx_HAL_Driver/Inc/stm32l0xx_ll_rcc.h **** #define LL_RCC_I2C1_CLKSOURCE              RCC_CCIPR_I2C1SEL   /*!< I2C1 clock source selection bit
 452:../../dependencies/STM32CubeL0/Drivers/STM32L0xx_HAL_Driver/Inc/stm32l0xx_ll_rcc.h **** #if defined(RCC_CCIPR_I2C3SEL)
 453:../../dependencies/STM32CubeL0/Drivers/STM32L0xx_HAL_Driver/Inc/stm32l0xx_ll_rcc.h **** #define LL_RCC_I2C3_CLKSOURCE              RCC_CCIPR_I2C3SEL   /*!< I2C3 clock source selection bit
 454:../../dependencies/STM32CubeL0/Drivers/STM32L0xx_HAL_Driver/Inc/stm32l0xx_ll_rcc.h **** #endif /*RCC_CCIPR_I2C3SEL*/
 455:../../dependencies/STM32CubeL0/Drivers/STM32L0xx_HAL_Driver/Inc/stm32l0xx_ll_rcc.h **** /**
 456:../../dependencies/STM32CubeL0/Drivers/STM32L0xx_HAL_Driver/Inc/stm32l0xx_ll_rcc.h ****   * @}
 457:../../dependencies/STM32CubeL0/Drivers/STM32L0xx_HAL_Driver/Inc/stm32l0xx_ll_rcc.h ****   */
 458:../../dependencies/STM32CubeL0/Drivers/STM32L0xx_HAL_Driver/Inc/stm32l0xx_ll_rcc.h **** 
 459:../../dependencies/STM32CubeL0/Drivers/STM32L0xx_HAL_Driver/Inc/stm32l0xx_ll_rcc.h **** /** @defgroup RCC_LL_EC_LPTIM1 Peripheral LPTIM get clock source
 460:../../dependencies/STM32CubeL0/Drivers/STM32L0xx_HAL_Driver/Inc/stm32l0xx_ll_rcc.h ****   * @{
 461:../../dependencies/STM32CubeL0/Drivers/STM32L0xx_HAL_Driver/Inc/stm32l0xx_ll_rcc.h ****   */
 462:../../dependencies/STM32CubeL0/Drivers/STM32L0xx_HAL_Driver/Inc/stm32l0xx_ll_rcc.h **** #define LL_RCC_LPTIM1_CLKSOURCE            RCC_CCIPR_LPTIM1SEL  /*!< LPTIM1 clock source selection 
 463:../../dependencies/STM32CubeL0/Drivers/STM32L0xx_HAL_Driver/Inc/stm32l0xx_ll_rcc.h **** /**
 464:../../dependencies/STM32CubeL0/Drivers/STM32L0xx_HAL_Driver/Inc/stm32l0xx_ll_rcc.h ****   * @}
 465:../../dependencies/STM32CubeL0/Drivers/STM32L0xx_HAL_Driver/Inc/stm32l0xx_ll_rcc.h ****   */
 466:../../dependencies/STM32CubeL0/Drivers/STM32L0xx_HAL_Driver/Inc/stm32l0xx_ll_rcc.h **** 
 467:../../dependencies/STM32CubeL0/Drivers/STM32L0xx_HAL_Driver/Inc/stm32l0xx_ll_rcc.h **** #if defined(RCC_CCIPR_HSI48SEL)
 468:../../dependencies/STM32CubeL0/Drivers/STM32L0xx_HAL_Driver/Inc/stm32l0xx_ll_rcc.h **** #if defined(RNG)
 469:../../dependencies/STM32CubeL0/Drivers/STM32L0xx_HAL_Driver/Inc/stm32l0xx_ll_rcc.h **** /** @defgroup RCC_LL_EC_RNG  Peripheral RNG get clock source
ARM GAS  /tmp/ccpljSGR.s 			page 31


 470:../../dependencies/STM32CubeL0/Drivers/STM32L0xx_HAL_Driver/Inc/stm32l0xx_ll_rcc.h ****   * @{
 471:../../dependencies/STM32CubeL0/Drivers/STM32L0xx_HAL_Driver/Inc/stm32l0xx_ll_rcc.h ****   */
 472:../../dependencies/STM32CubeL0/Drivers/STM32L0xx_HAL_Driver/Inc/stm32l0xx_ll_rcc.h **** #define LL_RCC_RNG_CLKSOURCE               RCC_CCIPR_HSI48SEL   /*!< HSI48 RC clock source selectio
 473:../../dependencies/STM32CubeL0/Drivers/STM32L0xx_HAL_Driver/Inc/stm32l0xx_ll_rcc.h **** /**
 474:../../dependencies/STM32CubeL0/Drivers/STM32L0xx_HAL_Driver/Inc/stm32l0xx_ll_rcc.h ****   * @}
 475:../../dependencies/STM32CubeL0/Drivers/STM32L0xx_HAL_Driver/Inc/stm32l0xx_ll_rcc.h ****   */
 476:../../dependencies/STM32CubeL0/Drivers/STM32L0xx_HAL_Driver/Inc/stm32l0xx_ll_rcc.h **** #endif /* RNG */
 477:../../dependencies/STM32CubeL0/Drivers/STM32L0xx_HAL_Driver/Inc/stm32l0xx_ll_rcc.h **** 
 478:../../dependencies/STM32CubeL0/Drivers/STM32L0xx_HAL_Driver/Inc/stm32l0xx_ll_rcc.h **** #if defined(USB)
 479:../../dependencies/STM32CubeL0/Drivers/STM32L0xx_HAL_Driver/Inc/stm32l0xx_ll_rcc.h **** /** @defgroup RCC_LL_EC_USB  Peripheral USB get clock source
 480:../../dependencies/STM32CubeL0/Drivers/STM32L0xx_HAL_Driver/Inc/stm32l0xx_ll_rcc.h ****   * @{
 481:../../dependencies/STM32CubeL0/Drivers/STM32L0xx_HAL_Driver/Inc/stm32l0xx_ll_rcc.h ****   */
 482:../../dependencies/STM32CubeL0/Drivers/STM32L0xx_HAL_Driver/Inc/stm32l0xx_ll_rcc.h **** #define LL_RCC_USB_CLKSOURCE               RCC_CCIPR_HSI48SEL  /*!< HSI48 RC clock source selection
 483:../../dependencies/STM32CubeL0/Drivers/STM32L0xx_HAL_Driver/Inc/stm32l0xx_ll_rcc.h **** /**
 484:../../dependencies/STM32CubeL0/Drivers/STM32L0xx_HAL_Driver/Inc/stm32l0xx_ll_rcc.h ****   * @}
 485:../../dependencies/STM32CubeL0/Drivers/STM32L0xx_HAL_Driver/Inc/stm32l0xx_ll_rcc.h ****   */
 486:../../dependencies/STM32CubeL0/Drivers/STM32L0xx_HAL_Driver/Inc/stm32l0xx_ll_rcc.h **** 
 487:../../dependencies/STM32CubeL0/Drivers/STM32L0xx_HAL_Driver/Inc/stm32l0xx_ll_rcc.h **** #endif /* USB */
 488:../../dependencies/STM32CubeL0/Drivers/STM32L0xx_HAL_Driver/Inc/stm32l0xx_ll_rcc.h **** #endif /* RCC_CCIPR_HSI48SEL */
 489:../../dependencies/STM32CubeL0/Drivers/STM32L0xx_HAL_Driver/Inc/stm32l0xx_ll_rcc.h **** 
 490:../../dependencies/STM32CubeL0/Drivers/STM32L0xx_HAL_Driver/Inc/stm32l0xx_ll_rcc.h **** /** @defgroup RCC_LL_EC_RTC_CLKSOURCE  RTC clock source selection
 491:../../dependencies/STM32CubeL0/Drivers/STM32L0xx_HAL_Driver/Inc/stm32l0xx_ll_rcc.h ****   * @{
 492:../../dependencies/STM32CubeL0/Drivers/STM32L0xx_HAL_Driver/Inc/stm32l0xx_ll_rcc.h ****   */
 493:../../dependencies/STM32CubeL0/Drivers/STM32L0xx_HAL_Driver/Inc/stm32l0xx_ll_rcc.h **** #define LL_RCC_RTC_CLKSOURCE_NONE          0x00000000U         /*!< No clock used as RTC clock */
 494:../../dependencies/STM32CubeL0/Drivers/STM32L0xx_HAL_Driver/Inc/stm32l0xx_ll_rcc.h **** #define LL_RCC_RTC_CLKSOURCE_LSE           RCC_CSR_RTCSEL_LSE            /*!< LSE oscillator clock 
 495:../../dependencies/STM32CubeL0/Drivers/STM32L0xx_HAL_Driver/Inc/stm32l0xx_ll_rcc.h **** #define LL_RCC_RTC_CLKSOURCE_LSI           RCC_CSR_RTCSEL_LSI            /*!< LSI oscillator clock 
 496:../../dependencies/STM32CubeL0/Drivers/STM32L0xx_HAL_Driver/Inc/stm32l0xx_ll_rcc.h **** #define LL_RCC_RTC_CLKSOURCE_HSE           RCC_CSR_RTCSEL_HSE            /*!< HSE oscillator clock 
 497:../../dependencies/STM32CubeL0/Drivers/STM32L0xx_HAL_Driver/Inc/stm32l0xx_ll_rcc.h ****                                                                              (selection through @re
 498:../../dependencies/STM32CubeL0/Drivers/STM32L0xx_HAL_Driver/Inc/stm32l0xx_ll_rcc.h **** /**
 499:../../dependencies/STM32CubeL0/Drivers/STM32L0xx_HAL_Driver/Inc/stm32l0xx_ll_rcc.h ****   * @}
 500:../../dependencies/STM32CubeL0/Drivers/STM32L0xx_HAL_Driver/Inc/stm32l0xx_ll_rcc.h ****   */
 501:../../dependencies/STM32CubeL0/Drivers/STM32L0xx_HAL_Driver/Inc/stm32l0xx_ll_rcc.h **** 
 502:../../dependencies/STM32CubeL0/Drivers/STM32L0xx_HAL_Driver/Inc/stm32l0xx_ll_rcc.h **** /** @defgroup RCC_LL_EC_PLL_MUL PLL Multiplicator factor
 503:../../dependencies/STM32CubeL0/Drivers/STM32L0xx_HAL_Driver/Inc/stm32l0xx_ll_rcc.h ****   * @{
 504:../../dependencies/STM32CubeL0/Drivers/STM32L0xx_HAL_Driver/Inc/stm32l0xx_ll_rcc.h ****   */
 505:../../dependencies/STM32CubeL0/Drivers/STM32L0xx_HAL_Driver/Inc/stm32l0xx_ll_rcc.h **** #define LL_RCC_PLL_MUL_3                   RCC_CFGR_PLLMUL3  /*!< PLL input clock * 3  */
 506:../../dependencies/STM32CubeL0/Drivers/STM32L0xx_HAL_Driver/Inc/stm32l0xx_ll_rcc.h **** #define LL_RCC_PLL_MUL_4                   RCC_CFGR_PLLMUL4  /*!< PLL input clock * 4  */
 507:../../dependencies/STM32CubeL0/Drivers/STM32L0xx_HAL_Driver/Inc/stm32l0xx_ll_rcc.h **** #define LL_RCC_PLL_MUL_6                   RCC_CFGR_PLLMUL6  /*!< PLL input clock * 6  */
 508:../../dependencies/STM32CubeL0/Drivers/STM32L0xx_HAL_Driver/Inc/stm32l0xx_ll_rcc.h **** #define LL_RCC_PLL_MUL_8                   RCC_CFGR_PLLMUL8  /*!< PLL input clock * 8  */
 509:../../dependencies/STM32CubeL0/Drivers/STM32L0xx_HAL_Driver/Inc/stm32l0xx_ll_rcc.h **** #define LL_RCC_PLL_MUL_12                  RCC_CFGR_PLLMUL12 /*!< PLL input clock * 12 */
 510:../../dependencies/STM32CubeL0/Drivers/STM32L0xx_HAL_Driver/Inc/stm32l0xx_ll_rcc.h **** #define LL_RCC_PLL_MUL_16                  RCC_CFGR_PLLMUL16 /*!< PLL input clock * 16 */
 511:../../dependencies/STM32CubeL0/Drivers/STM32L0xx_HAL_Driver/Inc/stm32l0xx_ll_rcc.h **** #define LL_RCC_PLL_MUL_24                  RCC_CFGR_PLLMUL24 /*!< PLL input clock * 24 */
 512:../../dependencies/STM32CubeL0/Drivers/STM32L0xx_HAL_Driver/Inc/stm32l0xx_ll_rcc.h **** #define LL_RCC_PLL_MUL_32                  RCC_CFGR_PLLMUL32 /*!< PLL input clock * 32 */
 513:../../dependencies/STM32CubeL0/Drivers/STM32L0xx_HAL_Driver/Inc/stm32l0xx_ll_rcc.h **** #define LL_RCC_PLL_MUL_48                  RCC_CFGR_PLLMUL48 /*!< PLL input clock * 48 */
 514:../../dependencies/STM32CubeL0/Drivers/STM32L0xx_HAL_Driver/Inc/stm32l0xx_ll_rcc.h **** /**
 515:../../dependencies/STM32CubeL0/Drivers/STM32L0xx_HAL_Driver/Inc/stm32l0xx_ll_rcc.h ****   * @}
 516:../../dependencies/STM32CubeL0/Drivers/STM32L0xx_HAL_Driver/Inc/stm32l0xx_ll_rcc.h ****   */
 517:../../dependencies/STM32CubeL0/Drivers/STM32L0xx_HAL_Driver/Inc/stm32l0xx_ll_rcc.h **** 
 518:../../dependencies/STM32CubeL0/Drivers/STM32L0xx_HAL_Driver/Inc/stm32l0xx_ll_rcc.h **** /** @defgroup RCC_LL_EC_PLL_DIV PLL division factor
 519:../../dependencies/STM32CubeL0/Drivers/STM32L0xx_HAL_Driver/Inc/stm32l0xx_ll_rcc.h ****   * @{
 520:../../dependencies/STM32CubeL0/Drivers/STM32L0xx_HAL_Driver/Inc/stm32l0xx_ll_rcc.h ****   */
 521:../../dependencies/STM32CubeL0/Drivers/STM32L0xx_HAL_Driver/Inc/stm32l0xx_ll_rcc.h **** #define LL_RCC_PLL_DIV_2                   RCC_CFGR_PLLDIV2 /*!< PLL clock output = PLLVCO / 2 */
 522:../../dependencies/STM32CubeL0/Drivers/STM32L0xx_HAL_Driver/Inc/stm32l0xx_ll_rcc.h **** #define LL_RCC_PLL_DIV_3                   RCC_CFGR_PLLDIV3 /*!< PLL clock output = PLLVCO / 3 */
 523:../../dependencies/STM32CubeL0/Drivers/STM32L0xx_HAL_Driver/Inc/stm32l0xx_ll_rcc.h **** #define LL_RCC_PLL_DIV_4                   RCC_CFGR_PLLDIV4 /*!< PLL clock output = PLLVCO / 4 */
 524:../../dependencies/STM32CubeL0/Drivers/STM32L0xx_HAL_Driver/Inc/stm32l0xx_ll_rcc.h **** /**
 525:../../dependencies/STM32CubeL0/Drivers/STM32L0xx_HAL_Driver/Inc/stm32l0xx_ll_rcc.h ****   * @}
 526:../../dependencies/STM32CubeL0/Drivers/STM32L0xx_HAL_Driver/Inc/stm32l0xx_ll_rcc.h ****   */
ARM GAS  /tmp/ccpljSGR.s 			page 32


 527:../../dependencies/STM32CubeL0/Drivers/STM32L0xx_HAL_Driver/Inc/stm32l0xx_ll_rcc.h **** 
 528:../../dependencies/STM32CubeL0/Drivers/STM32L0xx_HAL_Driver/Inc/stm32l0xx_ll_rcc.h **** /** @defgroup RCC_LL_EC_PLLSOURCE PLL SOURCE
 529:../../dependencies/STM32CubeL0/Drivers/STM32L0xx_HAL_Driver/Inc/stm32l0xx_ll_rcc.h ****   * @{
 530:../../dependencies/STM32CubeL0/Drivers/STM32L0xx_HAL_Driver/Inc/stm32l0xx_ll_rcc.h ****   */
 531:../../dependencies/STM32CubeL0/Drivers/STM32L0xx_HAL_Driver/Inc/stm32l0xx_ll_rcc.h **** #define LL_RCC_PLLSOURCE_HSI               RCC_CFGR_PLLSRC_HSI                           /*!< HSI c
 532:../../dependencies/STM32CubeL0/Drivers/STM32L0xx_HAL_Driver/Inc/stm32l0xx_ll_rcc.h **** #define LL_RCC_PLLSOURCE_HSE               RCC_CFGR_PLLSRC_HSE                           /*!< HSE c
 533:../../dependencies/STM32CubeL0/Drivers/STM32L0xx_HAL_Driver/Inc/stm32l0xx_ll_rcc.h **** /**
 534:../../dependencies/STM32CubeL0/Drivers/STM32L0xx_HAL_Driver/Inc/stm32l0xx_ll_rcc.h ****   * @}
 535:../../dependencies/STM32CubeL0/Drivers/STM32L0xx_HAL_Driver/Inc/stm32l0xx_ll_rcc.h ****   */
 536:../../dependencies/STM32CubeL0/Drivers/STM32L0xx_HAL_Driver/Inc/stm32l0xx_ll_rcc.h **** 
 537:../../dependencies/STM32CubeL0/Drivers/STM32L0xx_HAL_Driver/Inc/stm32l0xx_ll_rcc.h **** /**
 538:../../dependencies/STM32CubeL0/Drivers/STM32L0xx_HAL_Driver/Inc/stm32l0xx_ll_rcc.h ****   * @}
 539:../../dependencies/STM32CubeL0/Drivers/STM32L0xx_HAL_Driver/Inc/stm32l0xx_ll_rcc.h ****   */
 540:../../dependencies/STM32CubeL0/Drivers/STM32L0xx_HAL_Driver/Inc/stm32l0xx_ll_rcc.h **** 
 541:../../dependencies/STM32CubeL0/Drivers/STM32L0xx_HAL_Driver/Inc/stm32l0xx_ll_rcc.h **** /* Exported macro ------------------------------------------------------------*/
 542:../../dependencies/STM32CubeL0/Drivers/STM32L0xx_HAL_Driver/Inc/stm32l0xx_ll_rcc.h **** /** @defgroup RCC_LL_Exported_Macros RCC Exported Macros
 543:../../dependencies/STM32CubeL0/Drivers/STM32L0xx_HAL_Driver/Inc/stm32l0xx_ll_rcc.h ****   * @{
 544:../../dependencies/STM32CubeL0/Drivers/STM32L0xx_HAL_Driver/Inc/stm32l0xx_ll_rcc.h ****   */
 545:../../dependencies/STM32CubeL0/Drivers/STM32L0xx_HAL_Driver/Inc/stm32l0xx_ll_rcc.h **** 
 546:../../dependencies/STM32CubeL0/Drivers/STM32L0xx_HAL_Driver/Inc/stm32l0xx_ll_rcc.h **** /** @defgroup RCC_LL_EM_WRITE_READ Common Write and read registers Macros
 547:../../dependencies/STM32CubeL0/Drivers/STM32L0xx_HAL_Driver/Inc/stm32l0xx_ll_rcc.h ****   * @{
 548:../../dependencies/STM32CubeL0/Drivers/STM32L0xx_HAL_Driver/Inc/stm32l0xx_ll_rcc.h ****   */
 549:../../dependencies/STM32CubeL0/Drivers/STM32L0xx_HAL_Driver/Inc/stm32l0xx_ll_rcc.h **** 
 550:../../dependencies/STM32CubeL0/Drivers/STM32L0xx_HAL_Driver/Inc/stm32l0xx_ll_rcc.h **** /**
 551:../../dependencies/STM32CubeL0/Drivers/STM32L0xx_HAL_Driver/Inc/stm32l0xx_ll_rcc.h ****   * @brief  Write a value in RCC register
 552:../../dependencies/STM32CubeL0/Drivers/STM32L0xx_HAL_Driver/Inc/stm32l0xx_ll_rcc.h ****   * @param  __REG__ Register to be written
 553:../../dependencies/STM32CubeL0/Drivers/STM32L0xx_HAL_Driver/Inc/stm32l0xx_ll_rcc.h ****   * @param  __VALUE__ Value to be written in the register
 554:../../dependencies/STM32CubeL0/Drivers/STM32L0xx_HAL_Driver/Inc/stm32l0xx_ll_rcc.h ****   * @retval None
 555:../../dependencies/STM32CubeL0/Drivers/STM32L0xx_HAL_Driver/Inc/stm32l0xx_ll_rcc.h ****   */
 556:../../dependencies/STM32CubeL0/Drivers/STM32L0xx_HAL_Driver/Inc/stm32l0xx_ll_rcc.h **** #define LL_RCC_WriteReg(__REG__, __VALUE__) WRITE_REG(RCC->__REG__, (__VALUE__))
 557:../../dependencies/STM32CubeL0/Drivers/STM32L0xx_HAL_Driver/Inc/stm32l0xx_ll_rcc.h **** 
 558:../../dependencies/STM32CubeL0/Drivers/STM32L0xx_HAL_Driver/Inc/stm32l0xx_ll_rcc.h **** /**
 559:../../dependencies/STM32CubeL0/Drivers/STM32L0xx_HAL_Driver/Inc/stm32l0xx_ll_rcc.h ****   * @brief  Read a value in RCC register
 560:../../dependencies/STM32CubeL0/Drivers/STM32L0xx_HAL_Driver/Inc/stm32l0xx_ll_rcc.h ****   * @param  __REG__ Register to be read
 561:../../dependencies/STM32CubeL0/Drivers/STM32L0xx_HAL_Driver/Inc/stm32l0xx_ll_rcc.h ****   * @retval Register value
 562:../../dependencies/STM32CubeL0/Drivers/STM32L0xx_HAL_Driver/Inc/stm32l0xx_ll_rcc.h ****   */
 563:../../dependencies/STM32CubeL0/Drivers/STM32L0xx_HAL_Driver/Inc/stm32l0xx_ll_rcc.h **** #define LL_RCC_ReadReg(__REG__) READ_REG(RCC->__REG__)
 564:../../dependencies/STM32CubeL0/Drivers/STM32L0xx_HAL_Driver/Inc/stm32l0xx_ll_rcc.h **** /**
 565:../../dependencies/STM32CubeL0/Drivers/STM32L0xx_HAL_Driver/Inc/stm32l0xx_ll_rcc.h ****   * @}
 566:../../dependencies/STM32CubeL0/Drivers/STM32L0xx_HAL_Driver/Inc/stm32l0xx_ll_rcc.h ****   */
 567:../../dependencies/STM32CubeL0/Drivers/STM32L0xx_HAL_Driver/Inc/stm32l0xx_ll_rcc.h **** 
 568:../../dependencies/STM32CubeL0/Drivers/STM32L0xx_HAL_Driver/Inc/stm32l0xx_ll_rcc.h **** /** @defgroup RCC_LL_EM_CALC_FREQ Calculate frequencies
 569:../../dependencies/STM32CubeL0/Drivers/STM32L0xx_HAL_Driver/Inc/stm32l0xx_ll_rcc.h ****   * @{
 570:../../dependencies/STM32CubeL0/Drivers/STM32L0xx_HAL_Driver/Inc/stm32l0xx_ll_rcc.h ****   */
 571:../../dependencies/STM32CubeL0/Drivers/STM32L0xx_HAL_Driver/Inc/stm32l0xx_ll_rcc.h **** 
 572:../../dependencies/STM32CubeL0/Drivers/STM32L0xx_HAL_Driver/Inc/stm32l0xx_ll_rcc.h **** /**
 573:../../dependencies/STM32CubeL0/Drivers/STM32L0xx_HAL_Driver/Inc/stm32l0xx_ll_rcc.h ****   * @brief  Helper macro to calculate the PLLCLK frequency
 574:../../dependencies/STM32CubeL0/Drivers/STM32L0xx_HAL_Driver/Inc/stm32l0xx_ll_rcc.h ****   * @note ex: @ref __LL_RCC_CALC_PLLCLK_FREQ (HSE_VALUE,
 575:../../dependencies/STM32CubeL0/Drivers/STM32L0xx_HAL_Driver/Inc/stm32l0xx_ll_rcc.h ****   *                                      @ref LL_RCC_PLL_GetMultiplicator (),
 576:../../dependencies/STM32CubeL0/Drivers/STM32L0xx_HAL_Driver/Inc/stm32l0xx_ll_rcc.h ****   *                                      @ref LL_RCC_PLL_GetDivider ());
 577:../../dependencies/STM32CubeL0/Drivers/STM32L0xx_HAL_Driver/Inc/stm32l0xx_ll_rcc.h ****   * @param  __INPUTFREQ__ PLL Input frequency (based on MSI/HSE/HSI)
 578:../../dependencies/STM32CubeL0/Drivers/STM32L0xx_HAL_Driver/Inc/stm32l0xx_ll_rcc.h ****   * @param  __PLLMUL__ This parameter can be one of the following values:
 579:../../dependencies/STM32CubeL0/Drivers/STM32L0xx_HAL_Driver/Inc/stm32l0xx_ll_rcc.h ****   *         @arg @ref LL_RCC_PLL_MUL_3
 580:../../dependencies/STM32CubeL0/Drivers/STM32L0xx_HAL_Driver/Inc/stm32l0xx_ll_rcc.h ****   *         @arg @ref LL_RCC_PLL_MUL_4
 581:../../dependencies/STM32CubeL0/Drivers/STM32L0xx_HAL_Driver/Inc/stm32l0xx_ll_rcc.h ****   *         @arg @ref LL_RCC_PLL_MUL_6
 582:../../dependencies/STM32CubeL0/Drivers/STM32L0xx_HAL_Driver/Inc/stm32l0xx_ll_rcc.h ****   *         @arg @ref LL_RCC_PLL_MUL_8
 583:../../dependencies/STM32CubeL0/Drivers/STM32L0xx_HAL_Driver/Inc/stm32l0xx_ll_rcc.h ****   *         @arg @ref LL_RCC_PLL_MUL_12
ARM GAS  /tmp/ccpljSGR.s 			page 33


 584:../../dependencies/STM32CubeL0/Drivers/STM32L0xx_HAL_Driver/Inc/stm32l0xx_ll_rcc.h ****   *         @arg @ref LL_RCC_PLL_MUL_16
 585:../../dependencies/STM32CubeL0/Drivers/STM32L0xx_HAL_Driver/Inc/stm32l0xx_ll_rcc.h ****   *         @arg @ref LL_RCC_PLL_MUL_24
 586:../../dependencies/STM32CubeL0/Drivers/STM32L0xx_HAL_Driver/Inc/stm32l0xx_ll_rcc.h ****   *         @arg @ref LL_RCC_PLL_MUL_32
 587:../../dependencies/STM32CubeL0/Drivers/STM32L0xx_HAL_Driver/Inc/stm32l0xx_ll_rcc.h ****   *         @arg @ref LL_RCC_PLL_MUL_48
 588:../../dependencies/STM32CubeL0/Drivers/STM32L0xx_HAL_Driver/Inc/stm32l0xx_ll_rcc.h ****   * @param  __PLLDIV__ This parameter can be one of the following values:
 589:../../dependencies/STM32CubeL0/Drivers/STM32L0xx_HAL_Driver/Inc/stm32l0xx_ll_rcc.h ****   *         @arg @ref LL_RCC_PLL_DIV_2
 590:../../dependencies/STM32CubeL0/Drivers/STM32L0xx_HAL_Driver/Inc/stm32l0xx_ll_rcc.h ****   *         @arg @ref LL_RCC_PLL_DIV_3
 591:../../dependencies/STM32CubeL0/Drivers/STM32L0xx_HAL_Driver/Inc/stm32l0xx_ll_rcc.h ****   *         @arg @ref LL_RCC_PLL_DIV_4
 592:../../dependencies/STM32CubeL0/Drivers/STM32L0xx_HAL_Driver/Inc/stm32l0xx_ll_rcc.h ****   * @retval PLL clock frequency (in Hz)
 593:../../dependencies/STM32CubeL0/Drivers/STM32L0xx_HAL_Driver/Inc/stm32l0xx_ll_rcc.h ****   */
 594:../../dependencies/STM32CubeL0/Drivers/STM32L0xx_HAL_Driver/Inc/stm32l0xx_ll_rcc.h **** #define __LL_RCC_CALC_PLLCLK_FREQ(__INPUTFREQ__, __PLLMUL__,  __PLLDIV__) ((__INPUTFREQ__) * (PLLMu
 595:../../dependencies/STM32CubeL0/Drivers/STM32L0xx_HAL_Driver/Inc/stm32l0xx_ll_rcc.h **** 
 596:../../dependencies/STM32CubeL0/Drivers/STM32L0xx_HAL_Driver/Inc/stm32l0xx_ll_rcc.h **** /**
 597:../../dependencies/STM32CubeL0/Drivers/STM32L0xx_HAL_Driver/Inc/stm32l0xx_ll_rcc.h ****   * @brief  Helper macro to calculate the HCLK frequency
 598:../../dependencies/STM32CubeL0/Drivers/STM32L0xx_HAL_Driver/Inc/stm32l0xx_ll_rcc.h ****   * @note: __AHBPRESCALER__ be retrieved by @ref LL_RCC_GetAHBPrescaler
 599:../../dependencies/STM32CubeL0/Drivers/STM32L0xx_HAL_Driver/Inc/stm32l0xx_ll_rcc.h ****   *        ex: __LL_RCC_CALC_HCLK_FREQ(LL_RCC_GetAHBPrescaler())
 600:../../dependencies/STM32CubeL0/Drivers/STM32L0xx_HAL_Driver/Inc/stm32l0xx_ll_rcc.h ****   * @param  __SYSCLKFREQ__ SYSCLK frequency (based on MSI/HSE/HSI/PLLCLK)
 601:../../dependencies/STM32CubeL0/Drivers/STM32L0xx_HAL_Driver/Inc/stm32l0xx_ll_rcc.h ****   * @param  __AHBPRESCALER__ This parameter can be one of the following values:
 602:../../dependencies/STM32CubeL0/Drivers/STM32L0xx_HAL_Driver/Inc/stm32l0xx_ll_rcc.h ****   *         @arg @ref LL_RCC_SYSCLK_DIV_1
 603:../../dependencies/STM32CubeL0/Drivers/STM32L0xx_HAL_Driver/Inc/stm32l0xx_ll_rcc.h ****   *         @arg @ref LL_RCC_SYSCLK_DIV_2
 604:../../dependencies/STM32CubeL0/Drivers/STM32L0xx_HAL_Driver/Inc/stm32l0xx_ll_rcc.h ****   *         @arg @ref LL_RCC_SYSCLK_DIV_4
 605:../../dependencies/STM32CubeL0/Drivers/STM32L0xx_HAL_Driver/Inc/stm32l0xx_ll_rcc.h ****   *         @arg @ref LL_RCC_SYSCLK_DIV_8
 606:../../dependencies/STM32CubeL0/Drivers/STM32L0xx_HAL_Driver/Inc/stm32l0xx_ll_rcc.h ****   *         @arg @ref LL_RCC_SYSCLK_DIV_16
 607:../../dependencies/STM32CubeL0/Drivers/STM32L0xx_HAL_Driver/Inc/stm32l0xx_ll_rcc.h ****   *         @arg @ref LL_RCC_SYSCLK_DIV_64
 608:../../dependencies/STM32CubeL0/Drivers/STM32L0xx_HAL_Driver/Inc/stm32l0xx_ll_rcc.h ****   *         @arg @ref LL_RCC_SYSCLK_DIV_128
 609:../../dependencies/STM32CubeL0/Drivers/STM32L0xx_HAL_Driver/Inc/stm32l0xx_ll_rcc.h ****   *         @arg @ref LL_RCC_SYSCLK_DIV_256
 610:../../dependencies/STM32CubeL0/Drivers/STM32L0xx_HAL_Driver/Inc/stm32l0xx_ll_rcc.h ****   *         @arg @ref LL_RCC_SYSCLK_DIV_512
 611:../../dependencies/STM32CubeL0/Drivers/STM32L0xx_HAL_Driver/Inc/stm32l0xx_ll_rcc.h ****   * @retval HCLK clock frequency (in Hz)
 612:../../dependencies/STM32CubeL0/Drivers/STM32L0xx_HAL_Driver/Inc/stm32l0xx_ll_rcc.h ****   */
 613:../../dependencies/STM32CubeL0/Drivers/STM32L0xx_HAL_Driver/Inc/stm32l0xx_ll_rcc.h **** #define __LL_RCC_CALC_HCLK_FREQ(__SYSCLKFREQ__, __AHBPRESCALER__) ((__SYSCLKFREQ__) >> AHBPrescTabl
 614:../../dependencies/STM32CubeL0/Drivers/STM32L0xx_HAL_Driver/Inc/stm32l0xx_ll_rcc.h **** 
 615:../../dependencies/STM32CubeL0/Drivers/STM32L0xx_HAL_Driver/Inc/stm32l0xx_ll_rcc.h **** /**
 616:../../dependencies/STM32CubeL0/Drivers/STM32L0xx_HAL_Driver/Inc/stm32l0xx_ll_rcc.h ****   * @brief  Helper macro to calculate the PCLK1 frequency (ABP1)
 617:../../dependencies/STM32CubeL0/Drivers/STM32L0xx_HAL_Driver/Inc/stm32l0xx_ll_rcc.h ****   * @note: __APB1PRESCALER__ be retrieved by @ref LL_RCC_GetAPB1Prescaler
 618:../../dependencies/STM32CubeL0/Drivers/STM32L0xx_HAL_Driver/Inc/stm32l0xx_ll_rcc.h ****   *        ex: __LL_RCC_CALC_PCLK1_FREQ(LL_RCC_GetAPB1Prescaler())
 619:../../dependencies/STM32CubeL0/Drivers/STM32L0xx_HAL_Driver/Inc/stm32l0xx_ll_rcc.h ****   * @param  __HCLKFREQ__ HCLK frequency
 620:../../dependencies/STM32CubeL0/Drivers/STM32L0xx_HAL_Driver/Inc/stm32l0xx_ll_rcc.h ****   * @param  __APB1PRESCALER__ This parameter can be one of the following values:
 621:../../dependencies/STM32CubeL0/Drivers/STM32L0xx_HAL_Driver/Inc/stm32l0xx_ll_rcc.h ****   *         @arg @ref LL_RCC_APB1_DIV_1
 622:../../dependencies/STM32CubeL0/Drivers/STM32L0xx_HAL_Driver/Inc/stm32l0xx_ll_rcc.h ****   *         @arg @ref LL_RCC_APB1_DIV_2
 623:../../dependencies/STM32CubeL0/Drivers/STM32L0xx_HAL_Driver/Inc/stm32l0xx_ll_rcc.h ****   *         @arg @ref LL_RCC_APB1_DIV_4
 624:../../dependencies/STM32CubeL0/Drivers/STM32L0xx_HAL_Driver/Inc/stm32l0xx_ll_rcc.h ****   *         @arg @ref LL_RCC_APB1_DIV_8
 625:../../dependencies/STM32CubeL0/Drivers/STM32L0xx_HAL_Driver/Inc/stm32l0xx_ll_rcc.h ****   *         @arg @ref LL_RCC_APB1_DIV_16
 626:../../dependencies/STM32CubeL0/Drivers/STM32L0xx_HAL_Driver/Inc/stm32l0xx_ll_rcc.h ****   * @retval PCLK1 clock frequency (in Hz)
 627:../../dependencies/STM32CubeL0/Drivers/STM32L0xx_HAL_Driver/Inc/stm32l0xx_ll_rcc.h ****   */
 628:../../dependencies/STM32CubeL0/Drivers/STM32L0xx_HAL_Driver/Inc/stm32l0xx_ll_rcc.h **** #define __LL_RCC_CALC_PCLK1_FREQ(__HCLKFREQ__, __APB1PRESCALER__) ((__HCLKFREQ__) >> APBPrescTable[
 629:../../dependencies/STM32CubeL0/Drivers/STM32L0xx_HAL_Driver/Inc/stm32l0xx_ll_rcc.h **** 
 630:../../dependencies/STM32CubeL0/Drivers/STM32L0xx_HAL_Driver/Inc/stm32l0xx_ll_rcc.h **** /**
 631:../../dependencies/STM32CubeL0/Drivers/STM32L0xx_HAL_Driver/Inc/stm32l0xx_ll_rcc.h ****   * @brief  Helper macro to calculate the PCLK2 frequency (ABP2)
 632:../../dependencies/STM32CubeL0/Drivers/STM32L0xx_HAL_Driver/Inc/stm32l0xx_ll_rcc.h ****   * @note: __APB2PRESCALER__ be retrieved by @ref LL_RCC_GetAPB2Prescaler
 633:../../dependencies/STM32CubeL0/Drivers/STM32L0xx_HAL_Driver/Inc/stm32l0xx_ll_rcc.h ****   *        ex: __LL_RCC_CALC_PCLK2_FREQ(LL_RCC_GetAPB2Prescaler())
 634:../../dependencies/STM32CubeL0/Drivers/STM32L0xx_HAL_Driver/Inc/stm32l0xx_ll_rcc.h ****   * @param  __HCLKFREQ__ HCLK frequency
 635:../../dependencies/STM32CubeL0/Drivers/STM32L0xx_HAL_Driver/Inc/stm32l0xx_ll_rcc.h ****   * @param  __APB2PRESCALER__ This parameter can be one of the following values:
 636:../../dependencies/STM32CubeL0/Drivers/STM32L0xx_HAL_Driver/Inc/stm32l0xx_ll_rcc.h ****   *         @arg @ref LL_RCC_APB2_DIV_1
 637:../../dependencies/STM32CubeL0/Drivers/STM32L0xx_HAL_Driver/Inc/stm32l0xx_ll_rcc.h ****   *         @arg @ref LL_RCC_APB2_DIV_2
 638:../../dependencies/STM32CubeL0/Drivers/STM32L0xx_HAL_Driver/Inc/stm32l0xx_ll_rcc.h ****   *         @arg @ref LL_RCC_APB2_DIV_4
 639:../../dependencies/STM32CubeL0/Drivers/STM32L0xx_HAL_Driver/Inc/stm32l0xx_ll_rcc.h ****   *         @arg @ref LL_RCC_APB2_DIV_8
 640:../../dependencies/STM32CubeL0/Drivers/STM32L0xx_HAL_Driver/Inc/stm32l0xx_ll_rcc.h ****   *         @arg @ref LL_RCC_APB2_DIV_16
ARM GAS  /tmp/ccpljSGR.s 			page 34


 641:../../dependencies/STM32CubeL0/Drivers/STM32L0xx_HAL_Driver/Inc/stm32l0xx_ll_rcc.h ****   * @retval PCLK2 clock frequency (in Hz)
 642:../../dependencies/STM32CubeL0/Drivers/STM32L0xx_HAL_Driver/Inc/stm32l0xx_ll_rcc.h ****   */
 643:../../dependencies/STM32CubeL0/Drivers/STM32L0xx_HAL_Driver/Inc/stm32l0xx_ll_rcc.h **** #define __LL_RCC_CALC_PCLK2_FREQ(__HCLKFREQ__, __APB2PRESCALER__) ((__HCLKFREQ__) >> APBPrescTable[
 644:../../dependencies/STM32CubeL0/Drivers/STM32L0xx_HAL_Driver/Inc/stm32l0xx_ll_rcc.h **** 
 645:../../dependencies/STM32CubeL0/Drivers/STM32L0xx_HAL_Driver/Inc/stm32l0xx_ll_rcc.h **** /**
 646:../../dependencies/STM32CubeL0/Drivers/STM32L0xx_HAL_Driver/Inc/stm32l0xx_ll_rcc.h ****   * @brief  Helper macro to calculate the MSI frequency (in Hz)
 647:../../dependencies/STM32CubeL0/Drivers/STM32L0xx_HAL_Driver/Inc/stm32l0xx_ll_rcc.h ****   * @note: __MSIRANGE__can be retrieved by @ref LL_RCC_MSI_GetRange
 648:../../dependencies/STM32CubeL0/Drivers/STM32L0xx_HAL_Driver/Inc/stm32l0xx_ll_rcc.h ****   *        ex: __LL_RCC_CALC_MSI_FREQ(LL_RCC_MSI_GetRange())
 649:../../dependencies/STM32CubeL0/Drivers/STM32L0xx_HAL_Driver/Inc/stm32l0xx_ll_rcc.h ****   * @param  __MSIRANGE__ This parameter can be one of the following values:
 650:../../dependencies/STM32CubeL0/Drivers/STM32L0xx_HAL_Driver/Inc/stm32l0xx_ll_rcc.h ****   *         @arg @ref LL_RCC_MSIRANGE_0
 651:../../dependencies/STM32CubeL0/Drivers/STM32L0xx_HAL_Driver/Inc/stm32l0xx_ll_rcc.h ****   *         @arg @ref LL_RCC_MSIRANGE_1
 652:../../dependencies/STM32CubeL0/Drivers/STM32L0xx_HAL_Driver/Inc/stm32l0xx_ll_rcc.h ****   *         @arg @ref LL_RCC_MSIRANGE_2
 653:../../dependencies/STM32CubeL0/Drivers/STM32L0xx_HAL_Driver/Inc/stm32l0xx_ll_rcc.h ****   *         @arg @ref LL_RCC_MSIRANGE_3
 654:../../dependencies/STM32CubeL0/Drivers/STM32L0xx_HAL_Driver/Inc/stm32l0xx_ll_rcc.h ****   *         @arg @ref LL_RCC_MSIRANGE_4
 655:../../dependencies/STM32CubeL0/Drivers/STM32L0xx_HAL_Driver/Inc/stm32l0xx_ll_rcc.h ****   *         @arg @ref LL_RCC_MSIRANGE_5
 656:../../dependencies/STM32CubeL0/Drivers/STM32L0xx_HAL_Driver/Inc/stm32l0xx_ll_rcc.h ****   *         @arg @ref LL_RCC_MSIRANGE_6
 657:../../dependencies/STM32CubeL0/Drivers/STM32L0xx_HAL_Driver/Inc/stm32l0xx_ll_rcc.h ****   * @retval MSI clock frequency (in Hz)
 658:../../dependencies/STM32CubeL0/Drivers/STM32L0xx_HAL_Driver/Inc/stm32l0xx_ll_rcc.h ****   */
 659:../../dependencies/STM32CubeL0/Drivers/STM32L0xx_HAL_Driver/Inc/stm32l0xx_ll_rcc.h **** #define __LL_RCC_CALC_MSI_FREQ(__MSIRANGE__) (32768UL * ( 1UL << (((__MSIRANGE__) >> RCC_ICSCR_MSIR
 660:../../dependencies/STM32CubeL0/Drivers/STM32L0xx_HAL_Driver/Inc/stm32l0xx_ll_rcc.h **** 
 661:../../dependencies/STM32CubeL0/Drivers/STM32L0xx_HAL_Driver/Inc/stm32l0xx_ll_rcc.h **** /**
 662:../../dependencies/STM32CubeL0/Drivers/STM32L0xx_HAL_Driver/Inc/stm32l0xx_ll_rcc.h ****   * @}
 663:../../dependencies/STM32CubeL0/Drivers/STM32L0xx_HAL_Driver/Inc/stm32l0xx_ll_rcc.h ****   */
 664:../../dependencies/STM32CubeL0/Drivers/STM32L0xx_HAL_Driver/Inc/stm32l0xx_ll_rcc.h **** 
 665:../../dependencies/STM32CubeL0/Drivers/STM32L0xx_HAL_Driver/Inc/stm32l0xx_ll_rcc.h **** /**
 666:../../dependencies/STM32CubeL0/Drivers/STM32L0xx_HAL_Driver/Inc/stm32l0xx_ll_rcc.h ****   * @}
 667:../../dependencies/STM32CubeL0/Drivers/STM32L0xx_HAL_Driver/Inc/stm32l0xx_ll_rcc.h ****   */
 668:../../dependencies/STM32CubeL0/Drivers/STM32L0xx_HAL_Driver/Inc/stm32l0xx_ll_rcc.h **** 
 669:../../dependencies/STM32CubeL0/Drivers/STM32L0xx_HAL_Driver/Inc/stm32l0xx_ll_rcc.h **** /* Exported functions --------------------------------------------------------*/
 670:../../dependencies/STM32CubeL0/Drivers/STM32L0xx_HAL_Driver/Inc/stm32l0xx_ll_rcc.h **** /** @defgroup RCC_LL_Exported_Functions RCC Exported Functions
 671:../../dependencies/STM32CubeL0/Drivers/STM32L0xx_HAL_Driver/Inc/stm32l0xx_ll_rcc.h ****   * @{
 672:../../dependencies/STM32CubeL0/Drivers/STM32L0xx_HAL_Driver/Inc/stm32l0xx_ll_rcc.h ****   */
 673:../../dependencies/STM32CubeL0/Drivers/STM32L0xx_HAL_Driver/Inc/stm32l0xx_ll_rcc.h **** 
 674:../../dependencies/STM32CubeL0/Drivers/STM32L0xx_HAL_Driver/Inc/stm32l0xx_ll_rcc.h **** /** @defgroup RCC_LL_EF_HSE HSE
 675:../../dependencies/STM32CubeL0/Drivers/STM32L0xx_HAL_Driver/Inc/stm32l0xx_ll_rcc.h ****   * @{
 676:../../dependencies/STM32CubeL0/Drivers/STM32L0xx_HAL_Driver/Inc/stm32l0xx_ll_rcc.h ****   */
 677:../../dependencies/STM32CubeL0/Drivers/STM32L0xx_HAL_Driver/Inc/stm32l0xx_ll_rcc.h **** 
 678:../../dependencies/STM32CubeL0/Drivers/STM32L0xx_HAL_Driver/Inc/stm32l0xx_ll_rcc.h **** #if defined(RCC_HSECSS_SUPPORT)
 679:../../dependencies/STM32CubeL0/Drivers/STM32L0xx_HAL_Driver/Inc/stm32l0xx_ll_rcc.h **** /**
 680:../../dependencies/STM32CubeL0/Drivers/STM32L0xx_HAL_Driver/Inc/stm32l0xx_ll_rcc.h ****   * @brief  Enable the Clock Security System.
 681:../../dependencies/STM32CubeL0/Drivers/STM32L0xx_HAL_Driver/Inc/stm32l0xx_ll_rcc.h ****   * @rmtoll CR           CSSHSEON         LL_RCC_HSE_EnableCSS
 682:../../dependencies/STM32CubeL0/Drivers/STM32L0xx_HAL_Driver/Inc/stm32l0xx_ll_rcc.h ****   * @retval None
 683:../../dependencies/STM32CubeL0/Drivers/STM32L0xx_HAL_Driver/Inc/stm32l0xx_ll_rcc.h ****   */
 684:../../dependencies/STM32CubeL0/Drivers/STM32L0xx_HAL_Driver/Inc/stm32l0xx_ll_rcc.h **** __STATIC_INLINE void LL_RCC_HSE_EnableCSS(void)
 685:../../dependencies/STM32CubeL0/Drivers/STM32L0xx_HAL_Driver/Inc/stm32l0xx_ll_rcc.h **** {
 686:../../dependencies/STM32CubeL0/Drivers/STM32L0xx_HAL_Driver/Inc/stm32l0xx_ll_rcc.h ****   SET_BIT(RCC->CR, RCC_CR_CSSON);
 687:../../dependencies/STM32CubeL0/Drivers/STM32L0xx_HAL_Driver/Inc/stm32l0xx_ll_rcc.h **** }
 688:../../dependencies/STM32CubeL0/Drivers/STM32L0xx_HAL_Driver/Inc/stm32l0xx_ll_rcc.h **** #endif /* RCC_HSECSS_SUPPORT */
 689:../../dependencies/STM32CubeL0/Drivers/STM32L0xx_HAL_Driver/Inc/stm32l0xx_ll_rcc.h **** 
 690:../../dependencies/STM32CubeL0/Drivers/STM32L0xx_HAL_Driver/Inc/stm32l0xx_ll_rcc.h **** /**
 691:../../dependencies/STM32CubeL0/Drivers/STM32L0xx_HAL_Driver/Inc/stm32l0xx_ll_rcc.h ****   * @brief  Enable HSE external oscillator (HSE Bypass)
 692:../../dependencies/STM32CubeL0/Drivers/STM32L0xx_HAL_Driver/Inc/stm32l0xx_ll_rcc.h ****   * @rmtoll CR           HSEBYP        LL_RCC_HSE_EnableBypass
 693:../../dependencies/STM32CubeL0/Drivers/STM32L0xx_HAL_Driver/Inc/stm32l0xx_ll_rcc.h ****   * @retval None
 694:../../dependencies/STM32CubeL0/Drivers/STM32L0xx_HAL_Driver/Inc/stm32l0xx_ll_rcc.h ****   */
 695:../../dependencies/STM32CubeL0/Drivers/STM32L0xx_HAL_Driver/Inc/stm32l0xx_ll_rcc.h **** __STATIC_INLINE void LL_RCC_HSE_EnableBypass(void)
 696:../../dependencies/STM32CubeL0/Drivers/STM32L0xx_HAL_Driver/Inc/stm32l0xx_ll_rcc.h **** {
 697:../../dependencies/STM32CubeL0/Drivers/STM32L0xx_HAL_Driver/Inc/stm32l0xx_ll_rcc.h ****   SET_BIT(RCC->CR, RCC_CR_HSEBYP);
ARM GAS  /tmp/ccpljSGR.s 			page 35


 698:../../dependencies/STM32CubeL0/Drivers/STM32L0xx_HAL_Driver/Inc/stm32l0xx_ll_rcc.h **** }
 699:../../dependencies/STM32CubeL0/Drivers/STM32L0xx_HAL_Driver/Inc/stm32l0xx_ll_rcc.h **** 
 700:../../dependencies/STM32CubeL0/Drivers/STM32L0xx_HAL_Driver/Inc/stm32l0xx_ll_rcc.h **** /**
 701:../../dependencies/STM32CubeL0/Drivers/STM32L0xx_HAL_Driver/Inc/stm32l0xx_ll_rcc.h ****   * @brief  Disable HSE external oscillator (HSE Bypass)
 702:../../dependencies/STM32CubeL0/Drivers/STM32L0xx_HAL_Driver/Inc/stm32l0xx_ll_rcc.h ****   * @rmtoll CR           HSEBYP        LL_RCC_HSE_DisableBypass
 703:../../dependencies/STM32CubeL0/Drivers/STM32L0xx_HAL_Driver/Inc/stm32l0xx_ll_rcc.h ****   * @retval None
 704:../../dependencies/STM32CubeL0/Drivers/STM32L0xx_HAL_Driver/Inc/stm32l0xx_ll_rcc.h ****   */
 705:../../dependencies/STM32CubeL0/Drivers/STM32L0xx_HAL_Driver/Inc/stm32l0xx_ll_rcc.h **** __STATIC_INLINE void LL_RCC_HSE_DisableBypass(void)
 706:../../dependencies/STM32CubeL0/Drivers/STM32L0xx_HAL_Driver/Inc/stm32l0xx_ll_rcc.h **** {
 707:../../dependencies/STM32CubeL0/Drivers/STM32L0xx_HAL_Driver/Inc/stm32l0xx_ll_rcc.h ****   CLEAR_BIT(RCC->CR, RCC_CR_HSEBYP);
 708:../../dependencies/STM32CubeL0/Drivers/STM32L0xx_HAL_Driver/Inc/stm32l0xx_ll_rcc.h **** }
 709:../../dependencies/STM32CubeL0/Drivers/STM32L0xx_HAL_Driver/Inc/stm32l0xx_ll_rcc.h **** 
 710:../../dependencies/STM32CubeL0/Drivers/STM32L0xx_HAL_Driver/Inc/stm32l0xx_ll_rcc.h **** /**
 711:../../dependencies/STM32CubeL0/Drivers/STM32L0xx_HAL_Driver/Inc/stm32l0xx_ll_rcc.h ****   * @brief  Enable HSE crystal oscillator (HSE ON)
 712:../../dependencies/STM32CubeL0/Drivers/STM32L0xx_HAL_Driver/Inc/stm32l0xx_ll_rcc.h ****   * @rmtoll CR           HSEON         LL_RCC_HSE_Enable
 713:../../dependencies/STM32CubeL0/Drivers/STM32L0xx_HAL_Driver/Inc/stm32l0xx_ll_rcc.h ****   * @retval None
 714:../../dependencies/STM32CubeL0/Drivers/STM32L0xx_HAL_Driver/Inc/stm32l0xx_ll_rcc.h ****   */
 715:../../dependencies/STM32CubeL0/Drivers/STM32L0xx_HAL_Driver/Inc/stm32l0xx_ll_rcc.h **** __STATIC_INLINE void LL_RCC_HSE_Enable(void)
 716:../../dependencies/STM32CubeL0/Drivers/STM32L0xx_HAL_Driver/Inc/stm32l0xx_ll_rcc.h **** {
 717:../../dependencies/STM32CubeL0/Drivers/STM32L0xx_HAL_Driver/Inc/stm32l0xx_ll_rcc.h ****   SET_BIT(RCC->CR, RCC_CR_HSEON);
 718:../../dependencies/STM32CubeL0/Drivers/STM32L0xx_HAL_Driver/Inc/stm32l0xx_ll_rcc.h **** }
 719:../../dependencies/STM32CubeL0/Drivers/STM32L0xx_HAL_Driver/Inc/stm32l0xx_ll_rcc.h **** 
 720:../../dependencies/STM32CubeL0/Drivers/STM32L0xx_HAL_Driver/Inc/stm32l0xx_ll_rcc.h **** /**
 721:../../dependencies/STM32CubeL0/Drivers/STM32L0xx_HAL_Driver/Inc/stm32l0xx_ll_rcc.h ****   * @brief  Disable HSE crystal oscillator (HSE ON)
 722:../../dependencies/STM32CubeL0/Drivers/STM32L0xx_HAL_Driver/Inc/stm32l0xx_ll_rcc.h ****   * @rmtoll CR           HSEON         LL_RCC_HSE_Disable
 723:../../dependencies/STM32CubeL0/Drivers/STM32L0xx_HAL_Driver/Inc/stm32l0xx_ll_rcc.h ****   * @retval None
 724:../../dependencies/STM32CubeL0/Drivers/STM32L0xx_HAL_Driver/Inc/stm32l0xx_ll_rcc.h ****   */
 725:../../dependencies/STM32CubeL0/Drivers/STM32L0xx_HAL_Driver/Inc/stm32l0xx_ll_rcc.h **** __STATIC_INLINE void LL_RCC_HSE_Disable(void)
 726:../../dependencies/STM32CubeL0/Drivers/STM32L0xx_HAL_Driver/Inc/stm32l0xx_ll_rcc.h **** {
 727:../../dependencies/STM32CubeL0/Drivers/STM32L0xx_HAL_Driver/Inc/stm32l0xx_ll_rcc.h ****   CLEAR_BIT(RCC->CR, RCC_CR_HSEON);
 728:../../dependencies/STM32CubeL0/Drivers/STM32L0xx_HAL_Driver/Inc/stm32l0xx_ll_rcc.h **** }
 729:../../dependencies/STM32CubeL0/Drivers/STM32L0xx_HAL_Driver/Inc/stm32l0xx_ll_rcc.h **** 
 730:../../dependencies/STM32CubeL0/Drivers/STM32L0xx_HAL_Driver/Inc/stm32l0xx_ll_rcc.h **** /**
 731:../../dependencies/STM32CubeL0/Drivers/STM32L0xx_HAL_Driver/Inc/stm32l0xx_ll_rcc.h ****   * @brief  Check if HSE oscillator Ready
 732:../../dependencies/STM32CubeL0/Drivers/STM32L0xx_HAL_Driver/Inc/stm32l0xx_ll_rcc.h ****   * @rmtoll CR           HSERDY        LL_RCC_HSE_IsReady
 733:../../dependencies/STM32CubeL0/Drivers/STM32L0xx_HAL_Driver/Inc/stm32l0xx_ll_rcc.h ****   * @retval State of bit (1 or 0).
 734:../../dependencies/STM32CubeL0/Drivers/STM32L0xx_HAL_Driver/Inc/stm32l0xx_ll_rcc.h ****   */
 735:../../dependencies/STM32CubeL0/Drivers/STM32L0xx_HAL_Driver/Inc/stm32l0xx_ll_rcc.h **** __STATIC_INLINE uint32_t LL_RCC_HSE_IsReady(void)
 736:../../dependencies/STM32CubeL0/Drivers/STM32L0xx_HAL_Driver/Inc/stm32l0xx_ll_rcc.h **** {
 737:../../dependencies/STM32CubeL0/Drivers/STM32L0xx_HAL_Driver/Inc/stm32l0xx_ll_rcc.h ****   return ((READ_BIT(RCC->CR, RCC_CR_HSERDY) == RCC_CR_HSERDY) ? 1UL : 0UL);
 738:../../dependencies/STM32CubeL0/Drivers/STM32L0xx_HAL_Driver/Inc/stm32l0xx_ll_rcc.h **** }
 739:../../dependencies/STM32CubeL0/Drivers/STM32L0xx_HAL_Driver/Inc/stm32l0xx_ll_rcc.h **** 
 740:../../dependencies/STM32CubeL0/Drivers/STM32L0xx_HAL_Driver/Inc/stm32l0xx_ll_rcc.h **** /**
 741:../../dependencies/STM32CubeL0/Drivers/STM32L0xx_HAL_Driver/Inc/stm32l0xx_ll_rcc.h ****   * @brief  Configure the RTC prescaler (divider)
 742:../../dependencies/STM32CubeL0/Drivers/STM32L0xx_HAL_Driver/Inc/stm32l0xx_ll_rcc.h ****   * @rmtoll CR           RTCPRE        LL_RCC_SetRTC_HSEPrescaler
