ARM GAS  /tmp/cc4HDSS2.s 			page 1


   1              		.cpu cortex-m0plus
   2              		.eabi_attribute 20, 1
   3              		.eabi_attribute 21, 1
   4              		.eabi_attribute 23, 3
   5              		.eabi_attribute 24, 1
   6              		.eabi_attribute 25, 1
   7              		.eabi_attribute 26, 1
   8              		.eabi_attribute 30, 6
   9              		.eabi_attribute 34, 0
  10              		.eabi_attribute 18, 4
  11              		.file	"stm32l0xx_ll_lpuart.c"
  12              		.text
  13              	.Ltext0:
  14              		.cfi_sections	.debug_frame
  15              		.section	.text.LL_LPUART_IsEnabled,"ax",%progbits
  16              		.align	1
  17              		.arch armv6s-m
  18              		.syntax unified
  19              		.code	16
  20              		.thumb_func
  21              		.fpu softvfp
  23              	LL_LPUART_IsEnabled:
  24              	.LFB49:
  25              		.file 1 "../../dependencies/STM32CubeL0/Drivers/STM32L0xx_HAL_Driver/Inc/stm32l0xx_ll_lpuart.h"
   1:../../dependencies/STM32CubeL0/Drivers/STM32L0xx_HAL_Driver/Inc/stm32l0xx_ll_lpuart.h **** /**
   2:../../dependencies/STM32CubeL0/Drivers/STM32L0xx_HAL_Driver/Inc/stm32l0xx_ll_lpuart.h ****   ******************************************************************************
   3:../../dependencies/STM32CubeL0/Drivers/STM32L0xx_HAL_Driver/Inc/stm32l0xx_ll_lpuart.h ****   * @file    stm32l0xx_ll_lpuart.h
   4:../../dependencies/STM32CubeL0/Drivers/STM32L0xx_HAL_Driver/Inc/stm32l0xx_ll_lpuart.h ****   * @author  MCD Application Team
   5:../../dependencies/STM32CubeL0/Drivers/STM32L0xx_HAL_Driver/Inc/stm32l0xx_ll_lpuart.h ****   * @brief   Header file of LPUART LL module.
   6:../../dependencies/STM32CubeL0/Drivers/STM32L0xx_HAL_Driver/Inc/stm32l0xx_ll_lpuart.h ****   ******************************************************************************
   7:../../dependencies/STM32CubeL0/Drivers/STM32L0xx_HAL_Driver/Inc/stm32l0xx_ll_lpuart.h ****   * @attention
   8:../../dependencies/STM32CubeL0/Drivers/STM32L0xx_HAL_Driver/Inc/stm32l0xx_ll_lpuart.h ****   *
   9:../../dependencies/STM32CubeL0/Drivers/STM32L0xx_HAL_Driver/Inc/stm32l0xx_ll_lpuart.h ****   * <h2><center>&copy; Copyright (c) 2016 STMicroelectronics.
  10:../../dependencies/STM32CubeL0/Drivers/STM32L0xx_HAL_Driver/Inc/stm32l0xx_ll_lpuart.h ****   * All rights reserved.</center></h2>
  11:../../dependencies/STM32CubeL0/Drivers/STM32L0xx_HAL_Driver/Inc/stm32l0xx_ll_lpuart.h ****   *
  12:../../dependencies/STM32CubeL0/Drivers/STM32L0xx_HAL_Driver/Inc/stm32l0xx_ll_lpuart.h ****   * This software component is licensed by ST under BSD 3-Clause license,
  13:../../dependencies/STM32CubeL0/Drivers/STM32L0xx_HAL_Driver/Inc/stm32l0xx_ll_lpuart.h ****   * the "License"; You may not use this file except in compliance with the
  14:../../dependencies/STM32CubeL0/Drivers/STM32L0xx_HAL_Driver/Inc/stm32l0xx_ll_lpuart.h ****   * License. You may obtain a copy of the License at:
  15:../../dependencies/STM32CubeL0/Drivers/STM32L0xx_HAL_Driver/Inc/stm32l0xx_ll_lpuart.h ****   *                        opensource.org/licenses/BSD-3-Clause
  16:../../dependencies/STM32CubeL0/Drivers/STM32L0xx_HAL_Driver/Inc/stm32l0xx_ll_lpuart.h ****   *
  17:../../dependencies/STM32CubeL0/Drivers/STM32L0xx_HAL_Driver/Inc/stm32l0xx_ll_lpuart.h ****   ******************************************************************************
  18:../../dependencies/STM32CubeL0/Drivers/STM32L0xx_HAL_Driver/Inc/stm32l0xx_ll_lpuart.h ****   */
  19:../../dependencies/STM32CubeL0/Drivers/STM32L0xx_HAL_Driver/Inc/stm32l0xx_ll_lpuart.h **** 
  20:../../dependencies/STM32CubeL0/Drivers/STM32L0xx_HAL_Driver/Inc/stm32l0xx_ll_lpuart.h **** /* Define to prevent recursive inclusion -------------------------------------*/
  21:../../dependencies/STM32CubeL0/Drivers/STM32L0xx_HAL_Driver/Inc/stm32l0xx_ll_lpuart.h **** #ifndef STM32L0xx_LL_LPUART_H
  22:../../dependencies/STM32CubeL0/Drivers/STM32L0xx_HAL_Driver/Inc/stm32l0xx_ll_lpuart.h **** #define STM32L0xx_LL_LPUART_H
  23:../../dependencies/STM32CubeL0/Drivers/STM32L0xx_HAL_Driver/Inc/stm32l0xx_ll_lpuart.h **** 
  24:../../dependencies/STM32CubeL0/Drivers/STM32L0xx_HAL_Driver/Inc/stm32l0xx_ll_lpuart.h **** #ifdef __cplusplus
  25:../../dependencies/STM32CubeL0/Drivers/STM32L0xx_HAL_Driver/Inc/stm32l0xx_ll_lpuart.h **** extern "C" {
  26:../../dependencies/STM32CubeL0/Drivers/STM32L0xx_HAL_Driver/Inc/stm32l0xx_ll_lpuart.h **** #endif
  27:../../dependencies/STM32CubeL0/Drivers/STM32L0xx_HAL_Driver/Inc/stm32l0xx_ll_lpuart.h **** 
  28:../../dependencies/STM32CubeL0/Drivers/STM32L0xx_HAL_Driver/Inc/stm32l0xx_ll_lpuart.h **** /* Includes ------------------------------------------------------------------*/
  29:../../dependencies/STM32CubeL0/Drivers/STM32L0xx_HAL_Driver/Inc/stm32l0xx_ll_lpuart.h **** #include "stm32l0xx.h"
  30:../../dependencies/STM32CubeL0/Drivers/STM32L0xx_HAL_Driver/Inc/stm32l0xx_ll_lpuart.h **** 
  31:../../dependencies/STM32CubeL0/Drivers/STM32L0xx_HAL_Driver/Inc/stm32l0xx_ll_lpuart.h **** /** @addtogroup STM32L0xx_LL_Driver
  32:../../dependencies/STM32CubeL0/Drivers/STM32L0xx_HAL_Driver/Inc/stm32l0xx_ll_lpuart.h ****   * @{
  33:../../dependencies/STM32CubeL0/Drivers/STM32L0xx_HAL_Driver/Inc/stm32l0xx_ll_lpuart.h ****   */
ARM GAS  /tmp/cc4HDSS2.s 			page 2


  34:../../dependencies/STM32CubeL0/Drivers/STM32L0xx_HAL_Driver/Inc/stm32l0xx_ll_lpuart.h **** 
  35:../../dependencies/STM32CubeL0/Drivers/STM32L0xx_HAL_Driver/Inc/stm32l0xx_ll_lpuart.h **** #if defined (LPUART1)
  36:../../dependencies/STM32CubeL0/Drivers/STM32L0xx_HAL_Driver/Inc/stm32l0xx_ll_lpuart.h **** 
  37:../../dependencies/STM32CubeL0/Drivers/STM32L0xx_HAL_Driver/Inc/stm32l0xx_ll_lpuart.h **** /** @defgroup LPUART_LL LPUART
  38:../../dependencies/STM32CubeL0/Drivers/STM32L0xx_HAL_Driver/Inc/stm32l0xx_ll_lpuart.h ****   * @{
  39:../../dependencies/STM32CubeL0/Drivers/STM32L0xx_HAL_Driver/Inc/stm32l0xx_ll_lpuart.h ****   */
  40:../../dependencies/STM32CubeL0/Drivers/STM32L0xx_HAL_Driver/Inc/stm32l0xx_ll_lpuart.h **** 
  41:../../dependencies/STM32CubeL0/Drivers/STM32L0xx_HAL_Driver/Inc/stm32l0xx_ll_lpuart.h **** /* Private types -------------------------------------------------------------*/
  42:../../dependencies/STM32CubeL0/Drivers/STM32L0xx_HAL_Driver/Inc/stm32l0xx_ll_lpuart.h **** /* Private variables ---------------------------------------------------------*/
  43:../../dependencies/STM32CubeL0/Drivers/STM32L0xx_HAL_Driver/Inc/stm32l0xx_ll_lpuart.h **** 
  44:../../dependencies/STM32CubeL0/Drivers/STM32L0xx_HAL_Driver/Inc/stm32l0xx_ll_lpuart.h **** /* Private constants ---------------------------------------------------------*/
  45:../../dependencies/STM32CubeL0/Drivers/STM32L0xx_HAL_Driver/Inc/stm32l0xx_ll_lpuart.h **** /** @defgroup LPUART_LL_Private_Constants LPUART Private Constants
  46:../../dependencies/STM32CubeL0/Drivers/STM32L0xx_HAL_Driver/Inc/stm32l0xx_ll_lpuart.h ****   * @{
  47:../../dependencies/STM32CubeL0/Drivers/STM32L0xx_HAL_Driver/Inc/stm32l0xx_ll_lpuart.h ****   */
  48:../../dependencies/STM32CubeL0/Drivers/STM32L0xx_HAL_Driver/Inc/stm32l0xx_ll_lpuart.h **** /* Defines used in Baud Rate related macros and corresponding register setting computation */
  49:../../dependencies/STM32CubeL0/Drivers/STM32L0xx_HAL_Driver/Inc/stm32l0xx_ll_lpuart.h **** #define LPUART_LPUARTDIV_FREQ_MUL     256U
  50:../../dependencies/STM32CubeL0/Drivers/STM32L0xx_HAL_Driver/Inc/stm32l0xx_ll_lpuart.h **** #define LPUART_BRR_MASK               0x000FFFFFU
  51:../../dependencies/STM32CubeL0/Drivers/STM32L0xx_HAL_Driver/Inc/stm32l0xx_ll_lpuart.h **** #define LPUART_BRR_MIN_VALUE          0x00000300U
  52:../../dependencies/STM32CubeL0/Drivers/STM32L0xx_HAL_Driver/Inc/stm32l0xx_ll_lpuart.h **** /**
  53:../../dependencies/STM32CubeL0/Drivers/STM32L0xx_HAL_Driver/Inc/stm32l0xx_ll_lpuart.h ****   * @}
  54:../../dependencies/STM32CubeL0/Drivers/STM32L0xx_HAL_Driver/Inc/stm32l0xx_ll_lpuart.h ****   */
  55:../../dependencies/STM32CubeL0/Drivers/STM32L0xx_HAL_Driver/Inc/stm32l0xx_ll_lpuart.h **** 
  56:../../dependencies/STM32CubeL0/Drivers/STM32L0xx_HAL_Driver/Inc/stm32l0xx_ll_lpuart.h **** 
  57:../../dependencies/STM32CubeL0/Drivers/STM32L0xx_HAL_Driver/Inc/stm32l0xx_ll_lpuart.h **** /* Private macros ------------------------------------------------------------*/
  58:../../dependencies/STM32CubeL0/Drivers/STM32L0xx_HAL_Driver/Inc/stm32l0xx_ll_lpuart.h **** #if defined(USE_FULL_LL_DRIVER)
  59:../../dependencies/STM32CubeL0/Drivers/STM32L0xx_HAL_Driver/Inc/stm32l0xx_ll_lpuart.h **** /** @defgroup LPUART_LL_Private_Macros LPUART Private Macros
  60:../../dependencies/STM32CubeL0/Drivers/STM32L0xx_HAL_Driver/Inc/stm32l0xx_ll_lpuart.h ****   * @{
  61:../../dependencies/STM32CubeL0/Drivers/STM32L0xx_HAL_Driver/Inc/stm32l0xx_ll_lpuart.h ****   */
  62:../../dependencies/STM32CubeL0/Drivers/STM32L0xx_HAL_Driver/Inc/stm32l0xx_ll_lpuart.h **** /**
  63:../../dependencies/STM32CubeL0/Drivers/STM32L0xx_HAL_Driver/Inc/stm32l0xx_ll_lpuart.h ****   * @}
  64:../../dependencies/STM32CubeL0/Drivers/STM32L0xx_HAL_Driver/Inc/stm32l0xx_ll_lpuart.h ****   */
  65:../../dependencies/STM32CubeL0/Drivers/STM32L0xx_HAL_Driver/Inc/stm32l0xx_ll_lpuart.h **** #endif /*USE_FULL_LL_DRIVER*/
  66:../../dependencies/STM32CubeL0/Drivers/STM32L0xx_HAL_Driver/Inc/stm32l0xx_ll_lpuart.h **** 
  67:../../dependencies/STM32CubeL0/Drivers/STM32L0xx_HAL_Driver/Inc/stm32l0xx_ll_lpuart.h **** /* Exported types ------------------------------------------------------------*/
  68:../../dependencies/STM32CubeL0/Drivers/STM32L0xx_HAL_Driver/Inc/stm32l0xx_ll_lpuart.h **** #if defined(USE_FULL_LL_DRIVER)
  69:../../dependencies/STM32CubeL0/Drivers/STM32L0xx_HAL_Driver/Inc/stm32l0xx_ll_lpuart.h **** /** @defgroup LPUART_LL_ES_INIT LPUART Exported Init structures
  70:../../dependencies/STM32CubeL0/Drivers/STM32L0xx_HAL_Driver/Inc/stm32l0xx_ll_lpuart.h ****   * @{
  71:../../dependencies/STM32CubeL0/Drivers/STM32L0xx_HAL_Driver/Inc/stm32l0xx_ll_lpuart.h ****   */
  72:../../dependencies/STM32CubeL0/Drivers/STM32L0xx_HAL_Driver/Inc/stm32l0xx_ll_lpuart.h **** 
  73:../../dependencies/STM32CubeL0/Drivers/STM32L0xx_HAL_Driver/Inc/stm32l0xx_ll_lpuart.h **** /**
  74:../../dependencies/STM32CubeL0/Drivers/STM32L0xx_HAL_Driver/Inc/stm32l0xx_ll_lpuart.h ****   * @brief LL LPUART Init Structure definition
  75:../../dependencies/STM32CubeL0/Drivers/STM32L0xx_HAL_Driver/Inc/stm32l0xx_ll_lpuart.h ****   */
  76:../../dependencies/STM32CubeL0/Drivers/STM32L0xx_HAL_Driver/Inc/stm32l0xx_ll_lpuart.h **** typedef struct
  77:../../dependencies/STM32CubeL0/Drivers/STM32L0xx_HAL_Driver/Inc/stm32l0xx_ll_lpuart.h **** {
  78:../../dependencies/STM32CubeL0/Drivers/STM32L0xx_HAL_Driver/Inc/stm32l0xx_ll_lpuart.h ****   uint32_t BaudRate;                  /*!< This field defines expected LPUART communication baud ra
  79:../../dependencies/STM32CubeL0/Drivers/STM32L0xx_HAL_Driver/Inc/stm32l0xx_ll_lpuart.h **** 
  80:../../dependencies/STM32CubeL0/Drivers/STM32L0xx_HAL_Driver/Inc/stm32l0xx_ll_lpuart.h ****                                            This feature can be modified afterwards using unitary
  81:../../dependencies/STM32CubeL0/Drivers/STM32L0xx_HAL_Driver/Inc/stm32l0xx_ll_lpuart.h ****                                            function @ref LL_LPUART_SetBaudRate().*/
  82:../../dependencies/STM32CubeL0/Drivers/STM32L0xx_HAL_Driver/Inc/stm32l0xx_ll_lpuart.h **** 
  83:../../dependencies/STM32CubeL0/Drivers/STM32L0xx_HAL_Driver/Inc/stm32l0xx_ll_lpuart.h ****   uint32_t DataWidth;                 /*!< Specifies the number of data bits transmitted or receive
  84:../../dependencies/STM32CubeL0/Drivers/STM32L0xx_HAL_Driver/Inc/stm32l0xx_ll_lpuart.h ****                                            This parameter can be a value of @ref LPUART_LL_EC_DATAW
  85:../../dependencies/STM32CubeL0/Drivers/STM32L0xx_HAL_Driver/Inc/stm32l0xx_ll_lpuart.h **** 
  86:../../dependencies/STM32CubeL0/Drivers/STM32L0xx_HAL_Driver/Inc/stm32l0xx_ll_lpuart.h ****                                            This feature can be modified afterwards using unitary
  87:../../dependencies/STM32CubeL0/Drivers/STM32L0xx_HAL_Driver/Inc/stm32l0xx_ll_lpuart.h ****                                            function @ref LL_LPUART_SetDataWidth().*/
  88:../../dependencies/STM32CubeL0/Drivers/STM32L0xx_HAL_Driver/Inc/stm32l0xx_ll_lpuart.h **** 
  89:../../dependencies/STM32CubeL0/Drivers/STM32L0xx_HAL_Driver/Inc/stm32l0xx_ll_lpuart.h ****   uint32_t StopBits;                  /*!< Specifies the number of stop bits transmitted.
  90:../../dependencies/STM32CubeL0/Drivers/STM32L0xx_HAL_Driver/Inc/stm32l0xx_ll_lpuart.h ****                                            This parameter can be a value of @ref LPUART_LL_EC_STOPB
ARM GAS  /tmp/cc4HDSS2.s 			page 3


  91:../../dependencies/STM32CubeL0/Drivers/STM32L0xx_HAL_Driver/Inc/stm32l0xx_ll_lpuart.h **** 
  92:../../dependencies/STM32CubeL0/Drivers/STM32L0xx_HAL_Driver/Inc/stm32l0xx_ll_lpuart.h ****                                            This feature can be modified afterwards using unitary
  93:../../dependencies/STM32CubeL0/Drivers/STM32L0xx_HAL_Driver/Inc/stm32l0xx_ll_lpuart.h ****                                            function @ref LL_LPUART_SetStopBitsLength().*/
  94:../../dependencies/STM32CubeL0/Drivers/STM32L0xx_HAL_Driver/Inc/stm32l0xx_ll_lpuart.h **** 
  95:../../dependencies/STM32CubeL0/Drivers/STM32L0xx_HAL_Driver/Inc/stm32l0xx_ll_lpuart.h ****   uint32_t Parity;                    /*!< Specifies the parity mode.
  96:../../dependencies/STM32CubeL0/Drivers/STM32L0xx_HAL_Driver/Inc/stm32l0xx_ll_lpuart.h ****                                            This parameter can be a value of @ref LPUART_LL_EC_PARIT
  97:../../dependencies/STM32CubeL0/Drivers/STM32L0xx_HAL_Driver/Inc/stm32l0xx_ll_lpuart.h **** 
  98:../../dependencies/STM32CubeL0/Drivers/STM32L0xx_HAL_Driver/Inc/stm32l0xx_ll_lpuart.h ****                                            This feature can be modified afterwards using unitary
  99:../../dependencies/STM32CubeL0/Drivers/STM32L0xx_HAL_Driver/Inc/stm32l0xx_ll_lpuart.h ****                                            function @ref LL_LPUART_SetParity().*/
 100:../../dependencies/STM32CubeL0/Drivers/STM32L0xx_HAL_Driver/Inc/stm32l0xx_ll_lpuart.h **** 
 101:../../dependencies/STM32CubeL0/Drivers/STM32L0xx_HAL_Driver/Inc/stm32l0xx_ll_lpuart.h ****   uint32_t TransferDirection;         /*!< Specifies whether the Receive and/or Transmit mode is en
 102:../../dependencies/STM32CubeL0/Drivers/STM32L0xx_HAL_Driver/Inc/stm32l0xx_ll_lpuart.h ****                                            This parameter can be a value of @ref LPUART_LL_EC_DIREC
 103:../../dependencies/STM32CubeL0/Drivers/STM32L0xx_HAL_Driver/Inc/stm32l0xx_ll_lpuart.h **** 
 104:../../dependencies/STM32CubeL0/Drivers/STM32L0xx_HAL_Driver/Inc/stm32l0xx_ll_lpuart.h ****                                            This feature can be modified afterwards using unitary
 105:../../dependencies/STM32CubeL0/Drivers/STM32L0xx_HAL_Driver/Inc/stm32l0xx_ll_lpuart.h ****                                            function @ref LL_LPUART_SetTransferDirection().*/
 106:../../dependencies/STM32CubeL0/Drivers/STM32L0xx_HAL_Driver/Inc/stm32l0xx_ll_lpuart.h **** 
 107:../../dependencies/STM32CubeL0/Drivers/STM32L0xx_HAL_Driver/Inc/stm32l0xx_ll_lpuart.h ****   uint32_t HardwareFlowControl;       /*!< Specifies whether the hardware flow control mode is enab
 108:../../dependencies/STM32CubeL0/Drivers/STM32L0xx_HAL_Driver/Inc/stm32l0xx_ll_lpuart.h ****                                            This parameter can be a value of @ref LPUART_LL_EC_HWCON
 109:../../dependencies/STM32CubeL0/Drivers/STM32L0xx_HAL_Driver/Inc/stm32l0xx_ll_lpuart.h **** 
 110:../../dependencies/STM32CubeL0/Drivers/STM32L0xx_HAL_Driver/Inc/stm32l0xx_ll_lpuart.h ****                                            This feature can be modified afterwards using unitary
 111:../../dependencies/STM32CubeL0/Drivers/STM32L0xx_HAL_Driver/Inc/stm32l0xx_ll_lpuart.h ****                                            function @ref LL_LPUART_SetHWFlowCtrl().*/
 112:../../dependencies/STM32CubeL0/Drivers/STM32L0xx_HAL_Driver/Inc/stm32l0xx_ll_lpuart.h **** 
 113:../../dependencies/STM32CubeL0/Drivers/STM32L0xx_HAL_Driver/Inc/stm32l0xx_ll_lpuart.h **** } LL_LPUART_InitTypeDef;
 114:../../dependencies/STM32CubeL0/Drivers/STM32L0xx_HAL_Driver/Inc/stm32l0xx_ll_lpuart.h **** 
 115:../../dependencies/STM32CubeL0/Drivers/STM32L0xx_HAL_Driver/Inc/stm32l0xx_ll_lpuart.h **** /**
 116:../../dependencies/STM32CubeL0/Drivers/STM32L0xx_HAL_Driver/Inc/stm32l0xx_ll_lpuart.h ****   * @}
 117:../../dependencies/STM32CubeL0/Drivers/STM32L0xx_HAL_Driver/Inc/stm32l0xx_ll_lpuart.h ****   */
 118:../../dependencies/STM32CubeL0/Drivers/STM32L0xx_HAL_Driver/Inc/stm32l0xx_ll_lpuart.h **** #endif /* USE_FULL_LL_DRIVER */
 119:../../dependencies/STM32CubeL0/Drivers/STM32L0xx_HAL_Driver/Inc/stm32l0xx_ll_lpuart.h **** 
 120:../../dependencies/STM32CubeL0/Drivers/STM32L0xx_HAL_Driver/Inc/stm32l0xx_ll_lpuart.h **** /* Exported constants --------------------------------------------------------*/
 121:../../dependencies/STM32CubeL0/Drivers/STM32L0xx_HAL_Driver/Inc/stm32l0xx_ll_lpuart.h **** /** @defgroup LPUART_LL_Exported_Constants LPUART Exported Constants
 122:../../dependencies/STM32CubeL0/Drivers/STM32L0xx_HAL_Driver/Inc/stm32l0xx_ll_lpuart.h ****   * @{
 123:../../dependencies/STM32CubeL0/Drivers/STM32L0xx_HAL_Driver/Inc/stm32l0xx_ll_lpuart.h ****   */
 124:../../dependencies/STM32CubeL0/Drivers/STM32L0xx_HAL_Driver/Inc/stm32l0xx_ll_lpuart.h **** 
 125:../../dependencies/STM32CubeL0/Drivers/STM32L0xx_HAL_Driver/Inc/stm32l0xx_ll_lpuart.h **** /** @defgroup LPUART_LL_EC_CLEAR_FLAG Clear Flags Defines
 126:../../dependencies/STM32CubeL0/Drivers/STM32L0xx_HAL_Driver/Inc/stm32l0xx_ll_lpuart.h ****   * @brief    Flags defines which can be used with LL_LPUART_WriteReg function
 127:../../dependencies/STM32CubeL0/Drivers/STM32L0xx_HAL_Driver/Inc/stm32l0xx_ll_lpuart.h ****   * @{
 128:../../dependencies/STM32CubeL0/Drivers/STM32L0xx_HAL_Driver/Inc/stm32l0xx_ll_lpuart.h ****   */
 129:../../dependencies/STM32CubeL0/Drivers/STM32L0xx_HAL_Driver/Inc/stm32l0xx_ll_lpuart.h **** #define LL_LPUART_ICR_PECF                 USART_ICR_PECF                /*!< Parity error clear fl
 130:../../dependencies/STM32CubeL0/Drivers/STM32L0xx_HAL_Driver/Inc/stm32l0xx_ll_lpuart.h **** #define LL_LPUART_ICR_FECF                 USART_ICR_FECF                /*!< Framing error clear f
 131:../../dependencies/STM32CubeL0/Drivers/STM32L0xx_HAL_Driver/Inc/stm32l0xx_ll_lpuart.h **** #define LL_LPUART_ICR_NCF                  USART_ICR_NCF                 /*!< Noise error detected 
 132:../../dependencies/STM32CubeL0/Drivers/STM32L0xx_HAL_Driver/Inc/stm32l0xx_ll_lpuart.h **** #define LL_LPUART_ICR_ORECF                USART_ICR_ORECF               /*!< Overrun error clear f
 133:../../dependencies/STM32CubeL0/Drivers/STM32L0xx_HAL_Driver/Inc/stm32l0xx_ll_lpuart.h **** #define LL_LPUART_ICR_IDLECF               USART_ICR_IDLECF              /*!< Idle line detected cl
 134:../../dependencies/STM32CubeL0/Drivers/STM32L0xx_HAL_Driver/Inc/stm32l0xx_ll_lpuart.h **** #define LL_LPUART_ICR_TCCF                 USART_ICR_TCCF                /*!< Transmission complete
 135:../../dependencies/STM32CubeL0/Drivers/STM32L0xx_HAL_Driver/Inc/stm32l0xx_ll_lpuart.h **** #define LL_LPUART_ICR_CTSCF                USART_ICR_CTSCF               /*!< CTS clear flag */
 136:../../dependencies/STM32CubeL0/Drivers/STM32L0xx_HAL_Driver/Inc/stm32l0xx_ll_lpuart.h **** #define LL_LPUART_ICR_CMCF                 USART_ICR_CMCF                /*!< Character match clear
 137:../../dependencies/STM32CubeL0/Drivers/STM32L0xx_HAL_Driver/Inc/stm32l0xx_ll_lpuart.h **** #define LL_LPUART_ICR_WUCF                 USART_ICR_WUCF                /*!< Wakeup from Stop mode
 138:../../dependencies/STM32CubeL0/Drivers/STM32L0xx_HAL_Driver/Inc/stm32l0xx_ll_lpuart.h **** /**
 139:../../dependencies/STM32CubeL0/Drivers/STM32L0xx_HAL_Driver/Inc/stm32l0xx_ll_lpuart.h ****   * @}
 140:../../dependencies/STM32CubeL0/Drivers/STM32L0xx_HAL_Driver/Inc/stm32l0xx_ll_lpuart.h ****   */
 141:../../dependencies/STM32CubeL0/Drivers/STM32L0xx_HAL_Driver/Inc/stm32l0xx_ll_lpuart.h **** 
 142:../../dependencies/STM32CubeL0/Drivers/STM32L0xx_HAL_Driver/Inc/stm32l0xx_ll_lpuart.h **** /** @defgroup LPUART_LL_EC_GET_FLAG Get Flags Defines
 143:../../dependencies/STM32CubeL0/Drivers/STM32L0xx_HAL_Driver/Inc/stm32l0xx_ll_lpuart.h ****   * @brief    Flags defines which can be used with LL_LPUART_ReadReg function
 144:../../dependencies/STM32CubeL0/Drivers/STM32L0xx_HAL_Driver/Inc/stm32l0xx_ll_lpuart.h ****   * @{
 145:../../dependencies/STM32CubeL0/Drivers/STM32L0xx_HAL_Driver/Inc/stm32l0xx_ll_lpuart.h ****   */
 146:../../dependencies/STM32CubeL0/Drivers/STM32L0xx_HAL_Driver/Inc/stm32l0xx_ll_lpuart.h **** #define LL_LPUART_ISR_PE               USART_ISR_PE         /*!< Parity error flag */
 147:../../dependencies/STM32CubeL0/Drivers/STM32L0xx_HAL_Driver/Inc/stm32l0xx_ll_lpuart.h **** #define LL_LPUART_ISR_FE               USART_ISR_FE         /*!< Framing error flag */
ARM GAS  /tmp/cc4HDSS2.s 			page 4


 148:../../dependencies/STM32CubeL0/Drivers/STM32L0xx_HAL_Driver/Inc/stm32l0xx_ll_lpuart.h **** #define LL_LPUART_ISR_NE               USART_ISR_NE         /*!< Noise detected flag */
 149:../../dependencies/STM32CubeL0/Drivers/STM32L0xx_HAL_Driver/Inc/stm32l0xx_ll_lpuart.h **** #define LL_LPUART_ISR_ORE              USART_ISR_ORE        /*!< Overrun error flag */
 150:../../dependencies/STM32CubeL0/Drivers/STM32L0xx_HAL_Driver/Inc/stm32l0xx_ll_lpuart.h **** #define LL_LPUART_ISR_IDLE             USART_ISR_IDLE       /*!< Idle line detected flag */
 151:../../dependencies/STM32CubeL0/Drivers/STM32L0xx_HAL_Driver/Inc/stm32l0xx_ll_lpuart.h **** #define LL_LPUART_ISR_RXNE             USART_ISR_RXNE       /*!< Read data register not empty flag 
 152:../../dependencies/STM32CubeL0/Drivers/STM32L0xx_HAL_Driver/Inc/stm32l0xx_ll_lpuart.h **** #define LL_LPUART_ISR_TC               USART_ISR_TC         /*!< Transmission complete flag */
 153:../../dependencies/STM32CubeL0/Drivers/STM32L0xx_HAL_Driver/Inc/stm32l0xx_ll_lpuart.h **** #define LL_LPUART_ISR_TXE              USART_ISR_TXE        /*!< Transmit data register empty flag 
 154:../../dependencies/STM32CubeL0/Drivers/STM32L0xx_HAL_Driver/Inc/stm32l0xx_ll_lpuart.h **** #define LL_LPUART_ISR_CTSIF            USART_ISR_CTSIF      /*!< CTS interrupt flag */
 155:../../dependencies/STM32CubeL0/Drivers/STM32L0xx_HAL_Driver/Inc/stm32l0xx_ll_lpuart.h **** #define LL_LPUART_ISR_CTS              USART_ISR_CTS        /*!< CTS flag */
 156:../../dependencies/STM32CubeL0/Drivers/STM32L0xx_HAL_Driver/Inc/stm32l0xx_ll_lpuart.h **** #define LL_LPUART_ISR_BUSY             USART_ISR_BUSY       /*!< Busy flag */
 157:../../dependencies/STM32CubeL0/Drivers/STM32L0xx_HAL_Driver/Inc/stm32l0xx_ll_lpuart.h **** #define LL_LPUART_ISR_CMF              USART_ISR_CMF        /*!< Character match flag */
 158:../../dependencies/STM32CubeL0/Drivers/STM32L0xx_HAL_Driver/Inc/stm32l0xx_ll_lpuart.h **** #define LL_LPUART_ISR_SBKF             USART_ISR_SBKF       /*!< Send break flag */
 159:../../dependencies/STM32CubeL0/Drivers/STM32L0xx_HAL_Driver/Inc/stm32l0xx_ll_lpuart.h **** #define LL_LPUART_ISR_RWU              USART_ISR_RWU        /*!< Receiver wakeup from Mute mode fla
 160:../../dependencies/STM32CubeL0/Drivers/STM32L0xx_HAL_Driver/Inc/stm32l0xx_ll_lpuart.h **** #define LL_LPUART_ISR_WUF              USART_ISR_WUF        /*!< Wakeup from Stop mode flag */
 161:../../dependencies/STM32CubeL0/Drivers/STM32L0xx_HAL_Driver/Inc/stm32l0xx_ll_lpuart.h **** #define LL_LPUART_ISR_TEACK            USART_ISR_TEACK      /*!< Transmit enable acknowledge flag *
 162:../../dependencies/STM32CubeL0/Drivers/STM32L0xx_HAL_Driver/Inc/stm32l0xx_ll_lpuart.h **** #define LL_LPUART_ISR_REACK            USART_ISR_REACK      /*!< Receive enable acknowledge flag */
 163:../../dependencies/STM32CubeL0/Drivers/STM32L0xx_HAL_Driver/Inc/stm32l0xx_ll_lpuart.h **** /**
 164:../../dependencies/STM32CubeL0/Drivers/STM32L0xx_HAL_Driver/Inc/stm32l0xx_ll_lpuart.h ****   * @}
 165:../../dependencies/STM32CubeL0/Drivers/STM32L0xx_HAL_Driver/Inc/stm32l0xx_ll_lpuart.h ****   */
 166:../../dependencies/STM32CubeL0/Drivers/STM32L0xx_HAL_Driver/Inc/stm32l0xx_ll_lpuart.h **** 
 167:../../dependencies/STM32CubeL0/Drivers/STM32L0xx_HAL_Driver/Inc/stm32l0xx_ll_lpuart.h **** /** @defgroup LPUART_LL_EC_IT IT Defines
 168:../../dependencies/STM32CubeL0/Drivers/STM32L0xx_HAL_Driver/Inc/stm32l0xx_ll_lpuart.h ****   * @brief    IT defines which can be used with LL_LPUART_ReadReg and  LL_LPUART_WriteReg functions
 169:../../dependencies/STM32CubeL0/Drivers/STM32L0xx_HAL_Driver/Inc/stm32l0xx_ll_lpuart.h ****   * @{
 170:../../dependencies/STM32CubeL0/Drivers/STM32L0xx_HAL_Driver/Inc/stm32l0xx_ll_lpuart.h ****   */
 171:../../dependencies/STM32CubeL0/Drivers/STM32L0xx_HAL_Driver/Inc/stm32l0xx_ll_lpuart.h **** #define LL_LPUART_CR1_IDLEIE         USART_CR1_IDLEIE         /*!< IDLE interrupt enable */
 172:../../dependencies/STM32CubeL0/Drivers/STM32L0xx_HAL_Driver/Inc/stm32l0xx_ll_lpuart.h **** #define LL_LPUART_CR1_RXNEIE         USART_CR1_RXNEIE         /*!< Read data register not empty int
 173:../../dependencies/STM32CubeL0/Drivers/STM32L0xx_HAL_Driver/Inc/stm32l0xx_ll_lpuart.h **** #define LL_LPUART_CR1_TCIE           USART_CR1_TCIE           /*!< Transmission complete interrupt 
 174:../../dependencies/STM32CubeL0/Drivers/STM32L0xx_HAL_Driver/Inc/stm32l0xx_ll_lpuart.h **** #define LL_LPUART_CR1_TXEIE          USART_CR1_TXEIE          /*!< Transmit data register empty int
 175:../../dependencies/STM32CubeL0/Drivers/STM32L0xx_HAL_Driver/Inc/stm32l0xx_ll_lpuart.h **** #define LL_LPUART_CR1_PEIE           USART_CR1_PEIE           /*!< Parity error */
 176:../../dependencies/STM32CubeL0/Drivers/STM32L0xx_HAL_Driver/Inc/stm32l0xx_ll_lpuart.h **** #define LL_LPUART_CR1_CMIE           USART_CR1_CMIE           /*!< Character match interrupt enable
 177:../../dependencies/STM32CubeL0/Drivers/STM32L0xx_HAL_Driver/Inc/stm32l0xx_ll_lpuart.h **** #define LL_LPUART_CR3_EIE            USART_CR3_EIE            /*!< Error interrupt enable */
 178:../../dependencies/STM32CubeL0/Drivers/STM32L0xx_HAL_Driver/Inc/stm32l0xx_ll_lpuart.h **** #define LL_LPUART_CR3_CTSIE          USART_CR3_CTSIE          /*!< CTS interrupt enable */
 179:../../dependencies/STM32CubeL0/Drivers/STM32L0xx_HAL_Driver/Inc/stm32l0xx_ll_lpuart.h **** #define LL_LPUART_CR3_WUFIE          USART_CR3_WUFIE          /*!< Wakeup from Stop mode interrupt 
 180:../../dependencies/STM32CubeL0/Drivers/STM32L0xx_HAL_Driver/Inc/stm32l0xx_ll_lpuart.h **** /**
 181:../../dependencies/STM32CubeL0/Drivers/STM32L0xx_HAL_Driver/Inc/stm32l0xx_ll_lpuart.h ****   * @}
 182:../../dependencies/STM32CubeL0/Drivers/STM32L0xx_HAL_Driver/Inc/stm32l0xx_ll_lpuart.h ****   */
 183:../../dependencies/STM32CubeL0/Drivers/STM32L0xx_HAL_Driver/Inc/stm32l0xx_ll_lpuart.h **** 
 184:../../dependencies/STM32CubeL0/Drivers/STM32L0xx_HAL_Driver/Inc/stm32l0xx_ll_lpuart.h **** /** @defgroup LPUART_LL_EC_DIRECTION Direction
 185:../../dependencies/STM32CubeL0/Drivers/STM32L0xx_HAL_Driver/Inc/stm32l0xx_ll_lpuart.h ****   * @{
 186:../../dependencies/STM32CubeL0/Drivers/STM32L0xx_HAL_Driver/Inc/stm32l0xx_ll_lpuart.h ****   */
 187:../../dependencies/STM32CubeL0/Drivers/STM32L0xx_HAL_Driver/Inc/stm32l0xx_ll_lpuart.h **** #define LL_LPUART_DIRECTION_NONE  0x00000000U                  /*!< Transmitter and Receiver are di
 188:../../dependencies/STM32CubeL0/Drivers/STM32L0xx_HAL_Driver/Inc/stm32l0xx_ll_lpuart.h **** #define LL_LPUART_DIRECTION_RX    USART_CR1_RE                 /*!< Transmitter is disabled and Rec
 189:../../dependencies/STM32CubeL0/Drivers/STM32L0xx_HAL_Driver/Inc/stm32l0xx_ll_lpuart.h **** #define LL_LPUART_DIRECTION_TX    USART_CR1_TE                 /*!< Transmitter is enabled and Rece
 190:../../dependencies/STM32CubeL0/Drivers/STM32L0xx_HAL_Driver/Inc/stm32l0xx_ll_lpuart.h **** #define LL_LPUART_DIRECTION_TX_RX (USART_CR1_TE |USART_CR1_RE) /*!< Transmitter and Receiver are en
 191:../../dependencies/STM32CubeL0/Drivers/STM32L0xx_HAL_Driver/Inc/stm32l0xx_ll_lpuart.h **** /**
 192:../../dependencies/STM32CubeL0/Drivers/STM32L0xx_HAL_Driver/Inc/stm32l0xx_ll_lpuart.h ****   * @}
 193:../../dependencies/STM32CubeL0/Drivers/STM32L0xx_HAL_Driver/Inc/stm32l0xx_ll_lpuart.h ****   */
 194:../../dependencies/STM32CubeL0/Drivers/STM32L0xx_HAL_Driver/Inc/stm32l0xx_ll_lpuart.h **** 
 195:../../dependencies/STM32CubeL0/Drivers/STM32L0xx_HAL_Driver/Inc/stm32l0xx_ll_lpuart.h **** /** @defgroup LPUART_LL_EC_PARITY Parity Control
 196:../../dependencies/STM32CubeL0/Drivers/STM32L0xx_HAL_Driver/Inc/stm32l0xx_ll_lpuart.h ****   * @{
 197:../../dependencies/STM32CubeL0/Drivers/STM32L0xx_HAL_Driver/Inc/stm32l0xx_ll_lpuart.h ****   */
 198:../../dependencies/STM32CubeL0/Drivers/STM32L0xx_HAL_Driver/Inc/stm32l0xx_ll_lpuart.h **** #define LL_LPUART_PARITY_NONE 0x00000000U                    /*!< Parity control disabled          
 199:../../dependencies/STM32CubeL0/Drivers/STM32L0xx_HAL_Driver/Inc/stm32l0xx_ll_lpuart.h **** #define LL_LPUART_PARITY_EVEN USART_CR1_PCE                  /*!< Parity control enabled and Even P
 200:../../dependencies/STM32CubeL0/Drivers/STM32L0xx_HAL_Driver/Inc/stm32l0xx_ll_lpuart.h **** #define LL_LPUART_PARITY_ODD  (USART_CR1_PCE | USART_CR1_PS) /*!< Parity control enabled and Odd Pa
 201:../../dependencies/STM32CubeL0/Drivers/STM32L0xx_HAL_Driver/Inc/stm32l0xx_ll_lpuart.h **** /**
 202:../../dependencies/STM32CubeL0/Drivers/STM32L0xx_HAL_Driver/Inc/stm32l0xx_ll_lpuart.h ****   * @}
 203:../../dependencies/STM32CubeL0/Drivers/STM32L0xx_HAL_Driver/Inc/stm32l0xx_ll_lpuart.h ****   */
 204:../../dependencies/STM32CubeL0/Drivers/STM32L0xx_HAL_Driver/Inc/stm32l0xx_ll_lpuart.h **** 
ARM GAS  /tmp/cc4HDSS2.s 			page 5


 205:../../dependencies/STM32CubeL0/Drivers/STM32L0xx_HAL_Driver/Inc/stm32l0xx_ll_lpuart.h **** /** @defgroup LPUART_LL_EC_WAKEUP Wakeup
 206:../../dependencies/STM32CubeL0/Drivers/STM32L0xx_HAL_Driver/Inc/stm32l0xx_ll_lpuart.h ****   * @{
 207:../../dependencies/STM32CubeL0/Drivers/STM32L0xx_HAL_Driver/Inc/stm32l0xx_ll_lpuart.h ****   */
 208:../../dependencies/STM32CubeL0/Drivers/STM32L0xx_HAL_Driver/Inc/stm32l0xx_ll_lpuart.h **** #define LL_LPUART_WAKEUP_IDLELINE    0x00000000U    /*!<  LPUART wake up from Mute mode on Idle Lin
 209:../../dependencies/STM32CubeL0/Drivers/STM32L0xx_HAL_Driver/Inc/stm32l0xx_ll_lpuart.h **** #define LL_LPUART_WAKEUP_ADDRESSMARK USART_CR1_WAKE /*!<  LPUART wake up from Mute mode on Address 
 210:../../dependencies/STM32CubeL0/Drivers/STM32L0xx_HAL_Driver/Inc/stm32l0xx_ll_lpuart.h **** /**
 211:../../dependencies/STM32CubeL0/Drivers/STM32L0xx_HAL_Driver/Inc/stm32l0xx_ll_lpuart.h ****   * @}
 212:../../dependencies/STM32CubeL0/Drivers/STM32L0xx_HAL_Driver/Inc/stm32l0xx_ll_lpuart.h ****   */
 213:../../dependencies/STM32CubeL0/Drivers/STM32L0xx_HAL_Driver/Inc/stm32l0xx_ll_lpuart.h **** 
 214:../../dependencies/STM32CubeL0/Drivers/STM32L0xx_HAL_Driver/Inc/stm32l0xx_ll_lpuart.h **** /** @defgroup LPUART_LL_EC_DATAWIDTH Datawidth
 215:../../dependencies/STM32CubeL0/Drivers/STM32L0xx_HAL_Driver/Inc/stm32l0xx_ll_lpuart.h ****   * @{
 216:../../dependencies/STM32CubeL0/Drivers/STM32L0xx_HAL_Driver/Inc/stm32l0xx_ll_lpuart.h ****   */
 217:../../dependencies/STM32CubeL0/Drivers/STM32L0xx_HAL_Driver/Inc/stm32l0xx_ll_lpuart.h **** #define LL_LPUART_DATAWIDTH_7B USART_CR1_M1 /*!< 7 bits word length : Start bit, 7 data bits, n sto
 218:../../dependencies/STM32CubeL0/Drivers/STM32L0xx_HAL_Driver/Inc/stm32l0xx_ll_lpuart.h **** #define LL_LPUART_DATAWIDTH_8B 0x00000000U  /*!< 8 bits word length : Start bit, 8 data bits, n sto
 219:../../dependencies/STM32CubeL0/Drivers/STM32L0xx_HAL_Driver/Inc/stm32l0xx_ll_lpuart.h **** #define LL_LPUART_DATAWIDTH_9B USART_CR1_M0 /*!< 9 bits word length : Start bit, 9 data bits, n sto
 220:../../dependencies/STM32CubeL0/Drivers/STM32L0xx_HAL_Driver/Inc/stm32l0xx_ll_lpuart.h **** /**
 221:../../dependencies/STM32CubeL0/Drivers/STM32L0xx_HAL_Driver/Inc/stm32l0xx_ll_lpuart.h ****   * @}
 222:../../dependencies/STM32CubeL0/Drivers/STM32L0xx_HAL_Driver/Inc/stm32l0xx_ll_lpuart.h ****   */
 223:../../dependencies/STM32CubeL0/Drivers/STM32L0xx_HAL_Driver/Inc/stm32l0xx_ll_lpuart.h **** 
 224:../../dependencies/STM32CubeL0/Drivers/STM32L0xx_HAL_Driver/Inc/stm32l0xx_ll_lpuart.h **** /** @defgroup LPUART_LL_EC_STOPBITS Stop Bits
 225:../../dependencies/STM32CubeL0/Drivers/STM32L0xx_HAL_Driver/Inc/stm32l0xx_ll_lpuart.h ****   * @{
 226:../../dependencies/STM32CubeL0/Drivers/STM32L0xx_HAL_Driver/Inc/stm32l0xx_ll_lpuart.h ****   */
 227:../../dependencies/STM32CubeL0/Drivers/STM32L0xx_HAL_Driver/Inc/stm32l0xx_ll_lpuart.h **** #define LL_LPUART_STOPBITS_1         0x00000000U             /*!< 1 stop bit */
 228:../../dependencies/STM32CubeL0/Drivers/STM32L0xx_HAL_Driver/Inc/stm32l0xx_ll_lpuart.h **** #define LL_LPUART_STOPBITS_2         USART_CR2_STOP_1        /*!< 2 stop bits */
 229:../../dependencies/STM32CubeL0/Drivers/STM32L0xx_HAL_Driver/Inc/stm32l0xx_ll_lpuart.h **** /**
 230:../../dependencies/STM32CubeL0/Drivers/STM32L0xx_HAL_Driver/Inc/stm32l0xx_ll_lpuart.h ****   * @}
 231:../../dependencies/STM32CubeL0/Drivers/STM32L0xx_HAL_Driver/Inc/stm32l0xx_ll_lpuart.h ****   */
 232:../../dependencies/STM32CubeL0/Drivers/STM32L0xx_HAL_Driver/Inc/stm32l0xx_ll_lpuart.h **** 
 233:../../dependencies/STM32CubeL0/Drivers/STM32L0xx_HAL_Driver/Inc/stm32l0xx_ll_lpuart.h **** /** @defgroup LPUART_LL_EC_TXRX TX RX Pins Swap
 234:../../dependencies/STM32CubeL0/Drivers/STM32L0xx_HAL_Driver/Inc/stm32l0xx_ll_lpuart.h ****   * @{
 235:../../dependencies/STM32CubeL0/Drivers/STM32L0xx_HAL_Driver/Inc/stm32l0xx_ll_lpuart.h ****   */
 236:../../dependencies/STM32CubeL0/Drivers/STM32L0xx_HAL_Driver/Inc/stm32l0xx_ll_lpuart.h **** #define LL_LPUART_TXRX_STANDARD      0x00000000U        /*!< TX/RX pins are used as defined in stan
 237:../../dependencies/STM32CubeL0/Drivers/STM32L0xx_HAL_Driver/Inc/stm32l0xx_ll_lpuart.h **** #define LL_LPUART_TXRX_SWAPPED       (USART_CR2_SWAP)   /*!< TX and RX pins functions are swapped. 
 238:../../dependencies/STM32CubeL0/Drivers/STM32L0xx_HAL_Driver/Inc/stm32l0xx_ll_lpuart.h **** /**
 239:../../dependencies/STM32CubeL0/Drivers/STM32L0xx_HAL_Driver/Inc/stm32l0xx_ll_lpuart.h ****   * @}
 240:../../dependencies/STM32CubeL0/Drivers/STM32L0xx_HAL_Driver/Inc/stm32l0xx_ll_lpuart.h ****   */
 241:../../dependencies/STM32CubeL0/Drivers/STM32L0xx_HAL_Driver/Inc/stm32l0xx_ll_lpuart.h **** 
 242:../../dependencies/STM32CubeL0/Drivers/STM32L0xx_HAL_Driver/Inc/stm32l0xx_ll_lpuart.h **** /** @defgroup LPUART_LL_EC_RXPIN_LEVEL RX Pin Active Level Inversion
 243:../../dependencies/STM32CubeL0/Drivers/STM32L0xx_HAL_Driver/Inc/stm32l0xx_ll_lpuart.h ****   * @{
 244:../../dependencies/STM32CubeL0/Drivers/STM32L0xx_HAL_Driver/Inc/stm32l0xx_ll_lpuart.h ****   */
 245:../../dependencies/STM32CubeL0/Drivers/STM32L0xx_HAL_Driver/Inc/stm32l0xx_ll_lpuart.h **** #define LL_LPUART_RXPIN_LEVEL_STANDARD   0x00000000U       /*!< RX pin signal works using the stand
 246:../../dependencies/STM32CubeL0/Drivers/STM32L0xx_HAL_Driver/Inc/stm32l0xx_ll_lpuart.h **** #define LL_LPUART_RXPIN_LEVEL_INVERTED   (USART_CR2_RXINV) /*!< RX pin signal values are inverted. 
 247:../../dependencies/STM32CubeL0/Drivers/STM32L0xx_HAL_Driver/Inc/stm32l0xx_ll_lpuart.h **** /**
 248:../../dependencies/STM32CubeL0/Drivers/STM32L0xx_HAL_Driver/Inc/stm32l0xx_ll_lpuart.h ****   * @}
 249:../../dependencies/STM32CubeL0/Drivers/STM32L0xx_HAL_Driver/Inc/stm32l0xx_ll_lpuart.h ****   */
 250:../../dependencies/STM32CubeL0/Drivers/STM32L0xx_HAL_Driver/Inc/stm32l0xx_ll_lpuart.h **** 
 251:../../dependencies/STM32CubeL0/Drivers/STM32L0xx_HAL_Driver/Inc/stm32l0xx_ll_lpuart.h **** /** @defgroup LPUART_LL_EC_TXPIN_LEVEL TX Pin Active Level Inversion
 252:../../dependencies/STM32CubeL0/Drivers/STM32L0xx_HAL_Driver/Inc/stm32l0xx_ll_lpuart.h ****   * @{
 253:../../dependencies/STM32CubeL0/Drivers/STM32L0xx_HAL_Driver/Inc/stm32l0xx_ll_lpuart.h ****   */
 254:../../dependencies/STM32CubeL0/Drivers/STM32L0xx_HAL_Driver/Inc/stm32l0xx_ll_lpuart.h **** #define LL_LPUART_TXPIN_LEVEL_STANDARD  0x00000000U       /*!< TX pin signal works using the standa
 255:../../dependencies/STM32CubeL0/Drivers/STM32L0xx_HAL_Driver/Inc/stm32l0xx_ll_lpuart.h **** #define LL_LPUART_TXPIN_LEVEL_INVERTED  (USART_CR2_TXINV) /*!< TX pin signal values are inverted.  
 256:../../dependencies/STM32CubeL0/Drivers/STM32L0xx_HAL_Driver/Inc/stm32l0xx_ll_lpuart.h **** /**
 257:../../dependencies/STM32CubeL0/Drivers/STM32L0xx_HAL_Driver/Inc/stm32l0xx_ll_lpuart.h ****   * @}
 258:../../dependencies/STM32CubeL0/Drivers/STM32L0xx_HAL_Driver/Inc/stm32l0xx_ll_lpuart.h ****   */
 259:../../dependencies/STM32CubeL0/Drivers/STM32L0xx_HAL_Driver/Inc/stm32l0xx_ll_lpuart.h **** 
 260:../../dependencies/STM32CubeL0/Drivers/STM32L0xx_HAL_Driver/Inc/stm32l0xx_ll_lpuart.h **** /** @defgroup LPUART_LL_EC_BINARY_LOGIC Binary Data Inversion
 261:../../dependencies/STM32CubeL0/Drivers/STM32L0xx_HAL_Driver/Inc/stm32l0xx_ll_lpuart.h ****   * @{
ARM GAS  /tmp/cc4HDSS2.s 			page 6


 262:../../dependencies/STM32CubeL0/Drivers/STM32L0xx_HAL_Driver/Inc/stm32l0xx_ll_lpuart.h ****   */
 263:../../dependencies/STM32CubeL0/Drivers/STM32L0xx_HAL_Driver/Inc/stm32l0xx_ll_lpuart.h **** #define LL_LPUART_BINARY_LOGIC_POSITIVE 0x00000000U       /*!< Logical data from the data register 
 264:../../dependencies/STM32CubeL0/Drivers/STM32L0xx_HAL_Driver/Inc/stm32l0xx_ll_lpuart.h ****                                                                in positive/direct logic. (1=H, 0=L)
 265:../../dependencies/STM32CubeL0/Drivers/STM32L0xx_HAL_Driver/Inc/stm32l0xx_ll_lpuart.h **** #define LL_LPUART_BINARY_LOGIC_NEGATIVE USART_CR2_DATAINV /*!< Logical data from the data register 
 266:../../dependencies/STM32CubeL0/Drivers/STM32L0xx_HAL_Driver/Inc/stm32l0xx_ll_lpuart.h ****                                                                in negative/inverse logic. (1=L, 0=H
 267:../../dependencies/STM32CubeL0/Drivers/STM32L0xx_HAL_Driver/Inc/stm32l0xx_ll_lpuart.h ****                                                                The parity bit is also inverted.    
 268:../../dependencies/STM32CubeL0/Drivers/STM32L0xx_HAL_Driver/Inc/stm32l0xx_ll_lpuart.h **** /**
 269:../../dependencies/STM32CubeL0/Drivers/STM32L0xx_HAL_Driver/Inc/stm32l0xx_ll_lpuart.h ****   * @}
 270:../../dependencies/STM32CubeL0/Drivers/STM32L0xx_HAL_Driver/Inc/stm32l0xx_ll_lpuart.h ****   */
 271:../../dependencies/STM32CubeL0/Drivers/STM32L0xx_HAL_Driver/Inc/stm32l0xx_ll_lpuart.h **** 
 272:../../dependencies/STM32CubeL0/Drivers/STM32L0xx_HAL_Driver/Inc/stm32l0xx_ll_lpuart.h **** /** @defgroup LPUART_LL_EC_BITORDER Bit Order
 273:../../dependencies/STM32CubeL0/Drivers/STM32L0xx_HAL_Driver/Inc/stm32l0xx_ll_lpuart.h ****   * @{
 274:../../dependencies/STM32CubeL0/Drivers/STM32L0xx_HAL_Driver/Inc/stm32l0xx_ll_lpuart.h ****   */
 275:../../dependencies/STM32CubeL0/Drivers/STM32L0xx_HAL_Driver/Inc/stm32l0xx_ll_lpuart.h **** #define LL_LPUART_BITORDER_LSBFIRST 0x00000000U        /*!< data is transmitted/received with data 
 276:../../dependencies/STM32CubeL0/Drivers/STM32L0xx_HAL_Driver/Inc/stm32l0xx_ll_lpuart.h ****                                                             following the start bit */
 277:../../dependencies/STM32CubeL0/Drivers/STM32L0xx_HAL_Driver/Inc/stm32l0xx_ll_lpuart.h **** #define LL_LPUART_BITORDER_MSBFIRST USART_CR2_MSBFIRST /*!< data is transmitted/received with the M
 278:../../dependencies/STM32CubeL0/Drivers/STM32L0xx_HAL_Driver/Inc/stm32l0xx_ll_lpuart.h ****                                                             following the start bit */
 279:../../dependencies/STM32CubeL0/Drivers/STM32L0xx_HAL_Driver/Inc/stm32l0xx_ll_lpuart.h **** /**
 280:../../dependencies/STM32CubeL0/Drivers/STM32L0xx_HAL_Driver/Inc/stm32l0xx_ll_lpuart.h ****   * @}
 281:../../dependencies/STM32CubeL0/Drivers/STM32L0xx_HAL_Driver/Inc/stm32l0xx_ll_lpuart.h ****   */
 282:../../dependencies/STM32CubeL0/Drivers/STM32L0xx_HAL_Driver/Inc/stm32l0xx_ll_lpuart.h **** 
 283:../../dependencies/STM32CubeL0/Drivers/STM32L0xx_HAL_Driver/Inc/stm32l0xx_ll_lpuart.h **** /** @defgroup LPUART_LL_EC_ADDRESS_DETECT Address Length Detection
 284:../../dependencies/STM32CubeL0/Drivers/STM32L0xx_HAL_Driver/Inc/stm32l0xx_ll_lpuart.h ****   * @{
 285:../../dependencies/STM32CubeL0/Drivers/STM32L0xx_HAL_Driver/Inc/stm32l0xx_ll_lpuart.h ****   */
 286:../../dependencies/STM32CubeL0/Drivers/STM32L0xx_HAL_Driver/Inc/stm32l0xx_ll_lpuart.h **** #define LL_LPUART_ADDRESS_DETECT_4B 0x00000000U     /*!< 4-bit address detection method selected */
 287:../../dependencies/STM32CubeL0/Drivers/STM32L0xx_HAL_Driver/Inc/stm32l0xx_ll_lpuart.h **** #define LL_LPUART_ADDRESS_DETECT_7B USART_CR2_ADDM7 /*!< 7-bit address detection (in 8-bit data mod
 288:../../dependencies/STM32CubeL0/Drivers/STM32L0xx_HAL_Driver/Inc/stm32l0xx_ll_lpuart.h **** /**
 289:../../dependencies/STM32CubeL0/Drivers/STM32L0xx_HAL_Driver/Inc/stm32l0xx_ll_lpuart.h ****   * @}
 290:../../dependencies/STM32CubeL0/Drivers/STM32L0xx_HAL_Driver/Inc/stm32l0xx_ll_lpuart.h ****   */
 291:../../dependencies/STM32CubeL0/Drivers/STM32L0xx_HAL_Driver/Inc/stm32l0xx_ll_lpuart.h **** 
 292:../../dependencies/STM32CubeL0/Drivers/STM32L0xx_HAL_Driver/Inc/stm32l0xx_ll_lpuart.h **** /** @defgroup LPUART_LL_EC_HWCONTROL Hardware Control
 293:../../dependencies/STM32CubeL0/Drivers/STM32L0xx_HAL_Driver/Inc/stm32l0xx_ll_lpuart.h ****   * @{
 294:../../dependencies/STM32CubeL0/Drivers/STM32L0xx_HAL_Driver/Inc/stm32l0xx_ll_lpuart.h ****   */
 295:../../dependencies/STM32CubeL0/Drivers/STM32L0xx_HAL_Driver/Inc/stm32l0xx_ll_lpuart.h **** #define LL_LPUART_HWCONTROL_NONE    0x00000000U                       /*!< CTS and RTS hardware flo
 296:../../dependencies/STM32CubeL0/Drivers/STM32L0xx_HAL_Driver/Inc/stm32l0xx_ll_lpuart.h **** #define LL_LPUART_HWCONTROL_RTS     USART_CR3_RTSE                    /*!< RTS output enabled, data
 297:../../dependencies/STM32CubeL0/Drivers/STM32L0xx_HAL_Driver/Inc/stm32l0xx_ll_lpuart.h ****                                                                            when there is space in t
 298:../../dependencies/STM32CubeL0/Drivers/STM32L0xx_HAL_Driver/Inc/stm32l0xx_ll_lpuart.h **** #define LL_LPUART_HWCONTROL_CTS     USART_CR3_CTSE                    /*!< CTS mode enabled, data i
 299:../../dependencies/STM32CubeL0/Drivers/STM32L0xx_HAL_Driver/Inc/stm32l0xx_ll_lpuart.h ****                                                                            when the nCTS input is a
 300:../../dependencies/STM32CubeL0/Drivers/STM32L0xx_HAL_Driver/Inc/stm32l0xx_ll_lpuart.h **** #define LL_LPUART_HWCONTROL_RTS_CTS (USART_CR3_RTSE | USART_CR3_CTSE) /*!< CTS and RTS hardware flo
 301:../../dependencies/STM32CubeL0/Drivers/STM32L0xx_HAL_Driver/Inc/stm32l0xx_ll_lpuart.h **** /**
 302:../../dependencies/STM32CubeL0/Drivers/STM32L0xx_HAL_Driver/Inc/stm32l0xx_ll_lpuart.h ****   * @}
 303:../../dependencies/STM32CubeL0/Drivers/STM32L0xx_HAL_Driver/Inc/stm32l0xx_ll_lpuart.h ****   */
 304:../../dependencies/STM32CubeL0/Drivers/STM32L0xx_HAL_Driver/Inc/stm32l0xx_ll_lpuart.h **** 
 305:../../dependencies/STM32CubeL0/Drivers/STM32L0xx_HAL_Driver/Inc/stm32l0xx_ll_lpuart.h **** /** @defgroup LPUART_LL_EC_WAKEUP_ON Wakeup Activation
 306:../../dependencies/STM32CubeL0/Drivers/STM32L0xx_HAL_Driver/Inc/stm32l0xx_ll_lpuart.h ****   * @{
 307:../../dependencies/STM32CubeL0/Drivers/STM32L0xx_HAL_Driver/Inc/stm32l0xx_ll_lpuart.h ****   */
 308:../../dependencies/STM32CubeL0/Drivers/STM32L0xx_HAL_Driver/Inc/stm32l0xx_ll_lpuart.h **** #define LL_LPUART_WAKEUP_ON_ADDRESS   0x00000000U                          /*!< Wake up active on a
 309:../../dependencies/STM32CubeL0/Drivers/STM32L0xx_HAL_Driver/Inc/stm32l0xx_ll_lpuart.h **** #define LL_LPUART_WAKEUP_ON_STARTBIT  USART_CR3_WUS_1                      /*!< Wake up active on S
 310:../../dependencies/STM32CubeL0/Drivers/STM32L0xx_HAL_Driver/Inc/stm32l0xx_ll_lpuart.h **** #define LL_LPUART_WAKEUP_ON_RXNE      (USART_CR3_WUS_0 | USART_CR3_WUS_1)  /*!< Wake up active on R
 311:../../dependencies/STM32CubeL0/Drivers/STM32L0xx_HAL_Driver/Inc/stm32l0xx_ll_lpuart.h **** /**
 312:../../dependencies/STM32CubeL0/Drivers/STM32L0xx_HAL_Driver/Inc/stm32l0xx_ll_lpuart.h ****   * @}
 313:../../dependencies/STM32CubeL0/Drivers/STM32L0xx_HAL_Driver/Inc/stm32l0xx_ll_lpuart.h ****   */
 314:../../dependencies/STM32CubeL0/Drivers/STM32L0xx_HAL_Driver/Inc/stm32l0xx_ll_lpuart.h **** 
 315:../../dependencies/STM32CubeL0/Drivers/STM32L0xx_HAL_Driver/Inc/stm32l0xx_ll_lpuart.h **** /** @defgroup LPUART_LL_EC_DE_POLARITY Driver Enable Polarity
 316:../../dependencies/STM32CubeL0/Drivers/STM32L0xx_HAL_Driver/Inc/stm32l0xx_ll_lpuart.h ****   * @{
 317:../../dependencies/STM32CubeL0/Drivers/STM32L0xx_HAL_Driver/Inc/stm32l0xx_ll_lpuart.h ****   */
 318:../../dependencies/STM32CubeL0/Drivers/STM32L0xx_HAL_Driver/Inc/stm32l0xx_ll_lpuart.h **** #define LL_LPUART_DE_POLARITY_HIGH         0x00000000U    /*!< DE signal is active high */
ARM GAS  /tmp/cc4HDSS2.s 			page 7


 319:../../dependencies/STM32CubeL0/Drivers/STM32L0xx_HAL_Driver/Inc/stm32l0xx_ll_lpuart.h **** #define LL_LPUART_DE_POLARITY_LOW          USART_CR3_DEP  /*!< DE signal is active low */
 320:../../dependencies/STM32CubeL0/Drivers/STM32L0xx_HAL_Driver/Inc/stm32l0xx_ll_lpuart.h **** /**
 321:../../dependencies/STM32CubeL0/Drivers/STM32L0xx_HAL_Driver/Inc/stm32l0xx_ll_lpuart.h ****   * @}
 322:../../dependencies/STM32CubeL0/Drivers/STM32L0xx_HAL_Driver/Inc/stm32l0xx_ll_lpuart.h ****   */
 323:../../dependencies/STM32CubeL0/Drivers/STM32L0xx_HAL_Driver/Inc/stm32l0xx_ll_lpuart.h **** 
 324:../../dependencies/STM32CubeL0/Drivers/STM32L0xx_HAL_Driver/Inc/stm32l0xx_ll_lpuart.h **** /** @defgroup LPUART_LL_EC_DMA_REG_DATA DMA Register Data
 325:../../dependencies/STM32CubeL0/Drivers/STM32L0xx_HAL_Driver/Inc/stm32l0xx_ll_lpuart.h ****   * @{
 326:../../dependencies/STM32CubeL0/Drivers/STM32L0xx_HAL_Driver/Inc/stm32l0xx_ll_lpuart.h ****   */
 327:../../dependencies/STM32CubeL0/Drivers/STM32L0xx_HAL_Driver/Inc/stm32l0xx_ll_lpuart.h **** #define LL_LPUART_DMA_REG_DATA_TRANSMIT    0x00000000U    /*!< Get address of data register used fo
 328:../../dependencies/STM32CubeL0/Drivers/STM32L0xx_HAL_Driver/Inc/stm32l0xx_ll_lpuart.h **** #define LL_LPUART_DMA_REG_DATA_RECEIVE     0x00000001U    /*!< Get address of data register used fo
 329:../../dependencies/STM32CubeL0/Drivers/STM32L0xx_HAL_Driver/Inc/stm32l0xx_ll_lpuart.h **** /**
 330:../../dependencies/STM32CubeL0/Drivers/STM32L0xx_HAL_Driver/Inc/stm32l0xx_ll_lpuart.h ****   * @}
 331:../../dependencies/STM32CubeL0/Drivers/STM32L0xx_HAL_Driver/Inc/stm32l0xx_ll_lpuart.h ****   */
 332:../../dependencies/STM32CubeL0/Drivers/STM32L0xx_HAL_Driver/Inc/stm32l0xx_ll_lpuart.h **** 
 333:../../dependencies/STM32CubeL0/Drivers/STM32L0xx_HAL_Driver/Inc/stm32l0xx_ll_lpuart.h **** /**
 334:../../dependencies/STM32CubeL0/Drivers/STM32L0xx_HAL_Driver/Inc/stm32l0xx_ll_lpuart.h ****   * @}
 335:../../dependencies/STM32CubeL0/Drivers/STM32L0xx_HAL_Driver/Inc/stm32l0xx_ll_lpuart.h ****   */
 336:../../dependencies/STM32CubeL0/Drivers/STM32L0xx_HAL_Driver/Inc/stm32l0xx_ll_lpuart.h **** 
 337:../../dependencies/STM32CubeL0/Drivers/STM32L0xx_HAL_Driver/Inc/stm32l0xx_ll_lpuart.h **** /* Exported macro ------------------------------------------------------------*/
 338:../../dependencies/STM32CubeL0/Drivers/STM32L0xx_HAL_Driver/Inc/stm32l0xx_ll_lpuart.h **** /** @defgroup LPUART_LL_Exported_Macros LPUART Exported Macros
 339:../../dependencies/STM32CubeL0/Drivers/STM32L0xx_HAL_Driver/Inc/stm32l0xx_ll_lpuart.h ****   * @{
 340:../../dependencies/STM32CubeL0/Drivers/STM32L0xx_HAL_Driver/Inc/stm32l0xx_ll_lpuart.h ****   */
 341:../../dependencies/STM32CubeL0/Drivers/STM32L0xx_HAL_Driver/Inc/stm32l0xx_ll_lpuart.h **** 
 342:../../dependencies/STM32CubeL0/Drivers/STM32L0xx_HAL_Driver/Inc/stm32l0xx_ll_lpuart.h **** /** @defgroup LPUART_LL_EM_WRITE_READ Common Write and read registers Macros
 343:../../dependencies/STM32CubeL0/Drivers/STM32L0xx_HAL_Driver/Inc/stm32l0xx_ll_lpuart.h ****   * @{
 344:../../dependencies/STM32CubeL0/Drivers/STM32L0xx_HAL_Driver/Inc/stm32l0xx_ll_lpuart.h ****   */
 345:../../dependencies/STM32CubeL0/Drivers/STM32L0xx_HAL_Driver/Inc/stm32l0xx_ll_lpuart.h **** 
 346:../../dependencies/STM32CubeL0/Drivers/STM32L0xx_HAL_Driver/Inc/stm32l0xx_ll_lpuart.h **** /**
 347:../../dependencies/STM32CubeL0/Drivers/STM32L0xx_HAL_Driver/Inc/stm32l0xx_ll_lpuart.h ****   * @brief  Write a value in LPUART register
 348:../../dependencies/STM32CubeL0/Drivers/STM32L0xx_HAL_Driver/Inc/stm32l0xx_ll_lpuart.h ****   * @param  __INSTANCE__ LPUART Instance
 349:../../dependencies/STM32CubeL0/Drivers/STM32L0xx_HAL_Driver/Inc/stm32l0xx_ll_lpuart.h ****   * @param  __REG__ Register to be written
 350:../../dependencies/STM32CubeL0/Drivers/STM32L0xx_HAL_Driver/Inc/stm32l0xx_ll_lpuart.h ****   * @param  __VALUE__ Value to be written in the register
 351:../../dependencies/STM32CubeL0/Drivers/STM32L0xx_HAL_Driver/Inc/stm32l0xx_ll_lpuart.h ****   * @retval None
 352:../../dependencies/STM32CubeL0/Drivers/STM32L0xx_HAL_Driver/Inc/stm32l0xx_ll_lpuart.h ****   */
 353:../../dependencies/STM32CubeL0/Drivers/STM32L0xx_HAL_Driver/Inc/stm32l0xx_ll_lpuart.h **** #define LL_LPUART_WriteReg(__INSTANCE__, __REG__, __VALUE__) WRITE_REG(__INSTANCE__->__REG__, (__VA
 354:../../dependencies/STM32CubeL0/Drivers/STM32L0xx_HAL_Driver/Inc/stm32l0xx_ll_lpuart.h **** 
 355:../../dependencies/STM32CubeL0/Drivers/STM32L0xx_HAL_Driver/Inc/stm32l0xx_ll_lpuart.h **** /**
 356:../../dependencies/STM32CubeL0/Drivers/STM32L0xx_HAL_Driver/Inc/stm32l0xx_ll_lpuart.h ****   * @brief  Read a value in LPUART register
 357:../../dependencies/STM32CubeL0/Drivers/STM32L0xx_HAL_Driver/Inc/stm32l0xx_ll_lpuart.h ****   * @param  __INSTANCE__ LPUART Instance
 358:../../dependencies/STM32CubeL0/Drivers/STM32L0xx_HAL_Driver/Inc/stm32l0xx_ll_lpuart.h ****   * @param  __REG__ Register to be read
 359:../../dependencies/STM32CubeL0/Drivers/STM32L0xx_HAL_Driver/Inc/stm32l0xx_ll_lpuart.h ****   * @retval Register value
 360:../../dependencies/STM32CubeL0/Drivers/STM32L0xx_HAL_Driver/Inc/stm32l0xx_ll_lpuart.h ****   */
 361:../../dependencies/STM32CubeL0/Drivers/STM32L0xx_HAL_Driver/Inc/stm32l0xx_ll_lpuart.h **** #define LL_LPUART_ReadReg(__INSTANCE__, __REG__) READ_REG(__INSTANCE__->__REG__)
 362:../../dependencies/STM32CubeL0/Drivers/STM32L0xx_HAL_Driver/Inc/stm32l0xx_ll_lpuart.h **** /**
 363:../../dependencies/STM32CubeL0/Drivers/STM32L0xx_HAL_Driver/Inc/stm32l0xx_ll_lpuart.h ****   * @}
 364:../../dependencies/STM32CubeL0/Drivers/STM32L0xx_HAL_Driver/Inc/stm32l0xx_ll_lpuart.h ****   */
 365:../../dependencies/STM32CubeL0/Drivers/STM32L0xx_HAL_Driver/Inc/stm32l0xx_ll_lpuart.h **** 
 366:../../dependencies/STM32CubeL0/Drivers/STM32L0xx_HAL_Driver/Inc/stm32l0xx_ll_lpuart.h **** /** @defgroup LPUART_LL_EM_Exported_Macros_Helper Helper Macros
 367:../../dependencies/STM32CubeL0/Drivers/STM32L0xx_HAL_Driver/Inc/stm32l0xx_ll_lpuart.h ****   * @{
 368:../../dependencies/STM32CubeL0/Drivers/STM32L0xx_HAL_Driver/Inc/stm32l0xx_ll_lpuart.h ****   */
 369:../../dependencies/STM32CubeL0/Drivers/STM32L0xx_HAL_Driver/Inc/stm32l0xx_ll_lpuart.h **** 
 370:../../dependencies/STM32CubeL0/Drivers/STM32L0xx_HAL_Driver/Inc/stm32l0xx_ll_lpuart.h **** /**
 371:../../dependencies/STM32CubeL0/Drivers/STM32L0xx_HAL_Driver/Inc/stm32l0xx_ll_lpuart.h ****   * @brief  Compute LPUARTDIV value according to Peripheral Clock and
 372:../../dependencies/STM32CubeL0/Drivers/STM32L0xx_HAL_Driver/Inc/stm32l0xx_ll_lpuart.h ****   *         expected Baud Rate (20-bit value of LPUARTDIV is returned)
 373:../../dependencies/STM32CubeL0/Drivers/STM32L0xx_HAL_Driver/Inc/stm32l0xx_ll_lpuart.h ****   * @param  __PERIPHCLK__ Peripheral Clock frequency used for LPUART Instance
 374:../../dependencies/STM32CubeL0/Drivers/STM32L0xx_HAL_Driver/Inc/stm32l0xx_ll_lpuart.h ****   * @param  __BAUDRATE__ Baud Rate value to achieve
 375:../../dependencies/STM32CubeL0/Drivers/STM32L0xx_HAL_Driver/Inc/stm32l0xx_ll_lpuart.h ****   * @retval LPUARTDIV value to be used for BRR register filling
ARM GAS  /tmp/cc4HDSS2.s 			page 8


 376:../../dependencies/STM32CubeL0/Drivers/STM32L0xx_HAL_Driver/Inc/stm32l0xx_ll_lpuart.h ****   */
 377:../../dependencies/STM32CubeL0/Drivers/STM32L0xx_HAL_Driver/Inc/stm32l0xx_ll_lpuart.h **** #define __LL_LPUART_DIV(__PERIPHCLK__, __BAUDRATE__) (uint32_t)(((((uint64_t)(__PERIPHCLK__)*LPUART
 378:../../dependencies/STM32CubeL0/Drivers/STM32L0xx_HAL_Driver/Inc/stm32l0xx_ll_lpuart.h ****                                                                 & LPUART_BRR_MASK)
 379:../../dependencies/STM32CubeL0/Drivers/STM32L0xx_HAL_Driver/Inc/stm32l0xx_ll_lpuart.h **** 
 380:../../dependencies/STM32CubeL0/Drivers/STM32L0xx_HAL_Driver/Inc/stm32l0xx_ll_lpuart.h **** /**
 381:../../dependencies/STM32CubeL0/Drivers/STM32L0xx_HAL_Driver/Inc/stm32l0xx_ll_lpuart.h ****   * @}
 382:../../dependencies/STM32CubeL0/Drivers/STM32L0xx_HAL_Driver/Inc/stm32l0xx_ll_lpuart.h ****   */
 383:../../dependencies/STM32CubeL0/Drivers/STM32L0xx_HAL_Driver/Inc/stm32l0xx_ll_lpuart.h **** 
 384:../../dependencies/STM32CubeL0/Drivers/STM32L0xx_HAL_Driver/Inc/stm32l0xx_ll_lpuart.h **** /**
 385:../../dependencies/STM32CubeL0/Drivers/STM32L0xx_HAL_Driver/Inc/stm32l0xx_ll_lpuart.h ****   * @}
 386:../../dependencies/STM32CubeL0/Drivers/STM32L0xx_HAL_Driver/Inc/stm32l0xx_ll_lpuart.h ****   */
 387:../../dependencies/STM32CubeL0/Drivers/STM32L0xx_HAL_Driver/Inc/stm32l0xx_ll_lpuart.h **** 
 388:../../dependencies/STM32CubeL0/Drivers/STM32L0xx_HAL_Driver/Inc/stm32l0xx_ll_lpuart.h **** /* Exported functions --------------------------------------------------------*/
 389:../../dependencies/STM32CubeL0/Drivers/STM32L0xx_HAL_Driver/Inc/stm32l0xx_ll_lpuart.h **** /** @defgroup LPUART_LL_Exported_Functions LPUART Exported Functions
 390:../../dependencies/STM32CubeL0/Drivers/STM32L0xx_HAL_Driver/Inc/stm32l0xx_ll_lpuart.h ****   * @{
 391:../../dependencies/STM32CubeL0/Drivers/STM32L0xx_HAL_Driver/Inc/stm32l0xx_ll_lpuart.h ****   */
 392:../../dependencies/STM32CubeL0/Drivers/STM32L0xx_HAL_Driver/Inc/stm32l0xx_ll_lpuart.h **** 
 393:../../dependencies/STM32CubeL0/Drivers/STM32L0xx_HAL_Driver/Inc/stm32l0xx_ll_lpuart.h **** /** @defgroup LPUART_LL_EF_Configuration Configuration functions
 394:../../dependencies/STM32CubeL0/Drivers/STM32L0xx_HAL_Driver/Inc/stm32l0xx_ll_lpuart.h ****   * @{
 395:../../dependencies/STM32CubeL0/Drivers/STM32L0xx_HAL_Driver/Inc/stm32l0xx_ll_lpuart.h ****   */
 396:../../dependencies/STM32CubeL0/Drivers/STM32L0xx_HAL_Driver/Inc/stm32l0xx_ll_lpuart.h **** 
 397:../../dependencies/STM32CubeL0/Drivers/STM32L0xx_HAL_Driver/Inc/stm32l0xx_ll_lpuart.h **** /**
 398:../../dependencies/STM32CubeL0/Drivers/STM32L0xx_HAL_Driver/Inc/stm32l0xx_ll_lpuart.h ****   * @brief  LPUART Enable
 399:../../dependencies/STM32CubeL0/Drivers/STM32L0xx_HAL_Driver/Inc/stm32l0xx_ll_lpuart.h ****   * @rmtoll CR1          UE            LL_LPUART_Enable
 400:../../dependencies/STM32CubeL0/Drivers/STM32L0xx_HAL_Driver/Inc/stm32l0xx_ll_lpuart.h ****   * @param  LPUARTx LPUART Instance
 401:../../dependencies/STM32CubeL0/Drivers/STM32L0xx_HAL_Driver/Inc/stm32l0xx_ll_lpuart.h ****   * @retval None
 402:../../dependencies/STM32CubeL0/Drivers/STM32L0xx_HAL_Driver/Inc/stm32l0xx_ll_lpuart.h ****   */
 403:../../dependencies/STM32CubeL0/Drivers/STM32L0xx_HAL_Driver/Inc/stm32l0xx_ll_lpuart.h **** __STATIC_INLINE void LL_LPUART_Enable(USART_TypeDef *LPUARTx)
 404:../../dependencies/STM32CubeL0/Drivers/STM32L0xx_HAL_Driver/Inc/stm32l0xx_ll_lpuart.h **** {
 405:../../dependencies/STM32CubeL0/Drivers/STM32L0xx_HAL_Driver/Inc/stm32l0xx_ll_lpuart.h ****   SET_BIT(LPUARTx->CR1, USART_CR1_UE);
 406:../../dependencies/STM32CubeL0/Drivers/STM32L0xx_HAL_Driver/Inc/stm32l0xx_ll_lpuart.h **** }
 407:../../dependencies/STM32CubeL0/Drivers/STM32L0xx_HAL_Driver/Inc/stm32l0xx_ll_lpuart.h **** 
 408:../../dependencies/STM32CubeL0/Drivers/STM32L0xx_HAL_Driver/Inc/stm32l0xx_ll_lpuart.h **** /**
 409:../../dependencies/STM32CubeL0/Drivers/STM32L0xx_HAL_Driver/Inc/stm32l0xx_ll_lpuart.h ****   * @brief  LPUART Disable
 410:../../dependencies/STM32CubeL0/Drivers/STM32L0xx_HAL_Driver/Inc/stm32l0xx_ll_lpuart.h ****   * @note   When LPUART is disabled, LPUART prescalers and outputs are stopped immediately,
 411:../../dependencies/STM32CubeL0/Drivers/STM32L0xx_HAL_Driver/Inc/stm32l0xx_ll_lpuart.h ****   *         and current operations are discarded. The configuration of the LPUART is kept, but all 
 412:../../dependencies/STM32CubeL0/Drivers/STM32L0xx_HAL_Driver/Inc/stm32l0xx_ll_lpuart.h ****   *         flags, in the LPUARTx_ISR are set to their default values.
 413:../../dependencies/STM32CubeL0/Drivers/STM32L0xx_HAL_Driver/Inc/stm32l0xx_ll_lpuart.h ****   * @note   In order to go into low-power mode without generating errors on the line,
 414:../../dependencies/STM32CubeL0/Drivers/STM32L0xx_HAL_Driver/Inc/stm32l0xx_ll_lpuart.h ****   *         the TE bit must be reset before and the software must wait
 415:../../dependencies/STM32CubeL0/Drivers/STM32L0xx_HAL_Driver/Inc/stm32l0xx_ll_lpuart.h ****   *         for the TC bit in the LPUART_ISR to be set before resetting the UE bit.
 416:../../dependencies/STM32CubeL0/Drivers/STM32L0xx_HAL_Driver/Inc/stm32l0xx_ll_lpuart.h ****   *         The DMA requests are also reset when UE = 0 so the DMA channel must
 417:../../dependencies/STM32CubeL0/Drivers/STM32L0xx_HAL_Driver/Inc/stm32l0xx_ll_lpuart.h ****   *         be disabled before resetting the UE bit.
 418:../../dependencies/STM32CubeL0/Drivers/STM32L0xx_HAL_Driver/Inc/stm32l0xx_ll_lpuart.h ****   * @rmtoll CR1          UE            LL_LPUART_Disable
 419:../../dependencies/STM32CubeL0/Drivers/STM32L0xx_HAL_Driver/Inc/stm32l0xx_ll_lpuart.h ****   * @param  LPUARTx LPUART Instance
 420:../../dependencies/STM32CubeL0/Drivers/STM32L0xx_HAL_Driver/Inc/stm32l0xx_ll_lpuart.h ****   * @retval None
 421:../../dependencies/STM32CubeL0/Drivers/STM32L0xx_HAL_Driver/Inc/stm32l0xx_ll_lpuart.h ****   */
 422:../../dependencies/STM32CubeL0/Drivers/STM32L0xx_HAL_Driver/Inc/stm32l0xx_ll_lpuart.h **** __STATIC_INLINE void LL_LPUART_Disable(USART_TypeDef *LPUARTx)
 423:../../dependencies/STM32CubeL0/Drivers/STM32L0xx_HAL_Driver/Inc/stm32l0xx_ll_lpuart.h **** {
 424:../../dependencies/STM32CubeL0/Drivers/STM32L0xx_HAL_Driver/Inc/stm32l0xx_ll_lpuart.h ****   CLEAR_BIT(LPUARTx->CR1, USART_CR1_UE);
 425:../../dependencies/STM32CubeL0/Drivers/STM32L0xx_HAL_Driver/Inc/stm32l0xx_ll_lpuart.h **** }
 426:../../dependencies/STM32CubeL0/Drivers/STM32L0xx_HAL_Driver/Inc/stm32l0xx_ll_lpuart.h **** 
 427:../../dependencies/STM32CubeL0/Drivers/STM32L0xx_HAL_Driver/Inc/stm32l0xx_ll_lpuart.h **** /**
 428:../../dependencies/STM32CubeL0/Drivers/STM32L0xx_HAL_Driver/Inc/stm32l0xx_ll_lpuart.h ****   * @brief  Indicate if LPUART is enabled
 429:../../dependencies/STM32CubeL0/Drivers/STM32L0xx_HAL_Driver/Inc/stm32l0xx_ll_lpuart.h ****   * @rmtoll CR1          UE            LL_LPUART_IsEnabled
 430:../../dependencies/STM32CubeL0/Drivers/STM32L0xx_HAL_Driver/Inc/stm32l0xx_ll_lpuart.h ****   * @param  LPUARTx LPUART Instance
 431:../../dependencies/STM32CubeL0/Drivers/STM32L0xx_HAL_Driver/Inc/stm32l0xx_ll_lpuart.h ****   * @retval State of bit (1 or 0).
 432:../../dependencies/STM32CubeL0/Drivers/STM32L0xx_HAL_Driver/Inc/stm32l0xx_ll_lpuart.h ****   */
ARM GAS  /tmp/cc4HDSS2.s 			page 9


 433:../../dependencies/STM32CubeL0/Drivers/STM32L0xx_HAL_Driver/Inc/stm32l0xx_ll_lpuart.h **** __STATIC_INLINE uint32_t LL_LPUART_IsEnabled(USART_TypeDef *LPUARTx)
 434:../../dependencies/STM32CubeL0/Drivers/STM32L0xx_HAL_Driver/Inc/stm32l0xx_ll_lpuart.h **** {
  26              		.loc 1 434 1
  27              		.cfi_startproc
  28              		@ args = 0, pretend = 0, frame = 8
  29              		@ frame_needed = 1, uses_anonymous_args = 0
  30 0000 80B5     		push	{r7, lr}
  31              		.cfi_def_cfa_offset 8
  32              		.cfi_offset 7, -8
  33              		.cfi_offset 14, -4
  34 0002 82B0     		sub	sp, sp, #8
  35              		.cfi_def_cfa_offset 16
  36 0004 00AF     		add	r7, sp, #0
  37              		.cfi_def_cfa_register 7
  38 0006 7860     		str	r0, [r7, #4]
 435:../../dependencies/STM32CubeL0/Drivers/STM32L0xx_HAL_Driver/Inc/stm32l0xx_ll_lpuart.h ****   return ((READ_BIT(LPUARTx->CR1, USART_CR1_UE) == (USART_CR1_UE)) ? 1UL : 0UL);
  39              		.loc 1 435 12
  40 0008 7B68     		ldr	r3, [r7, #4]
  41 000a 1B68     		ldr	r3, [r3]
  42 000c 0122     		movs	r2, #1
  43 000e 1340     		ands	r3, r2
  44              		.loc 1 435 74
  45 0010 012B     		cmp	r3, #1
  46 0012 01D1     		bne	.L2
  47              		.loc 1 435 74 is_stmt 0 discriminator 1
  48 0014 0123     		movs	r3, #1
  49 0016 00E0     		b	.L4
  50              	.L2:
  51              		.loc 1 435 74 discriminator 2
  52 0018 0023     		movs	r3, #0
  53              	.L4:
 436:../../dependencies/STM32CubeL0/Drivers/STM32L0xx_HAL_Driver/Inc/stm32l0xx_ll_lpuart.h **** }
  54              		.loc 1 436 1 is_stmt 1 discriminator 5
  55 001a 1800     		movs	r0, r3
  56 001c BD46     		mov	sp, r7
  57 001e 02B0     		add	sp, sp, #8
  58              		@ sp needed
  59 0020 80BD     		pop	{r7, pc}
  60              		.cfi_endproc
  61              	.LFE49:
  63              		.section	.text.LL_LPUART_SetStopBitsLength,"ax",%progbits
  64              		.align	1
  65              		.syntax unified
  66              		.code	16
  67              		.thumb_func
  68              		.fpu softvfp
  70              	LL_LPUART_SetStopBitsLength:
  71              	.LFB71:
 437:../../dependencies/STM32CubeL0/Drivers/STM32L0xx_HAL_Driver/Inc/stm32l0xx_ll_lpuart.h **** 
 438:../../dependencies/STM32CubeL0/Drivers/STM32L0xx_HAL_Driver/Inc/stm32l0xx_ll_lpuart.h **** 
 439:../../dependencies/STM32CubeL0/Drivers/STM32L0xx_HAL_Driver/Inc/stm32l0xx_ll_lpuart.h **** /**
 440:../../dependencies/STM32CubeL0/Drivers/STM32L0xx_HAL_Driver/Inc/stm32l0xx_ll_lpuart.h ****   * @brief  LPUART enabled in STOP Mode
 441:../../dependencies/STM32CubeL0/Drivers/STM32L0xx_HAL_Driver/Inc/stm32l0xx_ll_lpuart.h ****   * @note   When this function is enabled, LPUART is able to wake up the MCU from Stop mode, provid
 442:../../dependencies/STM32CubeL0/Drivers/STM32L0xx_HAL_Driver/Inc/stm32l0xx_ll_lpuart.h ****   *         LPUART clock selection is HSI or LSE in RCC.
 443:../../dependencies/STM32CubeL0/Drivers/STM32L0xx_HAL_Driver/Inc/stm32l0xx_ll_lpuart.h ****   * @rmtoll CR1          UESM          LL_LPUART_EnableInStopMode
 444:../../dependencies/STM32CubeL0/Drivers/STM32L0xx_HAL_Driver/Inc/stm32l0xx_ll_lpuart.h ****   * @param  LPUARTx LPUART Instance
 445:../../dependencies/STM32CubeL0/Drivers/STM32L0xx_HAL_Driver/Inc/stm32l0xx_ll_lpuart.h ****   * @retval None
ARM GAS  /tmp/cc4HDSS2.s 			page 10


 446:../../dependencies/STM32CubeL0/Drivers/STM32L0xx_HAL_Driver/Inc/stm32l0xx_ll_lpuart.h ****   */
 447:../../dependencies/STM32CubeL0/Drivers/STM32L0xx_HAL_Driver/Inc/stm32l0xx_ll_lpuart.h **** __STATIC_INLINE void LL_LPUART_EnableInStopMode(USART_TypeDef *LPUARTx)
 448:../../dependencies/STM32CubeL0/Drivers/STM32L0xx_HAL_Driver/Inc/stm32l0xx_ll_lpuart.h **** {
 449:../../dependencies/STM32CubeL0/Drivers/STM32L0xx_HAL_Driver/Inc/stm32l0xx_ll_lpuart.h ****   ATOMIC_SET_BIT(LPUARTx->CR1, USART_CR1_UESM);
 450:../../dependencies/STM32CubeL0/Drivers/STM32L0xx_HAL_Driver/Inc/stm32l0xx_ll_lpuart.h **** }
 451:../../dependencies/STM32CubeL0/Drivers/STM32L0xx_HAL_Driver/Inc/stm32l0xx_ll_lpuart.h **** 
 452:../../dependencies/STM32CubeL0/Drivers/STM32L0xx_HAL_Driver/Inc/stm32l0xx_ll_lpuart.h **** /**
 453:../../dependencies/STM32CubeL0/Drivers/STM32L0xx_HAL_Driver/Inc/stm32l0xx_ll_lpuart.h ****   * @brief  LPUART disabled in STOP Mode
 454:../../dependencies/STM32CubeL0/Drivers/STM32L0xx_HAL_Driver/Inc/stm32l0xx_ll_lpuart.h ****   * @note   When this function is disabled, LPUART is not able to wake up the MCU from Stop mode
 455:../../dependencies/STM32CubeL0/Drivers/STM32L0xx_HAL_Driver/Inc/stm32l0xx_ll_lpuart.h ****   * @rmtoll CR1          UESM          LL_LPUART_DisableInStopMode
 456:../../dependencies/STM32CubeL0/Drivers/STM32L0xx_HAL_Driver/Inc/stm32l0xx_ll_lpuart.h ****   * @param  LPUARTx LPUART Instance
 457:../../dependencies/STM32CubeL0/Drivers/STM32L0xx_HAL_Driver/Inc/stm32l0xx_ll_lpuart.h ****   * @retval None
 458:../../dependencies/STM32CubeL0/Drivers/STM32L0xx_HAL_Driver/Inc/stm32l0xx_ll_lpuart.h ****   */
 459:../../dependencies/STM32CubeL0/Drivers/STM32L0xx_HAL_Driver/Inc/stm32l0xx_ll_lpuart.h **** __STATIC_INLINE void LL_LPUART_DisableInStopMode(USART_TypeDef *LPUARTx)
 460:../../dependencies/STM32CubeL0/Drivers/STM32L0xx_HAL_Driver/Inc/stm32l0xx_ll_lpuart.h **** {
 461:../../dependencies/STM32CubeL0/Drivers/STM32L0xx_HAL_Driver/Inc/stm32l0xx_ll_lpuart.h ****   ATOMIC_CLEAR_BIT(LPUARTx->CR1, USART_CR1_UESM);
 462:../../dependencies/STM32CubeL0/Drivers/STM32L0xx_HAL_Driver/Inc/stm32l0xx_ll_lpuart.h **** }
 463:../../dependencies/STM32CubeL0/Drivers/STM32L0xx_HAL_Driver/Inc/stm32l0xx_ll_lpuart.h **** 
 464:../../dependencies/STM32CubeL0/Drivers/STM32L0xx_HAL_Driver/Inc/stm32l0xx_ll_lpuart.h **** /**
 465:../../dependencies/STM32CubeL0/Drivers/STM32L0xx_HAL_Driver/Inc/stm32l0xx_ll_lpuart.h ****   * @brief  Indicate if LPUART is enabled in STOP Mode
 466:../../dependencies/STM32CubeL0/Drivers/STM32L0xx_HAL_Driver/Inc/stm32l0xx_ll_lpuart.h ****   *         (able to wake up MCU from Stop mode or not)
 467:../../dependencies/STM32CubeL0/Drivers/STM32L0xx_HAL_Driver/Inc/stm32l0xx_ll_lpuart.h ****   * @rmtoll CR1          UESM          LL_LPUART_IsEnabledInStopMode
 468:../../dependencies/STM32CubeL0/Drivers/STM32L0xx_HAL_Driver/Inc/stm32l0xx_ll_lpuart.h ****   * @param  LPUARTx LPUART Instance
 469:../../dependencies/STM32CubeL0/Drivers/STM32L0xx_HAL_Driver/Inc/stm32l0xx_ll_lpuart.h ****   * @retval State of bit (1 or 0).
 470:../../dependencies/STM32CubeL0/Drivers/STM32L0xx_HAL_Driver/Inc/stm32l0xx_ll_lpuart.h ****   */
 471:../../dependencies/STM32CubeL0/Drivers/STM32L0xx_HAL_Driver/Inc/stm32l0xx_ll_lpuart.h **** __STATIC_INLINE uint32_t LL_LPUART_IsEnabledInStopMode(USART_TypeDef *LPUARTx)
 472:../../dependencies/STM32CubeL0/Drivers/STM32L0xx_HAL_Driver/Inc/stm32l0xx_ll_lpuart.h **** {
 473:../../dependencies/STM32CubeL0/Drivers/STM32L0xx_HAL_Driver/Inc/stm32l0xx_ll_lpuart.h ****   return ((READ_BIT(LPUARTx->CR1, USART_CR1_UESM) == (USART_CR1_UESM)) ? 1UL : 0UL);
 474:../../dependencies/STM32CubeL0/Drivers/STM32L0xx_HAL_Driver/Inc/stm32l0xx_ll_lpuart.h **** }
 475:../../dependencies/STM32CubeL0/Drivers/STM32L0xx_HAL_Driver/Inc/stm32l0xx_ll_lpuart.h **** 
 476:../../dependencies/STM32CubeL0/Drivers/STM32L0xx_HAL_Driver/Inc/stm32l0xx_ll_lpuart.h **** /**
 477:../../dependencies/STM32CubeL0/Drivers/STM32L0xx_HAL_Driver/Inc/stm32l0xx_ll_lpuart.h ****   * @brief  LPUART Clock enabled in STOP Mode
 478:../../dependencies/STM32CubeL0/Drivers/STM32L0xx_HAL_Driver/Inc/stm32l0xx_ll_lpuart.h ****   * @note   When this function is called, LPUART Clock is enabled while in STOP mode
 479:../../dependencies/STM32CubeL0/Drivers/STM32L0xx_HAL_Driver/Inc/stm32l0xx_ll_lpuart.h ****   * @rmtoll CR3          UCESM         LL_LPUART_EnableClockInStopMode
 480:../../dependencies/STM32CubeL0/Drivers/STM32L0xx_HAL_Driver/Inc/stm32l0xx_ll_lpuart.h ****   * @param  LPUARTx LPUART Instance
 481:../../dependencies/STM32CubeL0/Drivers/STM32L0xx_HAL_Driver/Inc/stm32l0xx_ll_lpuart.h ****   * @retval None
 482:../../dependencies/STM32CubeL0/Drivers/STM32L0xx_HAL_Driver/Inc/stm32l0xx_ll_lpuart.h ****   */
 483:../../dependencies/STM32CubeL0/Drivers/STM32L0xx_HAL_Driver/Inc/stm32l0xx_ll_lpuart.h **** __STATIC_INLINE void LL_LPUART_EnableClockInStopMode(USART_TypeDef *LPUARTx)
 484:../../dependencies/STM32CubeL0/Drivers/STM32L0xx_HAL_Driver/Inc/stm32l0xx_ll_lpuart.h **** {
 485:../../dependencies/STM32CubeL0/Drivers/STM32L0xx_HAL_Driver/Inc/stm32l0xx_ll_lpuart.h ****   ATOMIC_SET_BIT(LPUARTx->CR3, USART_CR3_UCESM);
 486:../../dependencies/STM32CubeL0/Drivers/STM32L0xx_HAL_Driver/Inc/stm32l0xx_ll_lpuart.h **** }
 487:../../dependencies/STM32CubeL0/Drivers/STM32L0xx_HAL_Driver/Inc/stm32l0xx_ll_lpuart.h **** 
 488:../../dependencies/STM32CubeL0/Drivers/STM32L0xx_HAL_Driver/Inc/stm32l0xx_ll_lpuart.h **** /**
 489:../../dependencies/STM32CubeL0/Drivers/STM32L0xx_HAL_Driver/Inc/stm32l0xx_ll_lpuart.h ****   * @brief  LPUART clock disabled in STOP Mode
 490:../../dependencies/STM32CubeL0/Drivers/STM32L0xx_HAL_Driver/Inc/stm32l0xx_ll_lpuart.h ****   * @note   When this function is called, LPUART Clock is disabled while in STOP mode
 491:../../dependencies/STM32CubeL0/Drivers/STM32L0xx_HAL_Driver/Inc/stm32l0xx_ll_lpuart.h ****   * @rmtoll CR3          UCESM         LL_LPUART_DisableClockInStopMode
 492:../../dependencies/STM32CubeL0/Drivers/STM32L0xx_HAL_Driver/Inc/stm32l0xx_ll_lpuart.h ****   * @param  LPUARTx LPUART Instance
 493:../../dependencies/STM32CubeL0/Drivers/STM32L0xx_HAL_Driver/Inc/stm32l0xx_ll_lpuart.h ****   * @retval None
 494:../../dependencies/STM32CubeL0/Drivers/STM32L0xx_HAL_Driver/Inc/stm32l0xx_ll_lpuart.h ****   */
 495:../../dependencies/STM32CubeL0/Drivers/STM32L0xx_HAL_Driver/Inc/stm32l0xx_ll_lpuart.h **** __STATIC_INLINE void LL_LPUART_DisableClockInStopMode(USART_TypeDef *LPUARTx)
 496:../../dependencies/STM32CubeL0/Drivers/STM32L0xx_HAL_Driver/Inc/stm32l0xx_ll_lpuart.h **** {
 497:../../dependencies/STM32CubeL0/Drivers/STM32L0xx_HAL_Driver/Inc/stm32l0xx_ll_lpuart.h ****   ATOMIC_CLEAR_BIT(LPUARTx->CR3, USART_CR3_UCESM);
 498:../../dependencies/STM32CubeL0/Drivers/STM32L0xx_HAL_Driver/Inc/stm32l0xx_ll_lpuart.h **** }
 499:../../dependencies/STM32CubeL0/Drivers/STM32L0xx_HAL_Driver/Inc/stm32l0xx_ll_lpuart.h **** 
 500:../../dependencies/STM32CubeL0/Drivers/STM32L0xx_HAL_Driver/Inc/stm32l0xx_ll_lpuart.h **** /**
 501:../../dependencies/STM32CubeL0/Drivers/STM32L0xx_HAL_Driver/Inc/stm32l0xx_ll_lpuart.h ****   * @brief  Indicate if LPUART clock is enabled in STOP Mode
 502:../../dependencies/STM32CubeL0/Drivers/STM32L0xx_HAL_Driver/Inc/stm32l0xx_ll_lpuart.h ****   * @rmtoll CR3          UCESM         LL_LPUART_IsClockEnabledInStopMode
ARM GAS  /tmp/cc4HDSS2.s 			page 11


 503:../../dependencies/STM32CubeL0/Drivers/STM32L0xx_HAL_Driver/Inc/stm32l0xx_ll_lpuart.h ****   * @param  LPUARTx LPUART Instance
 504:../../dependencies/STM32CubeL0/Drivers/STM32L0xx_HAL_Driver/Inc/stm32l0xx_ll_lpuart.h ****   * @retval State of bit (1 or 0).
 505:../../dependencies/STM32CubeL0/Drivers/STM32L0xx_HAL_Driver/Inc/stm32l0xx_ll_lpuart.h ****   */
 506:../../dependencies/STM32CubeL0/Drivers/STM32L0xx_HAL_Driver/Inc/stm32l0xx_ll_lpuart.h **** __STATIC_INLINE uint32_t LL_LPUART_IsClockEnabledInStopMode(USART_TypeDef *LPUARTx)
 507:../../dependencies/STM32CubeL0/Drivers/STM32L0xx_HAL_Driver/Inc/stm32l0xx_ll_lpuart.h **** {
 508:../../dependencies/STM32CubeL0/Drivers/STM32L0xx_HAL_Driver/Inc/stm32l0xx_ll_lpuart.h ****   return ((READ_BIT(LPUARTx->CR3, USART_CR3_UCESM) == (USART_CR3_UCESM)) ? 1UL : 0UL);
 509:../../dependencies/STM32CubeL0/Drivers/STM32L0xx_HAL_Driver/Inc/stm32l0xx_ll_lpuart.h **** }
 510:../../dependencies/STM32CubeL0/Drivers/STM32L0xx_HAL_Driver/Inc/stm32l0xx_ll_lpuart.h **** 
 511:../../dependencies/STM32CubeL0/Drivers/STM32L0xx_HAL_Driver/Inc/stm32l0xx_ll_lpuart.h **** /**
 512:../../dependencies/STM32CubeL0/Drivers/STM32L0xx_HAL_Driver/Inc/stm32l0xx_ll_lpuart.h ****   * @brief  Receiver Enable (Receiver is enabled and begins searching for a start bit)
 513:../../dependencies/STM32CubeL0/Drivers/STM32L0xx_HAL_Driver/Inc/stm32l0xx_ll_lpuart.h ****   * @rmtoll CR1          RE            LL_LPUART_EnableDirectionRx
 514:../../dependencies/STM32CubeL0/Drivers/STM32L0xx_HAL_Driver/Inc/stm32l0xx_ll_lpuart.h ****   * @param  LPUARTx LPUART Instance
 515:../../dependencies/STM32CubeL0/Drivers/STM32L0xx_HAL_Driver/Inc/stm32l0xx_ll_lpuart.h ****   * @retval None
 516:../../dependencies/STM32CubeL0/Drivers/STM32L0xx_HAL_Driver/Inc/stm32l0xx_ll_lpuart.h ****   */
 517:../../dependencies/STM32CubeL0/Drivers/STM32L0xx_HAL_Driver/Inc/stm32l0xx_ll_lpuart.h **** __STATIC_INLINE void LL_LPUART_EnableDirectionRx(USART_TypeDef *LPUARTx)
 518:../../dependencies/STM32CubeL0/Drivers/STM32L0xx_HAL_Driver/Inc/stm32l0xx_ll_lpuart.h **** {
 519:../../dependencies/STM32CubeL0/Drivers/STM32L0xx_HAL_Driver/Inc/stm32l0xx_ll_lpuart.h ****   ATOMIC_SET_BIT(LPUARTx->CR1, USART_CR1_RE);
 520:../../dependencies/STM32CubeL0/Drivers/STM32L0xx_HAL_Driver/Inc/stm32l0xx_ll_lpuart.h **** }
 521:../../dependencies/STM32CubeL0/Drivers/STM32L0xx_HAL_Driver/Inc/stm32l0xx_ll_lpuart.h **** 
 522:../../dependencies/STM32CubeL0/Drivers/STM32L0xx_HAL_Driver/Inc/stm32l0xx_ll_lpuart.h **** /**
 523:../../dependencies/STM32CubeL0/Drivers/STM32L0xx_HAL_Driver/Inc/stm32l0xx_ll_lpuart.h ****   * @brief  Receiver Disable
 524:../../dependencies/STM32CubeL0/Drivers/STM32L0xx_HAL_Driver/Inc/stm32l0xx_ll_lpuart.h ****   * @rmtoll CR1          RE            LL_LPUART_DisableDirectionRx
 525:../../dependencies/STM32CubeL0/Drivers/STM32L0xx_HAL_Driver/Inc/stm32l0xx_ll_lpuart.h ****   * @param  LPUARTx LPUART Instance
 526:../../dependencies/STM32CubeL0/Drivers/STM32L0xx_HAL_Driver/Inc/stm32l0xx_ll_lpuart.h ****   * @retval None
 527:../../dependencies/STM32CubeL0/Drivers/STM32L0xx_HAL_Driver/Inc/stm32l0xx_ll_lpuart.h ****   */
 528:../../dependencies/STM32CubeL0/Drivers/STM32L0xx_HAL_Driver/Inc/stm32l0xx_ll_lpuart.h **** __STATIC_INLINE void LL_LPUART_DisableDirectionRx(USART_TypeDef *LPUARTx)
 529:../../dependencies/STM32CubeL0/Drivers/STM32L0xx_HAL_Driver/Inc/stm32l0xx_ll_lpuart.h **** {
 530:../../dependencies/STM32CubeL0/Drivers/STM32L0xx_HAL_Driver/Inc/stm32l0xx_ll_lpuart.h ****   ATOMIC_CLEAR_BIT(LPUARTx->CR1, USART_CR1_RE);
 531:../../dependencies/STM32CubeL0/Drivers/STM32L0xx_HAL_Driver/Inc/stm32l0xx_ll_lpuart.h **** }
 532:../../dependencies/STM32CubeL0/Drivers/STM32L0xx_HAL_Driver/Inc/stm32l0xx_ll_lpuart.h **** 
 533:../../dependencies/STM32CubeL0/Drivers/STM32L0xx_HAL_Driver/Inc/stm32l0xx_ll_lpuart.h **** /**
 534:../../dependencies/STM32CubeL0/Drivers/STM32L0xx_HAL_Driver/Inc/stm32l0xx_ll_lpuart.h ****   * @brief  Transmitter Enable
 535:../../dependencies/STM32CubeL0/Drivers/STM32L0xx_HAL_Driver/Inc/stm32l0xx_ll_lpuart.h ****   * @rmtoll CR1          TE            LL_LPUART_EnableDirectionTx
 536:../../dependencies/STM32CubeL0/Drivers/STM32L0xx_HAL_Driver/Inc/stm32l0xx_ll_lpuart.h ****   * @param  LPUARTx LPUART Instance
 537:../../dependencies/STM32CubeL0/Drivers/STM32L0xx_HAL_Driver/Inc/stm32l0xx_ll_lpuart.h ****   * @retval None
 538:../../dependencies/STM32CubeL0/Drivers/STM32L0xx_HAL_Driver/Inc/stm32l0xx_ll_lpuart.h ****   */
 539:../../dependencies/STM32CubeL0/Drivers/STM32L0xx_HAL_Driver/Inc/stm32l0xx_ll_lpuart.h **** __STATIC_INLINE void LL_LPUART_EnableDirectionTx(USART_TypeDef *LPUARTx)
 540:../../dependencies/STM32CubeL0/Drivers/STM32L0xx_HAL_Driver/Inc/stm32l0xx_ll_lpuart.h **** {
 541:../../dependencies/STM32CubeL0/Drivers/STM32L0xx_HAL_Driver/Inc/stm32l0xx_ll_lpuart.h ****   ATOMIC_SET_BIT(LPUARTx->CR1, USART_CR1_TE);
 542:../../dependencies/STM32CubeL0/Drivers/STM32L0xx_HAL_Driver/Inc/stm32l0xx_ll_lpuart.h **** }
 543:../../dependencies/STM32CubeL0/Drivers/STM32L0xx_HAL_Driver/Inc/stm32l0xx_ll_lpuart.h **** 
 544:../../dependencies/STM32CubeL0/Drivers/STM32L0xx_HAL_Driver/Inc/stm32l0xx_ll_lpuart.h **** /**
 545:../../dependencies/STM32CubeL0/Drivers/STM32L0xx_HAL_Driver/Inc/stm32l0xx_ll_lpuart.h ****   * @brief  Transmitter Disable
 546:../../dependencies/STM32CubeL0/Drivers/STM32L0xx_HAL_Driver/Inc/stm32l0xx_ll_lpuart.h ****   * @rmtoll CR1          TE            LL_LPUART_DisableDirectionTx
 547:../../dependencies/STM32CubeL0/Drivers/STM32L0xx_HAL_Driver/Inc/stm32l0xx_ll_lpuart.h ****   * @param  LPUARTx LPUART Instance
 548:../../dependencies/STM32CubeL0/Drivers/STM32L0xx_HAL_Driver/Inc/stm32l0xx_ll_lpuart.h ****   * @retval None
 549:../../dependencies/STM32CubeL0/Drivers/STM32L0xx_HAL_Driver/Inc/stm32l0xx_ll_lpuart.h ****   */
 550:../../dependencies/STM32CubeL0/Drivers/STM32L0xx_HAL_Driver/Inc/stm32l0xx_ll_lpuart.h **** __STATIC_INLINE void LL_LPUART_DisableDirectionTx(USART_TypeDef *LPUARTx)
 551:../../dependencies/STM32CubeL0/Drivers/STM32L0xx_HAL_Driver/Inc/stm32l0xx_ll_lpuart.h **** {
 552:../../dependencies/STM32CubeL0/Drivers/STM32L0xx_HAL_Driver/Inc/stm32l0xx_ll_lpuart.h ****   ATOMIC_CLEAR_BIT(LPUARTx->CR1, USART_CR1_TE);
 553:../../dependencies/STM32CubeL0/Drivers/STM32L0xx_HAL_Driver/Inc/stm32l0xx_ll_lpuart.h **** }
 554:../../dependencies/STM32CubeL0/Drivers/STM32L0xx_HAL_Driver/Inc/stm32l0xx_ll_lpuart.h **** 
 555:../../dependencies/STM32CubeL0/Drivers/STM32L0xx_HAL_Driver/Inc/stm32l0xx_ll_lpuart.h **** /**
 556:../../dependencies/STM32CubeL0/Drivers/STM32L0xx_HAL_Driver/Inc/stm32l0xx_ll_lpuart.h ****   * @brief  Configure simultaneously enabled/disabled states
 557:../../dependencies/STM32CubeL0/Drivers/STM32L0xx_HAL_Driver/Inc/stm32l0xx_ll_lpuart.h ****   *         of Transmitter and Receiver
 558:../../dependencies/STM32CubeL0/Drivers/STM32L0xx_HAL_Driver/Inc/stm32l0xx_ll_lpuart.h ****   * @rmtoll CR1          RE            LL_LPUART_SetTransferDirection\n
 559:../../dependencies/STM32CubeL0/Drivers/STM32L0xx_HAL_Driver/Inc/stm32l0xx_ll_lpuart.h ****   *         CR1          TE            LL_LPUART_SetTransferDirection
ARM GAS  /tmp/cc4HDSS2.s 			page 12


 560:../../dependencies/STM32CubeL0/Drivers/STM32L0xx_HAL_Driver/Inc/stm32l0xx_ll_lpuart.h ****   * @param  LPUARTx LPUART Instance
 561:../../dependencies/STM32CubeL0/Drivers/STM32L0xx_HAL_Driver/Inc/stm32l0xx_ll_lpuart.h ****   * @param  TransferDirection This parameter can be one of the following values:
 562:../../dependencies/STM32CubeL0/Drivers/STM32L0xx_HAL_Driver/Inc/stm32l0xx_ll_lpuart.h ****   *         @arg @ref LL_LPUART_DIRECTION_NONE
 563:../../dependencies/STM32CubeL0/Drivers/STM32L0xx_HAL_Driver/Inc/stm32l0xx_ll_lpuart.h ****   *         @arg @ref LL_LPUART_DIRECTION_RX
 564:../../dependencies/STM32CubeL0/Drivers/STM32L0xx_HAL_Driver/Inc/stm32l0xx_ll_lpuart.h ****   *         @arg @ref LL_LPUART_DIRECTION_TX
 565:../../dependencies/STM32CubeL0/Drivers/STM32L0xx_HAL_Driver/Inc/stm32l0xx_ll_lpuart.h ****   *         @arg @ref LL_LPUART_DIRECTION_TX_RX
 566:../../dependencies/STM32CubeL0/Drivers/STM32L0xx_HAL_Driver/Inc/stm32l0xx_ll_lpuart.h ****   * @retval None
 567:../../dependencies/STM32CubeL0/Drivers/STM32L0xx_HAL_Driver/Inc/stm32l0xx_ll_lpuart.h ****   */
 568:../../dependencies/STM32CubeL0/Drivers/STM32L0xx_HAL_Driver/Inc/stm32l0xx_ll_lpuart.h **** __STATIC_INLINE void LL_LPUART_SetTransferDirection(USART_TypeDef *LPUARTx, uint32_t TransferDirect
 569:../../dependencies/STM32CubeL0/Drivers/STM32L0xx_HAL_Driver/Inc/stm32l0xx_ll_lpuart.h **** {
 570:../../dependencies/STM32CubeL0/Drivers/STM32L0xx_HAL_Driver/Inc/stm32l0xx_ll_lpuart.h ****   ATOMIC_MODIFY_REG(LPUARTx->CR1, USART_CR1_RE | USART_CR1_TE, TransferDirection);
 571:../../dependencies/STM32CubeL0/Drivers/STM32L0xx_HAL_Driver/Inc/stm32l0xx_ll_lpuart.h **** }
 572:../../dependencies/STM32CubeL0/Drivers/STM32L0xx_HAL_Driver/Inc/stm32l0xx_ll_lpuart.h **** 
 573:../../dependencies/STM32CubeL0/Drivers/STM32L0xx_HAL_Driver/Inc/stm32l0xx_ll_lpuart.h **** /**
 574:../../dependencies/STM32CubeL0/Drivers/STM32L0xx_HAL_Driver/Inc/stm32l0xx_ll_lpuart.h ****   * @brief  Return enabled/disabled states of Transmitter and Receiver
 575:../../dependencies/STM32CubeL0/Drivers/STM32L0xx_HAL_Driver/Inc/stm32l0xx_ll_lpuart.h ****   * @rmtoll CR1          RE            LL_LPUART_GetTransferDirection\n
 576:../../dependencies/STM32CubeL0/Drivers/STM32L0xx_HAL_Driver/Inc/stm32l0xx_ll_lpuart.h ****   *         CR1          TE            LL_LPUART_GetTransferDirection
 577:../../dependencies/STM32CubeL0/Drivers/STM32L0xx_HAL_Driver/Inc/stm32l0xx_ll_lpuart.h ****   * @param  LPUARTx LPUART Instance
 578:../../dependencies/STM32CubeL0/Drivers/STM32L0xx_HAL_Driver/Inc/stm32l0xx_ll_lpuart.h ****   * @retval Returned value can be one of the following values:
 579:../../dependencies/STM32CubeL0/Drivers/STM32L0xx_HAL_Driver/Inc/stm32l0xx_ll_lpuart.h ****   *         @arg @ref LL_LPUART_DIRECTION_NONE
 580:../../dependencies/STM32CubeL0/Drivers/STM32L0xx_HAL_Driver/Inc/stm32l0xx_ll_lpuart.h ****   *         @arg @ref LL_LPUART_DIRECTION_RX
 581:../../dependencies/STM32CubeL0/Drivers/STM32L0xx_HAL_Driver/Inc/stm32l0xx_ll_lpuart.h ****   *         @arg @ref LL_LPUART_DIRECTION_TX
 582:../../dependencies/STM32CubeL0/Drivers/STM32L0xx_HAL_Driver/Inc/stm32l0xx_ll_lpuart.h ****   *         @arg @ref LL_LPUART_DIRECTION_TX_RX
 583:../../dependencies/STM32CubeL0/Drivers/STM32L0xx_HAL_Driver/Inc/stm32l0xx_ll_lpuart.h ****   */
 584:../../dependencies/STM32CubeL0/Drivers/STM32L0xx_HAL_Driver/Inc/stm32l0xx_ll_lpuart.h **** __STATIC_INLINE uint32_t LL_LPUART_GetTransferDirection(USART_TypeDef *LPUARTx)
 585:../../dependencies/STM32CubeL0/Drivers/STM32L0xx_HAL_Driver/Inc/stm32l0xx_ll_lpuart.h **** {
 586:../../dependencies/STM32CubeL0/Drivers/STM32L0xx_HAL_Driver/Inc/stm32l0xx_ll_lpuart.h ****   return (uint32_t)(READ_BIT(LPUARTx->CR1, USART_CR1_RE | USART_CR1_TE));
 587:../../dependencies/STM32CubeL0/Drivers/STM32L0xx_HAL_Driver/Inc/stm32l0xx_ll_lpuart.h **** }
 588:../../dependencies/STM32CubeL0/Drivers/STM32L0xx_HAL_Driver/Inc/stm32l0xx_ll_lpuart.h **** 
 589:../../dependencies/STM32CubeL0/Drivers/STM32L0xx_HAL_Driver/Inc/stm32l0xx_ll_lpuart.h **** /**
 590:../../dependencies/STM32CubeL0/Drivers/STM32L0xx_HAL_Driver/Inc/stm32l0xx_ll_lpuart.h ****   * @brief  Configure Parity (enabled/disabled and parity mode if enabled)
 591:../../dependencies/STM32CubeL0/Drivers/STM32L0xx_HAL_Driver/Inc/stm32l0xx_ll_lpuart.h ****   * @note   This function selects if hardware parity control (generation and detection) is enabled 
 592:../../dependencies/STM32CubeL0/Drivers/STM32L0xx_HAL_Driver/Inc/stm32l0xx_ll_lpuart.h ****   *         When the parity control is enabled (Odd or Even), computed parity bit is inserted at th
 593:../../dependencies/STM32CubeL0/Drivers/STM32L0xx_HAL_Driver/Inc/stm32l0xx_ll_lpuart.h ****   *         (depending on data width) and parity is checked on the received data.
 594:../../dependencies/STM32CubeL0/Drivers/STM32L0xx_HAL_Driver/Inc/stm32l0xx_ll_lpuart.h ****   * @rmtoll CR1          PS            LL_LPUART_SetParity\n
 595:../../dependencies/STM32CubeL0/Drivers/STM32L0xx_HAL_Driver/Inc/stm32l0xx_ll_lpuart.h ****   *         CR1          PCE           LL_LPUART_SetParity
 596:../../dependencies/STM32CubeL0/Drivers/STM32L0xx_HAL_Driver/Inc/stm32l0xx_ll_lpuart.h ****   * @param  LPUARTx LPUART Instance
 597:../../dependencies/STM32CubeL0/Drivers/STM32L0xx_HAL_Driver/Inc/stm32l0xx_ll_lpuart.h ****   * @param  Parity This parameter can be one of the following values:
 598:../../dependencies/STM32CubeL0/Drivers/STM32L0xx_HAL_Driver/Inc/stm32l0xx_ll_lpuart.h ****   *         @arg @ref LL_LPUART_PARITY_NONE
 599:../../dependencies/STM32CubeL0/Drivers/STM32L0xx_HAL_Driver/Inc/stm32l0xx_ll_lpuart.h ****   *         @arg @ref LL_LPUART_PARITY_EVEN
 600:../../dependencies/STM32CubeL0/Drivers/STM32L0xx_HAL_Driver/Inc/stm32l0xx_ll_lpuart.h ****   *         @arg @ref LL_LPUART_PARITY_ODD
 601:../../dependencies/STM32CubeL0/Drivers/STM32L0xx_HAL_Driver/Inc/stm32l0xx_ll_lpuart.h ****   * @retval None
 602:../../dependencies/STM32CubeL0/Drivers/STM32L0xx_HAL_Driver/Inc/stm32l0xx_ll_lpuart.h ****   */
 603:../../dependencies/STM32CubeL0/Drivers/STM32L0xx_HAL_Driver/Inc/stm32l0xx_ll_lpuart.h **** __STATIC_INLINE void LL_LPUART_SetParity(USART_TypeDef *LPUARTx, uint32_t Parity)
 604:../../dependencies/STM32CubeL0/Drivers/STM32L0xx_HAL_Driver/Inc/stm32l0xx_ll_lpuart.h **** {
 605:../../dependencies/STM32CubeL0/Drivers/STM32L0xx_HAL_Driver/Inc/stm32l0xx_ll_lpuart.h ****   MODIFY_REG(LPUARTx->CR1, USART_CR1_PS | USART_CR1_PCE, Parity);
 606:../../dependencies/STM32CubeL0/Drivers/STM32L0xx_HAL_Driver/Inc/stm32l0xx_ll_lpuart.h **** }
 607:../../dependencies/STM32CubeL0/Drivers/STM32L0xx_HAL_Driver/Inc/stm32l0xx_ll_lpuart.h **** 
 608:../../dependencies/STM32CubeL0/Drivers/STM32L0xx_HAL_Driver/Inc/stm32l0xx_ll_lpuart.h **** /**
 609:../../dependencies/STM32CubeL0/Drivers/STM32L0xx_HAL_Driver/Inc/stm32l0xx_ll_lpuart.h ****   * @brief  Return Parity configuration (enabled/disabled and parity mode if enabled)
 610:../../dependencies/STM32CubeL0/Drivers/STM32L0xx_HAL_Driver/Inc/stm32l0xx_ll_lpuart.h ****   * @rmtoll CR1          PS            LL_LPUART_GetParity\n
 611:../../dependencies/STM32CubeL0/Drivers/STM32L0xx_HAL_Driver/Inc/stm32l0xx_ll_lpuart.h ****   *         CR1          PCE           LL_LPUART_GetParity
 612:../../dependencies/STM32CubeL0/Drivers/STM32L0xx_HAL_Driver/Inc/stm32l0xx_ll_lpuart.h ****   * @param  LPUARTx LPUART Instance
 613:../../dependencies/STM32CubeL0/Drivers/STM32L0xx_HAL_Driver/Inc/stm32l0xx_ll_lpuart.h ****   * @retval Returned value can be one of the following values:
 614:../../dependencies/STM32CubeL0/Drivers/STM32L0xx_HAL_Driver/Inc/stm32l0xx_ll_lpuart.h ****   *         @arg @ref LL_LPUART_PARITY_NONE
 615:../../dependencies/STM32CubeL0/Drivers/STM32L0xx_HAL_Driver/Inc/stm32l0xx_ll_lpuart.h ****   *         @arg @ref LL_LPUART_PARITY_EVEN
 616:../../dependencies/STM32CubeL0/Drivers/STM32L0xx_HAL_Driver/Inc/stm32l0xx_ll_lpuart.h ****   *         @arg @ref LL_LPUART_PARITY_ODD
ARM GAS  /tmp/cc4HDSS2.s 			page 13


 617:../../dependencies/STM32CubeL0/Drivers/STM32L0xx_HAL_Driver/Inc/stm32l0xx_ll_lpuart.h ****   */
 618:../../dependencies/STM32CubeL0/Drivers/STM32L0xx_HAL_Driver/Inc/stm32l0xx_ll_lpuart.h **** __STATIC_INLINE uint32_t LL_LPUART_GetParity(USART_TypeDef *LPUARTx)
 619:../../dependencies/STM32CubeL0/Drivers/STM32L0xx_HAL_Driver/Inc/stm32l0xx_ll_lpuart.h **** {
 620:../../dependencies/STM32CubeL0/Drivers/STM32L0xx_HAL_Driver/Inc/stm32l0xx_ll_lpuart.h ****   return (uint32_t)(READ_BIT(LPUARTx->CR1, USART_CR1_PS | USART_CR1_PCE));
 621:../../dependencies/STM32CubeL0/Drivers/STM32L0xx_HAL_Driver/Inc/stm32l0xx_ll_lpuart.h **** }
 622:../../dependencies/STM32CubeL0/Drivers/STM32L0xx_HAL_Driver/Inc/stm32l0xx_ll_lpuart.h **** 
 623:../../dependencies/STM32CubeL0/Drivers/STM32L0xx_HAL_Driver/Inc/stm32l0xx_ll_lpuart.h **** /**
 624:../../dependencies/STM32CubeL0/Drivers/STM32L0xx_HAL_Driver/Inc/stm32l0xx_ll_lpuart.h ****   * @brief  Set Receiver Wake Up method from Mute mode.
 625:../../dependencies/STM32CubeL0/Drivers/STM32L0xx_HAL_Driver/Inc/stm32l0xx_ll_lpuart.h ****   * @rmtoll CR1          WAKE          LL_LPUART_SetWakeUpMethod
 626:../../dependencies/STM32CubeL0/Drivers/STM32L0xx_HAL_Driver/Inc/stm32l0xx_ll_lpuart.h ****   * @param  LPUARTx LPUART Instance
 627:../../dependencies/STM32CubeL0/Drivers/STM32L0xx_HAL_Driver/Inc/stm32l0xx_ll_lpuart.h ****   * @param  Method This parameter can be one of the following values:
 628:../../dependencies/STM32CubeL0/Drivers/STM32L0xx_HAL_Driver/Inc/stm32l0xx_ll_lpuart.h ****   *         @arg @ref LL_LPUART_WAKEUP_IDLELINE
 629:../../dependencies/STM32CubeL0/Drivers/STM32L0xx_HAL_Driver/Inc/stm32l0xx_ll_lpuart.h ****   *         @arg @ref LL_LPUART_WAKEUP_ADDRESSMARK
 630:../../dependencies/STM32CubeL0/Drivers/STM32L0xx_HAL_Driver/Inc/stm32l0xx_ll_lpuart.h ****   * @retval None
 631:../../dependencies/STM32CubeL0/Drivers/STM32L0xx_HAL_Driver/Inc/stm32l0xx_ll_lpuart.h ****   */
 632:../../dependencies/STM32CubeL0/Drivers/STM32L0xx_HAL_Driver/Inc/stm32l0xx_ll_lpuart.h **** __STATIC_INLINE void LL_LPUART_SetWakeUpMethod(USART_TypeDef *LPUARTx, uint32_t Method)
 633:../../dependencies/STM32CubeL0/Drivers/STM32L0xx_HAL_Driver/Inc/stm32l0xx_ll_lpuart.h **** {
 634:../../dependencies/STM32CubeL0/Drivers/STM32L0xx_HAL_Driver/Inc/stm32l0xx_ll_lpuart.h ****   MODIFY_REG(LPUARTx->CR1, USART_CR1_WAKE, Method);
 635:../../dependencies/STM32CubeL0/Drivers/STM32L0xx_HAL_Driver/Inc/stm32l0xx_ll_lpuart.h **** }
 636:../../dependencies/STM32CubeL0/Drivers/STM32L0xx_HAL_Driver/Inc/stm32l0xx_ll_lpuart.h **** 
 637:../../dependencies/STM32CubeL0/Drivers/STM32L0xx_HAL_Driver/Inc/stm32l0xx_ll_lpuart.h **** /**
 638:../../dependencies/STM32CubeL0/Drivers/STM32L0xx_HAL_Driver/Inc/stm32l0xx_ll_lpuart.h ****   * @brief  Return Receiver Wake Up method from Mute mode
 639:../../dependencies/STM32CubeL0/Drivers/STM32L0xx_HAL_Driver/Inc/stm32l0xx_ll_lpuart.h ****   * @rmtoll CR1          WAKE          LL_LPUART_GetWakeUpMethod
 640:../../dependencies/STM32CubeL0/Drivers/STM32L0xx_HAL_Driver/Inc/stm32l0xx_ll_lpuart.h ****   * @param  LPUARTx LPUART Instance
 641:../../dependencies/STM32CubeL0/Drivers/STM32L0xx_HAL_Driver/Inc/stm32l0xx_ll_lpuart.h ****   * @retval Returned value can be one of the following values:
 642:../../dependencies/STM32CubeL0/Drivers/STM32L0xx_HAL_Driver/Inc/stm32l0xx_ll_lpuart.h ****   *         @arg @ref LL_LPUART_WAKEUP_IDLELINE
 643:../../dependencies/STM32CubeL0/Drivers/STM32L0xx_HAL_Driver/Inc/stm32l0xx_ll_lpuart.h ****   *         @arg @ref LL_LPUART_WAKEUP_ADDRESSMARK
 644:../../dependencies/STM32CubeL0/Drivers/STM32L0xx_HAL_Driver/Inc/stm32l0xx_ll_lpuart.h ****   */
 645:../../dependencies/STM32CubeL0/Drivers/STM32L0xx_HAL_Driver/Inc/stm32l0xx_ll_lpuart.h **** __STATIC_INLINE uint32_t LL_LPUART_GetWakeUpMethod(USART_TypeDef *LPUARTx)
 646:../../dependencies/STM32CubeL0/Drivers/STM32L0xx_HAL_Driver/Inc/stm32l0xx_ll_lpuart.h **** {
 647:../../dependencies/STM32CubeL0/Drivers/STM32L0xx_HAL_Driver/Inc/stm32l0xx_ll_lpuart.h ****   return (uint32_t)(READ_BIT(LPUARTx->CR1, USART_CR1_WAKE));
 648:../../dependencies/STM32CubeL0/Drivers/STM32L0xx_HAL_Driver/Inc/stm32l0xx_ll_lpuart.h **** }
 649:../../dependencies/STM32CubeL0/Drivers/STM32L0xx_HAL_Driver/Inc/stm32l0xx_ll_lpuart.h **** 
 650:../../dependencies/STM32CubeL0/Drivers/STM32L0xx_HAL_Driver/Inc/stm32l0xx_ll_lpuart.h **** /**
 651:../../dependencies/STM32CubeL0/Drivers/STM32L0xx_HAL_Driver/Inc/stm32l0xx_ll_lpuart.h ****   * @brief  Set Word length (nb of data bits, excluding start and stop bits)
 652:../../dependencies/STM32CubeL0/Drivers/STM32L0xx_HAL_Driver/Inc/stm32l0xx_ll_lpuart.h ****   * @rmtoll CR1          M             LL_LPUART_SetDataWidth
 653:../../dependencies/STM32CubeL0/Drivers/STM32L0xx_HAL_Driver/Inc/stm32l0xx_ll_lpuart.h ****   * @param  LPUARTx LPUART Instance
 654:../../dependencies/STM32CubeL0/Drivers/STM32L0xx_HAL_Driver/Inc/stm32l0xx_ll_lpuart.h ****   * @param  DataWidth This parameter can be one of the following values:
 655:../../dependencies/STM32CubeL0/Drivers/STM32L0xx_HAL_Driver/Inc/stm32l0xx_ll_lpuart.h ****   *         @arg @ref LL_LPUART_DATAWIDTH_7B
 656:../../dependencies/STM32CubeL0/Drivers/STM32L0xx_HAL_Driver/Inc/stm32l0xx_ll_lpuart.h ****   *         @arg @ref LL_LPUART_DATAWIDTH_8B
 657:../../dependencies/STM32CubeL0/Drivers/STM32L0xx_HAL_Driver/Inc/stm32l0xx_ll_lpuart.h ****   *         @arg @ref LL_LPUART_DATAWIDTH_9B
 658:../../dependencies/STM32CubeL0/Drivers/STM32L0xx_HAL_Driver/Inc/stm32l0xx_ll_lpuart.h ****   * @retval None
 659:../../dependencies/STM32CubeL0/Drivers/STM32L0xx_HAL_Driver/Inc/stm32l0xx_ll_lpuart.h ****   */
 660:../../dependencies/STM32CubeL0/Drivers/STM32L0xx_HAL_Driver/Inc/stm32l0xx_ll_lpuart.h **** __STATIC_INLINE void LL_LPUART_SetDataWidth(USART_TypeDef *LPUARTx, uint32_t DataWidth)
 661:../../dependencies/STM32CubeL0/Drivers/STM32L0xx_HAL_Driver/Inc/stm32l0xx_ll_lpuart.h **** {
 662:../../dependencies/STM32CubeL0/Drivers/STM32L0xx_HAL_Driver/Inc/stm32l0xx_ll_lpuart.h ****   MODIFY_REG(LPUARTx->CR1, USART_CR1_M, DataWidth);
 663:../../dependencies/STM32CubeL0/Drivers/STM32L0xx_HAL_Driver/Inc/stm32l0xx_ll_lpuart.h **** }
 664:../../dependencies/STM32CubeL0/Drivers/STM32L0xx_HAL_Driver/Inc/stm32l0xx_ll_lpuart.h **** 
 665:../../dependencies/STM32CubeL0/Drivers/STM32L0xx_HAL_Driver/Inc/stm32l0xx_ll_lpuart.h **** /**
 666:../../dependencies/STM32CubeL0/Drivers/STM32L0xx_HAL_Driver/Inc/stm32l0xx_ll_lpuart.h ****   * @brief  Return Word length (i.e. nb of data bits, excluding start and stop bits)
 667:../../dependencies/STM32CubeL0/Drivers/STM32L0xx_HAL_Driver/Inc/stm32l0xx_ll_lpuart.h ****   * @rmtoll CR1          M             LL_LPUART_GetDataWidth
 668:../../dependencies/STM32CubeL0/Drivers/STM32L0xx_HAL_Driver/Inc/stm32l0xx_ll_lpuart.h ****   * @param  LPUARTx LPUART Instance
 669:../../dependencies/STM32CubeL0/Drivers/STM32L0xx_HAL_Driver/Inc/stm32l0xx_ll_lpuart.h ****   * @retval Returned value can be one of the following values:
 670:../../dependencies/STM32CubeL0/Drivers/STM32L0xx_HAL_Driver/Inc/stm32l0xx_ll_lpuart.h ****   *         @arg @ref LL_LPUART_DATAWIDTH_7B
 671:../../dependencies/STM32CubeL0/Drivers/STM32L0xx_HAL_Driver/Inc/stm32l0xx_ll_lpuart.h ****   *         @arg @ref LL_LPUART_DATAWIDTH_8B
 672:../../dependencies/STM32CubeL0/Drivers/STM32L0xx_HAL_Driver/Inc/stm32l0xx_ll_lpuart.h ****   *         @arg @ref LL_LPUART_DATAWIDTH_9B
 673:../../dependencies/STM32CubeL0/Drivers/STM32L0xx_HAL_Driver/Inc/stm32l0xx_ll_lpuart.h ****   */
ARM GAS  /tmp/cc4HDSS2.s 			page 14


 674:../../dependencies/STM32CubeL0/Drivers/STM32L0xx_HAL_Driver/Inc/stm32l0xx_ll_lpuart.h **** __STATIC_INLINE uint32_t LL_LPUART_GetDataWidth(USART_TypeDef *LPUARTx)
 675:../../dependencies/STM32CubeL0/Drivers/STM32L0xx_HAL_Driver/Inc/stm32l0xx_ll_lpuart.h **** {
 676:../../dependencies/STM32CubeL0/Drivers/STM32L0xx_HAL_Driver/Inc/stm32l0xx_ll_lpuart.h ****   return (uint32_t)(READ_BIT(LPUARTx->CR1, USART_CR1_M));
 677:../../dependencies/STM32CubeL0/Drivers/STM32L0xx_HAL_Driver/Inc/stm32l0xx_ll_lpuart.h **** }
 678:../../dependencies/STM32CubeL0/Drivers/STM32L0xx_HAL_Driver/Inc/stm32l0xx_ll_lpuart.h **** 
 679:../../dependencies/STM32CubeL0/Drivers/STM32L0xx_HAL_Driver/Inc/stm32l0xx_ll_lpuart.h **** /**
 680:../../dependencies/STM32CubeL0/Drivers/STM32L0xx_HAL_Driver/Inc/stm32l0xx_ll_lpuart.h ****   * @brief  Allow switch between Mute Mode and Active mode
 681:../../dependencies/STM32CubeL0/Drivers/STM32L0xx_HAL_Driver/Inc/stm32l0xx_ll_lpuart.h ****   * @rmtoll CR1          MME           LL_LPUART_EnableMuteMode
 682:../../dependencies/STM32CubeL0/Drivers/STM32L0xx_HAL_Driver/Inc/stm32l0xx_ll_lpuart.h ****   * @param  LPUARTx LPUART Instance
 683:../../dependencies/STM32CubeL0/Drivers/STM32L0xx_HAL_Driver/Inc/stm32l0xx_ll_lpuart.h ****   * @retval None
 684:../../dependencies/STM32CubeL0/Drivers/STM32L0xx_HAL_Driver/Inc/stm32l0xx_ll_lpuart.h ****   */
 685:../../dependencies/STM32CubeL0/Drivers/STM32L0xx_HAL_Driver/Inc/stm32l0xx_ll_lpuart.h **** __STATIC_INLINE void LL_LPUART_EnableMuteMode(USART_TypeDef *LPUARTx)
 686:../../dependencies/STM32CubeL0/Drivers/STM32L0xx_HAL_Driver/Inc/stm32l0xx_ll_lpuart.h **** {
 687:../../dependencies/STM32CubeL0/Drivers/STM32L0xx_HAL_Driver/Inc/stm32l0xx_ll_lpuart.h ****   ATOMIC_SET_BIT(LPUARTx->CR1, USART_CR1_MME);
 688:../../dependencies/STM32CubeL0/Drivers/STM32L0xx_HAL_Driver/Inc/stm32l0xx_ll_lpuart.h **** }
 689:../../dependencies/STM32CubeL0/Drivers/STM32L0xx_HAL_Driver/Inc/stm32l0xx_ll_lpuart.h **** 
 690:../../dependencies/STM32CubeL0/Drivers/STM32L0xx_HAL_Driver/Inc/stm32l0xx_ll_lpuart.h **** /**
 691:../../dependencies/STM32CubeL0/Drivers/STM32L0xx_HAL_Driver/Inc/stm32l0xx_ll_lpuart.h ****   * @brief  Prevent Mute Mode use. Set Receiver in active mode permanently.
 692:../../dependencies/STM32CubeL0/Drivers/STM32L0xx_HAL_Driver/Inc/stm32l0xx_ll_lpuart.h ****   * @rmtoll CR1          MME           LL_LPUART_DisableMuteMode
 693:../../dependencies/STM32CubeL0/Drivers/STM32L0xx_HAL_Driver/Inc/stm32l0xx_ll_lpuart.h ****   * @param  LPUARTx LPUART Instance
 694:../../dependencies/STM32CubeL0/Drivers/STM32L0xx_HAL_Driver/Inc/stm32l0xx_ll_lpuart.h ****   * @retval None
 695:../../dependencies/STM32CubeL0/Drivers/STM32L0xx_HAL_Driver/Inc/stm32l0xx_ll_lpuart.h ****   */
 696:../../dependencies/STM32CubeL0/Drivers/STM32L0xx_HAL_Driver/Inc/stm32l0xx_ll_lpuart.h **** __STATIC_INLINE void LL_LPUART_DisableMuteMode(USART_TypeDef *LPUARTx)
 697:../../dependencies/STM32CubeL0/Drivers/STM32L0xx_HAL_Driver/Inc/stm32l0xx_ll_lpuart.h **** {
 698:../../dependencies/STM32CubeL0/Drivers/STM32L0xx_HAL_Driver/Inc/stm32l0xx_ll_lpuart.h ****   ATOMIC_CLEAR_BIT(LPUARTx->CR1, USART_CR1_MME);
 699:../../dependencies/STM32CubeL0/Drivers/STM32L0xx_HAL_Driver/Inc/stm32l0xx_ll_lpuart.h **** }
 700:../../dependencies/STM32CubeL0/Drivers/STM32L0xx_HAL_Driver/Inc/stm32l0xx_ll_lpuart.h **** 
 701:../../dependencies/STM32CubeL0/Drivers/STM32L0xx_HAL_Driver/Inc/stm32l0xx_ll_lpuart.h **** /**
 702:../../dependencies/STM32CubeL0/Drivers/STM32L0xx_HAL_Driver/Inc/stm32l0xx_ll_lpuart.h ****   * @brief  Indicate if switch between Mute Mode and Active mode is allowed
 703:../../dependencies/STM32CubeL0/Drivers/STM32L0xx_HAL_Driver/Inc/stm32l0xx_ll_lpuart.h ****   * @rmtoll CR1          MME           LL_LPUART_IsEnabledMuteMode
 704:../../dependencies/STM32CubeL0/Drivers/STM32L0xx_HAL_Driver/Inc/stm32l0xx_ll_lpuart.h ****   * @param  LPUARTx LPUART Instance
 705:../../dependencies/STM32CubeL0/Drivers/STM32L0xx_HAL_Driver/Inc/stm32l0xx_ll_lpuart.h ****   * @retval State of bit (1 or 0).
 706:../../dependencies/STM32CubeL0/Drivers/STM32L0xx_HAL_Driver/Inc/stm32l0xx_ll_lpuart.h ****   */
 707:../../dependencies/STM32CubeL0/Drivers/STM32L0xx_HAL_Driver/Inc/stm32l0xx_ll_lpuart.h **** __STATIC_INLINE uint32_t LL_LPUART_IsEnabledMuteMode(USART_TypeDef *LPUARTx)
 708:../../dependencies/STM32CubeL0/Drivers/STM32L0xx_HAL_Driver/Inc/stm32l0xx_ll_lpuart.h **** {
 709:../../dependencies/STM32CubeL0/Drivers/STM32L0xx_HAL_Driver/Inc/stm32l0xx_ll_lpuart.h ****   return ((READ_BIT(LPUARTx->CR1, USART_CR1_MME) == (USART_CR1_MME)) ? 1UL : 0UL);
 710:../../dependencies/STM32CubeL0/Drivers/STM32L0xx_HAL_Driver/Inc/stm32l0xx_ll_lpuart.h **** }
 711:../../dependencies/STM32CubeL0/Drivers/STM32L0xx_HAL_Driver/Inc/stm32l0xx_ll_lpuart.h **** 
 712:../../dependencies/STM32CubeL0/Drivers/STM32L0xx_HAL_Driver/Inc/stm32l0xx_ll_lpuart.h **** 
 713:../../dependencies/STM32CubeL0/Drivers/STM32L0xx_HAL_Driver/Inc/stm32l0xx_ll_lpuart.h **** /**
 714:../../dependencies/STM32CubeL0/Drivers/STM32L0xx_HAL_Driver/Inc/stm32l0xx_ll_lpuart.h ****   * @brief  Set the length of the stop bits
 715:../../dependencies/STM32CubeL0/Drivers/STM32L0xx_HAL_Driver/Inc/stm32l0xx_ll_lpuart.h ****   * @rmtoll CR2          STOP          LL_LPUART_SetStopBitsLength
 716:../../dependencies/STM32CubeL0/Drivers/STM32L0xx_HAL_Driver/Inc/stm32l0xx_ll_lpuart.h ****   * @param  LPUARTx LPUART Instance
 717:../../dependencies/STM32CubeL0/Drivers/STM32L0xx_HAL_Driver/Inc/stm32l0xx_ll_lpuart.h ****   * @param  StopBits This parameter can be one of the following values:
 718:../../dependencies/STM32CubeL0/Drivers/STM32L0xx_HAL_Driver/Inc/stm32l0xx_ll_lpuart.h ****   *         @arg @ref LL_LPUART_STOPBITS_1
 719:../../dependencies/STM32CubeL0/Drivers/STM32L0xx_HAL_Driver/Inc/stm32l0xx_ll_lpuart.h ****   *         @arg @ref LL_LPUART_STOPBITS_2
 720:../../dependencies/STM32CubeL0/Drivers/STM32L0xx_HAL_Driver/Inc/stm32l0xx_ll_lpuart.h ****   * @retval None
 721:../../dependencies/STM32CubeL0/Drivers/STM32L0xx_HAL_Driver/Inc/stm32l0xx_ll_lpuart.h ****   */
 722:../../dependencies/STM32CubeL0/Drivers/STM32L0xx_HAL_Driver/Inc/stm32l0xx_ll_lpuart.h **** __STATIC_INLINE void LL_LPUART_SetStopBitsLength(USART_TypeDef *LPUARTx, uint32_t StopBits)
 723:../../dependencies/STM32CubeL0/Drivers/STM32L0xx_HAL_Driver/Inc/stm32l0xx_ll_lpuart.h **** {
  72              		.loc 1 723 1
  73              		.cfi_startproc
  74              		@ args = 0, pretend = 0, frame = 8
  75              		@ frame_needed = 1, uses_anonymous_args = 0
  76 0000 80B5     		push	{r7, lr}
  77              		.cfi_def_cfa_offset 8
  78              		.cfi_offset 7, -8
ARM GAS  /tmp/cc4HDSS2.s 			page 15


  79              		.cfi_offset 14, -4
  80 0002 82B0     		sub	sp, sp, #8
  81              		.cfi_def_cfa_offset 16
  82 0004 00AF     		add	r7, sp, #0
  83              		.cfi_def_cfa_register 7
  84 0006 7860     		str	r0, [r7, #4]
  85 0008 3960     		str	r1, [r7]
 724:../../dependencies/STM32CubeL0/Drivers/STM32L0xx_HAL_Driver/Inc/stm32l0xx_ll_lpuart.h ****   MODIFY_REG(LPUARTx->CR2, USART_CR2_STOP, StopBits);
  86              		.loc 1 724 3
  87 000a 7B68     		ldr	r3, [r7, #4]
  88 000c 5B68     		ldr	r3, [r3, #4]
  89 000e 054A     		ldr	r2, .L6
  90 0010 1A40     		ands	r2, r3
  91 0012 3B68     		ldr	r3, [r7]
  92 0014 1A43     		orrs	r2, r3
  93 0016 7B68     		ldr	r3, [r7, #4]
  94 0018 5A60     		str	r2, [r3, #4]
 725:../../dependencies/STM32CubeL0/Drivers/STM32L0xx_HAL_Driver/Inc/stm32l0xx_ll_lpuart.h **** }
  95              		.loc 1 725 1
  96 001a C046     		nop
  97 001c BD46     		mov	sp, r7
  98 001e 02B0     		add	sp, sp, #8
  99              		@ sp needed
 100 0020 80BD     		pop	{r7, pc}
 101              	.L7:
 102 0022 C046     		.align	2
 103              	.L6:
 104 0024 FFCFFFFF 		.word	-12289
 105              		.cfi_endproc
 106              	.LFE71:
 108              		.section	.text.LL_LPUART_SetHWFlowCtrl,"ax",%progbits
 109              		.align	1
 110              		.syntax unified
 111              		.code	16
 112              		.thumb_func
 113              		.fpu softvfp
 115              	LL_LPUART_SetHWFlowCtrl:
 116              	.LFB91:
 726:../../dependencies/STM32CubeL0/Drivers/STM32L0xx_HAL_Driver/Inc/stm32l0xx_ll_lpuart.h **** 
 727:../../dependencies/STM32CubeL0/Drivers/STM32L0xx_HAL_Driver/Inc/stm32l0xx_ll_lpuart.h **** /**
 728:../../dependencies/STM32CubeL0/Drivers/STM32L0xx_HAL_Driver/Inc/stm32l0xx_ll_lpuart.h ****   * @brief  Retrieve the length of the stop bits
 729:../../dependencies/STM32CubeL0/Drivers/STM32L0xx_HAL_Driver/Inc/stm32l0xx_ll_lpuart.h ****   * @rmtoll CR2          STOP          LL_LPUART_GetStopBitsLength
 730:../../dependencies/STM32CubeL0/Drivers/STM32L0xx_HAL_Driver/Inc/stm32l0xx_ll_lpuart.h ****   * @param  LPUARTx LPUART Instance
 731:../../dependencies/STM32CubeL0/Drivers/STM32L0xx_HAL_Driver/Inc/stm32l0xx_ll_lpuart.h ****   * @retval Returned value can be one of the following values:
 732:../../dependencies/STM32CubeL0/Drivers/STM32L0xx_HAL_Driver/Inc/stm32l0xx_ll_lpuart.h ****   *         @arg @ref LL_LPUART_STOPBITS_1
 733:../../dependencies/STM32CubeL0/Drivers/STM32L0xx_HAL_Driver/Inc/stm32l0xx_ll_lpuart.h ****   *         @arg @ref LL_LPUART_STOPBITS_2
 734:../../dependencies/STM32CubeL0/Drivers/STM32L0xx_HAL_Driver/Inc/stm32l0xx_ll_lpuart.h ****   */
 735:../../dependencies/STM32CubeL0/Drivers/STM32L0xx_HAL_Driver/Inc/stm32l0xx_ll_lpuart.h **** __STATIC_INLINE uint32_t LL_LPUART_GetStopBitsLength(USART_TypeDef *LPUARTx)
 736:../../dependencies/STM32CubeL0/Drivers/STM32L0xx_HAL_Driver/Inc/stm32l0xx_ll_lpuart.h **** {
 737:../../dependencies/STM32CubeL0/Drivers/STM32L0xx_HAL_Driver/Inc/stm32l0xx_ll_lpuart.h ****   return (uint32_t)(READ_BIT(LPUARTx->CR2, USART_CR2_STOP));
 738:../../dependencies/STM32CubeL0/Drivers/STM32L0xx_HAL_Driver/Inc/stm32l0xx_ll_lpuart.h **** }
 739:../../dependencies/STM32CubeL0/Drivers/STM32L0xx_HAL_Driver/Inc/stm32l0xx_ll_lpuart.h **** 
 740:../../dependencies/STM32CubeL0/Drivers/STM32L0xx_HAL_Driver/Inc/stm32l0xx_ll_lpuart.h **** /**
 741:../../dependencies/STM32CubeL0/Drivers/STM32L0xx_HAL_Driver/Inc/stm32l0xx_ll_lpuart.h ****   * @brief  Configure Character frame format (Datawidth, Parity control, Stop Bits)
 742:../../dependencies/STM32CubeL0/Drivers/STM32L0xx_HAL_Driver/Inc/stm32l0xx_ll_lpuart.h ****   * @note   Call of this function is equivalent to following function call sequence :
 743:../../dependencies/STM32CubeL0/Drivers/STM32L0xx_HAL_Driver/Inc/stm32l0xx_ll_lpuart.h ****   *         - Data Width configuration using @ref LL_LPUART_SetDataWidth() function
 744:../../dependencies/STM32CubeL0/Drivers/STM32L0xx_HAL_Driver/Inc/stm32l0xx_ll_lpuart.h ****   *         - Parity Control and mode configuration using @ref LL_LPUART_SetParity() function
ARM GAS  /tmp/cc4HDSS2.s 			page 16


 745:../../dependencies/STM32CubeL0/Drivers/STM32L0xx_HAL_Driver/Inc/stm32l0xx_ll_lpuart.h ****   *         - Stop bits configuration using @ref LL_LPUART_SetStopBitsLength() function
 746:../../dependencies/STM32CubeL0/Drivers/STM32L0xx_HAL_Driver/Inc/stm32l0xx_ll_lpuart.h ****   * @rmtoll CR1          PS            LL_LPUART_ConfigCharacter\n
 747:../../dependencies/STM32CubeL0/Drivers/STM32L0xx_HAL_Driver/Inc/stm32l0xx_ll_lpuart.h ****   *         CR1          PCE           LL_LPUART_ConfigCharacter\n
 748:../../dependencies/STM32CubeL0/Drivers/STM32L0xx_HAL_Driver/Inc/stm32l0xx_ll_lpuart.h ****   *         CR1          M             LL_LPUART_ConfigCharacter\n
 749:../../dependencies/STM32CubeL0/Drivers/STM32L0xx_HAL_Driver/Inc/stm32l0xx_ll_lpuart.h ****   *         CR2          STOP          LL_LPUART_ConfigCharacter
 750:../../dependencies/STM32CubeL0/Drivers/STM32L0xx_HAL_Driver/Inc/stm32l0xx_ll_lpuart.h ****   * @param  LPUARTx LPUART Instance
 751:../../dependencies/STM32CubeL0/Drivers/STM32L0xx_HAL_Driver/Inc/stm32l0xx_ll_lpuart.h ****   * @param  DataWidth This parameter can be one of the following values:
 752:../../dependencies/STM32CubeL0/Drivers/STM32L0xx_HAL_Driver/Inc/stm32l0xx_ll_lpuart.h ****   *         @arg @ref LL_LPUART_DATAWIDTH_7B
 753:../../dependencies/STM32CubeL0/Drivers/STM32L0xx_HAL_Driver/Inc/stm32l0xx_ll_lpuart.h ****   *         @arg @ref LL_LPUART_DATAWIDTH_8B
 754:../../dependencies/STM32CubeL0/Drivers/STM32L0xx_HAL_Driver/Inc/stm32l0xx_ll_lpuart.h ****   *         @arg @ref LL_LPUART_DATAWIDTH_9B
 755:../../dependencies/STM32CubeL0/Drivers/STM32L0xx_HAL_Driver/Inc/stm32l0xx_ll_lpuart.h ****   * @param  Parity This parameter can be one of the following values:
 756:../../dependencies/STM32CubeL0/Drivers/STM32L0xx_HAL_Driver/Inc/stm32l0xx_ll_lpuart.h ****   *         @arg @ref LL_LPUART_PARITY_NONE
 757:../../dependencies/STM32CubeL0/Drivers/STM32L0xx_HAL_Driver/Inc/stm32l0xx_ll_lpuart.h ****   *         @arg @ref LL_LPUART_PARITY_EVEN
 758:../../dependencies/STM32CubeL0/Drivers/STM32L0xx_HAL_Driver/Inc/stm32l0xx_ll_lpuart.h ****   *         @arg @ref LL_LPUART_PARITY_ODD
 759:../../dependencies/STM32CubeL0/Drivers/STM32L0xx_HAL_Driver/Inc/stm32l0xx_ll_lpuart.h ****   * @param  StopBits This parameter can be one of the following values:
 760:../../dependencies/STM32CubeL0/Drivers/STM32L0xx_HAL_Driver/Inc/stm32l0xx_ll_lpuart.h ****   *         @arg @ref LL_LPUART_STOPBITS_1
 761:../../dependencies/STM32CubeL0/Drivers/STM32L0xx_HAL_Driver/Inc/stm32l0xx_ll_lpuart.h ****   *         @arg @ref LL_LPUART_STOPBITS_2
 762:../../dependencies/STM32CubeL0/Drivers/STM32L0xx_HAL_Driver/Inc/stm32l0xx_ll_lpuart.h ****   * @retval None
 763:../../dependencies/STM32CubeL0/Drivers/STM32L0xx_HAL_Driver/Inc/stm32l0xx_ll_lpuart.h ****   */
 764:../../dependencies/STM32CubeL0/Drivers/STM32L0xx_HAL_Driver/Inc/stm32l0xx_ll_lpuart.h **** __STATIC_INLINE void LL_LPUART_ConfigCharacter(USART_TypeDef *LPUARTx, uint32_t DataWidth, uint32_t
 765:../../dependencies/STM32CubeL0/Drivers/STM32L0xx_HAL_Driver/Inc/stm32l0xx_ll_lpuart.h ****                                                uint32_t StopBits)
 766:../../dependencies/STM32CubeL0/Drivers/STM32L0xx_HAL_Driver/Inc/stm32l0xx_ll_lpuart.h **** {
 767:../../dependencies/STM32CubeL0/Drivers/STM32L0xx_HAL_Driver/Inc/stm32l0xx_ll_lpuart.h ****   MODIFY_REG(LPUARTx->CR1, USART_CR1_PS | USART_CR1_PCE | USART_CR1_M, Parity | DataWidth);
 768:../../dependencies/STM32CubeL0/Drivers/STM32L0xx_HAL_Driver/Inc/stm32l0xx_ll_lpuart.h ****   MODIFY_REG(LPUARTx->CR2, USART_CR2_STOP, StopBits);
 769:../../dependencies/STM32CubeL0/Drivers/STM32L0xx_HAL_Driver/Inc/stm32l0xx_ll_lpuart.h **** }
 770:../../dependencies/STM32CubeL0/Drivers/STM32L0xx_HAL_Driver/Inc/stm32l0xx_ll_lpuart.h **** 
 771:../../dependencies/STM32CubeL0/Drivers/STM32L0xx_HAL_Driver/Inc/stm32l0xx_ll_lpuart.h **** /**
 772:../../dependencies/STM32CubeL0/Drivers/STM32L0xx_HAL_Driver/Inc/stm32l0xx_ll_lpuart.h ****   * @brief  Configure TX/RX pins swapping setting.
 773:../../dependencies/STM32CubeL0/Drivers/STM32L0xx_HAL_Driver/Inc/stm32l0xx_ll_lpuart.h ****   * @rmtoll CR2          SWAP          LL_LPUART_SetTXRXSwap
 774:../../dependencies/STM32CubeL0/Drivers/STM32L0xx_HAL_Driver/Inc/stm32l0xx_ll_lpuart.h ****   * @param  LPUARTx LPUART Instance
 775:../../dependencies/STM32CubeL0/Drivers/STM32L0xx_HAL_Driver/Inc/stm32l0xx_ll_lpuart.h ****   * @param  SwapConfig This parameter can be one of the following values:
 776:../../dependencies/STM32CubeL0/Drivers/STM32L0xx_HAL_Driver/Inc/stm32l0xx_ll_lpuart.h ****   *         @arg @ref LL_LPUART_TXRX_STANDARD
 777:../../dependencies/STM32CubeL0/Drivers/STM32L0xx_HAL_Driver/Inc/stm32l0xx_ll_lpuart.h ****   *         @arg @ref LL_LPUART_TXRX_SWAPPED
 778:../../dependencies/STM32CubeL0/Drivers/STM32L0xx_HAL_Driver/Inc/stm32l0xx_ll_lpuart.h ****   * @retval None
 779:../../dependencies/STM32CubeL0/Drivers/STM32L0xx_HAL_Driver/Inc/stm32l0xx_ll_lpuart.h ****   */
 780:../../dependencies/STM32CubeL0/Drivers/STM32L0xx_HAL_Driver/Inc/stm32l0xx_ll_lpuart.h **** __STATIC_INLINE void LL_LPUART_SetTXRXSwap(USART_TypeDef *LPUARTx, uint32_t SwapConfig)
 781:../../dependencies/STM32CubeL0/Drivers/STM32L0xx_HAL_Driver/Inc/stm32l0xx_ll_lpuart.h **** {
 782:../../dependencies/STM32CubeL0/Drivers/STM32L0xx_HAL_Driver/Inc/stm32l0xx_ll_lpuart.h ****   MODIFY_REG(LPUARTx->CR2, USART_CR2_SWAP, SwapConfig);
 783:../../dependencies/STM32CubeL0/Drivers/STM32L0xx_HAL_Driver/Inc/stm32l0xx_ll_lpuart.h **** }
 784:../../dependencies/STM32CubeL0/Drivers/STM32L0xx_HAL_Driver/Inc/stm32l0xx_ll_lpuart.h **** 
 785:../../dependencies/STM32CubeL0/Drivers/STM32L0xx_HAL_Driver/Inc/stm32l0xx_ll_lpuart.h **** /**
 786:../../dependencies/STM32CubeL0/Drivers/STM32L0xx_HAL_Driver/Inc/stm32l0xx_ll_lpuart.h ****   * @brief  Retrieve TX/RX pins swapping configuration.
 787:../../dependencies/STM32CubeL0/Drivers/STM32L0xx_HAL_Driver/Inc/stm32l0xx_ll_lpuart.h ****   * @rmtoll CR2          SWAP          LL_LPUART_GetTXRXSwap
 788:../../dependencies/STM32CubeL0/Drivers/STM32L0xx_HAL_Driver/Inc/stm32l0xx_ll_lpuart.h ****   * @param  LPUARTx LPUART Instance
 789:../../dependencies/STM32CubeL0/Drivers/STM32L0xx_HAL_Driver/Inc/stm32l0xx_ll_lpuart.h ****   * @retval Returned value can be one of the following values:
 790:../../dependencies/STM32CubeL0/Drivers/STM32L0xx_HAL_Driver/Inc/stm32l0xx_ll_lpuart.h ****   *         @arg @ref LL_LPUART_TXRX_STANDARD
 791:../../dependencies/STM32CubeL0/Drivers/STM32L0xx_HAL_Driver/Inc/stm32l0xx_ll_lpuart.h ****   *         @arg @ref LL_LPUART_TXRX_SWAPPED
 792:../../dependencies/STM32CubeL0/Drivers/STM32L0xx_HAL_Driver/Inc/stm32l0xx_ll_lpuart.h ****   */
 793:../../dependencies/STM32CubeL0/Drivers/STM32L0xx_HAL_Driver/Inc/stm32l0xx_ll_lpuart.h **** __STATIC_INLINE uint32_t LL_LPUART_GetTXRXSwap(USART_TypeDef *LPUARTx)
 794:../../dependencies/STM32CubeL0/Drivers/STM32L0xx_HAL_Driver/Inc/stm32l0xx_ll_lpuart.h **** {
 795:../../dependencies/STM32CubeL0/Drivers/STM32L0xx_HAL_Driver/Inc/stm32l0xx_ll_lpuart.h ****   return (uint32_t)(READ_BIT(LPUARTx->CR2, USART_CR2_SWAP));
 796:../../dependencies/STM32CubeL0/Drivers/STM32L0xx_HAL_Driver/Inc/stm32l0xx_ll_lpuart.h **** }
 797:../../dependencies/STM32CubeL0/Drivers/STM32L0xx_HAL_Driver/Inc/stm32l0xx_ll_lpuart.h **** 
 798:../../dependencies/STM32CubeL0/Drivers/STM32L0xx_HAL_Driver/Inc/stm32l0xx_ll_lpuart.h **** /**
 799:../../dependencies/STM32CubeL0/Drivers/STM32L0xx_HAL_Driver/Inc/stm32l0xx_ll_lpuart.h ****   * @brief  Configure RX pin active level logic
 800:../../dependencies/STM32CubeL0/Drivers/STM32L0xx_HAL_Driver/Inc/stm32l0xx_ll_lpuart.h ****   * @rmtoll CR2          RXINV         LL_LPUART_SetRXPinLevel
 801:../../dependencies/STM32CubeL0/Drivers/STM32L0xx_HAL_Driver/Inc/stm32l0xx_ll_lpuart.h ****   * @param  LPUARTx LPUART Instance
ARM GAS  /tmp/cc4HDSS2.s 			page 17


 802:../../dependencies/STM32CubeL0/Drivers/STM32L0xx_HAL_Driver/Inc/stm32l0xx_ll_lpuart.h ****   * @param  PinInvMethod This parameter can be one of the following values:
 803:../../dependencies/STM32CubeL0/Drivers/STM32L0xx_HAL_Driver/Inc/stm32l0xx_ll_lpuart.h ****   *         @arg @ref LL_LPUART_RXPIN_LEVEL_STANDARD
 804:../../dependencies/STM32CubeL0/Drivers/STM32L0xx_HAL_Driver/Inc/stm32l0xx_ll_lpuart.h ****   *         @arg @ref LL_LPUART_RXPIN_LEVEL_INVERTED
 805:../../dependencies/STM32CubeL0/Drivers/STM32L0xx_HAL_Driver/Inc/stm32l0xx_ll_lpuart.h ****   * @retval None
 806:../../dependencies/STM32CubeL0/Drivers/STM32L0xx_HAL_Driver/Inc/stm32l0xx_ll_lpuart.h ****   */
 807:../../dependencies/STM32CubeL0/Drivers/STM32L0xx_HAL_Driver/Inc/stm32l0xx_ll_lpuart.h **** __STATIC_INLINE void LL_LPUART_SetRXPinLevel(USART_TypeDef *LPUARTx, uint32_t PinInvMethod)
 808:../../dependencies/STM32CubeL0/Drivers/STM32L0xx_HAL_Driver/Inc/stm32l0xx_ll_lpuart.h **** {
 809:../../dependencies/STM32CubeL0/Drivers/STM32L0xx_HAL_Driver/Inc/stm32l0xx_ll_lpuart.h ****   MODIFY_REG(LPUARTx->CR2, USART_CR2_RXINV, PinInvMethod);
 810:../../dependencies/STM32CubeL0/Drivers/STM32L0xx_HAL_Driver/Inc/stm32l0xx_ll_lpuart.h **** }
 811:../../dependencies/STM32CubeL0/Drivers/STM32L0xx_HAL_Driver/Inc/stm32l0xx_ll_lpuart.h **** 
 812:../../dependencies/STM32CubeL0/Drivers/STM32L0xx_HAL_Driver/Inc/stm32l0xx_ll_lpuart.h **** /**
 813:../../dependencies/STM32CubeL0/Drivers/STM32L0xx_HAL_Driver/Inc/stm32l0xx_ll_lpuart.h ****   * @brief  Retrieve RX pin active level logic configuration
 814:../../dependencies/STM32CubeL0/Drivers/STM32L0xx_HAL_Driver/Inc/stm32l0xx_ll_lpuart.h ****   * @rmtoll CR2          RXINV         LL_LPUART_GetRXPinLevel
 815:../../dependencies/STM32CubeL0/Drivers/STM32L0xx_HAL_Driver/Inc/stm32l0xx_ll_lpuart.h ****   * @param  LPUARTx LPUART Instance
 816:../../dependencies/STM32CubeL0/Drivers/STM32L0xx_HAL_Driver/Inc/stm32l0xx_ll_lpuart.h ****   * @retval Returned value can be one of the following values:
 817:../../dependencies/STM32CubeL0/Drivers/STM32L0xx_HAL_Driver/Inc/stm32l0xx_ll_lpuart.h ****   *         @arg @ref LL_LPUART_RXPIN_LEVEL_STANDARD
 818:../../dependencies/STM32CubeL0/Drivers/STM32L0xx_HAL_Driver/Inc/stm32l0xx_ll_lpuart.h ****   *         @arg @ref LL_LPUART_RXPIN_LEVEL_INVERTED
 819:../../dependencies/STM32CubeL0/Drivers/STM32L0xx_HAL_Driver/Inc/stm32l0xx_ll_lpuart.h ****   */
 820:../../dependencies/STM32CubeL0/Drivers/STM32L0xx_HAL_Driver/Inc/stm32l0xx_ll_lpuart.h **** __STATIC_INLINE uint32_t LL_LPUART_GetRXPinLevel(USART_TypeDef *LPUARTx)
 821:../../dependencies/STM32CubeL0/Drivers/STM32L0xx_HAL_Driver/Inc/stm32l0xx_ll_lpuart.h **** {
 822:../../dependencies/STM32CubeL0/Drivers/STM32L0xx_HAL_Driver/Inc/stm32l0xx_ll_lpuart.h ****   return (uint32_t)(READ_BIT(LPUARTx->CR2, USART_CR2_RXINV));
 823:../../dependencies/STM32CubeL0/Drivers/STM32L0xx_HAL_Driver/Inc/stm32l0xx_ll_lpuart.h **** }
 824:../../dependencies/STM32CubeL0/Drivers/STM32L0xx_HAL_Driver/Inc/stm32l0xx_ll_lpuart.h **** 
 825:../../dependencies/STM32CubeL0/Drivers/STM32L0xx_HAL_Driver/Inc/stm32l0xx_ll_lpuart.h **** /**
 826:../../dependencies/STM32CubeL0/Drivers/STM32L0xx_HAL_Driver/Inc/stm32l0xx_ll_lpuart.h ****   * @brief  Configure TX pin active level logic
 827:../../dependencies/STM32CubeL0/Drivers/STM32L0xx_HAL_Driver/Inc/stm32l0xx_ll_lpuart.h ****   * @rmtoll CR2          TXINV         LL_LPUART_SetTXPinLevel
 828:../../dependencies/STM32CubeL0/Drivers/STM32L0xx_HAL_Driver/Inc/stm32l0xx_ll_lpuart.h ****   * @param  LPUARTx LPUART Instance
 829:../../dependencies/STM32CubeL0/Drivers/STM32L0xx_HAL_Driver/Inc/stm32l0xx_ll_lpuart.h ****   * @param  PinInvMethod This parameter can be one of the following values:
 830:../../dependencies/STM32CubeL0/Drivers/STM32L0xx_HAL_Driver/Inc/stm32l0xx_ll_lpuart.h ****   *         @arg @ref LL_LPUART_TXPIN_LEVEL_STANDARD
 831:../../dependencies/STM32CubeL0/Drivers/STM32L0xx_HAL_Driver/Inc/stm32l0xx_ll_lpuart.h ****   *         @arg @ref LL_LPUART_TXPIN_LEVEL_INVERTED
 832:../../dependencies/STM32CubeL0/Drivers/STM32L0xx_HAL_Driver/Inc/stm32l0xx_ll_lpuart.h ****   * @retval None
 833:../../dependencies/STM32CubeL0/Drivers/STM32L0xx_HAL_Driver/Inc/stm32l0xx_ll_lpuart.h ****   */
 834:../../dependencies/STM32CubeL0/Drivers/STM32L0xx_HAL_Driver/Inc/stm32l0xx_ll_lpuart.h **** __STATIC_INLINE void LL_LPUART_SetTXPinLevel(USART_TypeDef *LPUARTx, uint32_t PinInvMethod)
 835:../../dependencies/STM32CubeL0/Drivers/STM32L0xx_HAL_Driver/Inc/stm32l0xx_ll_lpuart.h **** {
 836:../../dependencies/STM32CubeL0/Drivers/STM32L0xx_HAL_Driver/Inc/stm32l0xx_ll_lpuart.h ****   MODIFY_REG(LPUARTx->CR2, USART_CR2_TXINV, PinInvMethod);
 837:../../dependencies/STM32CubeL0/Drivers/STM32L0xx_HAL_Driver/Inc/stm32l0xx_ll_lpuart.h **** }
 838:../../dependencies/STM32CubeL0/Drivers/STM32L0xx_HAL_Driver/Inc/stm32l0xx_ll_lpuart.h **** 
 839:../../dependencies/STM32CubeL0/Drivers/STM32L0xx_HAL_Driver/Inc/stm32l0xx_ll_lpuart.h **** /**
 840:../../dependencies/STM32CubeL0/Drivers/STM32L0xx_HAL_Driver/Inc/stm32l0xx_ll_lpuart.h ****   * @brief  Retrieve TX pin active level logic configuration
 841:../../dependencies/STM32CubeL0/Drivers/STM32L0xx_HAL_Driver/Inc/stm32l0xx_ll_lpuart.h ****   * @rmtoll CR2          TXINV         LL_LPUART_GetTXPinLevel
 842:../../dependencies/STM32CubeL0/Drivers/STM32L0xx_HAL_Driver/Inc/stm32l0xx_ll_lpuart.h ****   * @param  LPUARTx LPUART Instance
 843:../../dependencies/STM32CubeL0/Drivers/STM32L0xx_HAL_Driver/Inc/stm32l0xx_ll_lpuart.h ****   * @retval Returned value can be one of the following values:
 844:../../dependencies/STM32CubeL0/Drivers/STM32L0xx_HAL_Driver/Inc/stm32l0xx_ll_lpuart.h ****   *         @arg @ref LL_LPUART_TXPIN_LEVEL_STANDARD
 845:../../dependencies/STM32CubeL0/Drivers/STM32L0xx_HAL_Driver/Inc/stm32l0xx_ll_lpuart.h ****   *         @arg @ref LL_LPUART_TXPIN_LEVEL_INVERTED
 846:../../dependencies/STM32CubeL0/Drivers/STM32L0xx_HAL_Driver/Inc/stm32l0xx_ll_lpuart.h ****   */
 847:../../dependencies/STM32CubeL0/Drivers/STM32L0xx_HAL_Driver/Inc/stm32l0xx_ll_lpuart.h **** __STATIC_INLINE uint32_t LL_LPUART_GetTXPinLevel(USART_TypeDef *LPUARTx)
 848:../../dependencies/STM32CubeL0/Drivers/STM32L0xx_HAL_Driver/Inc/stm32l0xx_ll_lpuart.h **** {
 849:../../dependencies/STM32CubeL0/Drivers/STM32L0xx_HAL_Driver/Inc/stm32l0xx_ll_lpuart.h ****   return (uint32_t)(READ_BIT(LPUARTx->CR2, USART_CR2_TXINV));
 850:../../dependencies/STM32CubeL0/Drivers/STM32L0xx_HAL_Driver/Inc/stm32l0xx_ll_lpuart.h **** }
 851:../../dependencies/STM32CubeL0/Drivers/STM32L0xx_HAL_Driver/Inc/stm32l0xx_ll_lpuart.h **** 
 852:../../dependencies/STM32CubeL0/Drivers/STM32L0xx_HAL_Driver/Inc/stm32l0xx_ll_lpuart.h **** /**
 853:../../dependencies/STM32CubeL0/Drivers/STM32L0xx_HAL_Driver/Inc/stm32l0xx_ll_lpuart.h ****   * @brief  Configure Binary data logic.
 854:../../dependencies/STM32CubeL0/Drivers/STM32L0xx_HAL_Driver/Inc/stm32l0xx_ll_lpuart.h ****   *
 855:../../dependencies/STM32CubeL0/Drivers/STM32L0xx_HAL_Driver/Inc/stm32l0xx_ll_lpuart.h ****   * @note   Allow to define how Logical data from the data register are send/received :
 856:../../dependencies/STM32CubeL0/Drivers/STM32L0xx_HAL_Driver/Inc/stm32l0xx_ll_lpuart.h ****   *         either in positive/direct logic (1=H, 0=L) or in negative/inverse logic (1=L, 0=H)
 857:../../dependencies/STM32CubeL0/Drivers/STM32L0xx_HAL_Driver/Inc/stm32l0xx_ll_lpuart.h ****   * @rmtoll CR2          DATAINV       LL_LPUART_SetBinaryDataLogic
 858:../../dependencies/STM32CubeL0/Drivers/STM32L0xx_HAL_Driver/Inc/stm32l0xx_ll_lpuart.h ****   * @param  LPUARTx LPUART Instance
ARM GAS  /tmp/cc4HDSS2.s 			page 18


 859:../../dependencies/STM32CubeL0/Drivers/STM32L0xx_HAL_Driver/Inc/stm32l0xx_ll_lpuart.h ****   * @param  DataLogic This parameter can be one of the following values:
 860:../../dependencies/STM32CubeL0/Drivers/STM32L0xx_HAL_Driver/Inc/stm32l0xx_ll_lpuart.h ****   *         @arg @ref LL_LPUART_BINARY_LOGIC_POSITIVE
 861:../../dependencies/STM32CubeL0/Drivers/STM32L0xx_HAL_Driver/Inc/stm32l0xx_ll_lpuart.h ****   *         @arg @ref LL_LPUART_BINARY_LOGIC_NEGATIVE
 862:../../dependencies/STM32CubeL0/Drivers/STM32L0xx_HAL_Driver/Inc/stm32l0xx_ll_lpuart.h ****   * @retval None
 863:../../dependencies/STM32CubeL0/Drivers/STM32L0xx_HAL_Driver/Inc/stm32l0xx_ll_lpuart.h ****   */
 864:../../dependencies/STM32CubeL0/Drivers/STM32L0xx_HAL_Driver/Inc/stm32l0xx_ll_lpuart.h **** __STATIC_INLINE void LL_LPUART_SetBinaryDataLogic(USART_TypeDef *LPUARTx, uint32_t DataLogic)
 865:../../dependencies/STM32CubeL0/Drivers/STM32L0xx_HAL_Driver/Inc/stm32l0xx_ll_lpuart.h **** {
 866:../../dependencies/STM32CubeL0/Drivers/STM32L0xx_HAL_Driver/Inc/stm32l0xx_ll_lpuart.h ****   MODIFY_REG(LPUARTx->CR2, USART_CR2_DATAINV, DataLogic);
 867:../../dependencies/STM32CubeL0/Drivers/STM32L0xx_HAL_Driver/Inc/stm32l0xx_ll_lpuart.h **** }
 868:../../dependencies/STM32CubeL0/Drivers/STM32L0xx_HAL_Driver/Inc/stm32l0xx_ll_lpuart.h **** 
 869:../../dependencies/STM32CubeL0/Drivers/STM32L0xx_HAL_Driver/Inc/stm32l0xx_ll_lpuart.h **** /**
 870:../../dependencies/STM32CubeL0/Drivers/STM32L0xx_HAL_Driver/Inc/stm32l0xx_ll_lpuart.h ****   * @brief  Retrieve Binary data configuration
 871:../../dependencies/STM32CubeL0/Drivers/STM32L0xx_HAL_Driver/Inc/stm32l0xx_ll_lpuart.h ****   * @rmtoll CR2          DATAINV       LL_LPUART_GetBinaryDataLogic
 872:../../dependencies/STM32CubeL0/Drivers/STM32L0xx_HAL_Driver/Inc/stm32l0xx_ll_lpuart.h ****   * @param  LPUARTx LPUART Instance
 873:../../dependencies/STM32CubeL0/Drivers/STM32L0xx_HAL_Driver/Inc/stm32l0xx_ll_lpuart.h ****   * @retval Returned value can be one of the following values:
 874:../../dependencies/STM32CubeL0/Drivers/STM32L0xx_HAL_Driver/Inc/stm32l0xx_ll_lpuart.h ****   *         @arg @ref LL_LPUART_BINARY_LOGIC_POSITIVE
 875:../../dependencies/STM32CubeL0/Drivers/STM32L0xx_HAL_Driver/Inc/stm32l0xx_ll_lpuart.h ****   *         @arg @ref LL_LPUART_BINARY_LOGIC_NEGATIVE
 876:../../dependencies/STM32CubeL0/Drivers/STM32L0xx_HAL_Driver/Inc/stm32l0xx_ll_lpuart.h ****   */
 877:../../dependencies/STM32CubeL0/Drivers/STM32L0xx_HAL_Driver/Inc/stm32l0xx_ll_lpuart.h **** __STATIC_INLINE uint32_t LL_LPUART_GetBinaryDataLogic(USART_TypeDef *LPUARTx)
 878:../../dependencies/STM32CubeL0/Drivers/STM32L0xx_HAL_Driver/Inc/stm32l0xx_ll_lpuart.h **** {
 879:../../dependencies/STM32CubeL0/Drivers/STM32L0xx_HAL_Driver/Inc/stm32l0xx_ll_lpuart.h ****   return (uint32_t)(READ_BIT(LPUARTx->CR2, USART_CR2_DATAINV));
 880:../../dependencies/STM32CubeL0/Drivers/STM32L0xx_HAL_Driver/Inc/stm32l0xx_ll_lpuart.h **** }
 881:../../dependencies/STM32CubeL0/Drivers/STM32L0xx_HAL_Driver/Inc/stm32l0xx_ll_lpuart.h **** 
 882:../../dependencies/STM32CubeL0/Drivers/STM32L0xx_HAL_Driver/Inc/stm32l0xx_ll_lpuart.h **** /**
 883:../../dependencies/STM32CubeL0/Drivers/STM32L0xx_HAL_Driver/Inc/stm32l0xx_ll_lpuart.h ****   * @brief  Configure transfer bit order (either Less or Most Significant Bit First)
 884:../../dependencies/STM32CubeL0/Drivers/STM32L0xx_HAL_Driver/Inc/stm32l0xx_ll_lpuart.h ****   * @note   MSB First means data is transmitted/received with the MSB first, following the start bi
 885:../../dependencies/STM32CubeL0/Drivers/STM32L0xx_HAL_Driver/Inc/stm32l0xx_ll_lpuart.h ****   *         LSB First means data is transmitted/received with data bit 0 first, following the start
 886:../../dependencies/STM32CubeL0/Drivers/STM32L0xx_HAL_Driver/Inc/stm32l0xx_ll_lpuart.h ****   * @rmtoll CR2          MSBFIRST      LL_LPUART_SetTransferBitOrder
 887:../../dependencies/STM32CubeL0/Drivers/STM32L0xx_HAL_Driver/Inc/stm32l0xx_ll_lpuart.h ****   * @param  LPUARTx LPUART Instance
 888:../../dependencies/STM32CubeL0/Drivers/STM32L0xx_HAL_Driver/Inc/stm32l0xx_ll_lpuart.h ****   * @param  BitOrder This parameter can be one of the following values:
 889:../../dependencies/STM32CubeL0/Drivers/STM32L0xx_HAL_Driver/Inc/stm32l0xx_ll_lpuart.h ****   *         @arg @ref LL_LPUART_BITORDER_LSBFIRST
 890:../../dependencies/STM32CubeL0/Drivers/STM32L0xx_HAL_Driver/Inc/stm32l0xx_ll_lpuart.h ****   *         @arg @ref LL_LPUART_BITORDER_MSBFIRST
 891:../../dependencies/STM32CubeL0/Drivers/STM32L0xx_HAL_Driver/Inc/stm32l0xx_ll_lpuart.h ****   * @retval None
 892:../../dependencies/STM32CubeL0/Drivers/STM32L0xx_HAL_Driver/Inc/stm32l0xx_ll_lpuart.h ****   */
 893:../../dependencies/STM32CubeL0/Drivers/STM32L0xx_HAL_Driver/Inc/stm32l0xx_ll_lpuart.h **** __STATIC_INLINE void LL_LPUART_SetTransferBitOrder(USART_TypeDef *LPUARTx, uint32_t BitOrder)
 894:../../dependencies/STM32CubeL0/Drivers/STM32L0xx_HAL_Driver/Inc/stm32l0xx_ll_lpuart.h **** {
 895:../../dependencies/STM32CubeL0/Drivers/STM32L0xx_HAL_Driver/Inc/stm32l0xx_ll_lpuart.h ****   MODIFY_REG(LPUARTx->CR2, USART_CR2_MSBFIRST, BitOrder);
 896:../../dependencies/STM32CubeL0/Drivers/STM32L0xx_HAL_Driver/Inc/stm32l0xx_ll_lpuart.h **** }
 897:../../dependencies/STM32CubeL0/Drivers/STM32L0xx_HAL_Driver/Inc/stm32l0xx_ll_lpuart.h **** 
 898:../../dependencies/STM32CubeL0/Drivers/STM32L0xx_HAL_Driver/Inc/stm32l0xx_ll_lpuart.h **** /**
 899:../../dependencies/STM32CubeL0/Drivers/STM32L0xx_HAL_Driver/Inc/stm32l0xx_ll_lpuart.h ****   * @brief  Return transfer bit order (either Less or Most Significant Bit First)
 900:../../dependencies/STM32CubeL0/Drivers/STM32L0xx_HAL_Driver/Inc/stm32l0xx_ll_lpuart.h ****   * @note   MSB First means data is transmitted/received with the MSB first, following the start bi
 901:../../dependencies/STM32CubeL0/Drivers/STM32L0xx_HAL_Driver/Inc/stm32l0xx_ll_lpuart.h ****   *         LSB First means data is transmitted/received with data bit 0 first, following the start
 902:../../dependencies/STM32CubeL0/Drivers/STM32L0xx_HAL_Driver/Inc/stm32l0xx_ll_lpuart.h ****   * @rmtoll CR2          MSBFIRST      LL_LPUART_GetTransferBitOrder
 903:../../dependencies/STM32CubeL0/Drivers/STM32L0xx_HAL_Driver/Inc/stm32l0xx_ll_lpuart.h ****   * @param  LPUARTx LPUART Instance
 904:../../dependencies/STM32CubeL0/Drivers/STM32L0xx_HAL_Driver/Inc/stm32l0xx_ll_lpuart.h ****   * @retval Returned value can be one of the following values:
 905:../../dependencies/STM32CubeL0/Drivers/STM32L0xx_HAL_Driver/Inc/stm32l0xx_ll_lpuart.h ****   *         @arg @ref LL_LPUART_BITORDER_LSBFIRST
 906:../../dependencies/STM32CubeL0/Drivers/STM32L0xx_HAL_Driver/Inc/stm32l0xx_ll_lpuart.h ****   *         @arg @ref LL_LPUART_BITORDER_MSBFIRST
 907:../../dependencies/STM32CubeL0/Drivers/STM32L0xx_HAL_Driver/Inc/stm32l0xx_ll_lpuart.h ****   */
 908:../../dependencies/STM32CubeL0/Drivers/STM32L0xx_HAL_Driver/Inc/stm32l0xx_ll_lpuart.h **** __STATIC_INLINE uint32_t LL_LPUART_GetTransferBitOrder(USART_TypeDef *LPUARTx)
 909:../../dependencies/STM32CubeL0/Drivers/STM32L0xx_HAL_Driver/Inc/stm32l0xx_ll_lpuart.h **** {
 910:../../dependencies/STM32CubeL0/Drivers/STM32L0xx_HAL_Driver/Inc/stm32l0xx_ll_lpuart.h ****   return (uint32_t)(READ_BIT(LPUARTx->CR2, USART_CR2_MSBFIRST));
 911:../../dependencies/STM32CubeL0/Drivers/STM32L0xx_HAL_Driver/Inc/stm32l0xx_ll_lpuart.h **** }
 912:../../dependencies/STM32CubeL0/Drivers/STM32L0xx_HAL_Driver/Inc/stm32l0xx_ll_lpuart.h **** 
 913:../../dependencies/STM32CubeL0/Drivers/STM32L0xx_HAL_Driver/Inc/stm32l0xx_ll_lpuart.h **** /**
 914:../../dependencies/STM32CubeL0/Drivers/STM32L0xx_HAL_Driver/Inc/stm32l0xx_ll_lpuart.h ****   * @brief  Set Address of the LPUART node.
 915:../../dependencies/STM32CubeL0/Drivers/STM32L0xx_HAL_Driver/Inc/stm32l0xx_ll_lpuart.h ****   * @note   This is used in multiprocessor communication during Mute mode or Stop mode,
ARM GAS  /tmp/cc4HDSS2.s 			page 19


 916:../../dependencies/STM32CubeL0/Drivers/STM32L0xx_HAL_Driver/Inc/stm32l0xx_ll_lpuart.h ****   *         for wake up with address mark detection.
 917:../../dependencies/STM32CubeL0/Drivers/STM32L0xx_HAL_Driver/Inc/stm32l0xx_ll_lpuart.h ****   * @note   4bits address node is used when 4-bit Address Detection is selected in ADDM7.
 918:../../dependencies/STM32CubeL0/Drivers/STM32L0xx_HAL_Driver/Inc/stm32l0xx_ll_lpuart.h ****   *         (b7-b4 should be set to 0)
 919:../../dependencies/STM32CubeL0/Drivers/STM32L0xx_HAL_Driver/Inc/stm32l0xx_ll_lpuart.h ****   *         8bits address node is used when 7-bit Address Detection is selected in ADDM7.
 920:../../dependencies/STM32CubeL0/Drivers/STM32L0xx_HAL_Driver/Inc/stm32l0xx_ll_lpuart.h ****   *         (This is used in multiprocessor communication during Mute mode or Stop mode,
 921:../../dependencies/STM32CubeL0/Drivers/STM32L0xx_HAL_Driver/Inc/stm32l0xx_ll_lpuart.h ****   *         for wake up with 7-bit address mark detection.
 922:../../dependencies/STM32CubeL0/Drivers/STM32L0xx_HAL_Driver/Inc/stm32l0xx_ll_lpuart.h ****   *         The MSB of the character sent by the transmitter should be equal to 1.
 923:../../dependencies/STM32CubeL0/Drivers/STM32L0xx_HAL_Driver/Inc/stm32l0xx_ll_lpuart.h ****   *         It may also be used for character detection during normal reception,
 924:../../dependencies/STM32CubeL0/Drivers/STM32L0xx_HAL_Driver/Inc/stm32l0xx_ll_lpuart.h ****   *         Mute mode inactive (for example, end of block detection in ModBus protocol).
 925:../../dependencies/STM32CubeL0/Drivers/STM32L0xx_HAL_Driver/Inc/stm32l0xx_ll_lpuart.h ****   *         In this case, the whole received character (8-bit) is compared to the ADD[7:0]
 926:../../dependencies/STM32CubeL0/Drivers/STM32L0xx_HAL_Driver/Inc/stm32l0xx_ll_lpuart.h ****   *         value and CMF flag is set on match)
 927:../../dependencies/STM32CubeL0/Drivers/STM32L0xx_HAL_Driver/Inc/stm32l0xx_ll_lpuart.h ****   * @rmtoll CR2          ADD           LL_LPUART_ConfigNodeAddress\n
 928:../../dependencies/STM32CubeL0/Drivers/STM32L0xx_HAL_Driver/Inc/stm32l0xx_ll_lpuart.h ****   *         CR2          ADDM7         LL_LPUART_ConfigNodeAddress
 929:../../dependencies/STM32CubeL0/Drivers/STM32L0xx_HAL_Driver/Inc/stm32l0xx_ll_lpuart.h ****   * @param  LPUARTx LPUART Instance
 930:../../dependencies/STM32CubeL0/Drivers/STM32L0xx_HAL_Driver/Inc/stm32l0xx_ll_lpuart.h ****   * @param  AddressLen This parameter can be one of the following values:
 931:../../dependencies/STM32CubeL0/Drivers/STM32L0xx_HAL_Driver/Inc/stm32l0xx_ll_lpuart.h ****   *         @arg @ref LL_LPUART_ADDRESS_DETECT_4B
 932:../../dependencies/STM32CubeL0/Drivers/STM32L0xx_HAL_Driver/Inc/stm32l0xx_ll_lpuart.h ****   *         @arg @ref LL_LPUART_ADDRESS_DETECT_7B
 933:../../dependencies/STM32CubeL0/Drivers/STM32L0xx_HAL_Driver/Inc/stm32l0xx_ll_lpuart.h ****   * @param  NodeAddress 4 or 7 bit Address of the LPUART node.
 934:../../dependencies/STM32CubeL0/Drivers/STM32L0xx_HAL_Driver/Inc/stm32l0xx_ll_lpuart.h ****   * @retval None
 935:../../dependencies/STM32CubeL0/Drivers/STM32L0xx_HAL_Driver/Inc/stm32l0xx_ll_lpuart.h ****   */
 936:../../dependencies/STM32CubeL0/Drivers/STM32L0xx_HAL_Driver/Inc/stm32l0xx_ll_lpuart.h **** __STATIC_INLINE void LL_LPUART_ConfigNodeAddress(USART_TypeDef *LPUARTx, uint32_t AddressLen, uint3
 937:../../dependencies/STM32CubeL0/Drivers/STM32L0xx_HAL_Driver/Inc/stm32l0xx_ll_lpuart.h **** {
 938:../../dependencies/STM32CubeL0/Drivers/STM32L0xx_HAL_Driver/Inc/stm32l0xx_ll_lpuart.h ****   MODIFY_REG(LPUARTx->CR2, USART_CR2_ADD | USART_CR2_ADDM7,
 939:../../dependencies/STM32CubeL0/Drivers/STM32L0xx_HAL_Driver/Inc/stm32l0xx_ll_lpuart.h ****              (uint32_t)(AddressLen | (NodeAddress << USART_CR2_ADD_Pos)));
 940:../../dependencies/STM32CubeL0/Drivers/STM32L0xx_HAL_Driver/Inc/stm32l0xx_ll_lpuart.h **** }
 941:../../dependencies/STM32CubeL0/Drivers/STM32L0xx_HAL_Driver/Inc/stm32l0xx_ll_lpuart.h **** 
 942:../../dependencies/STM32CubeL0/Drivers/STM32L0xx_HAL_Driver/Inc/stm32l0xx_ll_lpuart.h **** /**
 943:../../dependencies/STM32CubeL0/Drivers/STM32L0xx_HAL_Driver/Inc/stm32l0xx_ll_lpuart.h ****   * @brief  Return 8 bit Address of the LPUART node as set in ADD field of CR2.
 944:../../dependencies/STM32CubeL0/Drivers/STM32L0xx_HAL_Driver/Inc/stm32l0xx_ll_lpuart.h ****   * @note   If 4-bit Address Detection is selected in ADDM7,
 945:../../dependencies/STM32CubeL0/Drivers/STM32L0xx_HAL_Driver/Inc/stm32l0xx_ll_lpuart.h ****   *         only 4bits (b3-b0) of returned value are relevant (b31-b4 are not relevant)
 946:../../dependencies/STM32CubeL0/Drivers/STM32L0xx_HAL_Driver/Inc/stm32l0xx_ll_lpuart.h ****   *         If 7-bit Address Detection is selected in ADDM7,
 947:../../dependencies/STM32CubeL0/Drivers/STM32L0xx_HAL_Driver/Inc/stm32l0xx_ll_lpuart.h ****   *         only 8bits (b7-b0) of returned value are relevant (b31-b8 are not relevant)
 948:../../dependencies/STM32CubeL0/Drivers/STM32L0xx_HAL_Driver/Inc/stm32l0xx_ll_lpuart.h ****   * @rmtoll CR2          ADD           LL_LPUART_GetNodeAddress
 949:../../dependencies/STM32CubeL0/Drivers/STM32L0xx_HAL_Driver/Inc/stm32l0xx_ll_lpuart.h ****   * @param  LPUARTx LPUART Instance
 950:../../dependencies/STM32CubeL0/Drivers/STM32L0xx_HAL_Driver/Inc/stm32l0xx_ll_lpuart.h ****   * @retval Address of the LPUART node (Value between Min_Data=0 and Max_Data=255)
 951:../../dependencies/STM32CubeL0/Drivers/STM32L0xx_HAL_Driver/Inc/stm32l0xx_ll_lpuart.h ****   */
 952:../../dependencies/STM32CubeL0/Drivers/STM32L0xx_HAL_Driver/Inc/stm32l0xx_ll_lpuart.h **** __STATIC_INLINE uint32_t LL_LPUART_GetNodeAddress(USART_TypeDef *LPUARTx)
 953:../../dependencies/STM32CubeL0/Drivers/STM32L0xx_HAL_Driver/Inc/stm32l0xx_ll_lpuart.h **** {
 954:../../dependencies/STM32CubeL0/Drivers/STM32L0xx_HAL_Driver/Inc/stm32l0xx_ll_lpuart.h ****   return (uint32_t)(READ_BIT(LPUARTx->CR2, USART_CR2_ADD) >> USART_CR2_ADD_Pos);
 955:../../dependencies/STM32CubeL0/Drivers/STM32L0xx_HAL_Driver/Inc/stm32l0xx_ll_lpuart.h **** }
 956:../../dependencies/STM32CubeL0/Drivers/STM32L0xx_HAL_Driver/Inc/stm32l0xx_ll_lpuart.h **** 
 957:../../dependencies/STM32CubeL0/Drivers/STM32L0xx_HAL_Driver/Inc/stm32l0xx_ll_lpuart.h **** /**
 958:../../dependencies/STM32CubeL0/Drivers/STM32L0xx_HAL_Driver/Inc/stm32l0xx_ll_lpuart.h ****   * @brief  Return Length of Node Address used in Address Detection mode (7-bit or 4-bit)
 959:../../dependencies/STM32CubeL0/Drivers/STM32L0xx_HAL_Driver/Inc/stm32l0xx_ll_lpuart.h ****   * @rmtoll CR2          ADDM7         LL_LPUART_GetNodeAddressLen
 960:../../dependencies/STM32CubeL0/Drivers/STM32L0xx_HAL_Driver/Inc/stm32l0xx_ll_lpuart.h ****   * @param  LPUARTx LPUART Instance
 961:../../dependencies/STM32CubeL0/Drivers/STM32L0xx_HAL_Driver/Inc/stm32l0xx_ll_lpuart.h ****   * @retval Returned value can be one of the following values:
 962:../../dependencies/STM32CubeL0/Drivers/STM32L0xx_HAL_Driver/Inc/stm32l0xx_ll_lpuart.h ****   *         @arg @ref LL_LPUART_ADDRESS_DETECT_4B
 963:../../dependencies/STM32CubeL0/Drivers/STM32L0xx_HAL_Driver/Inc/stm32l0xx_ll_lpuart.h ****   *         @arg @ref LL_LPUART_ADDRESS_DETECT_7B
 964:../../dependencies/STM32CubeL0/Drivers/STM32L0xx_HAL_Driver/Inc/stm32l0xx_ll_lpuart.h ****   */
 965:../../dependencies/STM32CubeL0/Drivers/STM32L0xx_HAL_Driver/Inc/stm32l0xx_ll_lpuart.h **** __STATIC_INLINE uint32_t LL_LPUART_GetNodeAddressLen(USART_TypeDef *LPUARTx)
 966:../../dependencies/STM32CubeL0/Drivers/STM32L0xx_HAL_Driver/Inc/stm32l0xx_ll_lpuart.h **** {
 967:../../dependencies/STM32CubeL0/Drivers/STM32L0xx_HAL_Driver/Inc/stm32l0xx_ll_lpuart.h ****   return (uint32_t)(READ_BIT(LPUARTx->CR2, USART_CR2_ADDM7));
 968:../../dependencies/STM32CubeL0/Drivers/STM32L0xx_HAL_Driver/Inc/stm32l0xx_ll_lpuart.h **** }
 969:../../dependencies/STM32CubeL0/Drivers/STM32L0xx_HAL_Driver/Inc/stm32l0xx_ll_lpuart.h **** 
 970:../../dependencies/STM32CubeL0/Drivers/STM32L0xx_HAL_Driver/Inc/stm32l0xx_ll_lpuart.h **** /**
 971:../../dependencies/STM32CubeL0/Drivers/STM32L0xx_HAL_Driver/Inc/stm32l0xx_ll_lpuart.h ****   * @brief  Enable RTS HW Flow Control
 972:../../dependencies/STM32CubeL0/Drivers/STM32L0xx_HAL_Driver/Inc/stm32l0xx_ll_lpuart.h ****   * @rmtoll CR3          RTSE          LL_LPUART_EnableRTSHWFlowCtrl
ARM GAS  /tmp/cc4HDSS2.s 			page 20


 973:../../dependencies/STM32CubeL0/Drivers/STM32L0xx_HAL_Driver/Inc/stm32l0xx_ll_lpuart.h ****   * @param  LPUARTx LPUART Instance
 974:../../dependencies/STM32CubeL0/Drivers/STM32L0xx_HAL_Driver/Inc/stm32l0xx_ll_lpuart.h ****   * @retval None
 975:../../dependencies/STM32CubeL0/Drivers/STM32L0xx_HAL_Driver/Inc/stm32l0xx_ll_lpuart.h ****   */
 976:../../dependencies/STM32CubeL0/Drivers/STM32L0xx_HAL_Driver/Inc/stm32l0xx_ll_lpuart.h **** __STATIC_INLINE void LL_LPUART_EnableRTSHWFlowCtrl(USART_TypeDef *LPUARTx)
 977:../../dependencies/STM32CubeL0/Drivers/STM32L0xx_HAL_Driver/Inc/stm32l0xx_ll_lpuart.h **** {
 978:../../dependencies/STM32CubeL0/Drivers/STM32L0xx_HAL_Driver/Inc/stm32l0xx_ll_lpuart.h ****   SET_BIT(LPUARTx->CR3, USART_CR3_RTSE);
 979:../../dependencies/STM32CubeL0/Drivers/STM32L0xx_HAL_Driver/Inc/stm32l0xx_ll_lpuart.h **** }
 980:../../dependencies/STM32CubeL0/Drivers/STM32L0xx_HAL_Driver/Inc/stm32l0xx_ll_lpuart.h **** 
 981:../../dependencies/STM32CubeL0/Drivers/STM32L0xx_HAL_Driver/Inc/stm32l0xx_ll_lpuart.h **** /**
 982:../../dependencies/STM32CubeL0/Drivers/STM32L0xx_HAL_Driver/Inc/stm32l0xx_ll_lpuart.h ****   * @brief  Disable RTS HW Flow Control
 983:../../dependencies/STM32CubeL0/Drivers/STM32L0xx_HAL_Driver/Inc/stm32l0xx_ll_lpuart.h ****   * @rmtoll CR3          RTSE          LL_LPUART_DisableRTSHWFlowCtrl
 984:../../dependencies/STM32CubeL0/Drivers/STM32L0xx_HAL_Driver/Inc/stm32l0xx_ll_lpuart.h ****   * @param  LPUARTx LPUART Instance
 985:../../dependencies/STM32CubeL0/Drivers/STM32L0xx_HAL_Driver/Inc/stm32l0xx_ll_lpuart.h ****   * @retval None
 986:../../dependencies/STM32CubeL0/Drivers/STM32L0xx_HAL_Driver/Inc/stm32l0xx_ll_lpuart.h ****   */
 987:../../dependencies/STM32CubeL0/Drivers/STM32L0xx_HAL_Driver/Inc/stm32l0xx_ll_lpuart.h **** __STATIC_INLINE void LL_LPUART_DisableRTSHWFlowCtrl(USART_TypeDef *LPUARTx)
 988:../../dependencies/STM32CubeL0/Drivers/STM32L0xx_HAL_Driver/Inc/stm32l0xx_ll_lpuart.h **** {
 989:../../dependencies/STM32CubeL0/Drivers/STM32L0xx_HAL_Driver/Inc/stm32l0xx_ll_lpuart.h ****   CLEAR_BIT(LPUARTx->CR3, USART_CR3_RTSE);
 990:../../dependencies/STM32CubeL0/Drivers/STM32L0xx_HAL_Driver/Inc/stm32l0xx_ll_lpuart.h **** }
 991:../../dependencies/STM32CubeL0/Drivers/STM32L0xx_HAL_Driver/Inc/stm32l0xx_ll_lpuart.h **** 
 992:../../dependencies/STM32CubeL0/Drivers/STM32L0xx_HAL_Driver/Inc/stm32l0xx_ll_lpuart.h **** /**
 993:../../dependencies/STM32CubeL0/Drivers/STM32L0xx_HAL_Driver/Inc/stm32l0xx_ll_lpuart.h ****   * @brief  Enable CTS HW Flow Control
 994:../../dependencies/STM32CubeL0/Drivers/STM32L0xx_HAL_Driver/Inc/stm32l0xx_ll_lpuart.h ****   * @rmtoll CR3          CTSE          LL_LPUART_EnableCTSHWFlowCtrl
 995:../../dependencies/STM32CubeL0/Drivers/STM32L0xx_HAL_Driver/Inc/stm32l0xx_ll_lpuart.h ****   * @param  LPUARTx LPUART Instance
 996:../../dependencies/STM32CubeL0/Drivers/STM32L0xx_HAL_Driver/Inc/stm32l0xx_ll_lpuart.h ****   * @retval None
 997:../../dependencies/STM32CubeL0/Drivers/STM32L0xx_HAL_Driver/Inc/stm32l0xx_ll_lpuart.h ****   */
 998:../../dependencies/STM32CubeL0/Drivers/STM32L0xx_HAL_Driver/Inc/stm32l0xx_ll_lpuart.h **** __STATIC_INLINE void LL_LPUART_EnableCTSHWFlowCtrl(USART_TypeDef *LPUARTx)
 999:../../dependencies/STM32CubeL0/Drivers/STM32L0xx_HAL_Driver/Inc/stm32l0xx_ll_lpuart.h **** {
1000:../../dependencies/STM32CubeL0/Drivers/STM32L0xx_HAL_Driver/Inc/stm32l0xx_ll_lpuart.h ****   SET_BIT(LPUARTx->CR3, USART_CR3_CTSE);
1001:../../dependencies/STM32CubeL0/Drivers/STM32L0xx_HAL_Driver/Inc/stm32l0xx_ll_lpuart.h **** }
1002:../../dependencies/STM32CubeL0/Drivers/STM32L0xx_HAL_Driver/Inc/stm32l0xx_ll_lpuart.h **** 
1003:../../dependencies/STM32CubeL0/Drivers/STM32L0xx_HAL_Driver/Inc/stm32l0xx_ll_lpuart.h **** /**
1004:../../dependencies/STM32CubeL0/Drivers/STM32L0xx_HAL_Driver/Inc/stm32l0xx_ll_lpuart.h ****   * @brief  Disable CTS HW Flow Control
1005:../../dependencies/STM32CubeL0/Drivers/STM32L0xx_HAL_Driver/Inc/stm32l0xx_ll_lpuart.h ****   * @rmtoll CR3          CTSE          LL_LPUART_DisableCTSHWFlowCtrl
1006:../../dependencies/STM32CubeL0/Drivers/STM32L0xx_HAL_Driver/Inc/stm32l0xx_ll_lpuart.h ****   * @param  LPUARTx LPUART Instance
1007:../../dependencies/STM32CubeL0/Drivers/STM32L0xx_HAL_Driver/Inc/stm32l0xx_ll_lpuart.h ****   * @retval None
1008:../../dependencies/STM32CubeL0/Drivers/STM32L0xx_HAL_Driver/Inc/stm32l0xx_ll_lpuart.h ****   */
1009:../../dependencies/STM32CubeL0/Drivers/STM32L0xx_HAL_Driver/Inc/stm32l0xx_ll_lpuart.h **** __STATIC_INLINE void LL_LPUART_DisableCTSHWFlowCtrl(USART_TypeDef *LPUARTx)
1010:../../dependencies/STM32CubeL0/Drivers/STM32L0xx_HAL_Driver/Inc/stm32l0xx_ll_lpuart.h **** {
1011:../../dependencies/STM32CubeL0/Drivers/STM32L0xx_HAL_Driver/Inc/stm32l0xx_ll_lpuart.h ****   CLEAR_BIT(LPUARTx->CR3, USART_CR3_CTSE);
1012:../../dependencies/STM32CubeL0/Drivers/STM32L0xx_HAL_Driver/Inc/stm32l0xx_ll_lpuart.h **** }
1013:../../dependencies/STM32CubeL0/Drivers/STM32L0xx_HAL_Driver/Inc/stm32l0xx_ll_lpuart.h **** 
1014:../../dependencies/STM32CubeL0/Drivers/STM32L0xx_HAL_Driver/Inc/stm32l0xx_ll_lpuart.h **** /**
1015:../../dependencies/STM32CubeL0/Drivers/STM32L0xx_HAL_Driver/Inc/stm32l0xx_ll_lpuart.h ****   * @brief  Configure HW Flow Control mode (both CTS and RTS)
1016:../../dependencies/STM32CubeL0/Drivers/STM32L0xx_HAL_Driver/Inc/stm32l0xx_ll_lpuart.h ****   * @rmtoll CR3          RTSE          LL_LPUART_SetHWFlowCtrl\n
1017:../../dependencies/STM32CubeL0/Drivers/STM32L0xx_HAL_Driver/Inc/stm32l0xx_ll_lpuart.h ****   *         CR3          CTSE          LL_LPUART_SetHWFlowCtrl
1018:../../dependencies/STM32CubeL0/Drivers/STM32L0xx_HAL_Driver/Inc/stm32l0xx_ll_lpuart.h ****   * @param  LPUARTx LPUART Instance
1019:../../dependencies/STM32CubeL0/Drivers/STM32L0xx_HAL_Driver/Inc/stm32l0xx_ll_lpuart.h ****   * @param  HardwareFlowControl This parameter can be one of the following values:
1020:../../dependencies/STM32CubeL0/Drivers/STM32L0xx_HAL_Driver/Inc/stm32l0xx_ll_lpuart.h ****   *         @arg @ref LL_LPUART_HWCONTROL_NONE
1021:../../dependencies/STM32CubeL0/Drivers/STM32L0xx_HAL_Driver/Inc/stm32l0xx_ll_lpuart.h ****   *         @arg @ref LL_LPUART_HWCONTROL_RTS
1022:../../dependencies/STM32CubeL0/Drivers/STM32L0xx_HAL_Driver/Inc/stm32l0xx_ll_lpuart.h ****   *         @arg @ref LL_LPUART_HWCONTROL_CTS
1023:../../dependencies/STM32CubeL0/Drivers/STM32L0xx_HAL_Driver/Inc/stm32l0xx_ll_lpuart.h ****   *         @arg @ref LL_LPUART_HWCONTROL_RTS_CTS
1024:../../dependencies/STM32CubeL0/Drivers/STM32L0xx_HAL_Driver/Inc/stm32l0xx_ll_lpuart.h ****   * @retval None
1025:../../dependencies/STM32CubeL0/Drivers/STM32L0xx_HAL_Driver/Inc/stm32l0xx_ll_lpuart.h ****   */
1026:../../dependencies/STM32CubeL0/Drivers/STM32L0xx_HAL_Driver/Inc/stm32l0xx_ll_lpuart.h **** __STATIC_INLINE void LL_LPUART_SetHWFlowCtrl(USART_TypeDef *LPUARTx, uint32_t HardwareFlowControl)
1027:../../dependencies/STM32CubeL0/Drivers/STM32L0xx_HAL_Driver/Inc/stm32l0xx_ll_lpuart.h **** {
 117              		.loc 1 1027 1
 118              		.cfi_startproc
ARM GAS  /tmp/cc4HDSS2.s 			page 21


 119              		@ args = 0, pretend = 0, frame = 8
 120              		@ frame_needed = 1, uses_anonymous_args = 0
 121 0000 80B5     		push	{r7, lr}
 122              		.cfi_def_cfa_offset 8
 123              		.cfi_offset 7, -8
 124              		.cfi_offset 14, -4
 125 0002 82B0     		sub	sp, sp, #8
 126              		.cfi_def_cfa_offset 16
 127 0004 00AF     		add	r7, sp, #0
 128              		.cfi_def_cfa_register 7
 129 0006 7860     		str	r0, [r7, #4]
 130 0008 3960     		str	r1, [r7]
1028:../../dependencies/STM32CubeL0/Drivers/STM32L0xx_HAL_Driver/Inc/stm32l0xx_ll_lpuart.h ****   MODIFY_REG(LPUARTx->CR3, USART_CR3_RTSE | USART_CR3_CTSE, HardwareFlowControl);
 131              		.loc 1 1028 3
 132 000a 7B68     		ldr	r3, [r7, #4]
 133 000c 9B68     		ldr	r3, [r3, #8]
 134 000e 054A     		ldr	r2, .L9
 135 0010 1A40     		ands	r2, r3
 136 0012 3B68     		ldr	r3, [r7]
 137 0014 1A43     		orrs	r2, r3
 138 0016 7B68     		ldr	r3, [r7, #4]
 139 0018 9A60     		str	r2, [r3, #8]
1029:../../dependencies/STM32CubeL0/Drivers/STM32L0xx_HAL_Driver/Inc/stm32l0xx_ll_lpuart.h **** }
 140              		.loc 1 1029 1
 141 001a C046     		nop
 142 001c BD46     		mov	sp, r7
 143 001e 02B0     		add	sp, sp, #8
 144              		@ sp needed
 145 0020 80BD     		pop	{r7, pc}
 146              	.L10:
 147 0022 C046     		.align	2
 148              	.L9:
 149 0024 FFFCFFFF 		.word	-769
 150              		.cfi_endproc
 151              	.LFE91:
 153              		.global	__aeabi_uldivmod
 154              		.section	.text.LL_LPUART_SetBaudRate,"ax",%progbits
 155              		.align	1
 156              		.syntax unified
 157              		.code	16
 158              		.thumb_func
 159              		.fpu softvfp
 161              	LL_LPUART_SetBaudRate:
 162              	.LFB98:
1030:../../dependencies/STM32CubeL0/Drivers/STM32L0xx_HAL_Driver/Inc/stm32l0xx_ll_lpuart.h **** 
1031:../../dependencies/STM32CubeL0/Drivers/STM32L0xx_HAL_Driver/Inc/stm32l0xx_ll_lpuart.h **** /**
1032:../../dependencies/STM32CubeL0/Drivers/STM32L0xx_HAL_Driver/Inc/stm32l0xx_ll_lpuart.h ****   * @brief  Return HW Flow Control configuration (both CTS and RTS)
1033:../../dependencies/STM32CubeL0/Drivers/STM32L0xx_HAL_Driver/Inc/stm32l0xx_ll_lpuart.h ****   * @rmtoll CR3          RTSE          LL_LPUART_GetHWFlowCtrl\n
1034:../../dependencies/STM32CubeL0/Drivers/STM32L0xx_HAL_Driver/Inc/stm32l0xx_ll_lpuart.h ****   *         CR3          CTSE          LL_LPUART_GetHWFlowCtrl
1035:../../dependencies/STM32CubeL0/Drivers/STM32L0xx_HAL_Driver/Inc/stm32l0xx_ll_lpuart.h ****   * @param  LPUARTx LPUART Instance
1036:../../dependencies/STM32CubeL0/Drivers/STM32L0xx_HAL_Driver/Inc/stm32l0xx_ll_lpuart.h ****   * @retval Returned value can be one of the following values:
1037:../../dependencies/STM32CubeL0/Drivers/STM32L0xx_HAL_Driver/Inc/stm32l0xx_ll_lpuart.h ****   *         @arg @ref LL_LPUART_HWCONTROL_NONE
1038:../../dependencies/STM32CubeL0/Drivers/STM32L0xx_HAL_Driver/Inc/stm32l0xx_ll_lpuart.h ****   *         @arg @ref LL_LPUART_HWCONTROL_RTS
1039:../../dependencies/STM32CubeL0/Drivers/STM32L0xx_HAL_Driver/Inc/stm32l0xx_ll_lpuart.h ****   *         @arg @ref LL_LPUART_HWCONTROL_CTS
1040:../../dependencies/STM32CubeL0/Drivers/STM32L0xx_HAL_Driver/Inc/stm32l0xx_ll_lpuart.h ****   *         @arg @ref LL_LPUART_HWCONTROL_RTS_CTS
1041:../../dependencies/STM32CubeL0/Drivers/STM32L0xx_HAL_Driver/Inc/stm32l0xx_ll_lpuart.h ****   */
1042:../../dependencies/STM32CubeL0/Drivers/STM32L0xx_HAL_Driver/Inc/stm32l0xx_ll_lpuart.h **** __STATIC_INLINE uint32_t LL_LPUART_GetHWFlowCtrl(USART_TypeDef *LPUARTx)
ARM GAS  /tmp/cc4HDSS2.s 			page 22


1043:../../dependencies/STM32CubeL0/Drivers/STM32L0xx_HAL_Driver/Inc/stm32l0xx_ll_lpuart.h **** {
1044:../../dependencies/STM32CubeL0/Drivers/STM32L0xx_HAL_Driver/Inc/stm32l0xx_ll_lpuart.h ****   return (uint32_t)(READ_BIT(LPUARTx->CR3, USART_CR3_RTSE | USART_CR3_CTSE));
1045:../../dependencies/STM32CubeL0/Drivers/STM32L0xx_HAL_Driver/Inc/stm32l0xx_ll_lpuart.h **** }
1046:../../dependencies/STM32CubeL0/Drivers/STM32L0xx_HAL_Driver/Inc/stm32l0xx_ll_lpuart.h **** 
1047:../../dependencies/STM32CubeL0/Drivers/STM32L0xx_HAL_Driver/Inc/stm32l0xx_ll_lpuart.h **** /**
1048:../../dependencies/STM32CubeL0/Drivers/STM32L0xx_HAL_Driver/Inc/stm32l0xx_ll_lpuart.h ****   * @brief  Enable Overrun detection
1049:../../dependencies/STM32CubeL0/Drivers/STM32L0xx_HAL_Driver/Inc/stm32l0xx_ll_lpuart.h ****   * @rmtoll CR3          OVRDIS        LL_LPUART_EnableOverrunDetect
1050:../../dependencies/STM32CubeL0/Drivers/STM32L0xx_HAL_Driver/Inc/stm32l0xx_ll_lpuart.h ****   * @param  LPUARTx LPUART Instance
1051:../../dependencies/STM32CubeL0/Drivers/STM32L0xx_HAL_Driver/Inc/stm32l0xx_ll_lpuart.h ****   * @retval None
1052:../../dependencies/STM32CubeL0/Drivers/STM32L0xx_HAL_Driver/Inc/stm32l0xx_ll_lpuart.h ****   */
1053:../../dependencies/STM32CubeL0/Drivers/STM32L0xx_HAL_Driver/Inc/stm32l0xx_ll_lpuart.h **** __STATIC_INLINE void LL_LPUART_EnableOverrunDetect(USART_TypeDef *LPUARTx)
1054:../../dependencies/STM32CubeL0/Drivers/STM32L0xx_HAL_Driver/Inc/stm32l0xx_ll_lpuart.h **** {
1055:../../dependencies/STM32CubeL0/Drivers/STM32L0xx_HAL_Driver/Inc/stm32l0xx_ll_lpuart.h ****   CLEAR_BIT(LPUARTx->CR3, USART_CR3_OVRDIS);
1056:../../dependencies/STM32CubeL0/Drivers/STM32L0xx_HAL_Driver/Inc/stm32l0xx_ll_lpuart.h **** }
1057:../../dependencies/STM32CubeL0/Drivers/STM32L0xx_HAL_Driver/Inc/stm32l0xx_ll_lpuart.h **** 
1058:../../dependencies/STM32CubeL0/Drivers/STM32L0xx_HAL_Driver/Inc/stm32l0xx_ll_lpuart.h **** /**
1059:../../dependencies/STM32CubeL0/Drivers/STM32L0xx_HAL_Driver/Inc/stm32l0xx_ll_lpuart.h ****   * @brief  Disable Overrun detection
1060:../../dependencies/STM32CubeL0/Drivers/STM32L0xx_HAL_Driver/Inc/stm32l0xx_ll_lpuart.h ****   * @rmtoll CR3          OVRDIS        LL_LPUART_DisableOverrunDetect
1061:../../dependencies/STM32CubeL0/Drivers/STM32L0xx_HAL_Driver/Inc/stm32l0xx_ll_lpuart.h ****   * @param  LPUARTx LPUART Instance
1062:../../dependencies/STM32CubeL0/Drivers/STM32L0xx_HAL_Driver/Inc/stm32l0xx_ll_lpuart.h ****   * @retval None
1063:../../dependencies/STM32CubeL0/Drivers/STM32L0xx_HAL_Driver/Inc/stm32l0xx_ll_lpuart.h ****   */
1064:../../dependencies/STM32CubeL0/Drivers/STM32L0xx_HAL_Driver/Inc/stm32l0xx_ll_lpuart.h **** __STATIC_INLINE void LL_LPUART_DisableOverrunDetect(USART_TypeDef *LPUARTx)
1065:../../dependencies/STM32CubeL0/Drivers/STM32L0xx_HAL_Driver/Inc/stm32l0xx_ll_lpuart.h **** {
1066:../../dependencies/STM32CubeL0/Drivers/STM32L0xx_HAL_Driver/Inc/stm32l0xx_ll_lpuart.h ****   SET_BIT(LPUARTx->CR3, USART_CR3_OVRDIS);
1067:../../dependencies/STM32CubeL0/Drivers/STM32L0xx_HAL_Driver/Inc/stm32l0xx_ll_lpuart.h **** }
1068:../../dependencies/STM32CubeL0/Drivers/STM32L0xx_HAL_Driver/Inc/stm32l0xx_ll_lpuart.h **** 
1069:../../dependencies/STM32CubeL0/Drivers/STM32L0xx_HAL_Driver/Inc/stm32l0xx_ll_lpuart.h **** /**
1070:../../dependencies/STM32CubeL0/Drivers/STM32L0xx_HAL_Driver/Inc/stm32l0xx_ll_lpuart.h ****   * @brief  Indicate if Overrun detection is enabled
1071:../../dependencies/STM32CubeL0/Drivers/STM32L0xx_HAL_Driver/Inc/stm32l0xx_ll_lpuart.h ****   * @rmtoll CR3          OVRDIS        LL_LPUART_IsEnabledOverrunDetect
1072:../../dependencies/STM32CubeL0/Drivers/STM32L0xx_HAL_Driver/Inc/stm32l0xx_ll_lpuart.h ****   * @param  LPUARTx LPUART Instance
1073:../../dependencies/STM32CubeL0/Drivers/STM32L0xx_HAL_Driver/Inc/stm32l0xx_ll_lpuart.h ****   * @retval State of bit (1 or 0).
1074:../../dependencies/STM32CubeL0/Drivers/STM32L0xx_HAL_Driver/Inc/stm32l0xx_ll_lpuart.h ****   */
1075:../../dependencies/STM32CubeL0/Drivers/STM32L0xx_HAL_Driver/Inc/stm32l0xx_ll_lpuart.h **** __STATIC_INLINE uint32_t LL_LPUART_IsEnabledOverrunDetect(USART_TypeDef *LPUARTx)
1076:../../dependencies/STM32CubeL0/Drivers/STM32L0xx_HAL_Driver/Inc/stm32l0xx_ll_lpuart.h **** {
1077:../../dependencies/STM32CubeL0/Drivers/STM32L0xx_HAL_Driver/Inc/stm32l0xx_ll_lpuart.h ****   return ((READ_BIT(LPUARTx->CR3, USART_CR3_OVRDIS) != USART_CR3_OVRDIS) ? 1UL : 0UL);
1078:../../dependencies/STM32CubeL0/Drivers/STM32L0xx_HAL_Driver/Inc/stm32l0xx_ll_lpuart.h **** }
1079:../../dependencies/STM32CubeL0/Drivers/STM32L0xx_HAL_Driver/Inc/stm32l0xx_ll_lpuart.h **** 
1080:../../dependencies/STM32CubeL0/Drivers/STM32L0xx_HAL_Driver/Inc/stm32l0xx_ll_lpuart.h **** /**
1081:../../dependencies/STM32CubeL0/Drivers/STM32L0xx_HAL_Driver/Inc/stm32l0xx_ll_lpuart.h ****   * @brief  Select event type for Wake UP Interrupt Flag (WUS[1:0] bits)
1082:../../dependencies/STM32CubeL0/Drivers/STM32L0xx_HAL_Driver/Inc/stm32l0xx_ll_lpuart.h ****   * @rmtoll CR3          WUS           LL_LPUART_SetWKUPType
1083:../../dependencies/STM32CubeL0/Drivers/STM32L0xx_HAL_Driver/Inc/stm32l0xx_ll_lpuart.h ****   * @param  LPUARTx LPUART Instance
1084:../../dependencies/STM32CubeL0/Drivers/STM32L0xx_HAL_Driver/Inc/stm32l0xx_ll_lpuart.h ****   * @param  Type This parameter can be one of the following values:
1085:../../dependencies/STM32CubeL0/Drivers/STM32L0xx_HAL_Driver/Inc/stm32l0xx_ll_lpuart.h ****   *         @arg @ref LL_LPUART_WAKEUP_ON_ADDRESS
1086:../../dependencies/STM32CubeL0/Drivers/STM32L0xx_HAL_Driver/Inc/stm32l0xx_ll_lpuart.h ****   *         @arg @ref LL_LPUART_WAKEUP_ON_STARTBIT
1087:../../dependencies/STM32CubeL0/Drivers/STM32L0xx_HAL_Driver/Inc/stm32l0xx_ll_lpuart.h ****   *         @arg @ref LL_LPUART_WAKEUP_ON_RXNE
1088:../../dependencies/STM32CubeL0/Drivers/STM32L0xx_HAL_Driver/Inc/stm32l0xx_ll_lpuart.h ****   * @retval None
1089:../../dependencies/STM32CubeL0/Drivers/STM32L0xx_HAL_Driver/Inc/stm32l0xx_ll_lpuart.h ****   */
1090:../../dependencies/STM32CubeL0/Drivers/STM32L0xx_HAL_Driver/Inc/stm32l0xx_ll_lpuart.h **** __STATIC_INLINE void LL_LPUART_SetWKUPType(USART_TypeDef *LPUARTx, uint32_t Type)
1091:../../dependencies/STM32CubeL0/Drivers/STM32L0xx_HAL_Driver/Inc/stm32l0xx_ll_lpuart.h **** {
1092:../../dependencies/STM32CubeL0/Drivers/STM32L0xx_HAL_Driver/Inc/stm32l0xx_ll_lpuart.h ****   MODIFY_REG(LPUARTx->CR3, USART_CR3_WUS, Type);
1093:../../dependencies/STM32CubeL0/Drivers/STM32L0xx_HAL_Driver/Inc/stm32l0xx_ll_lpuart.h **** }
1094:../../dependencies/STM32CubeL0/Drivers/STM32L0xx_HAL_Driver/Inc/stm32l0xx_ll_lpuart.h **** 
1095:../../dependencies/STM32CubeL0/Drivers/STM32L0xx_HAL_Driver/Inc/stm32l0xx_ll_lpuart.h **** /**
1096:../../dependencies/STM32CubeL0/Drivers/STM32L0xx_HAL_Driver/Inc/stm32l0xx_ll_lpuart.h ****   * @brief  Return event type for Wake UP Interrupt Flag (WUS[1:0] bits)
1097:../../dependencies/STM32CubeL0/Drivers/STM32L0xx_HAL_Driver/Inc/stm32l0xx_ll_lpuart.h ****   * @rmtoll CR3          WUS           LL_LPUART_GetWKUPType
1098:../../dependencies/STM32CubeL0/Drivers/STM32L0xx_HAL_Driver/Inc/stm32l0xx_ll_lpuart.h ****   * @param  LPUARTx LPUART Instance
1099:../../dependencies/STM32CubeL0/Drivers/STM32L0xx_HAL_Driver/Inc/stm32l0xx_ll_lpuart.h ****   * @retval Returned value can be one of the following values:
ARM GAS  /tmp/cc4HDSS2.s 			page 23


1100:../../dependencies/STM32CubeL0/Drivers/STM32L0xx_HAL_Driver/Inc/stm32l0xx_ll_lpuart.h ****   *         @arg @ref LL_LPUART_WAKEUP_ON_ADDRESS
1101:../../dependencies/STM32CubeL0/Drivers/STM32L0xx_HAL_Driver/Inc/stm32l0xx_ll_lpuart.h ****   *         @arg @ref LL_LPUART_WAKEUP_ON_STARTBIT
1102:../../dependencies/STM32CubeL0/Drivers/STM32L0xx_HAL_Driver/Inc/stm32l0xx_ll_lpuart.h ****   *         @arg @ref LL_LPUART_WAKEUP_ON_RXNE
1103:../../dependencies/STM32CubeL0/Drivers/STM32L0xx_HAL_Driver/Inc/stm32l0xx_ll_lpuart.h ****   */
1104:../../dependencies/STM32CubeL0/Drivers/STM32L0xx_HAL_Driver/Inc/stm32l0xx_ll_lpuart.h **** __STATIC_INLINE uint32_t LL_LPUART_GetWKUPType(USART_TypeDef *LPUARTx)
1105:../../dependencies/STM32CubeL0/Drivers/STM32L0xx_HAL_Driver/Inc/stm32l0xx_ll_lpuart.h **** {
1106:../../dependencies/STM32CubeL0/Drivers/STM32L0xx_HAL_Driver/Inc/stm32l0xx_ll_lpuart.h ****   return (uint32_t)(READ_BIT(LPUARTx->CR3, USART_CR3_WUS));
1107:../../dependencies/STM32CubeL0/Drivers/STM32L0xx_HAL_Driver/Inc/stm32l0xx_ll_lpuart.h **** }
1108:../../dependencies/STM32CubeL0/Drivers/STM32L0xx_HAL_Driver/Inc/stm32l0xx_ll_lpuart.h **** 
1109:../../dependencies/STM32CubeL0/Drivers/STM32L0xx_HAL_Driver/Inc/stm32l0xx_ll_lpuart.h **** /**
1110:../../dependencies/STM32CubeL0/Drivers/STM32L0xx_HAL_Driver/Inc/stm32l0xx_ll_lpuart.h ****   * @brief  Configure LPUART BRR register for achieving expected Baud Rate value.
1111:../../dependencies/STM32CubeL0/Drivers/STM32L0xx_HAL_Driver/Inc/stm32l0xx_ll_lpuart.h ****   *
1112:../../dependencies/STM32CubeL0/Drivers/STM32L0xx_HAL_Driver/Inc/stm32l0xx_ll_lpuart.h ****   * @note   Compute and set LPUARTDIV value in BRR Register (full BRR content)
1113:../../dependencies/STM32CubeL0/Drivers/STM32L0xx_HAL_Driver/Inc/stm32l0xx_ll_lpuart.h ****   *         according to used Peripheral Clock and expected Baud Rate values
1114:../../dependencies/STM32CubeL0/Drivers/STM32L0xx_HAL_Driver/Inc/stm32l0xx_ll_lpuart.h ****   * @note   Peripheral clock and Baud Rate values provided as function parameters should be valid
1115:../../dependencies/STM32CubeL0/Drivers/STM32L0xx_HAL_Driver/Inc/stm32l0xx_ll_lpuart.h ****   *         (Baud rate value != 0).
1116:../../dependencies/STM32CubeL0/Drivers/STM32L0xx_HAL_Driver/Inc/stm32l0xx_ll_lpuart.h ****   * @note   Provided that LPUARTx_BRR must be > = 0x300 and LPUART_BRR is 20-bit,
1117:../../dependencies/STM32CubeL0/Drivers/STM32L0xx_HAL_Driver/Inc/stm32l0xx_ll_lpuart.h ****   *         a care should be taken when generating high baud rates using high PeriphClk
1118:../../dependencies/STM32CubeL0/Drivers/STM32L0xx_HAL_Driver/Inc/stm32l0xx_ll_lpuart.h ****   *         values. PeriphClk must be in the range [3 x BaudRate, 4096 x BaudRate].
1119:../../dependencies/STM32CubeL0/Drivers/STM32L0xx_HAL_Driver/Inc/stm32l0xx_ll_lpuart.h ****   * @rmtoll BRR          BRR           LL_LPUART_SetBaudRate
1120:../../dependencies/STM32CubeL0/Drivers/STM32L0xx_HAL_Driver/Inc/stm32l0xx_ll_lpuart.h ****   * @param  LPUARTx LPUART Instance
1121:../../dependencies/STM32CubeL0/Drivers/STM32L0xx_HAL_Driver/Inc/stm32l0xx_ll_lpuart.h ****   * @param  PeriphClk Peripheral Clock
1122:../../dependencies/STM32CubeL0/Drivers/STM32L0xx_HAL_Driver/Inc/stm32l0xx_ll_lpuart.h ****   * @param  BaudRate Baud Rate
1123:../../dependencies/STM32CubeL0/Drivers/STM32L0xx_HAL_Driver/Inc/stm32l0xx_ll_lpuart.h ****   * @retval None
1124:../../dependencies/STM32CubeL0/Drivers/STM32L0xx_HAL_Driver/Inc/stm32l0xx_ll_lpuart.h ****   */
1125:../../dependencies/STM32CubeL0/Drivers/STM32L0xx_HAL_Driver/Inc/stm32l0xx_ll_lpuart.h **** __STATIC_INLINE void LL_LPUART_SetBaudRate(USART_TypeDef *LPUARTx, uint32_t PeriphClk, uint32_t Bau
1126:../../dependencies/STM32CubeL0/Drivers/STM32L0xx_HAL_Driver/Inc/stm32l0xx_ll_lpuart.h **** {
 163              		.loc 1 1126 1
 164              		.cfi_startproc
 165              		@ args = 0, pretend = 0, frame = 40
 166              		@ frame_needed = 1, uses_anonymous_args = 0
 167 0000 B0B5     		push	{r4, r5, r7, lr}
 168              		.cfi_def_cfa_offset 16
 169              		.cfi_offset 4, -16
 170              		.cfi_offset 5, -12
 171              		.cfi_offset 7, -8
 172              		.cfi_offset 14, -4
 173 0002 8AB0     		sub	sp, sp, #40
 174              		.cfi_def_cfa_offset 56
 175 0004 00AF     		add	r7, sp, #0
 176              		.cfi_def_cfa_register 7
 177 0006 7862     		str	r0, [r7, #36]
 178 0008 3962     		str	r1, [r7, #32]
 179 000a FA61     		str	r2, [r7, #28]
1127:../../dependencies/STM32CubeL0/Drivers/STM32L0xx_HAL_Driver/Inc/stm32l0xx_ll_lpuart.h ****   if (BaudRate != 0U)
 180              		.loc 1 1127 6
 181 000c FB69     		ldr	r3, [r7, #28]
 182 000e 002B     		cmp	r3, #0
 183 0010 24D0     		beq	.L13
1128:../../dependencies/STM32CubeL0/Drivers/STM32L0xx_HAL_Driver/Inc/stm32l0xx_ll_lpuart.h ****   {
1129:../../dependencies/STM32CubeL0/Drivers/STM32L0xx_HAL_Driver/Inc/stm32l0xx_ll_lpuart.h ****     LPUARTx->BRR = __LL_LPUART_DIV(PeriphClk, BaudRate);
 184              		.loc 1 1129 20
 185 0012 3B6A     		ldr	r3, [r7, #32]
 186 0014 3B61     		str	r3, [r7, #16]
 187 0016 0023     		movs	r3, #0
 188 0018 7B61     		str	r3, [r7, #20]
 189 001a 3969     		ldr	r1, [r7, #16]
ARM GAS  /tmp/cc4HDSS2.s 			page 24


 190 001c 7A69     		ldr	r2, [r7, #20]
 191 001e 0B00     		movs	r3, r1
 192 0020 1B0E     		lsrs	r3, r3, #24
 193 0022 1000     		movs	r0, r2
 194 0024 0502     		lsls	r5, r0, #8
 195 0026 1D43     		orrs	r5, r3
 196 0028 0B00     		movs	r3, r1
 197 002a 1C02     		lsls	r4, r3, #8
 198 002c FB69     		ldr	r3, [r7, #28]
 199 002e 5B08     		lsrs	r3, r3, #1
 200 0030 BB60     		str	r3, [r7, #8]
 201 0032 0023     		movs	r3, #0
 202 0034 FB60     		str	r3, [r7, #12]
 203 0036 B868     		ldr	r0, [r7, #8]
 204 0038 F968     		ldr	r1, [r7, #12]
 205 003a 0019     		adds	r0, r0, r4
 206 003c 6941     		adcs	r1, r1, r5
 207 003e FB69     		ldr	r3, [r7, #28]
 208 0040 3B60     		str	r3, [r7]
 209 0042 0023     		movs	r3, #0
 210 0044 7B60     		str	r3, [r7, #4]
 211 0046 3A68     		ldr	r2, [r7]
 212 0048 7B68     		ldr	r3, [r7, #4]
 213 004a FFF7FEFF 		bl	__aeabi_uldivmod
 214              	.LVL0:
 215 004e 0200     		movs	r2, r0
 216 0050 0B00     		movs	r3, r1
 217 0052 1300     		movs	r3, r2
 218 0054 1B03     		lsls	r3, r3, #12
 219 0056 1A0B     		lsrs	r2, r3, #12
 220              		.loc 1 1129 18
 221 0058 7B6A     		ldr	r3, [r7, #36]
 222 005a DA60     		str	r2, [r3, #12]
 223              	.L13:
1130:../../dependencies/STM32CubeL0/Drivers/STM32L0xx_HAL_Driver/Inc/stm32l0xx_ll_lpuart.h ****   }
1131:../../dependencies/STM32CubeL0/Drivers/STM32L0xx_HAL_Driver/Inc/stm32l0xx_ll_lpuart.h **** }
 224              		.loc 1 1131 1
 225 005c C046     		nop
 226 005e BD46     		mov	sp, r7
 227 0060 0AB0     		add	sp, sp, #40
 228              		@ sp needed
 229 0062 B0BD     		pop	{r4, r5, r7, pc}
 230              		.cfi_endproc
 231              	.LFE98:
 233              		.section	.text.LL_APB1_GRP1_ForceReset,"ax",%progbits
 234              		.align	1
 235              		.syntax unified
 236              		.code	16
 237              		.thumb_func
 238              		.fpu softvfp
 240              	LL_APB1_GRP1_ForceReset:
 241              	.LFB325:
 242              		.file 2 "../../dependencies/STM32CubeL0/Drivers/STM32L0xx_HAL_Driver/Inc/stm32l0xx_ll_bus.h"
   1:../../dependencies/STM32CubeL0/Drivers/STM32L0xx_HAL_Driver/Inc/stm32l0xx_ll_bus.h **** /**
   2:../../dependencies/STM32CubeL0/Drivers/STM32L0xx_HAL_Driver/Inc/stm32l0xx_ll_bus.h ****   ******************************************************************************
   3:../../dependencies/STM32CubeL0/Drivers/STM32L0xx_HAL_Driver/Inc/stm32l0xx_ll_bus.h ****   * @file    stm32l0xx_ll_bus.h
   4:../../dependencies/STM32CubeL0/Drivers/STM32L0xx_HAL_Driver/Inc/stm32l0xx_ll_bus.h ****   * @author  MCD Application Team
ARM GAS  /tmp/cc4HDSS2.s 			page 25


   5:../../dependencies/STM32CubeL0/Drivers/STM32L0xx_HAL_Driver/Inc/stm32l0xx_ll_bus.h ****   * @brief   Header file of BUS LL module.
   6:../../dependencies/STM32CubeL0/Drivers/STM32L0xx_HAL_Driver/Inc/stm32l0xx_ll_bus.h **** 
   7:../../dependencies/STM32CubeL0/Drivers/STM32L0xx_HAL_Driver/Inc/stm32l0xx_ll_bus.h ****   @verbatim
   8:../../dependencies/STM32CubeL0/Drivers/STM32L0xx_HAL_Driver/Inc/stm32l0xx_ll_bus.h ****                       ##### RCC Limitations #####
   9:../../dependencies/STM32CubeL0/Drivers/STM32L0xx_HAL_Driver/Inc/stm32l0xx_ll_bus.h ****   ==============================================================================
  10:../../dependencies/STM32CubeL0/Drivers/STM32L0xx_HAL_Driver/Inc/stm32l0xx_ll_bus.h ****     [..]
  11:../../dependencies/STM32CubeL0/Drivers/STM32L0xx_HAL_Driver/Inc/stm32l0xx_ll_bus.h ****       A delay between an RCC peripheral clock enable and the effective peripheral
  12:../../dependencies/STM32CubeL0/Drivers/STM32L0xx_HAL_Driver/Inc/stm32l0xx_ll_bus.h ****       enabling should be taken into account in order to manage the peripheral read/write
  13:../../dependencies/STM32CubeL0/Drivers/STM32L0xx_HAL_Driver/Inc/stm32l0xx_ll_bus.h ****       from/to registers.
  14:../../dependencies/STM32CubeL0/Drivers/STM32L0xx_HAL_Driver/Inc/stm32l0xx_ll_bus.h ****       (+) This delay depends on the peripheral mapping.
  15:../../dependencies/STM32CubeL0/Drivers/STM32L0xx_HAL_Driver/Inc/stm32l0xx_ll_bus.h ****         (++) AHB & APB peripherals, 1 dummy read is necessary
  16:../../dependencies/STM32CubeL0/Drivers/STM32L0xx_HAL_Driver/Inc/stm32l0xx_ll_bus.h **** 
  17:../../dependencies/STM32CubeL0/Drivers/STM32L0xx_HAL_Driver/Inc/stm32l0xx_ll_bus.h ****     [..]
  18:../../dependencies/STM32CubeL0/Drivers/STM32L0xx_HAL_Driver/Inc/stm32l0xx_ll_bus.h ****       Workarounds:
  19:../../dependencies/STM32CubeL0/Drivers/STM32L0xx_HAL_Driver/Inc/stm32l0xx_ll_bus.h ****       (#) For AHB & APB peripherals, a dummy read to the peripheral register has been
  20:../../dependencies/STM32CubeL0/Drivers/STM32L0xx_HAL_Driver/Inc/stm32l0xx_ll_bus.h ****           inserted in each LL_{BUS}_GRP{x}_EnableClock() function.
  21:../../dependencies/STM32CubeL0/Drivers/STM32L0xx_HAL_Driver/Inc/stm32l0xx_ll_bus.h **** 
  22:../../dependencies/STM32CubeL0/Drivers/STM32L0xx_HAL_Driver/Inc/stm32l0xx_ll_bus.h ****   @endverbatim
  23:../../dependencies/STM32CubeL0/Drivers/STM32L0xx_HAL_Driver/Inc/stm32l0xx_ll_bus.h ****   ******************************************************************************
  24:../../dependencies/STM32CubeL0/Drivers/STM32L0xx_HAL_Driver/Inc/stm32l0xx_ll_bus.h ****   * @attention
  25:../../dependencies/STM32CubeL0/Drivers/STM32L0xx_HAL_Driver/Inc/stm32l0xx_ll_bus.h ****   *
  26:../../dependencies/STM32CubeL0/Drivers/STM32L0xx_HAL_Driver/Inc/stm32l0xx_ll_bus.h ****   * <h2><center>&copy; Copyright(c) 2016 STMicroelectronics.
  27:../../dependencies/STM32CubeL0/Drivers/STM32L0xx_HAL_Driver/Inc/stm32l0xx_ll_bus.h ****   * All rights reserved.</center></h2>
  28:../../dependencies/STM32CubeL0/Drivers/STM32L0xx_HAL_Driver/Inc/stm32l0xx_ll_bus.h ****   *
  29:../../dependencies/STM32CubeL0/Drivers/STM32L0xx_HAL_Driver/Inc/stm32l0xx_ll_bus.h ****   * This software component is licensed by ST under BSD 3-Clause license,
  30:../../dependencies/STM32CubeL0/Drivers/STM32L0xx_HAL_Driver/Inc/stm32l0xx_ll_bus.h ****   * the "License"; You may not use this file except in compliance with the
  31:../../dependencies/STM32CubeL0/Drivers/STM32L0xx_HAL_Driver/Inc/stm32l0xx_ll_bus.h ****   * License. You may obtain a copy of the License at:
  32:../../dependencies/STM32CubeL0/Drivers/STM32L0xx_HAL_Driver/Inc/stm32l0xx_ll_bus.h ****   *                        opensource.org/licenses/BSD-3-Clause
  33:../../dependencies/STM32CubeL0/Drivers/STM32L0xx_HAL_Driver/Inc/stm32l0xx_ll_bus.h ****   *
  34:../../dependencies/STM32CubeL0/Drivers/STM32L0xx_HAL_Driver/Inc/stm32l0xx_ll_bus.h ****   ******************************************************************************
  35:../../dependencies/STM32CubeL0/Drivers/STM32L0xx_HAL_Driver/Inc/stm32l0xx_ll_bus.h ****   */
  36:../../dependencies/STM32CubeL0/Drivers/STM32L0xx_HAL_Driver/Inc/stm32l0xx_ll_bus.h **** 
  37:../../dependencies/STM32CubeL0/Drivers/STM32L0xx_HAL_Driver/Inc/stm32l0xx_ll_bus.h **** /* Define to prevent recursive inclusion -------------------------------------*/
  38:../../dependencies/STM32CubeL0/Drivers/STM32L0xx_HAL_Driver/Inc/stm32l0xx_ll_bus.h **** #ifndef __STM32L0xx_LL_BUS_H
  39:../../dependencies/STM32CubeL0/Drivers/STM32L0xx_HAL_Driver/Inc/stm32l0xx_ll_bus.h **** #define __STM32L0xx_LL_BUS_H
  40:../../dependencies/STM32CubeL0/Drivers/STM32L0xx_HAL_Driver/Inc/stm32l0xx_ll_bus.h **** 
  41:../../dependencies/STM32CubeL0/Drivers/STM32L0xx_HAL_Driver/Inc/stm32l0xx_ll_bus.h **** #ifdef __cplusplus
  42:../../dependencies/STM32CubeL0/Drivers/STM32L0xx_HAL_Driver/Inc/stm32l0xx_ll_bus.h **** extern "C" {
  43:../../dependencies/STM32CubeL0/Drivers/STM32L0xx_HAL_Driver/Inc/stm32l0xx_ll_bus.h **** #endif
  44:../../dependencies/STM32CubeL0/Drivers/STM32L0xx_HAL_Driver/Inc/stm32l0xx_ll_bus.h **** 
  45:../../dependencies/STM32CubeL0/Drivers/STM32L0xx_HAL_Driver/Inc/stm32l0xx_ll_bus.h **** /* Includes ------------------------------------------------------------------*/
  46:../../dependencies/STM32CubeL0/Drivers/STM32L0xx_HAL_Driver/Inc/stm32l0xx_ll_bus.h **** #include "stm32l0xx.h"
  47:../../dependencies/STM32CubeL0/Drivers/STM32L0xx_HAL_Driver/Inc/stm32l0xx_ll_bus.h **** 
  48:../../dependencies/STM32CubeL0/Drivers/STM32L0xx_HAL_Driver/Inc/stm32l0xx_ll_bus.h **** /** @addtogroup STM32L0xx_LL_Driver
  49:../../dependencies/STM32CubeL0/Drivers/STM32L0xx_HAL_Driver/Inc/stm32l0xx_ll_bus.h ****   * @{
  50:../../dependencies/STM32CubeL0/Drivers/STM32L0xx_HAL_Driver/Inc/stm32l0xx_ll_bus.h ****   */
  51:../../dependencies/STM32CubeL0/Drivers/STM32L0xx_HAL_Driver/Inc/stm32l0xx_ll_bus.h **** 
  52:../../dependencies/STM32CubeL0/Drivers/STM32L0xx_HAL_Driver/Inc/stm32l0xx_ll_bus.h **** #if defined(RCC)
  53:../../dependencies/STM32CubeL0/Drivers/STM32L0xx_HAL_Driver/Inc/stm32l0xx_ll_bus.h **** 
  54:../../dependencies/STM32CubeL0/Drivers/STM32L0xx_HAL_Driver/Inc/stm32l0xx_ll_bus.h **** /** @defgroup BUS_LL BUS
  55:../../dependencies/STM32CubeL0/Drivers/STM32L0xx_HAL_Driver/Inc/stm32l0xx_ll_bus.h ****   * @{
  56:../../dependencies/STM32CubeL0/Drivers/STM32L0xx_HAL_Driver/Inc/stm32l0xx_ll_bus.h ****   */
  57:../../dependencies/STM32CubeL0/Drivers/STM32L0xx_HAL_Driver/Inc/stm32l0xx_ll_bus.h **** 
  58:../../dependencies/STM32CubeL0/Drivers/STM32L0xx_HAL_Driver/Inc/stm32l0xx_ll_bus.h **** /* Private types -------------------------------------------------------------*/
  59:../../dependencies/STM32CubeL0/Drivers/STM32L0xx_HAL_Driver/Inc/stm32l0xx_ll_bus.h **** /* Private variables ---------------------------------------------------------*/
  60:../../dependencies/STM32CubeL0/Drivers/STM32L0xx_HAL_Driver/Inc/stm32l0xx_ll_bus.h **** 
  61:../../dependencies/STM32CubeL0/Drivers/STM32L0xx_HAL_Driver/Inc/stm32l0xx_ll_bus.h **** /* Private constants ---------------------------------------------------------*/
ARM GAS  /tmp/cc4HDSS2.s 			page 26


  62:../../dependencies/STM32CubeL0/Drivers/STM32L0xx_HAL_Driver/Inc/stm32l0xx_ll_bus.h **** 
  63:../../dependencies/STM32CubeL0/Drivers/STM32L0xx_HAL_Driver/Inc/stm32l0xx_ll_bus.h **** /* Private macros ------------------------------------------------------------*/
  64:../../dependencies/STM32CubeL0/Drivers/STM32L0xx_HAL_Driver/Inc/stm32l0xx_ll_bus.h **** 
  65:../../dependencies/STM32CubeL0/Drivers/STM32L0xx_HAL_Driver/Inc/stm32l0xx_ll_bus.h **** /* Exported types ------------------------------------------------------------*/
  66:../../dependencies/STM32CubeL0/Drivers/STM32L0xx_HAL_Driver/Inc/stm32l0xx_ll_bus.h **** /* Exported constants --------------------------------------------------------*/
  67:../../dependencies/STM32CubeL0/Drivers/STM32L0xx_HAL_Driver/Inc/stm32l0xx_ll_bus.h **** /** @defgroup BUS_LL_Exported_Constants BUS Exported Constants
  68:../../dependencies/STM32CubeL0/Drivers/STM32L0xx_HAL_Driver/Inc/stm32l0xx_ll_bus.h ****   * @{
  69:../../dependencies/STM32CubeL0/Drivers/STM32L0xx_HAL_Driver/Inc/stm32l0xx_ll_bus.h ****   */
  70:../../dependencies/STM32CubeL0/Drivers/STM32L0xx_HAL_Driver/Inc/stm32l0xx_ll_bus.h **** 
  71:../../dependencies/STM32CubeL0/Drivers/STM32L0xx_HAL_Driver/Inc/stm32l0xx_ll_bus.h **** /** @defgroup BUS_LL_EC_AHB1_GRP1_PERIPH  AHB1 GRP1 PERIPH
  72:../../dependencies/STM32CubeL0/Drivers/STM32L0xx_HAL_Driver/Inc/stm32l0xx_ll_bus.h ****   * @{
  73:../../dependencies/STM32CubeL0/Drivers/STM32L0xx_HAL_Driver/Inc/stm32l0xx_ll_bus.h ****   */
  74:../../dependencies/STM32CubeL0/Drivers/STM32L0xx_HAL_Driver/Inc/stm32l0xx_ll_bus.h **** #define LL_AHB1_GRP1_PERIPH_ALL            0xFFFFFFFFU
  75:../../dependencies/STM32CubeL0/Drivers/STM32L0xx_HAL_Driver/Inc/stm32l0xx_ll_bus.h **** #define LL_AHB1_GRP1_PERIPH_DMA1           RCC_AHBENR_DMA1EN      /*!< DMA1 clock enable */
  76:../../dependencies/STM32CubeL0/Drivers/STM32L0xx_HAL_Driver/Inc/stm32l0xx_ll_bus.h **** #define LL_AHB1_GRP1_PERIPH_MIF            RCC_AHBENR_MIFEN       /*!< MIF clock enable */
  77:../../dependencies/STM32CubeL0/Drivers/STM32L0xx_HAL_Driver/Inc/stm32l0xx_ll_bus.h **** #define LL_AHB1_GRP1_PERIPH_SRAM           RCC_AHBSMENR_SRAMSMEN  /*!< Sleep Mode SRAM clock enable
  78:../../dependencies/STM32CubeL0/Drivers/STM32L0xx_HAL_Driver/Inc/stm32l0xx_ll_bus.h **** #define LL_AHB1_GRP1_PERIPH_CRC            RCC_AHBENR_CRCEN       /*!< CRC clock enable */
  79:../../dependencies/STM32CubeL0/Drivers/STM32L0xx_HAL_Driver/Inc/stm32l0xx_ll_bus.h **** #if defined(TSC)
  80:../../dependencies/STM32CubeL0/Drivers/STM32L0xx_HAL_Driver/Inc/stm32l0xx_ll_bus.h **** #define LL_AHB1_GRP1_PERIPH_TSC            RCC_AHBENR_TSCEN       /*!< TSC clock enable */
  81:../../dependencies/STM32CubeL0/Drivers/STM32L0xx_HAL_Driver/Inc/stm32l0xx_ll_bus.h **** #endif /*TSC*/
  82:../../dependencies/STM32CubeL0/Drivers/STM32L0xx_HAL_Driver/Inc/stm32l0xx_ll_bus.h **** #if defined(RNG)
  83:../../dependencies/STM32CubeL0/Drivers/STM32L0xx_HAL_Driver/Inc/stm32l0xx_ll_bus.h **** #define LL_AHB1_GRP1_PERIPH_RNG            RCC_AHBENR_RNGEN       /*!< RNG clock enable */
  84:../../dependencies/STM32CubeL0/Drivers/STM32L0xx_HAL_Driver/Inc/stm32l0xx_ll_bus.h **** #endif /*RNG*/
  85:../../dependencies/STM32CubeL0/Drivers/STM32L0xx_HAL_Driver/Inc/stm32l0xx_ll_bus.h **** #if defined(AES)
  86:../../dependencies/STM32CubeL0/Drivers/STM32L0xx_HAL_Driver/Inc/stm32l0xx_ll_bus.h **** #define LL_AHB1_GRP1_PERIPH_CRYP           RCC_AHBENR_CRYPEN      /*!< CRYP clock enable */
  87:../../dependencies/STM32CubeL0/Drivers/STM32L0xx_HAL_Driver/Inc/stm32l0xx_ll_bus.h **** #endif /*AES*/
  88:../../dependencies/STM32CubeL0/Drivers/STM32L0xx_HAL_Driver/Inc/stm32l0xx_ll_bus.h **** /**
  89:../../dependencies/STM32CubeL0/Drivers/STM32L0xx_HAL_Driver/Inc/stm32l0xx_ll_bus.h ****   * @}
  90:../../dependencies/STM32CubeL0/Drivers/STM32L0xx_HAL_Driver/Inc/stm32l0xx_ll_bus.h ****   */
  91:../../dependencies/STM32CubeL0/Drivers/STM32L0xx_HAL_Driver/Inc/stm32l0xx_ll_bus.h **** 
  92:../../dependencies/STM32CubeL0/Drivers/STM32L0xx_HAL_Driver/Inc/stm32l0xx_ll_bus.h **** 
  93:../../dependencies/STM32CubeL0/Drivers/STM32L0xx_HAL_Driver/Inc/stm32l0xx_ll_bus.h **** /** @defgroup BUS_LL_EC_APB1_GRP1_PERIPH  APB1 GRP1 PERIPH
  94:../../dependencies/STM32CubeL0/Drivers/STM32L0xx_HAL_Driver/Inc/stm32l0xx_ll_bus.h ****   * @{
  95:../../dependencies/STM32CubeL0/Drivers/STM32L0xx_HAL_Driver/Inc/stm32l0xx_ll_bus.h ****   */
  96:../../dependencies/STM32CubeL0/Drivers/STM32L0xx_HAL_Driver/Inc/stm32l0xx_ll_bus.h **** #define LL_APB1_GRP1_PERIPH_ALL            0xFFFFFFFFU
  97:../../dependencies/STM32CubeL0/Drivers/STM32L0xx_HAL_Driver/Inc/stm32l0xx_ll_bus.h **** #define LL_APB1_GRP1_PERIPH_TIM2           RCC_APB1ENR_TIM2EN     /*!< TIM2 clock enable */
  98:../../dependencies/STM32CubeL0/Drivers/STM32L0xx_HAL_Driver/Inc/stm32l0xx_ll_bus.h **** #if defined(TIM3)
  99:../../dependencies/STM32CubeL0/Drivers/STM32L0xx_HAL_Driver/Inc/stm32l0xx_ll_bus.h **** #define LL_APB1_GRP1_PERIPH_TIM3           RCC_APB1ENR_TIM3EN     /*!< TIM3 clock enable */
 100:../../dependencies/STM32CubeL0/Drivers/STM32L0xx_HAL_Driver/Inc/stm32l0xx_ll_bus.h **** #endif
 101:../../dependencies/STM32CubeL0/Drivers/STM32L0xx_HAL_Driver/Inc/stm32l0xx_ll_bus.h **** #if defined(TIM6)
 102:../../dependencies/STM32CubeL0/Drivers/STM32L0xx_HAL_Driver/Inc/stm32l0xx_ll_bus.h **** #define LL_APB1_GRP1_PERIPH_TIM6           RCC_APB1ENR_TIM6EN     /*!< TIM6 clock enable */
 103:../../dependencies/STM32CubeL0/Drivers/STM32L0xx_HAL_Driver/Inc/stm32l0xx_ll_bus.h **** #endif
 104:../../dependencies/STM32CubeL0/Drivers/STM32L0xx_HAL_Driver/Inc/stm32l0xx_ll_bus.h **** #if defined(TIM7)
 105:../../dependencies/STM32CubeL0/Drivers/STM32L0xx_HAL_Driver/Inc/stm32l0xx_ll_bus.h **** #define LL_APB1_GRP1_PERIPH_TIM7           RCC_APB1ENR_TIM7EN     /*!< TIM7 clock enable */
 106:../../dependencies/STM32CubeL0/Drivers/STM32L0xx_HAL_Driver/Inc/stm32l0xx_ll_bus.h **** #endif
 107:../../dependencies/STM32CubeL0/Drivers/STM32L0xx_HAL_Driver/Inc/stm32l0xx_ll_bus.h **** #if defined(LCD)
 108:../../dependencies/STM32CubeL0/Drivers/STM32L0xx_HAL_Driver/Inc/stm32l0xx_ll_bus.h **** #define LL_APB1_GRP1_PERIPH_LCD            RCC_APB1ENR_LCDEN      /*!< LCD clock enable */
 109:../../dependencies/STM32CubeL0/Drivers/STM32L0xx_HAL_Driver/Inc/stm32l0xx_ll_bus.h **** #endif /*LCD*/
 110:../../dependencies/STM32CubeL0/Drivers/STM32L0xx_HAL_Driver/Inc/stm32l0xx_ll_bus.h **** #define LL_APB1_GRP1_PERIPH_WWDG           RCC_APB1ENR_WWDGEN     /*!< WWDG clock enable */
 111:../../dependencies/STM32CubeL0/Drivers/STM32L0xx_HAL_Driver/Inc/stm32l0xx_ll_bus.h **** #if defined(SPI2)
 112:../../dependencies/STM32CubeL0/Drivers/STM32L0xx_HAL_Driver/Inc/stm32l0xx_ll_bus.h **** #define LL_APB1_GRP1_PERIPH_SPI2           RCC_APB1ENR_SPI2EN     /*!< SPI2 clock enable */
 113:../../dependencies/STM32CubeL0/Drivers/STM32L0xx_HAL_Driver/Inc/stm32l0xx_ll_bus.h **** #endif
 114:../../dependencies/STM32CubeL0/Drivers/STM32L0xx_HAL_Driver/Inc/stm32l0xx_ll_bus.h **** #define LL_APB1_GRP1_PERIPH_USART2         RCC_APB1ENR_USART2EN   /*!< USART2 clock enable */
 115:../../dependencies/STM32CubeL0/Drivers/STM32L0xx_HAL_Driver/Inc/stm32l0xx_ll_bus.h **** #define LL_APB1_GRP1_PERIPH_LPUART1        RCC_APB1ENR_LPUART1EN  /*!< LPUART1 clock enable */
 116:../../dependencies/STM32CubeL0/Drivers/STM32L0xx_HAL_Driver/Inc/stm32l0xx_ll_bus.h **** #if defined(USART4)
 117:../../dependencies/STM32CubeL0/Drivers/STM32L0xx_HAL_Driver/Inc/stm32l0xx_ll_bus.h **** #define LL_APB1_GRP1_PERIPH_USART4         RCC_APB1ENR_USART4EN   /*!< USART4 clock enable */
 118:../../dependencies/STM32CubeL0/Drivers/STM32L0xx_HAL_Driver/Inc/stm32l0xx_ll_bus.h **** #endif
ARM GAS  /tmp/cc4HDSS2.s 			page 27


 119:../../dependencies/STM32CubeL0/Drivers/STM32L0xx_HAL_Driver/Inc/stm32l0xx_ll_bus.h **** #if defined(USART5)
 120:../../dependencies/STM32CubeL0/Drivers/STM32L0xx_HAL_Driver/Inc/stm32l0xx_ll_bus.h **** #define LL_APB1_GRP1_PERIPH_USART5         RCC_APB1ENR_USART5EN   /*!< USART5 clock enable */
 121:../../dependencies/STM32CubeL0/Drivers/STM32L0xx_HAL_Driver/Inc/stm32l0xx_ll_bus.h **** #endif
 122:../../dependencies/STM32CubeL0/Drivers/STM32L0xx_HAL_Driver/Inc/stm32l0xx_ll_bus.h **** #define LL_APB1_GRP1_PERIPH_I2C1           RCC_APB1ENR_I2C1EN     /*!< I2C1 clock enable */
 123:../../dependencies/STM32CubeL0/Drivers/STM32L0xx_HAL_Driver/Inc/stm32l0xx_ll_bus.h **** #if defined(I2C2)
 124:../../dependencies/STM32CubeL0/Drivers/STM32L0xx_HAL_Driver/Inc/stm32l0xx_ll_bus.h **** #define LL_APB1_GRP1_PERIPH_I2C2           RCC_APB1ENR_I2C2EN     /*!< I2C2 clock enable */
 125:../../dependencies/STM32CubeL0/Drivers/STM32L0xx_HAL_Driver/Inc/stm32l0xx_ll_bus.h **** #endif
 126:../../dependencies/STM32CubeL0/Drivers/STM32L0xx_HAL_Driver/Inc/stm32l0xx_ll_bus.h **** #if defined(USB)
 127:../../dependencies/STM32CubeL0/Drivers/STM32L0xx_HAL_Driver/Inc/stm32l0xx_ll_bus.h **** #define LL_APB1_GRP1_PERIPH_USB            RCC_APB1ENR_USBEN      /*!< USB clock enable */
 128:../../dependencies/STM32CubeL0/Drivers/STM32L0xx_HAL_Driver/Inc/stm32l0xx_ll_bus.h **** #endif /*USB*/
 129:../../dependencies/STM32CubeL0/Drivers/STM32L0xx_HAL_Driver/Inc/stm32l0xx_ll_bus.h **** #if defined(CRS)
 130:../../dependencies/STM32CubeL0/Drivers/STM32L0xx_HAL_Driver/Inc/stm32l0xx_ll_bus.h **** #define LL_APB1_GRP1_PERIPH_CRS            RCC_APB1ENR_CRSEN      /*!< CRS clock enable */
 131:../../dependencies/STM32CubeL0/Drivers/STM32L0xx_HAL_Driver/Inc/stm32l0xx_ll_bus.h **** #endif /*CRS*/
 132:../../dependencies/STM32CubeL0/Drivers/STM32L0xx_HAL_Driver/Inc/stm32l0xx_ll_bus.h **** #define LL_APB1_GRP1_PERIPH_PWR            RCC_APB1ENR_PWREN      /*!< PWR clock enable */
 133:../../dependencies/STM32CubeL0/Drivers/STM32L0xx_HAL_Driver/Inc/stm32l0xx_ll_bus.h **** #if defined(DAC)
 134:../../dependencies/STM32CubeL0/Drivers/STM32L0xx_HAL_Driver/Inc/stm32l0xx_ll_bus.h **** #define LL_APB1_GRP1_PERIPH_DAC1           RCC_APB1ENR_DACEN      /*!< DAC clock enable */
 135:../../dependencies/STM32CubeL0/Drivers/STM32L0xx_HAL_Driver/Inc/stm32l0xx_ll_bus.h **** #endif
 136:../../dependencies/STM32CubeL0/Drivers/STM32L0xx_HAL_Driver/Inc/stm32l0xx_ll_bus.h **** #if defined(I2C3)
 137:../../dependencies/STM32CubeL0/Drivers/STM32L0xx_HAL_Driver/Inc/stm32l0xx_ll_bus.h **** #define LL_APB1_GRP1_PERIPH_I2C3           RCC_APB1ENR_I2C3EN     /*!< I2C3 clock enable */
 138:../../dependencies/STM32CubeL0/Drivers/STM32L0xx_HAL_Driver/Inc/stm32l0xx_ll_bus.h **** #endif
 139:../../dependencies/STM32CubeL0/Drivers/STM32L0xx_HAL_Driver/Inc/stm32l0xx_ll_bus.h **** #define LL_APB1_GRP1_PERIPH_LPTIM1         RCC_APB1ENR_LPTIM1EN   /*!< LPTIM1 clock enable */
 140:../../dependencies/STM32CubeL0/Drivers/STM32L0xx_HAL_Driver/Inc/stm32l0xx_ll_bus.h **** /**
 141:../../dependencies/STM32CubeL0/Drivers/STM32L0xx_HAL_Driver/Inc/stm32l0xx_ll_bus.h ****   * @}
 142:../../dependencies/STM32CubeL0/Drivers/STM32L0xx_HAL_Driver/Inc/stm32l0xx_ll_bus.h ****   */
 143:../../dependencies/STM32CubeL0/Drivers/STM32L0xx_HAL_Driver/Inc/stm32l0xx_ll_bus.h **** 
 144:../../dependencies/STM32CubeL0/Drivers/STM32L0xx_HAL_Driver/Inc/stm32l0xx_ll_bus.h **** 
 145:../../dependencies/STM32CubeL0/Drivers/STM32L0xx_HAL_Driver/Inc/stm32l0xx_ll_bus.h **** 
 146:../../dependencies/STM32CubeL0/Drivers/STM32L0xx_HAL_Driver/Inc/stm32l0xx_ll_bus.h **** 
 147:../../dependencies/STM32CubeL0/Drivers/STM32L0xx_HAL_Driver/Inc/stm32l0xx_ll_bus.h **** /** @defgroup BUS_LL_EC_APB2_GRP1_PERIPH  APB2 GRP1 PERIPH
 148:../../dependencies/STM32CubeL0/Drivers/STM32L0xx_HAL_Driver/Inc/stm32l0xx_ll_bus.h ****   * @{
 149:../../dependencies/STM32CubeL0/Drivers/STM32L0xx_HAL_Driver/Inc/stm32l0xx_ll_bus.h ****   */
 150:../../dependencies/STM32CubeL0/Drivers/STM32L0xx_HAL_Driver/Inc/stm32l0xx_ll_bus.h **** #define LL_APB2_GRP1_PERIPH_ALL            0xFFFFFFFFU
 151:../../dependencies/STM32CubeL0/Drivers/STM32L0xx_HAL_Driver/Inc/stm32l0xx_ll_bus.h **** #define LL_APB2_GRP1_PERIPH_SYSCFG         RCC_APB2ENR_SYSCFGEN  /*!< SYSCFG clock enable */
 152:../../dependencies/STM32CubeL0/Drivers/STM32L0xx_HAL_Driver/Inc/stm32l0xx_ll_bus.h **** #define LL_APB2_GRP1_PERIPH_TIM21          RCC_APB2ENR_TIM21EN   /*!< TIM21 clock enable */
 153:../../dependencies/STM32CubeL0/Drivers/STM32L0xx_HAL_Driver/Inc/stm32l0xx_ll_bus.h **** #if defined(TIM22)
 154:../../dependencies/STM32CubeL0/Drivers/STM32L0xx_HAL_Driver/Inc/stm32l0xx_ll_bus.h **** #define LL_APB2_GRP1_PERIPH_TIM22          RCC_APB2ENR_TIM22EN   /*!< TIM22 clock enable */
 155:../../dependencies/STM32CubeL0/Drivers/STM32L0xx_HAL_Driver/Inc/stm32l0xx_ll_bus.h **** #endif
 156:../../dependencies/STM32CubeL0/Drivers/STM32L0xx_HAL_Driver/Inc/stm32l0xx_ll_bus.h **** #define LL_APB2_GRP1_PERIPH_FW             RCC_APB2ENR_FWEN      /*!< FireWall clock enable */
 157:../../dependencies/STM32CubeL0/Drivers/STM32L0xx_HAL_Driver/Inc/stm32l0xx_ll_bus.h **** #define LL_APB2_GRP1_PERIPH_ADC1           RCC_APB2ENR_ADC1EN    /*!< ADC1 clock enable */
 158:../../dependencies/STM32CubeL0/Drivers/STM32L0xx_HAL_Driver/Inc/stm32l0xx_ll_bus.h **** #define LL_APB2_GRP1_PERIPH_SPI1           RCC_APB2ENR_SPI1EN    /*!< SPI1 clock enable */
 159:../../dependencies/STM32CubeL0/Drivers/STM32L0xx_HAL_Driver/Inc/stm32l0xx_ll_bus.h **** #if defined(USART1)
 160:../../dependencies/STM32CubeL0/Drivers/STM32L0xx_HAL_Driver/Inc/stm32l0xx_ll_bus.h **** #define LL_APB2_GRP1_PERIPH_USART1         RCC_APB2ENR_USART1EN  /*!< USART1 clock enable */
 161:../../dependencies/STM32CubeL0/Drivers/STM32L0xx_HAL_Driver/Inc/stm32l0xx_ll_bus.h **** #endif
 162:../../dependencies/STM32CubeL0/Drivers/STM32L0xx_HAL_Driver/Inc/stm32l0xx_ll_bus.h **** #define LL_APB2_GRP1_PERIPH_DBGMCU         RCC_APB2ENR_DBGMCUEN  /*!< DBGMCU clock enable */
 163:../../dependencies/STM32CubeL0/Drivers/STM32L0xx_HAL_Driver/Inc/stm32l0xx_ll_bus.h **** 
 164:../../dependencies/STM32CubeL0/Drivers/STM32L0xx_HAL_Driver/Inc/stm32l0xx_ll_bus.h **** /**
 165:../../dependencies/STM32CubeL0/Drivers/STM32L0xx_HAL_Driver/Inc/stm32l0xx_ll_bus.h ****   * @}
 166:../../dependencies/STM32CubeL0/Drivers/STM32L0xx_HAL_Driver/Inc/stm32l0xx_ll_bus.h ****   */
 167:../../dependencies/STM32CubeL0/Drivers/STM32L0xx_HAL_Driver/Inc/stm32l0xx_ll_bus.h **** 
 168:../../dependencies/STM32CubeL0/Drivers/STM32L0xx_HAL_Driver/Inc/stm32l0xx_ll_bus.h **** 
 169:../../dependencies/STM32CubeL0/Drivers/STM32L0xx_HAL_Driver/Inc/stm32l0xx_ll_bus.h **** 
 170:../../dependencies/STM32CubeL0/Drivers/STM32L0xx_HAL_Driver/Inc/stm32l0xx_ll_bus.h **** /** @defgroup BUS_LL_EC_IOP_GRP1_PERIPH  IOP GRP1 PERIPH
 171:../../dependencies/STM32CubeL0/Drivers/STM32L0xx_HAL_Driver/Inc/stm32l0xx_ll_bus.h ****   * @{
 172:../../dependencies/STM32CubeL0/Drivers/STM32L0xx_HAL_Driver/Inc/stm32l0xx_ll_bus.h ****   */
 173:../../dependencies/STM32CubeL0/Drivers/STM32L0xx_HAL_Driver/Inc/stm32l0xx_ll_bus.h **** #define LL_IOP_GRP1_PERIPH_ALL             0xFFFFFFFFU
 174:../../dependencies/STM32CubeL0/Drivers/STM32L0xx_HAL_Driver/Inc/stm32l0xx_ll_bus.h **** #define LL_IOP_GRP1_PERIPH_GPIOA           RCC_IOPENR_GPIOAEN    /*!< GPIO port A control */
 175:../../dependencies/STM32CubeL0/Drivers/STM32L0xx_HAL_Driver/Inc/stm32l0xx_ll_bus.h **** #define LL_IOP_GRP1_PERIPH_GPIOB           RCC_IOPENR_GPIOBEN    /*!< GPIO port B control */
ARM GAS  /tmp/cc4HDSS2.s 			page 28


 176:../../dependencies/STM32CubeL0/Drivers/STM32L0xx_HAL_Driver/Inc/stm32l0xx_ll_bus.h **** #define LL_IOP_GRP1_PERIPH_GPIOC           RCC_IOPENR_GPIOCEN    /*!< GPIO port C control */
 177:../../dependencies/STM32CubeL0/Drivers/STM32L0xx_HAL_Driver/Inc/stm32l0xx_ll_bus.h **** #if defined(GPIOD)
 178:../../dependencies/STM32CubeL0/Drivers/STM32L0xx_HAL_Driver/Inc/stm32l0xx_ll_bus.h **** #define LL_IOP_GRP1_PERIPH_GPIOD           RCC_IOPENR_GPIODEN    /*!< GPIO port D control */
 179:../../dependencies/STM32CubeL0/Drivers/STM32L0xx_HAL_Driver/Inc/stm32l0xx_ll_bus.h **** #endif /*GPIOD*/
 180:../../dependencies/STM32CubeL0/Drivers/STM32L0xx_HAL_Driver/Inc/stm32l0xx_ll_bus.h **** #if defined(GPIOE)
 181:../../dependencies/STM32CubeL0/Drivers/STM32L0xx_HAL_Driver/Inc/stm32l0xx_ll_bus.h **** #define LL_IOP_GRP1_PERIPH_GPIOE           RCC_IOPENR_GPIOEEN    /*!< GPIO port H control */
 182:../../dependencies/STM32CubeL0/Drivers/STM32L0xx_HAL_Driver/Inc/stm32l0xx_ll_bus.h **** #endif /*GPIOE*/
 183:../../dependencies/STM32CubeL0/Drivers/STM32L0xx_HAL_Driver/Inc/stm32l0xx_ll_bus.h **** #if defined(GPIOH)
 184:../../dependencies/STM32CubeL0/Drivers/STM32L0xx_HAL_Driver/Inc/stm32l0xx_ll_bus.h **** #define LL_IOP_GRP1_PERIPH_GPIOH           RCC_IOPENR_GPIOHEN    /*!< GPIO port H control */
 185:../../dependencies/STM32CubeL0/Drivers/STM32L0xx_HAL_Driver/Inc/stm32l0xx_ll_bus.h **** #endif /*GPIOH*/
 186:../../dependencies/STM32CubeL0/Drivers/STM32L0xx_HAL_Driver/Inc/stm32l0xx_ll_bus.h **** /**
 187:../../dependencies/STM32CubeL0/Drivers/STM32L0xx_HAL_Driver/Inc/stm32l0xx_ll_bus.h ****   * @}
 188:../../dependencies/STM32CubeL0/Drivers/STM32L0xx_HAL_Driver/Inc/stm32l0xx_ll_bus.h ****   */
 189:../../dependencies/STM32CubeL0/Drivers/STM32L0xx_HAL_Driver/Inc/stm32l0xx_ll_bus.h **** 
 190:../../dependencies/STM32CubeL0/Drivers/STM32L0xx_HAL_Driver/Inc/stm32l0xx_ll_bus.h **** 
 191:../../dependencies/STM32CubeL0/Drivers/STM32L0xx_HAL_Driver/Inc/stm32l0xx_ll_bus.h **** /**
 192:../../dependencies/STM32CubeL0/Drivers/STM32L0xx_HAL_Driver/Inc/stm32l0xx_ll_bus.h ****   * @}
 193:../../dependencies/STM32CubeL0/Drivers/STM32L0xx_HAL_Driver/Inc/stm32l0xx_ll_bus.h ****   */
 194:../../dependencies/STM32CubeL0/Drivers/STM32L0xx_HAL_Driver/Inc/stm32l0xx_ll_bus.h **** 
 195:../../dependencies/STM32CubeL0/Drivers/STM32L0xx_HAL_Driver/Inc/stm32l0xx_ll_bus.h **** /* Exported macro ------------------------------------------------------------*/
 196:../../dependencies/STM32CubeL0/Drivers/STM32L0xx_HAL_Driver/Inc/stm32l0xx_ll_bus.h **** /* Exported functions --------------------------------------------------------*/
 197:../../dependencies/STM32CubeL0/Drivers/STM32L0xx_HAL_Driver/Inc/stm32l0xx_ll_bus.h **** /** @defgroup BUS_LL_Exported_Functions BUS Exported Functions
 198:../../dependencies/STM32CubeL0/Drivers/STM32L0xx_HAL_Driver/Inc/stm32l0xx_ll_bus.h ****   * @{
 199:../../dependencies/STM32CubeL0/Drivers/STM32L0xx_HAL_Driver/Inc/stm32l0xx_ll_bus.h ****   */
 200:../../dependencies/STM32CubeL0/Drivers/STM32L0xx_HAL_Driver/Inc/stm32l0xx_ll_bus.h **** 
 201:../../dependencies/STM32CubeL0/Drivers/STM32L0xx_HAL_Driver/Inc/stm32l0xx_ll_bus.h **** /** @defgroup BUS_LL_EF_AHB1 AHB1
 202:../../dependencies/STM32CubeL0/Drivers/STM32L0xx_HAL_Driver/Inc/stm32l0xx_ll_bus.h ****   * @{
 203:../../dependencies/STM32CubeL0/Drivers/STM32L0xx_HAL_Driver/Inc/stm32l0xx_ll_bus.h ****   */
 204:../../dependencies/STM32CubeL0/Drivers/STM32L0xx_HAL_Driver/Inc/stm32l0xx_ll_bus.h **** 
 205:../../dependencies/STM32CubeL0/Drivers/STM32L0xx_HAL_Driver/Inc/stm32l0xx_ll_bus.h **** /**
 206:../../dependencies/STM32CubeL0/Drivers/STM32L0xx_HAL_Driver/Inc/stm32l0xx_ll_bus.h ****   * @brief  Enable AHB1 peripherals clock.
 207:../../dependencies/STM32CubeL0/Drivers/STM32L0xx_HAL_Driver/Inc/stm32l0xx_ll_bus.h ****   * @rmtoll AHBENR      DMAEN        LL_AHB1_GRP1_EnableClock\n
 208:../../dependencies/STM32CubeL0/Drivers/STM32L0xx_HAL_Driver/Inc/stm32l0xx_ll_bus.h ****   *         AHBENR      MIFEN        LL_AHB1_GRP1_EnableClock\n
 209:../../dependencies/STM32CubeL0/Drivers/STM32L0xx_HAL_Driver/Inc/stm32l0xx_ll_bus.h ****   *         AHBENR      CRCEN        LL_AHB1_GRP1_EnableClock\n
 210:../../dependencies/STM32CubeL0/Drivers/STM32L0xx_HAL_Driver/Inc/stm32l0xx_ll_bus.h ****   *         AHBENR      TSCEN        LL_AHB1_GRP1_EnableClock\n
 211:../../dependencies/STM32CubeL0/Drivers/STM32L0xx_HAL_Driver/Inc/stm32l0xx_ll_bus.h ****   *         AHBENR      RNGEN        LL_AHB1_GRP1_EnableClock\n
 212:../../dependencies/STM32CubeL0/Drivers/STM32L0xx_HAL_Driver/Inc/stm32l0xx_ll_bus.h ****   *         AHBENR      CRYPEN       LL_AHB1_GRP1_EnableClock
 213:../../dependencies/STM32CubeL0/Drivers/STM32L0xx_HAL_Driver/Inc/stm32l0xx_ll_bus.h ****   * @param  Periphs This parameter can be a combination of the following values:
 214:../../dependencies/STM32CubeL0/Drivers/STM32L0xx_HAL_Driver/Inc/stm32l0xx_ll_bus.h ****   *         @arg @ref LL_AHB1_GRP1_PERIPH_DMA1
 215:../../dependencies/STM32CubeL0/Drivers/STM32L0xx_HAL_Driver/Inc/stm32l0xx_ll_bus.h ****   *         @arg @ref LL_AHB1_GRP1_PERIPH_MIF
 216:../../dependencies/STM32CubeL0/Drivers/STM32L0xx_HAL_Driver/Inc/stm32l0xx_ll_bus.h ****   *         @arg @ref LL_AHB1_GRP1_PERIPH_CRC
 217:../../dependencies/STM32CubeL0/Drivers/STM32L0xx_HAL_Driver/Inc/stm32l0xx_ll_bus.h ****   *         @arg @ref LL_AHB1_GRP1_PERIPH_TSC (*)
 218:../../dependencies/STM32CubeL0/Drivers/STM32L0xx_HAL_Driver/Inc/stm32l0xx_ll_bus.h ****   *         @arg @ref LL_AHB1_GRP1_PERIPH_RNG (*)
 219:../../dependencies/STM32CubeL0/Drivers/STM32L0xx_HAL_Driver/Inc/stm32l0xx_ll_bus.h ****   *         @arg @ref LL_AHB1_GRP1_PERIPH_CRYP (*)
 220:../../dependencies/STM32CubeL0/Drivers/STM32L0xx_HAL_Driver/Inc/stm32l0xx_ll_bus.h ****   *
 221:../../dependencies/STM32CubeL0/Drivers/STM32L0xx_HAL_Driver/Inc/stm32l0xx_ll_bus.h ****   *         (*) value not defined in all devices.
 222:../../dependencies/STM32CubeL0/Drivers/STM32L0xx_HAL_Driver/Inc/stm32l0xx_ll_bus.h ****   * @retval None
 223:../../dependencies/STM32CubeL0/Drivers/STM32L0xx_HAL_Driver/Inc/stm32l0xx_ll_bus.h **** */
 224:../../dependencies/STM32CubeL0/Drivers/STM32L0xx_HAL_Driver/Inc/stm32l0xx_ll_bus.h **** __STATIC_INLINE void LL_AHB1_GRP1_EnableClock(uint32_t Periphs)
 225:../../dependencies/STM32CubeL0/Drivers/STM32L0xx_HAL_Driver/Inc/stm32l0xx_ll_bus.h **** {
 226:../../dependencies/STM32CubeL0/Drivers/STM32L0xx_HAL_Driver/Inc/stm32l0xx_ll_bus.h ****   __IO uint32_t tmpreg;
 227:../../dependencies/STM32CubeL0/Drivers/STM32L0xx_HAL_Driver/Inc/stm32l0xx_ll_bus.h ****   SET_BIT(RCC->AHBENR, Periphs);
 228:../../dependencies/STM32CubeL0/Drivers/STM32L0xx_HAL_Driver/Inc/stm32l0xx_ll_bus.h ****   /* Delay after an RCC peripheral clock enabling */
 229:../../dependencies/STM32CubeL0/Drivers/STM32L0xx_HAL_Driver/Inc/stm32l0xx_ll_bus.h ****   tmpreg = READ_BIT(RCC->AHBENR, Periphs);
 230:../../dependencies/STM32CubeL0/Drivers/STM32L0xx_HAL_Driver/Inc/stm32l0xx_ll_bus.h ****   (void)tmpreg;
 231:../../dependencies/STM32CubeL0/Drivers/STM32L0xx_HAL_Driver/Inc/stm32l0xx_ll_bus.h **** }
 232:../../dependencies/STM32CubeL0/Drivers/STM32L0xx_HAL_Driver/Inc/stm32l0xx_ll_bus.h **** 
ARM GAS  /tmp/cc4HDSS2.s 			page 29


 233:../../dependencies/STM32CubeL0/Drivers/STM32L0xx_HAL_Driver/Inc/stm32l0xx_ll_bus.h **** /**
 234:../../dependencies/STM32CubeL0/Drivers/STM32L0xx_HAL_Driver/Inc/stm32l0xx_ll_bus.h ****   * @brief  Check if AHB1 peripheral clock is enabled or not
 235:../../dependencies/STM32CubeL0/Drivers/STM32L0xx_HAL_Driver/Inc/stm32l0xx_ll_bus.h ****   * @rmtoll AHBENR      DMAEN        LL_AHB1_GRP1_IsEnabledClock\n
 236:../../dependencies/STM32CubeL0/Drivers/STM32L0xx_HAL_Driver/Inc/stm32l0xx_ll_bus.h ****   *         AHBENR      MIFEN        LL_AHB1_GRP1_IsEnabledClock\n
 237:../../dependencies/STM32CubeL0/Drivers/STM32L0xx_HAL_Driver/Inc/stm32l0xx_ll_bus.h ****   *         AHBENR      CRCEN        LL_AHB1_GRP1_IsEnabledClock\n
 238:../../dependencies/STM32CubeL0/Drivers/STM32L0xx_HAL_Driver/Inc/stm32l0xx_ll_bus.h ****   *         AHBENR      TSCEN        LL_AHB1_GRP1_IsEnabledClock\n
 239:../../dependencies/STM32CubeL0/Drivers/STM32L0xx_HAL_Driver/Inc/stm32l0xx_ll_bus.h ****   *         AHBENR      RNGEN        LL_AHB1_GRP1_IsEnabledClock\n
 240:../../dependencies/STM32CubeL0/Drivers/STM32L0xx_HAL_Driver/Inc/stm32l0xx_ll_bus.h ****   *         AHBENR      CRYPEN       LL_AHB1_GRP1_IsEnabledClock
 241:../../dependencies/STM32CubeL0/Drivers/STM32L0xx_HAL_Driver/Inc/stm32l0xx_ll_bus.h ****   * @param  Periphs This parameter can be a combination of the following values:
 242:../../dependencies/STM32CubeL0/Drivers/STM32L0xx_HAL_Driver/Inc/stm32l0xx_ll_bus.h ****   *         @arg @ref LL_AHB1_GRP1_PERIPH_DMA1
 243:../../dependencies/STM32CubeL0/Drivers/STM32L0xx_HAL_Driver/Inc/stm32l0xx_ll_bus.h ****   *         @arg @ref LL_AHB1_GRP1_PERIPH_MIF
 244:../../dependencies/STM32CubeL0/Drivers/STM32L0xx_HAL_Driver/Inc/stm32l0xx_ll_bus.h ****   *         @arg @ref LL_AHB1_GRP1_PERIPH_CRC
 245:../../dependencies/STM32CubeL0/Drivers/STM32L0xx_HAL_Driver/Inc/stm32l0xx_ll_bus.h ****   *         @arg @ref LL_AHB1_GRP1_PERIPH_TSC (*)
 246:../../dependencies/STM32CubeL0/Drivers/STM32L0xx_HAL_Driver/Inc/stm32l0xx_ll_bus.h ****   *         @arg @ref LL_AHB1_GRP1_PERIPH_RNG (*)
 247:../../dependencies/STM32CubeL0/Drivers/STM32L0xx_HAL_Driver/Inc/stm32l0xx_ll_bus.h ****   *         @arg @ref LL_AHB1_GRP1_PERIPH_CRYP (*)
 248:../../dependencies/STM32CubeL0/Drivers/STM32L0xx_HAL_Driver/Inc/stm32l0xx_ll_bus.h ****   *
 249:../../dependencies/STM32CubeL0/Drivers/STM32L0xx_HAL_Driver/Inc/stm32l0xx_ll_bus.h ****   *         (*) value not defined in all devices.
 250:../../dependencies/STM32CubeL0/Drivers/STM32L0xx_HAL_Driver/Inc/stm32l0xx_ll_bus.h ****   * @retval State of Periphs (1 or 0).
 251:../../dependencies/STM32CubeL0/Drivers/STM32L0xx_HAL_Driver/Inc/stm32l0xx_ll_bus.h **** */
 252:../../dependencies/STM32CubeL0/Drivers/STM32L0xx_HAL_Driver/Inc/stm32l0xx_ll_bus.h **** __STATIC_INLINE uint32_t LL_AHB1_GRP1_IsEnabledClock(uint32_t Periphs)
 253:../../dependencies/STM32CubeL0/Drivers/STM32L0xx_HAL_Driver/Inc/stm32l0xx_ll_bus.h **** {
 254:../../dependencies/STM32CubeL0/Drivers/STM32L0xx_HAL_Driver/Inc/stm32l0xx_ll_bus.h ****   return ((READ_BIT(RCC->AHBENR, Periphs) == (Periphs)) ? 1UL : 0UL);
 255:../../dependencies/STM32CubeL0/Drivers/STM32L0xx_HAL_Driver/Inc/stm32l0xx_ll_bus.h **** }
 256:../../dependencies/STM32CubeL0/Drivers/STM32L0xx_HAL_Driver/Inc/stm32l0xx_ll_bus.h **** 
 257:../../dependencies/STM32CubeL0/Drivers/STM32L0xx_HAL_Driver/Inc/stm32l0xx_ll_bus.h **** /**
 258:../../dependencies/STM32CubeL0/Drivers/STM32L0xx_HAL_Driver/Inc/stm32l0xx_ll_bus.h ****   * @brief  Disable AHB1 peripherals clock.
 259:../../dependencies/STM32CubeL0/Drivers/STM32L0xx_HAL_Driver/Inc/stm32l0xx_ll_bus.h ****   * @rmtoll AHBENR      DMAEN        LL_AHB1_GRP1_DisableClock\n
 260:../../dependencies/STM32CubeL0/Drivers/STM32L0xx_HAL_Driver/Inc/stm32l0xx_ll_bus.h ****   *         AHBENR      MIFEN        LL_AHB1_GRP1_DisableClock\n
 261:../../dependencies/STM32CubeL0/Drivers/STM32L0xx_HAL_Driver/Inc/stm32l0xx_ll_bus.h ****   *         AHBENR      CRCEN        LL_AHB1_GRP1_DisableClock\n
 262:../../dependencies/STM32CubeL0/Drivers/STM32L0xx_HAL_Driver/Inc/stm32l0xx_ll_bus.h ****   *         AHBENR      TSCEN        LL_AHB1_GRP1_DisableClock\n
 263:../../dependencies/STM32CubeL0/Drivers/STM32L0xx_HAL_Driver/Inc/stm32l0xx_ll_bus.h ****   *         AHBENR      RNGEN        LL_AHB1_GRP1_DisableClock\n
 264:../../dependencies/STM32CubeL0/Drivers/STM32L0xx_HAL_Driver/Inc/stm32l0xx_ll_bus.h ****   *         AHBENR      CRYPEN       LL_AHB1_GRP1_DisableClock
 265:../../dependencies/STM32CubeL0/Drivers/STM32L0xx_HAL_Driver/Inc/stm32l0xx_ll_bus.h ****   * @param  Periphs This parameter can be a combination of the following values:
 266:../../dependencies/STM32CubeL0/Drivers/STM32L0xx_HAL_Driver/Inc/stm32l0xx_ll_bus.h ****   *         @arg @ref LL_AHB1_GRP1_PERIPH_DMA1
 267:../../dependencies/STM32CubeL0/Drivers/STM32L0xx_HAL_Driver/Inc/stm32l0xx_ll_bus.h ****   *         @arg @ref LL_AHB1_GRP1_PERIPH_MIF
 268:../../dependencies/STM32CubeL0/Drivers/STM32L0xx_HAL_Driver/Inc/stm32l0xx_ll_bus.h ****   *         @arg @ref LL_AHB1_GRP1_PERIPH_CRC
 269:../../dependencies/STM32CubeL0/Drivers/STM32L0xx_HAL_Driver/Inc/stm32l0xx_ll_bus.h ****   *         @arg @ref LL_AHB1_GRP1_PERIPH_TSC (*)
 270:../../dependencies/STM32CubeL0/Drivers/STM32L0xx_HAL_Driver/Inc/stm32l0xx_ll_bus.h ****   *         @arg @ref LL_AHB1_GRP1_PERIPH_RNG (*)
 271:../../dependencies/STM32CubeL0/Drivers/STM32L0xx_HAL_Driver/Inc/stm32l0xx_ll_bus.h ****   *         @arg @ref LL_AHB1_GRP1_PERIPH_CRYP (*)
 272:../../dependencies/STM32CubeL0/Drivers/STM32L0xx_HAL_Driver/Inc/stm32l0xx_ll_bus.h ****   *
 273:../../dependencies/STM32CubeL0/Drivers/STM32L0xx_HAL_Driver/Inc/stm32l0xx_ll_bus.h ****   *         (*) value not defined in all devices.
 274:../../dependencies/STM32CubeL0/Drivers/STM32L0xx_HAL_Driver/Inc/stm32l0xx_ll_bus.h ****   * @retval None
 275:../../dependencies/STM32CubeL0/Drivers/STM32L0xx_HAL_Driver/Inc/stm32l0xx_ll_bus.h **** */
 276:../../dependencies/STM32CubeL0/Drivers/STM32L0xx_HAL_Driver/Inc/stm32l0xx_ll_bus.h **** __STATIC_INLINE void LL_AHB1_GRP1_DisableClock(uint32_t Periphs)
 277:../../dependencies/STM32CubeL0/Drivers/STM32L0xx_HAL_Driver/Inc/stm32l0xx_ll_bus.h **** {
 278:../../dependencies/STM32CubeL0/Drivers/STM32L0xx_HAL_Driver/Inc/stm32l0xx_ll_bus.h ****   CLEAR_BIT(RCC->AHBENR, Periphs);
 279:../../dependencies/STM32CubeL0/Drivers/STM32L0xx_HAL_Driver/Inc/stm32l0xx_ll_bus.h **** }
 280:../../dependencies/STM32CubeL0/Drivers/STM32L0xx_HAL_Driver/Inc/stm32l0xx_ll_bus.h **** 
 281:../../dependencies/STM32CubeL0/Drivers/STM32L0xx_HAL_Driver/Inc/stm32l0xx_ll_bus.h **** /**
 282:../../dependencies/STM32CubeL0/Drivers/STM32L0xx_HAL_Driver/Inc/stm32l0xx_ll_bus.h ****   * @brief  Force AHB1 peripherals reset.
 283:../../dependencies/STM32CubeL0/Drivers/STM32L0xx_HAL_Driver/Inc/stm32l0xx_ll_bus.h ****   * @rmtoll AHBRSTR      DMARST        LL_AHB1_GRP1_ForceReset\n
 284:../../dependencies/STM32CubeL0/Drivers/STM32L0xx_HAL_Driver/Inc/stm32l0xx_ll_bus.h ****   *         AHBRSTR      MIFRST        LL_AHB1_GRP1_ForceReset\n
 285:../../dependencies/STM32CubeL0/Drivers/STM32L0xx_HAL_Driver/Inc/stm32l0xx_ll_bus.h ****   *         AHBRSTR      CRCRST        LL_AHB1_GRP1_ForceReset\n
 286:../../dependencies/STM32CubeL0/Drivers/STM32L0xx_HAL_Driver/Inc/stm32l0xx_ll_bus.h ****   *         AHBRSTR      TSCRST        LL_AHB1_GRP1_ForceReset\n
 287:../../dependencies/STM32CubeL0/Drivers/STM32L0xx_HAL_Driver/Inc/stm32l0xx_ll_bus.h ****   *         AHBRSTR      RNGRST        LL_AHB1_GRP1_ForceReset\n
 288:../../dependencies/STM32CubeL0/Drivers/STM32L0xx_HAL_Driver/Inc/stm32l0xx_ll_bus.h ****   *         AHBRSTR      CRYPRST       LL_AHB1_GRP1_ForceReset
 289:../../dependencies/STM32CubeL0/Drivers/STM32L0xx_HAL_Driver/Inc/stm32l0xx_ll_bus.h ****   * @param  Periphs This parameter can be a combination of the following values:
ARM GAS  /tmp/cc4HDSS2.s 			page 30


 290:../../dependencies/STM32CubeL0/Drivers/STM32L0xx_HAL_Driver/Inc/stm32l0xx_ll_bus.h ****   *         @arg @ref LL_AHB1_GRP1_PERIPH_ALL
 291:../../dependencies/STM32CubeL0/Drivers/STM32L0xx_HAL_Driver/Inc/stm32l0xx_ll_bus.h ****   *         @arg @ref LL_AHB1_GRP1_PERIPH_DMA1
 292:../../dependencies/STM32CubeL0/Drivers/STM32L0xx_HAL_Driver/Inc/stm32l0xx_ll_bus.h ****   *         @arg @ref LL_AHB1_GRP1_PERIPH_MIF
 293:../../dependencies/STM32CubeL0/Drivers/STM32L0xx_HAL_Driver/Inc/stm32l0xx_ll_bus.h ****   *         @arg @ref LL_AHB1_GRP1_PERIPH_CRC
 294:../../dependencies/STM32CubeL0/Drivers/STM32L0xx_HAL_Driver/Inc/stm32l0xx_ll_bus.h ****   *         @arg @ref LL_AHB1_GRP1_PERIPH_TSC (*)
 295:../../dependencies/STM32CubeL0/Drivers/STM32L0xx_HAL_Driver/Inc/stm32l0xx_ll_bus.h ****   *         @arg @ref LL_AHB1_GRP1_PERIPH_RNG (*)
 296:../../dependencies/STM32CubeL0/Drivers/STM32L0xx_HAL_Driver/Inc/stm32l0xx_ll_bus.h ****   *         @arg @ref LL_AHB1_GRP1_PERIPH_CRYP (*)
 297:../../dependencies/STM32CubeL0/Drivers/STM32L0xx_HAL_Driver/Inc/stm32l0xx_ll_bus.h ****   *
 298:../../dependencies/STM32CubeL0/Drivers/STM32L0xx_HAL_Driver/Inc/stm32l0xx_ll_bus.h ****   *         (*) value not defined in all devices.
 299:../../dependencies/STM32CubeL0/Drivers/STM32L0xx_HAL_Driver/Inc/stm32l0xx_ll_bus.h ****   * @retval None
 300:../../dependencies/STM32CubeL0/Drivers/STM32L0xx_HAL_Driver/Inc/stm32l0xx_ll_bus.h **** */
 301:../../dependencies/STM32CubeL0/Drivers/STM32L0xx_HAL_Driver/Inc/stm32l0xx_ll_bus.h **** __STATIC_INLINE void LL_AHB1_GRP1_ForceReset(uint32_t Periphs)
 302:../../dependencies/STM32CubeL0/Drivers/STM32L0xx_HAL_Driver/Inc/stm32l0xx_ll_bus.h **** {
 303:../../dependencies/STM32CubeL0/Drivers/STM32L0xx_HAL_Driver/Inc/stm32l0xx_ll_bus.h ****   SET_BIT(RCC->AHBRSTR, Periphs);
 304:../../dependencies/STM32CubeL0/Drivers/STM32L0xx_HAL_Driver/Inc/stm32l0xx_ll_bus.h **** }
 305:../../dependencies/STM32CubeL0/Drivers/STM32L0xx_HAL_Driver/Inc/stm32l0xx_ll_bus.h **** 
 306:../../dependencies/STM32CubeL0/Drivers/STM32L0xx_HAL_Driver/Inc/stm32l0xx_ll_bus.h **** /**
 307:../../dependencies/STM32CubeL0/Drivers/STM32L0xx_HAL_Driver/Inc/stm32l0xx_ll_bus.h ****   * @brief  Release AHB1 peripherals reset.
 308:../../dependencies/STM32CubeL0/Drivers/STM32L0xx_HAL_Driver/Inc/stm32l0xx_ll_bus.h ****   * @rmtoll AHBRSTR      DMARST        LL_AHB1_GRP1_ReleaseReset\n
 309:../../dependencies/STM32CubeL0/Drivers/STM32L0xx_HAL_Driver/Inc/stm32l0xx_ll_bus.h ****   *         AHBRSTR      MIFRST        LL_AHB1_GRP1_ReleaseReset\n
 310:../../dependencies/STM32CubeL0/Drivers/STM32L0xx_HAL_Driver/Inc/stm32l0xx_ll_bus.h ****   *         AHBRSTR      CRCRST        LL_AHB1_GRP1_ReleaseReset\n
 311:../../dependencies/STM32CubeL0/Drivers/STM32L0xx_HAL_Driver/Inc/stm32l0xx_ll_bus.h ****   *         AHBRSTR      TSCRST        LL_AHB1_GRP1_ReleaseReset\n
 312:../../dependencies/STM32CubeL0/Drivers/STM32L0xx_HAL_Driver/Inc/stm32l0xx_ll_bus.h ****   *         AHBRSTR      RNGRST        LL_AHB1_GRP1_ReleaseReset\n
 313:../../dependencies/STM32CubeL0/Drivers/STM32L0xx_HAL_Driver/Inc/stm32l0xx_ll_bus.h ****   *         AHBRSTR      CRYPRST       LL_AHB1_GRP1_ReleaseReset
 314:../../dependencies/STM32CubeL0/Drivers/STM32L0xx_HAL_Driver/Inc/stm32l0xx_ll_bus.h ****   * @param  Periphs This parameter can be a combination of the following values:
 315:../../dependencies/STM32CubeL0/Drivers/STM32L0xx_HAL_Driver/Inc/stm32l0xx_ll_bus.h ****   *         @arg @ref LL_AHB1_GRP1_PERIPH_ALL
 316:../../dependencies/STM32CubeL0/Drivers/STM32L0xx_HAL_Driver/Inc/stm32l0xx_ll_bus.h ****   *         @arg @ref LL_AHB1_GRP1_PERIPH_DMA1
 317:../../dependencies/STM32CubeL0/Drivers/STM32L0xx_HAL_Driver/Inc/stm32l0xx_ll_bus.h ****   *         @arg @ref LL_AHB1_GRP1_PERIPH_MIF
 318:../../dependencies/STM32CubeL0/Drivers/STM32L0xx_HAL_Driver/Inc/stm32l0xx_ll_bus.h ****   *         @arg @ref LL_AHB1_GRP1_PERIPH_CRC
 319:../../dependencies/STM32CubeL0/Drivers/STM32L0xx_HAL_Driver/Inc/stm32l0xx_ll_bus.h ****   *         @arg @ref LL_AHB1_GRP1_PERIPH_TSC (*)
 320:../../dependencies/STM32CubeL0/Drivers/STM32L0xx_HAL_Driver/Inc/stm32l0xx_ll_bus.h ****   *         @arg @ref LL_AHB1_GRP1_PERIPH_RNG (*)
 321:../../dependencies/STM32CubeL0/Drivers/STM32L0xx_HAL_Driver/Inc/stm32l0xx_ll_bus.h ****   *         @arg @ref LL_AHB1_GRP1_PERIPH_CRYP (*)
 322:../../dependencies/STM32CubeL0/Drivers/STM32L0xx_HAL_Driver/Inc/stm32l0xx_ll_bus.h ****   *
 323:../../dependencies/STM32CubeL0/Drivers/STM32L0xx_HAL_Driver/Inc/stm32l0xx_ll_bus.h ****   *         (*) value not defined in all devices.
 324:../../dependencies/STM32CubeL0/Drivers/STM32L0xx_HAL_Driver/Inc/stm32l0xx_ll_bus.h ****   * @retval None
 325:../../dependencies/STM32CubeL0/Drivers/STM32L0xx_HAL_Driver/Inc/stm32l0xx_ll_bus.h **** */
 326:../../dependencies/STM32CubeL0/Drivers/STM32L0xx_HAL_Driver/Inc/stm32l0xx_ll_bus.h **** __STATIC_INLINE void LL_AHB1_GRP1_ReleaseReset(uint32_t Periphs)
 327:../../dependencies/STM32CubeL0/Drivers/STM32L0xx_HAL_Driver/Inc/stm32l0xx_ll_bus.h **** {
 328:../../dependencies/STM32CubeL0/Drivers/STM32L0xx_HAL_Driver/Inc/stm32l0xx_ll_bus.h ****   CLEAR_BIT(RCC->AHBRSTR, Periphs);
 329:../../dependencies/STM32CubeL0/Drivers/STM32L0xx_HAL_Driver/Inc/stm32l0xx_ll_bus.h **** }
 330:../../dependencies/STM32CubeL0/Drivers/STM32L0xx_HAL_Driver/Inc/stm32l0xx_ll_bus.h **** 
 331:../../dependencies/STM32CubeL0/Drivers/STM32L0xx_HAL_Driver/Inc/stm32l0xx_ll_bus.h **** /**
 332:../../dependencies/STM32CubeL0/Drivers/STM32L0xx_HAL_Driver/Inc/stm32l0xx_ll_bus.h ****   * @brief  Enable AHB1 peripherals clock during Low Power (Sleep) mode.
 333:../../dependencies/STM32CubeL0/Drivers/STM32L0xx_HAL_Driver/Inc/stm32l0xx_ll_bus.h ****   * @rmtoll AHBSMENR     DMASMEN       LL_AHB1_GRP1_EnableClockSleep\n
 334:../../dependencies/STM32CubeL0/Drivers/STM32L0xx_HAL_Driver/Inc/stm32l0xx_ll_bus.h ****   *         AHBSMENR     MIFSMEN       LL_AHB1_GRP1_EnableClockSleep\n
 335:../../dependencies/STM32CubeL0/Drivers/STM32L0xx_HAL_Driver/Inc/stm32l0xx_ll_bus.h ****   *         AHBSMENR     SRAMSMEN      LL_AHB1_GRP1_EnableClockSleep\n
 336:../../dependencies/STM32CubeL0/Drivers/STM32L0xx_HAL_Driver/Inc/stm32l0xx_ll_bus.h ****   *         AHBSMENR     CRCSMEN       LL_AHB1_GRP1_EnableClockSleep\n
 337:../../dependencies/STM32CubeL0/Drivers/STM32L0xx_HAL_Driver/Inc/stm32l0xx_ll_bus.h ****   *         AHBSMENR     TSCSMEN       LL_AHB1_GRP1_EnableClockSleep\n
 338:../../dependencies/STM32CubeL0/Drivers/STM32L0xx_HAL_Driver/Inc/stm32l0xx_ll_bus.h ****   *         AHBSMENR     RNGSMEN       LL_AHB1_GRP1_EnableClockSleep\n
 339:../../dependencies/STM32CubeL0/Drivers/STM32L0xx_HAL_Driver/Inc/stm32l0xx_ll_bus.h ****   *         AHBSMENR     CRYPSMEN      LL_AHB1_GRP1_EnableClockSleep
 340:../../dependencies/STM32CubeL0/Drivers/STM32L0xx_HAL_Driver/Inc/stm32l0xx_ll_bus.h ****   * @param  Periphs This parameter can be a combination of the following values:
 341:../../dependencies/STM32CubeL0/Drivers/STM32L0xx_HAL_Driver/Inc/stm32l0xx_ll_bus.h ****   *         @arg @ref LL_AHB1_GRP1_PERIPH_DMA1
 342:../../dependencies/STM32CubeL0/Drivers/STM32L0xx_HAL_Driver/Inc/stm32l0xx_ll_bus.h ****   *         @arg @ref LL_AHB1_GRP1_PERIPH_MIF
 343:../../dependencies/STM32CubeL0/Drivers/STM32L0xx_HAL_Driver/Inc/stm32l0xx_ll_bus.h ****   *         @arg @ref LL_AHB1_GRP1_PERIPH_SRAM
 344:../../dependencies/STM32CubeL0/Drivers/STM32L0xx_HAL_Driver/Inc/stm32l0xx_ll_bus.h ****   *         @arg @ref LL_AHB1_GRP1_PERIPH_CRC
 345:../../dependencies/STM32CubeL0/Drivers/STM32L0xx_HAL_Driver/Inc/stm32l0xx_ll_bus.h ****   *         @arg @ref LL_AHB1_GRP1_PERIPH_TSC (*)
 346:../../dependencies/STM32CubeL0/Drivers/STM32L0xx_HAL_Driver/Inc/stm32l0xx_ll_bus.h ****   *         @arg @ref LL_AHB1_GRP1_PERIPH_RNG (*)
ARM GAS  /tmp/cc4HDSS2.s 			page 31


 347:../../dependencies/STM32CubeL0/Drivers/STM32L0xx_HAL_Driver/Inc/stm32l0xx_ll_bus.h ****   *         @arg @ref LL_AHB1_GRP1_PERIPH_CRYP (*)
 348:../../dependencies/STM32CubeL0/Drivers/STM32L0xx_HAL_Driver/Inc/stm32l0xx_ll_bus.h ****   *
 349:../../dependencies/STM32CubeL0/Drivers/STM32L0xx_HAL_Driver/Inc/stm32l0xx_ll_bus.h ****   *         (*) value not defined in all devices.
 350:../../dependencies/STM32CubeL0/Drivers/STM32L0xx_HAL_Driver/Inc/stm32l0xx_ll_bus.h ****   * @retval None
 351:../../dependencies/STM32CubeL0/Drivers/STM32L0xx_HAL_Driver/Inc/stm32l0xx_ll_bus.h **** */
 352:../../dependencies/STM32CubeL0/Drivers/STM32L0xx_HAL_Driver/Inc/stm32l0xx_ll_bus.h **** __STATIC_INLINE void LL_AHB1_GRP1_EnableClockSleep(uint32_t Periphs)
 353:../../dependencies/STM32CubeL0/Drivers/STM32L0xx_HAL_Driver/Inc/stm32l0xx_ll_bus.h **** {
 354:../../dependencies/STM32CubeL0/Drivers/STM32L0xx_HAL_Driver/Inc/stm32l0xx_ll_bus.h ****   __IO uint32_t tmpreg;
 355:../../dependencies/STM32CubeL0/Drivers/STM32L0xx_HAL_Driver/Inc/stm32l0xx_ll_bus.h ****   SET_BIT(RCC->AHBSMENR, Periphs);
 356:../../dependencies/STM32CubeL0/Drivers/STM32L0xx_HAL_Driver/Inc/stm32l0xx_ll_bus.h ****   /* Delay after an RCC peripheral clock enabling */
 357:../../dependencies/STM32CubeL0/Drivers/STM32L0xx_HAL_Driver/Inc/stm32l0xx_ll_bus.h ****   tmpreg = READ_BIT(RCC->AHBSMENR, Periphs);
 358:../../dependencies/STM32CubeL0/Drivers/STM32L0xx_HAL_Driver/Inc/stm32l0xx_ll_bus.h ****   (void)tmpreg;
 359:../../dependencies/STM32CubeL0/Drivers/STM32L0xx_HAL_Driver/Inc/stm32l0xx_ll_bus.h **** }
 360:../../dependencies/STM32CubeL0/Drivers/STM32L0xx_HAL_Driver/Inc/stm32l0xx_ll_bus.h **** 
 361:../../dependencies/STM32CubeL0/Drivers/STM32L0xx_HAL_Driver/Inc/stm32l0xx_ll_bus.h **** /**
 362:../../dependencies/STM32CubeL0/Drivers/STM32L0xx_HAL_Driver/Inc/stm32l0xx_ll_bus.h ****   * @brief  Disable AHB1 peripherals clock during Low Power (Sleep) mode.
 363:../../dependencies/STM32CubeL0/Drivers/STM32L0xx_HAL_Driver/Inc/stm32l0xx_ll_bus.h ****   * @rmtoll AHBSMENR     DMASMEN       LL_AHB1_GRP1_DisableClockSleep\n
 364:../../dependencies/STM32CubeL0/Drivers/STM32L0xx_HAL_Driver/Inc/stm32l0xx_ll_bus.h ****   *         AHBSMENR     MIFSMEN       LL_AHB1_GRP1_DisableClockSleep\n
 365:../../dependencies/STM32CubeL0/Drivers/STM32L0xx_HAL_Driver/Inc/stm32l0xx_ll_bus.h ****   *         AHBSMENR     SRAMSMEN      LL_AHB1_GRP1_DisableClockSleep\n
 366:../../dependencies/STM32CubeL0/Drivers/STM32L0xx_HAL_Driver/Inc/stm32l0xx_ll_bus.h ****   *         AHBSMENR     CRCSMEN       LL_AHB1_GRP1_DisableClockSleep\n
 367:../../dependencies/STM32CubeL0/Drivers/STM32L0xx_HAL_Driver/Inc/stm32l0xx_ll_bus.h ****   *         AHBSMENR     TSCSMEN       LL_AHB1_GRP1_DisableClockSleep\n
 368:../../dependencies/STM32CubeL0/Drivers/STM32L0xx_HAL_Driver/Inc/stm32l0xx_ll_bus.h ****   *         AHBSMENR     RNGSMEN       LL_AHB1_GRP1_DisableClockSleep\n
 369:../../dependencies/STM32CubeL0/Drivers/STM32L0xx_HAL_Driver/Inc/stm32l0xx_ll_bus.h ****   *         AHBSMENR     CRYPSMEN      LL_AHB1_GRP1_DisableClockSleep
 370:../../dependencies/STM32CubeL0/Drivers/STM32L0xx_HAL_Driver/Inc/stm32l0xx_ll_bus.h ****   * @param  Periphs This parameter can be a combination of the following values:
 371:../../dependencies/STM32CubeL0/Drivers/STM32L0xx_HAL_Driver/Inc/stm32l0xx_ll_bus.h ****   *         @arg @ref LL_AHB1_GRP1_PERIPH_DMA1
 372:../../dependencies/STM32CubeL0/Drivers/STM32L0xx_HAL_Driver/Inc/stm32l0xx_ll_bus.h ****   *         @arg @ref LL_AHB1_GRP1_PERIPH_MIF
 373:../../dependencies/STM32CubeL0/Drivers/STM32L0xx_HAL_Driver/Inc/stm32l0xx_ll_bus.h ****   *         @arg @ref LL_AHB1_GRP1_PERIPH_SRAM
 374:../../dependencies/STM32CubeL0/Drivers/STM32L0xx_HAL_Driver/Inc/stm32l0xx_ll_bus.h ****   *         @arg @ref LL_AHB1_GRP1_PERIPH_CRC
 375:../../dependencies/STM32CubeL0/Drivers/STM32L0xx_HAL_Driver/Inc/stm32l0xx_ll_bus.h ****   *         @arg @ref LL_AHB1_GRP1_PERIPH_TSC (*)
 376:../../dependencies/STM32CubeL0/Drivers/STM32L0xx_HAL_Driver/Inc/stm32l0xx_ll_bus.h ****   *         @arg @ref LL_AHB1_GRP1_PERIPH_RNG (*)
 377:../../dependencies/STM32CubeL0/Drivers/STM32L0xx_HAL_Driver/Inc/stm32l0xx_ll_bus.h ****   *         @arg @ref LL_AHB1_GRP1_PERIPH_CRYP (*)
 378:../../dependencies/STM32CubeL0/Drivers/STM32L0xx_HAL_Driver/Inc/stm32l0xx_ll_bus.h ****   *
 379:../../dependencies/STM32CubeL0/Drivers/STM32L0xx_HAL_Driver/Inc/stm32l0xx_ll_bus.h ****   *         (*) value not defined in all devices.
 380:../../dependencies/STM32CubeL0/Drivers/STM32L0xx_HAL_Driver/Inc/stm32l0xx_ll_bus.h ****   * @retval None
 381:../../dependencies/STM32CubeL0/Drivers/STM32L0xx_HAL_Driver/Inc/stm32l0xx_ll_bus.h **** */
 382:../../dependencies/STM32CubeL0/Drivers/STM32L0xx_HAL_Driver/Inc/stm32l0xx_ll_bus.h **** __STATIC_INLINE void LL_AHB1_GRP1_DisableClockSleep(uint32_t Periphs)
 383:../../dependencies/STM32CubeL0/Drivers/STM32L0xx_HAL_Driver/Inc/stm32l0xx_ll_bus.h **** {
 384:../../dependencies/STM32CubeL0/Drivers/STM32L0xx_HAL_Driver/Inc/stm32l0xx_ll_bus.h ****   CLEAR_BIT(RCC->AHBSMENR, Periphs);
 385:../../dependencies/STM32CubeL0/Drivers/STM32L0xx_HAL_Driver/Inc/stm32l0xx_ll_bus.h **** }
 386:../../dependencies/STM32CubeL0/Drivers/STM32L0xx_HAL_Driver/Inc/stm32l0xx_ll_bus.h **** 
 387:../../dependencies/STM32CubeL0/Drivers/STM32L0xx_HAL_Driver/Inc/stm32l0xx_ll_bus.h **** /**
 388:../../dependencies/STM32CubeL0/Drivers/STM32L0xx_HAL_Driver/Inc/stm32l0xx_ll_bus.h ****   * @}
 389:../../dependencies/STM32CubeL0/Drivers/STM32L0xx_HAL_Driver/Inc/stm32l0xx_ll_bus.h ****   */
 390:../../dependencies/STM32CubeL0/Drivers/STM32L0xx_HAL_Driver/Inc/stm32l0xx_ll_bus.h **** 
 391:../../dependencies/STM32CubeL0/Drivers/STM32L0xx_HAL_Driver/Inc/stm32l0xx_ll_bus.h **** /** @defgroup BUS_LL_EF_APB1 APB1
 392:../../dependencies/STM32CubeL0/Drivers/STM32L0xx_HAL_Driver/Inc/stm32l0xx_ll_bus.h ****   * @{
 393:../../dependencies/STM32CubeL0/Drivers/STM32L0xx_HAL_Driver/Inc/stm32l0xx_ll_bus.h ****   */
 394:../../dependencies/STM32CubeL0/Drivers/STM32L0xx_HAL_Driver/Inc/stm32l0xx_ll_bus.h **** 
 395:../../dependencies/STM32CubeL0/Drivers/STM32L0xx_HAL_Driver/Inc/stm32l0xx_ll_bus.h **** /**
 396:../../dependencies/STM32CubeL0/Drivers/STM32L0xx_HAL_Driver/Inc/stm32l0xx_ll_bus.h ****   * @brief  Enable APB1 peripherals clock.
 397:../../dependencies/STM32CubeL0/Drivers/STM32L0xx_HAL_Driver/Inc/stm32l0xx_ll_bus.h ****   * @rmtoll APB1ENR     TIM2EN        LL_APB1_GRP1_EnableClock\n
 398:../../dependencies/STM32CubeL0/Drivers/STM32L0xx_HAL_Driver/Inc/stm32l0xx_ll_bus.h ****   *         APB1ENR     TIM3EN        LL_APB1_GRP1_EnableClock\n
 399:../../dependencies/STM32CubeL0/Drivers/STM32L0xx_HAL_Driver/Inc/stm32l0xx_ll_bus.h ****   *         APB1ENR     TIM6EN        LL_APB1_GRP1_EnableClock\n
 400:../../dependencies/STM32CubeL0/Drivers/STM32L0xx_HAL_Driver/Inc/stm32l0xx_ll_bus.h ****   *         APB1ENR     TIM7EN        LL_APB1_GRP1_EnableClock\n
 401:../../dependencies/STM32CubeL0/Drivers/STM32L0xx_HAL_Driver/Inc/stm32l0xx_ll_bus.h ****   *         APB1ENR     LCDEN         LL_APB1_GRP1_EnableClock\n
 402:../../dependencies/STM32CubeL0/Drivers/STM32L0xx_HAL_Driver/Inc/stm32l0xx_ll_bus.h ****   *         APB1ENR     WWDGEN        LL_APB1_GRP1_EnableClock\n
 403:../../dependencies/STM32CubeL0/Drivers/STM32L0xx_HAL_Driver/Inc/stm32l0xx_ll_bus.h ****   *         APB1ENR     SPI2EN        LL_APB1_GRP1_EnableClock\n
ARM GAS  /tmp/cc4HDSS2.s 			page 32


 404:../../dependencies/STM32CubeL0/Drivers/STM32L0xx_HAL_Driver/Inc/stm32l0xx_ll_bus.h ****   *         APB1ENR     USART2EN      LL_APB1_GRP1_EnableClock\n
 405:../../dependencies/STM32CubeL0/Drivers/STM32L0xx_HAL_Driver/Inc/stm32l0xx_ll_bus.h ****   *         APB1ENR     LPUART1EN     LL_APB1_GRP1_EnableClock\n
 406:../../dependencies/STM32CubeL0/Drivers/STM32L0xx_HAL_Driver/Inc/stm32l0xx_ll_bus.h ****   *         APB1ENR     USART4EN      LL_APB1_GRP1_EnableClock\n
 407:../../dependencies/STM32CubeL0/Drivers/STM32L0xx_HAL_Driver/Inc/stm32l0xx_ll_bus.h ****   *         APB1ENR     USART5EN      LL_APB1_GRP1_EnableClock\n
 408:../../dependencies/STM32CubeL0/Drivers/STM32L0xx_HAL_Driver/Inc/stm32l0xx_ll_bus.h ****   *         APB1ENR     I2C1EN        LL_APB1_GRP1_EnableClock\n
 409:../../dependencies/STM32CubeL0/Drivers/STM32L0xx_HAL_Driver/Inc/stm32l0xx_ll_bus.h ****   *         APB1ENR     I2C2EN        LL_APB1_GRP1_EnableClock\n
 410:../../dependencies/STM32CubeL0/Drivers/STM32L0xx_HAL_Driver/Inc/stm32l0xx_ll_bus.h ****   *         APB1ENR     USBEN         LL_APB1_GRP1_EnableClock\n
 411:../../dependencies/STM32CubeL0/Drivers/STM32L0xx_HAL_Driver/Inc/stm32l0xx_ll_bus.h ****   *         APB1ENR     CRSEN         LL_APB1_GRP1_EnableClock\n
 412:../../dependencies/STM32CubeL0/Drivers/STM32L0xx_HAL_Driver/Inc/stm32l0xx_ll_bus.h ****   *         APB1ENR     PWREN         LL_APB1_GRP1_EnableClock\n
 413:../../dependencies/STM32CubeL0/Drivers/STM32L0xx_HAL_Driver/Inc/stm32l0xx_ll_bus.h ****   *         APB1ENR     DACEN         LL_APB1_GRP1_EnableClock\n
 414:../../dependencies/STM32CubeL0/Drivers/STM32L0xx_HAL_Driver/Inc/stm32l0xx_ll_bus.h ****   *         APB1ENR     I2C3EN        LL_APB1_GRP1_EnableClock\n
 415:../../dependencies/STM32CubeL0/Drivers/STM32L0xx_HAL_Driver/Inc/stm32l0xx_ll_bus.h ****   *         APB1ENR     LPTIM1EN      LL_APB1_GRP1_EnableClock
 416:../../dependencies/STM32CubeL0/Drivers/STM32L0xx_HAL_Driver/Inc/stm32l0xx_ll_bus.h ****   * @param  Periphs This parameter can be a combination of the following values:
 417:../../dependencies/STM32CubeL0/Drivers/STM32L0xx_HAL_Driver/Inc/stm32l0xx_ll_bus.h ****   *         @arg @ref LL_APB1_GRP1_PERIPH_TIM2
 418:../../dependencies/STM32CubeL0/Drivers/STM32L0xx_HAL_Driver/Inc/stm32l0xx_ll_bus.h ****   *         @arg @ref LL_APB1_GRP1_PERIPH_TIM3 (*)
 419:../../dependencies/STM32CubeL0/Drivers/STM32L0xx_HAL_Driver/Inc/stm32l0xx_ll_bus.h ****   *         @arg @ref LL_APB1_GRP1_PERIPH_TIM6 (*)
 420:../../dependencies/STM32CubeL0/Drivers/STM32L0xx_HAL_Driver/Inc/stm32l0xx_ll_bus.h ****   *         @arg @ref LL_APB1_GRP1_PERIPH_TIM7 (*)
 421:../../dependencies/STM32CubeL0/Drivers/STM32L0xx_HAL_Driver/Inc/stm32l0xx_ll_bus.h ****   *         @arg @ref LL_APB1_GRP1_PERIPH_LCD (*)
 422:../../dependencies/STM32CubeL0/Drivers/STM32L0xx_HAL_Driver/Inc/stm32l0xx_ll_bus.h ****   *         @arg @ref LL_APB1_GRP1_PERIPH_WWDG
 423:../../dependencies/STM32CubeL0/Drivers/STM32L0xx_HAL_Driver/Inc/stm32l0xx_ll_bus.h ****   *         @arg @ref LL_APB1_GRP1_PERIPH_SPI2 (*)
 424:../../dependencies/STM32CubeL0/Drivers/STM32L0xx_HAL_Driver/Inc/stm32l0xx_ll_bus.h ****   *         @arg @ref LL_APB1_GRP1_PERIPH_USART2
 425:../../dependencies/STM32CubeL0/Drivers/STM32L0xx_HAL_Driver/Inc/stm32l0xx_ll_bus.h ****   *         @arg @ref LL_APB1_GRP1_PERIPH_LPUART1
 426:../../dependencies/STM32CubeL0/Drivers/STM32L0xx_HAL_Driver/Inc/stm32l0xx_ll_bus.h ****   *         @arg @ref LL_APB1_GRP1_PERIPH_USART4 (*)
 427:../../dependencies/STM32CubeL0/Drivers/STM32L0xx_HAL_Driver/Inc/stm32l0xx_ll_bus.h ****   *         @arg @ref LL_APB1_GRP1_PERIPH_USART5 (*)
 428:../../dependencies/STM32CubeL0/Drivers/STM32L0xx_HAL_Driver/Inc/stm32l0xx_ll_bus.h ****   *         @arg @ref LL_APB1_GRP1_PERIPH_I2C1
 429:../../dependencies/STM32CubeL0/Drivers/STM32L0xx_HAL_Driver/Inc/stm32l0xx_ll_bus.h ****   *         @arg @ref LL_APB1_GRP1_PERIPH_I2C2 (*)
 430:../../dependencies/STM32CubeL0/Drivers/STM32L0xx_HAL_Driver/Inc/stm32l0xx_ll_bus.h ****   *         @arg @ref LL_APB1_GRP1_PERIPH_USB (*)
 431:../../dependencies/STM32CubeL0/Drivers/STM32L0xx_HAL_Driver/Inc/stm32l0xx_ll_bus.h ****   *         @arg @ref LL_APB1_GRP1_PERIPH_CRS (*)
 432:../../dependencies/STM32CubeL0/Drivers/STM32L0xx_HAL_Driver/Inc/stm32l0xx_ll_bus.h ****   *         @arg @ref LL_APB1_GRP1_PERIPH_PWR
 433:../../dependencies/STM32CubeL0/Drivers/STM32L0xx_HAL_Driver/Inc/stm32l0xx_ll_bus.h ****   *         @arg @ref LL_APB1_GRP1_PERIPH_DAC1 (*)
 434:../../dependencies/STM32CubeL0/Drivers/STM32L0xx_HAL_Driver/Inc/stm32l0xx_ll_bus.h ****   *         @arg @ref LL_APB1_GRP1_PERIPH_I2C3 (*)
 435:../../dependencies/STM32CubeL0/Drivers/STM32L0xx_HAL_Driver/Inc/stm32l0xx_ll_bus.h ****   *         @arg @ref LL_APB1_GRP1_PERIPH_LPTIM1
 436:../../dependencies/STM32CubeL0/Drivers/STM32L0xx_HAL_Driver/Inc/stm32l0xx_ll_bus.h ****   *
 437:../../dependencies/STM32CubeL0/Drivers/STM32L0xx_HAL_Driver/Inc/stm32l0xx_ll_bus.h ****   *         (*) value not defined in all devices.
 438:../../dependencies/STM32CubeL0/Drivers/STM32L0xx_HAL_Driver/Inc/stm32l0xx_ll_bus.h ****   * @retval None
 439:../../dependencies/STM32CubeL0/Drivers/STM32L0xx_HAL_Driver/Inc/stm32l0xx_ll_bus.h **** */
 440:../../dependencies/STM32CubeL0/Drivers/STM32L0xx_HAL_Driver/Inc/stm32l0xx_ll_bus.h **** __STATIC_INLINE void LL_APB1_GRP1_EnableClock(uint32_t Periphs)
 441:../../dependencies/STM32CubeL0/Drivers/STM32L0xx_HAL_Driver/Inc/stm32l0xx_ll_bus.h **** {
 442:../../dependencies/STM32CubeL0/Drivers/STM32L0xx_HAL_Driver/Inc/stm32l0xx_ll_bus.h ****   __IO uint32_t tmpreg;
 443:../../dependencies/STM32CubeL0/Drivers/STM32L0xx_HAL_Driver/Inc/stm32l0xx_ll_bus.h ****   SET_BIT(RCC->APB1ENR, Periphs);
 444:../../dependencies/STM32CubeL0/Drivers/STM32L0xx_HAL_Driver/Inc/stm32l0xx_ll_bus.h ****   /* Delay after an RCC peripheral clock enabling */
 445:../../dependencies/STM32CubeL0/Drivers/STM32L0xx_HAL_Driver/Inc/stm32l0xx_ll_bus.h ****   tmpreg = READ_BIT(RCC->APB1ENR, Periphs);
 446:../../dependencies/STM32CubeL0/Drivers/STM32L0xx_HAL_Driver/Inc/stm32l0xx_ll_bus.h ****   (void)tmpreg;
 447:../../dependencies/STM32CubeL0/Drivers/STM32L0xx_HAL_Driver/Inc/stm32l0xx_ll_bus.h **** }
 448:../../dependencies/STM32CubeL0/Drivers/STM32L0xx_HAL_Driver/Inc/stm32l0xx_ll_bus.h **** 
 449:../../dependencies/STM32CubeL0/Drivers/STM32L0xx_HAL_Driver/Inc/stm32l0xx_ll_bus.h **** /**
 450:../../dependencies/STM32CubeL0/Drivers/STM32L0xx_HAL_Driver/Inc/stm32l0xx_ll_bus.h ****   * @brief  Check if APB1 peripheral clock is enabled or not
 451:../../dependencies/STM32CubeL0/Drivers/STM32L0xx_HAL_Driver/Inc/stm32l0xx_ll_bus.h ****   * @rmtoll APB1ENR     TIM2EN        LL_APB1_GRP1_IsEnabledClock\n
 452:../../dependencies/STM32CubeL0/Drivers/STM32L0xx_HAL_Driver/Inc/stm32l0xx_ll_bus.h ****   *         APB1ENR     TIM3EN        LL_APB1_GRP1_IsEnabledClock\n
 453:../../dependencies/STM32CubeL0/Drivers/STM32L0xx_HAL_Driver/Inc/stm32l0xx_ll_bus.h ****   *         APB1ENR     TIM6EN        LL_APB1_GRP1_IsEnabledClock\n
 454:../../dependencies/STM32CubeL0/Drivers/STM32L0xx_HAL_Driver/Inc/stm32l0xx_ll_bus.h ****   *         APB1ENR     TIM7EN        LL_APB1_GRP1_IsEnabledClock\n
 455:../../dependencies/STM32CubeL0/Drivers/STM32L0xx_HAL_Driver/Inc/stm32l0xx_ll_bus.h ****   *         APB1ENR     LCDEN         LL_APB1_GRP1_IsEnabledClock\n
 456:../../dependencies/STM32CubeL0/Drivers/STM32L0xx_HAL_Driver/Inc/stm32l0xx_ll_bus.h ****   *         APB1ENR     WWDGEN        LL_APB1_GRP1_IsEnabledClock\n
 457:../../dependencies/STM32CubeL0/Drivers/STM32L0xx_HAL_Driver/Inc/stm32l0xx_ll_bus.h ****   *         APB1ENR     SPI2EN        LL_APB1_GRP1_IsEnabledClock\n
 458:../../dependencies/STM32CubeL0/Drivers/STM32L0xx_HAL_Driver/Inc/stm32l0xx_ll_bus.h ****   *         APB1ENR     USART2EN      LL_APB1_GRP1_IsEnabledClock\n
 459:../../dependencies/STM32CubeL0/Drivers/STM32L0xx_HAL_Driver/Inc/stm32l0xx_ll_bus.h ****   *         APB1ENR     LPUART1EN     LL_APB1_GRP1_IsEnabledClock\n
 460:../../dependencies/STM32CubeL0/Drivers/STM32L0xx_HAL_Driver/Inc/stm32l0xx_ll_bus.h ****   *         APB1ENR     USART4EN      LL_APB1_GRP1_IsEnabledClock\n
ARM GAS  /tmp/cc4HDSS2.s 			page 33


 461:../../dependencies/STM32CubeL0/Drivers/STM32L0xx_HAL_Driver/Inc/stm32l0xx_ll_bus.h ****   *         APB1ENR     USART5EN      LL_APB1_GRP1_IsEnabledClock\n
 462:../../dependencies/STM32CubeL0/Drivers/STM32L0xx_HAL_Driver/Inc/stm32l0xx_ll_bus.h ****   *         APB1ENR     I2C1EN        LL_APB1_GRP1_IsEnabledClock\n
 463:../../dependencies/STM32CubeL0/Drivers/STM32L0xx_HAL_Driver/Inc/stm32l0xx_ll_bus.h ****   *         APB1ENR     I2C2EN        LL_APB1_GRP1_IsEnabledClock\n
 464:../../dependencies/STM32CubeL0/Drivers/STM32L0xx_HAL_Driver/Inc/stm32l0xx_ll_bus.h ****   *         APB1ENR     USBEN         LL_APB1_GRP1_IsEnabledClock\n
 465:../../dependencies/STM32CubeL0/Drivers/STM32L0xx_HAL_Driver/Inc/stm32l0xx_ll_bus.h ****   *         APB1ENR     CRSEN         LL_APB1_GRP1_IsEnabledClock\n
 466:../../dependencies/STM32CubeL0/Drivers/STM32L0xx_HAL_Driver/Inc/stm32l0xx_ll_bus.h ****   *         APB1ENR     PWREN         LL_APB1_GRP1_IsEnabledClock\n
 467:../../dependencies/STM32CubeL0/Drivers/STM32L0xx_HAL_Driver/Inc/stm32l0xx_ll_bus.h ****   *         APB1ENR     DACEN         LL_APB1_GRP1_IsEnabledClock\n
 468:../../dependencies/STM32CubeL0/Drivers/STM32L0xx_HAL_Driver/Inc/stm32l0xx_ll_bus.h ****   *         APB1ENR     I2C3EN        LL_APB1_GRP1_IsEnabledClock\n
 469:../../dependencies/STM32CubeL0/Drivers/STM32L0xx_HAL_Driver/Inc/stm32l0xx_ll_bus.h ****   *         APB1ENR     LPTIM1EN      LL_APB1_GRP1_IsEnabledClock
 470:../../dependencies/STM32CubeL0/Drivers/STM32L0xx_HAL_Driver/Inc/stm32l0xx_ll_bus.h ****   * @param  Periphs This parameter can be a combination of the following values:
 471:../../dependencies/STM32CubeL0/Drivers/STM32L0xx_HAL_Driver/Inc/stm32l0xx_ll_bus.h ****   *         @arg @ref LL_APB1_GRP1_PERIPH_TIM2
 472:../../dependencies/STM32CubeL0/Drivers/STM32L0xx_HAL_Driver/Inc/stm32l0xx_ll_bus.h ****   *         @arg @ref LL_APB1_GRP1_PERIPH_TIM3 (*)
 473:../../dependencies/STM32CubeL0/Drivers/STM32L0xx_HAL_Driver/Inc/stm32l0xx_ll_bus.h ****   *         @arg @ref LL_APB1_GRP1_PERIPH_TIM6 (*)
 474:../../dependencies/STM32CubeL0/Drivers/STM32L0xx_HAL_Driver/Inc/stm32l0xx_ll_bus.h ****   *         @arg @ref LL_APB1_GRP1_PERIPH_TIM7 (*)
 475:../../dependencies/STM32CubeL0/Drivers/STM32L0xx_HAL_Driver/Inc/stm32l0xx_ll_bus.h ****   *         @arg @ref LL_APB1_GRP1_PERIPH_LCD (*)
 476:../../dependencies/STM32CubeL0/Drivers/STM32L0xx_HAL_Driver/Inc/stm32l0xx_ll_bus.h ****   *         @arg @ref LL_APB1_GRP1_PERIPH_WWDG
 477:../../dependencies/STM32CubeL0/Drivers/STM32L0xx_HAL_Driver/Inc/stm32l0xx_ll_bus.h ****   *         @arg @ref LL_APB1_GRP1_PERIPH_SPI2 (*)
 478:../../dependencies/STM32CubeL0/Drivers/STM32L0xx_HAL_Driver/Inc/stm32l0xx_ll_bus.h ****   *         @arg @ref LL_APB1_GRP1_PERIPH_USART2
 479:../../dependencies/STM32CubeL0/Drivers/STM32L0xx_HAL_Driver/Inc/stm32l0xx_ll_bus.h ****   *         @arg @ref LL_APB1_GRP1_PERIPH_LPUART1
 480:../../dependencies/STM32CubeL0/Drivers/STM32L0xx_HAL_Driver/Inc/stm32l0xx_ll_bus.h ****   *         @arg @ref LL_APB1_GRP1_PERIPH_USART4 (*)
 481:../../dependencies/STM32CubeL0/Drivers/STM32L0xx_HAL_Driver/Inc/stm32l0xx_ll_bus.h ****   *         @arg @ref LL_APB1_GRP1_PERIPH_USART5 (*)
 482:../../dependencies/STM32CubeL0/Drivers/STM32L0xx_HAL_Driver/Inc/stm32l0xx_ll_bus.h ****   *         @arg @ref LL_APB1_GRP1_PERIPH_I2C1
 483:../../dependencies/STM32CubeL0/Drivers/STM32L0xx_HAL_Driver/Inc/stm32l0xx_ll_bus.h ****   *         @arg @ref LL_APB1_GRP1_PERIPH_I2C2 (*)
 484:../../dependencies/STM32CubeL0/Drivers/STM32L0xx_HAL_Driver/Inc/stm32l0xx_ll_bus.h ****   *         @arg @ref LL_APB1_GRP1_PERIPH_USB (*)
 485:../../dependencies/STM32CubeL0/Drivers/STM32L0xx_HAL_Driver/Inc/stm32l0xx_ll_bus.h ****   *         @arg @ref LL_APB1_GRP1_PERIPH_CRS (*)
 486:../../dependencies/STM32CubeL0/Drivers/STM32L0xx_HAL_Driver/Inc/stm32l0xx_ll_bus.h ****   *         @arg @ref LL_APB1_GRP1_PERIPH_PWR
 487:../../dependencies/STM32CubeL0/Drivers/STM32L0xx_HAL_Driver/Inc/stm32l0xx_ll_bus.h ****   *         @arg @ref LL_APB1_GRP1_PERIPH_DAC1 (*)
 488:../../dependencies/STM32CubeL0/Drivers/STM32L0xx_HAL_Driver/Inc/stm32l0xx_ll_bus.h ****   *         @arg @ref LL_APB1_GRP1_PERIPH_I2C3 (*)
 489:../../dependencies/STM32CubeL0/Drivers/STM32L0xx_HAL_Driver/Inc/stm32l0xx_ll_bus.h ****   *         @arg @ref LL_APB1_GRP1_PERIPH_LPTIM1
 490:../../dependencies/STM32CubeL0/Drivers/STM32L0xx_HAL_Driver/Inc/stm32l0xx_ll_bus.h ****   *
 491:../../dependencies/STM32CubeL0/Drivers/STM32L0xx_HAL_Driver/Inc/stm32l0xx_ll_bus.h ****   *         (*) value not defined in all devices.
 492:../../dependencies/STM32CubeL0/Drivers/STM32L0xx_HAL_Driver/Inc/stm32l0xx_ll_bus.h ****   * @retval State of Periphs (1 or 0).
 493:../../dependencies/STM32CubeL0/Drivers/STM32L0xx_HAL_Driver/Inc/stm32l0xx_ll_bus.h **** */
 494:../../dependencies/STM32CubeL0/Drivers/STM32L0xx_HAL_Driver/Inc/stm32l0xx_ll_bus.h **** __STATIC_INLINE uint32_t LL_APB1_GRP1_IsEnabledClock(uint32_t Periphs)
 495:../../dependencies/STM32CubeL0/Drivers/STM32L0xx_HAL_Driver/Inc/stm32l0xx_ll_bus.h **** {
 496:../../dependencies/STM32CubeL0/Drivers/STM32L0xx_HAL_Driver/Inc/stm32l0xx_ll_bus.h ****   return ((READ_BIT(RCC->APB1ENR, Periphs) == (Periphs)) ? 1UL : 0UL);
 497:../../dependencies/STM32CubeL0/Drivers/STM32L0xx_HAL_Driver/Inc/stm32l0xx_ll_bus.h **** }
 498:../../dependencies/STM32CubeL0/Drivers/STM32L0xx_HAL_Driver/Inc/stm32l0xx_ll_bus.h **** 
 499:../../dependencies/STM32CubeL0/Drivers/STM32L0xx_HAL_Driver/Inc/stm32l0xx_ll_bus.h **** /**
 500:../../dependencies/STM32CubeL0/Drivers/STM32L0xx_HAL_Driver/Inc/stm32l0xx_ll_bus.h ****   * @brief  Disable APB1 peripherals clock.
 501:../../dependencies/STM32CubeL0/Drivers/STM32L0xx_HAL_Driver/Inc/stm32l0xx_ll_bus.h ****   * @rmtoll APB1ENR     TIM2EN        LL_APB1_GRP1_DisableClock\n
 502:../../dependencies/STM32CubeL0/Drivers/STM32L0xx_HAL_Driver/Inc/stm32l0xx_ll_bus.h ****   *         APB1ENR     TIM3EN        LL_APB1_GRP1_DisableClock\n
 503:../../dependencies/STM32CubeL0/Drivers/STM32L0xx_HAL_Driver/Inc/stm32l0xx_ll_bus.h ****   *         APB1ENR     TIM6EN        LL_APB1_GRP1_DisableClock\n
 504:../../dependencies/STM32CubeL0/Drivers/STM32L0xx_HAL_Driver/Inc/stm32l0xx_ll_bus.h ****   *         APB1ENR     TIM7EN        LL_APB1_GRP1_DisableClock\n
 505:../../dependencies/STM32CubeL0/Drivers/STM32L0xx_HAL_Driver/Inc/stm32l0xx_ll_bus.h ****   *         APB1ENR     LCDEN         LL_APB1_GRP1_DisableClock\n
 506:../../dependencies/STM32CubeL0/Drivers/STM32L0xx_HAL_Driver/Inc/stm32l0xx_ll_bus.h ****   *         APB1ENR     WWDGEN        LL_APB1_GRP1_DisableClock\n
 507:../../dependencies/STM32CubeL0/Drivers/STM32L0xx_HAL_Driver/Inc/stm32l0xx_ll_bus.h ****   *         APB1ENR     SPI2EN        LL_APB1_GRP1_DisableClock\n
 508:../../dependencies/STM32CubeL0/Drivers/STM32L0xx_HAL_Driver/Inc/stm32l0xx_ll_bus.h ****   *         APB1ENR     USART2EN      LL_APB1_GRP1_DisableClock\n
 509:../../dependencies/STM32CubeL0/Drivers/STM32L0xx_HAL_Driver/Inc/stm32l0xx_ll_bus.h ****   *         APB1ENR     LPUART1EN     LL_APB1_GRP1_DisableClock\n
 510:../../dependencies/STM32CubeL0/Drivers/STM32L0xx_HAL_Driver/Inc/stm32l0xx_ll_bus.h ****   *         APB1ENR     USART4EN      LL_APB1_GRP1_DisableClock\n
 511:../../dependencies/STM32CubeL0/Drivers/STM32L0xx_HAL_Driver/Inc/stm32l0xx_ll_bus.h ****   *         APB1ENR     USART5EN      LL_APB1_GRP1_DisableClock\n
 512:../../dependencies/STM32CubeL0/Drivers/STM32L0xx_HAL_Driver/Inc/stm32l0xx_ll_bus.h ****   *         APB1ENR     I2C1EN        LL_APB1_GRP1_DisableClock\n
 513:../../dependencies/STM32CubeL0/Drivers/STM32L0xx_HAL_Driver/Inc/stm32l0xx_ll_bus.h ****   *         APB1ENR     I2C2EN        LL_APB1_GRP1_DisableClock\n
 514:../../dependencies/STM32CubeL0/Drivers/STM32L0xx_HAL_Driver/Inc/stm32l0xx_ll_bus.h ****   *         APB1ENR     USBEN         LL_APB1_GRP1_DisableClock\n
 515:../../dependencies/STM32CubeL0/Drivers/STM32L0xx_HAL_Driver/Inc/stm32l0xx_ll_bus.h ****   *         APB1ENR     CRSEN         LL_APB1_GRP1_DisableClock\n
 516:../../dependencies/STM32CubeL0/Drivers/STM32L0xx_HAL_Driver/Inc/stm32l0xx_ll_bus.h ****   *         APB1ENR     PWREN         LL_APB1_GRP1_DisableClock\n
 517:../../dependencies/STM32CubeL0/Drivers/STM32L0xx_HAL_Driver/Inc/stm32l0xx_ll_bus.h ****   *         APB1ENR     DACEN         LL_APB1_GRP1_DisableClock\n
ARM GAS  /tmp/cc4HDSS2.s 			page 34


 518:../../dependencies/STM32CubeL0/Drivers/STM32L0xx_HAL_Driver/Inc/stm32l0xx_ll_bus.h ****   *         APB1ENR     I2C3EN        LL_APB1_GRP1_DisableClock\n
 519:../../dependencies/STM32CubeL0/Drivers/STM32L0xx_HAL_Driver/Inc/stm32l0xx_ll_bus.h ****   *         APB1ENR     LPTIM1EN      LL_APB1_GRP1_DisableClock
 520:../../dependencies/STM32CubeL0/Drivers/STM32L0xx_HAL_Driver/Inc/stm32l0xx_ll_bus.h ****   * @param  Periphs This parameter can be a combination of the following values:
 521:../../dependencies/STM32CubeL0/Drivers/STM32L0xx_HAL_Driver/Inc/stm32l0xx_ll_bus.h ****   *         @arg @ref LL_APB1_GRP1_PERIPH_TIM2
 522:../../dependencies/STM32CubeL0/Drivers/STM32L0xx_HAL_Driver/Inc/stm32l0xx_ll_bus.h ****   *         @arg @ref LL_APB1_GRP1_PERIPH_TIM3 (*)
 523:../../dependencies/STM32CubeL0/Drivers/STM32L0xx_HAL_Driver/Inc/stm32l0xx_ll_bus.h ****   *         @arg @ref LL_APB1_GRP1_PERIPH_TIM6 (*)
 524:../../dependencies/STM32CubeL0/Drivers/STM32L0xx_HAL_Driver/Inc/stm32l0xx_ll_bus.h ****   *         @arg @ref LL_APB1_GRP1_PERIPH_TIM7 (*)
 525:../../dependencies/STM32CubeL0/Drivers/STM32L0xx_HAL_Driver/Inc/stm32l0xx_ll_bus.h ****   *         @arg @ref LL_APB1_GRP1_PERIPH_LCD (*)
 526:../../dependencies/STM32CubeL0/Drivers/STM32L0xx_HAL_Driver/Inc/stm32l0xx_ll_bus.h ****   *         @arg @ref LL_APB1_GRP1_PERIPH_WWDG
 527:../../dependencies/STM32CubeL0/Drivers/STM32L0xx_HAL_Driver/Inc/stm32l0xx_ll_bus.h ****   *         @arg @ref LL_APB1_GRP1_PERIPH_SPI2 (*)
 528:../../dependencies/STM32CubeL0/Drivers/STM32L0xx_HAL_Driver/Inc/stm32l0xx_ll_bus.h ****   *         @arg @ref LL_APB1_GRP1_PERIPH_USART2
 529:../../dependencies/STM32CubeL0/Drivers/STM32L0xx_HAL_Driver/Inc/stm32l0xx_ll_bus.h ****   *         @arg @ref LL_APB1_GRP1_PERIPH_LPUART1
 530:../../dependencies/STM32CubeL0/Drivers/STM32L0xx_HAL_Driver/Inc/stm32l0xx_ll_bus.h ****   *         @arg @ref LL_APB1_GRP1_PERIPH_USART4 (*)
 531:../../dependencies/STM32CubeL0/Drivers/STM32L0xx_HAL_Driver/Inc/stm32l0xx_ll_bus.h ****   *         @arg @ref LL_APB1_GRP1_PERIPH_USART5 (*)
 532:../../dependencies/STM32CubeL0/Drivers/STM32L0xx_HAL_Driver/Inc/stm32l0xx_ll_bus.h ****   *         @arg @ref LL_APB1_GRP1_PERIPH_I2C1
 533:../../dependencies/STM32CubeL0/Drivers/STM32L0xx_HAL_Driver/Inc/stm32l0xx_ll_bus.h ****   *         @arg @ref LL_APB1_GRP1_PERIPH_I2C2 (*)
 534:../../dependencies/STM32CubeL0/Drivers/STM32L0xx_HAL_Driver/Inc/stm32l0xx_ll_bus.h ****   *         @arg @ref LL_APB1_GRP1_PERIPH_USB (*)
 535:../../dependencies/STM32CubeL0/Drivers/STM32L0xx_HAL_Driver/Inc/stm32l0xx_ll_bus.h ****   *         @arg @ref LL_APB1_GRP1_PERIPH_CRS (*)
 536:../../dependencies/STM32CubeL0/Drivers/STM32L0xx_HAL_Driver/Inc/stm32l0xx_ll_bus.h ****   *         @arg @ref LL_APB1_GRP1_PERIPH_PWR
 537:../../dependencies/STM32CubeL0/Drivers/STM32L0xx_HAL_Driver/Inc/stm32l0xx_ll_bus.h ****   *         @arg @ref LL_APB1_GRP1_PERIPH_DAC1 (*)
 538:../../dependencies/STM32CubeL0/Drivers/STM32L0xx_HAL_Driver/Inc/stm32l0xx_ll_bus.h ****   *         @arg @ref LL_APB1_GRP1_PERIPH_I2C3 (*)
 539:../../dependencies/STM32CubeL0/Drivers/STM32L0xx_HAL_Driver/Inc/stm32l0xx_ll_bus.h ****   *         @arg @ref LL_APB1_GRP1_PERIPH_LPTIM1
 540:../../dependencies/STM32CubeL0/Drivers/STM32L0xx_HAL_Driver/Inc/stm32l0xx_ll_bus.h ****   *
 541:../../dependencies/STM32CubeL0/Drivers/STM32L0xx_HAL_Driver/Inc/stm32l0xx_ll_bus.h ****   *         (*) value not defined in all devices.
 542:../../dependencies/STM32CubeL0/Drivers/STM32L0xx_HAL_Driver/Inc/stm32l0xx_ll_bus.h ****   * @retval None
 543:../../dependencies/STM32CubeL0/Drivers/STM32L0xx_HAL_Driver/Inc/stm32l0xx_ll_bus.h **** */
 544:../../dependencies/STM32CubeL0/Drivers/STM32L0xx_HAL_Driver/Inc/stm32l0xx_ll_bus.h **** __STATIC_INLINE void LL_APB1_GRP1_DisableClock(uint32_t Periphs)
 545:../../dependencies/STM32CubeL0/Drivers/STM32L0xx_HAL_Driver/Inc/stm32l0xx_ll_bus.h **** {
 546:../../dependencies/STM32CubeL0/Drivers/STM32L0xx_HAL_Driver/Inc/stm32l0xx_ll_bus.h ****   CLEAR_BIT(RCC->APB1ENR, Periphs);
 547:../../dependencies/STM32CubeL0/Drivers/STM32L0xx_HAL_Driver/Inc/stm32l0xx_ll_bus.h **** }
 548:../../dependencies/STM32CubeL0/Drivers/STM32L0xx_HAL_Driver/Inc/stm32l0xx_ll_bus.h **** 
 549:../../dependencies/STM32CubeL0/Drivers/STM32L0xx_HAL_Driver/Inc/stm32l0xx_ll_bus.h **** /**
 550:../../dependencies/STM32CubeL0/Drivers/STM32L0xx_HAL_Driver/Inc/stm32l0xx_ll_bus.h ****   * @brief  Force APB1 peripherals reset.
 551:../../dependencies/STM32CubeL0/Drivers/STM32L0xx_HAL_Driver/Inc/stm32l0xx_ll_bus.h ****   * @rmtoll APB1RSTR     TIM2RST        LL_APB1_GRP1_ForceReset\n
 552:../../dependencies/STM32CubeL0/Drivers/STM32L0xx_HAL_Driver/Inc/stm32l0xx_ll_bus.h ****   *         APB1RSTR     TIM3RST        LL_APB1_GRP1_ForceReset\n
 553:../../dependencies/STM32CubeL0/Drivers/STM32L0xx_HAL_Driver/Inc/stm32l0xx_ll_bus.h ****   *         APB1RSTR     TIM6RST        LL_APB1_GRP1_ForceReset\n
 554:../../dependencies/STM32CubeL0/Drivers/STM32L0xx_HAL_Driver/Inc/stm32l0xx_ll_bus.h ****   *         APB1RSTR     TIM7RST        LL_APB1_GRP1_ForceReset\n
 555:../../dependencies/STM32CubeL0/Drivers/STM32L0xx_HAL_Driver/Inc/stm32l0xx_ll_bus.h ****   *         APB1RSTR     LCDRST         LL_APB1_GRP1_ForceReset\n
 556:../../dependencies/STM32CubeL0/Drivers/STM32L0xx_HAL_Driver/Inc/stm32l0xx_ll_bus.h ****   *         APB1RSTR     WWDGRST        LL_APB1_GRP1_ForceReset\n
 557:../../dependencies/STM32CubeL0/Drivers/STM32L0xx_HAL_Driver/Inc/stm32l0xx_ll_bus.h ****   *         APB1RSTR     SPI2RST        LL_APB1_GRP1_ForceReset\n
 558:../../dependencies/STM32CubeL0/Drivers/STM32L0xx_HAL_Driver/Inc/stm32l0xx_ll_bus.h ****   *         APB1RSTR     USART2RST      LL_APB1_GRP1_ForceReset\n
 559:../../dependencies/STM32CubeL0/Drivers/STM32L0xx_HAL_Driver/Inc/stm32l0xx_ll_bus.h ****   *         APB1RSTR     LPUART1RST     LL_APB1_GRP1_ForceReset\n
 560:../../dependencies/STM32CubeL0/Drivers/STM32L0xx_HAL_Driver/Inc/stm32l0xx_ll_bus.h ****   *         APB1RSTR     USART4RST      LL_APB1_GRP1_ForceReset\n
 561:../../dependencies/STM32CubeL0/Drivers/STM32L0xx_HAL_Driver/Inc/stm32l0xx_ll_bus.h ****   *         APB1RSTR     USART5RST      LL_APB1_GRP1_ForceReset\n
 562:../../dependencies/STM32CubeL0/Drivers/STM32L0xx_HAL_Driver/Inc/stm32l0xx_ll_bus.h ****   *         APB1RSTR     I2C1RST        LL_APB1_GRP1_ForceReset\n
 563:../../dependencies/STM32CubeL0/Drivers/STM32L0xx_HAL_Driver/Inc/stm32l0xx_ll_bus.h ****   *         APB1RSTR     I2C2RST        LL_APB1_GRP1_ForceReset\n
 564:../../dependencies/STM32CubeL0/Drivers/STM32L0xx_HAL_Driver/Inc/stm32l0xx_ll_bus.h ****   *         APB1RSTR     USBRST         LL_APB1_GRP1_ForceReset\n
 565:../../dependencies/STM32CubeL0/Drivers/STM32L0xx_HAL_Driver/Inc/stm32l0xx_ll_bus.h ****   *         APB1RSTR     CRSRST         LL_APB1_GRP1_ForceReset\n
 566:../../dependencies/STM32CubeL0/Drivers/STM32L0xx_HAL_Driver/Inc/stm32l0xx_ll_bus.h ****   *         APB1RSTR     PWRRST         LL_APB1_GRP1_ForceReset\n
 567:../../dependencies/STM32CubeL0/Drivers/STM32L0xx_HAL_Driver/Inc/stm32l0xx_ll_bus.h ****   *         APB1RSTR     DACRST         LL_APB1_GRP1_ForceReset\n
 568:../../dependencies/STM32CubeL0/Drivers/STM32L0xx_HAL_Driver/Inc/stm32l0xx_ll_bus.h ****   *         APB1RSTR     I2C3RST        LL_APB1_GRP1_ForceReset\n
 569:../../dependencies/STM32CubeL0/Drivers/STM32L0xx_HAL_Driver/Inc/stm32l0xx_ll_bus.h ****   *         APB1RSTR     LPTIM1RST      LL_APB1_GRP1_ForceReset
 570:../../dependencies/STM32CubeL0/Drivers/STM32L0xx_HAL_Driver/Inc/stm32l0xx_ll_bus.h ****   * @param  Periphs This parameter can be a combination of the following values:
 571:../../dependencies/STM32CubeL0/Drivers/STM32L0xx_HAL_Driver/Inc/stm32l0xx_ll_bus.h ****   *         @arg @ref LL_APB1_GRP1_PERIPH_ALL
 572:../../dependencies/STM32CubeL0/Drivers/STM32L0xx_HAL_Driver/Inc/stm32l0xx_ll_bus.h ****   *         @arg @ref LL_APB1_GRP1_PERIPH_TIM2
 573:../../dependencies/STM32CubeL0/Drivers/STM32L0xx_HAL_Driver/Inc/stm32l0xx_ll_bus.h ****   *         @arg @ref LL_APB1_GRP1_PERIPH_TIM3 (*)
 574:../../dependencies/STM32CubeL0/Drivers/STM32L0xx_HAL_Driver/Inc/stm32l0xx_ll_bus.h ****   *         @arg @ref LL_APB1_GRP1_PERIPH_TIM6 (*)
ARM GAS  /tmp/cc4HDSS2.s 			page 35


 575:../../dependencies/STM32CubeL0/Drivers/STM32L0xx_HAL_Driver/Inc/stm32l0xx_ll_bus.h ****   *         @arg @ref LL_APB1_GRP1_PERIPH_TIM7 (*)
 576:../../dependencies/STM32CubeL0/Drivers/STM32L0xx_HAL_Driver/Inc/stm32l0xx_ll_bus.h ****   *         @arg @ref LL_APB1_GRP1_PERIPH_LCD (*)
 577:../../dependencies/STM32CubeL0/Drivers/STM32L0xx_HAL_Driver/Inc/stm32l0xx_ll_bus.h ****   *         @arg @ref LL_APB1_GRP1_PERIPH_WWDG
 578:../../dependencies/STM32CubeL0/Drivers/STM32L0xx_HAL_Driver/Inc/stm32l0xx_ll_bus.h ****   *         @arg @ref LL_APB1_GRP1_PERIPH_SPI2 (*)
 579:../../dependencies/STM32CubeL0/Drivers/STM32L0xx_HAL_Driver/Inc/stm32l0xx_ll_bus.h ****   *         @arg @ref LL_APB1_GRP1_PERIPH_USART2
 580:../../dependencies/STM32CubeL0/Drivers/STM32L0xx_HAL_Driver/Inc/stm32l0xx_ll_bus.h ****   *         @arg @ref LL_APB1_GRP1_PERIPH_LPUART1
 581:../../dependencies/STM32CubeL0/Drivers/STM32L0xx_HAL_Driver/Inc/stm32l0xx_ll_bus.h ****   *         @arg @ref LL_APB1_GRP1_PERIPH_USART4 (*)
 582:../../dependencies/STM32CubeL0/Drivers/STM32L0xx_HAL_Driver/Inc/stm32l0xx_ll_bus.h ****   *         @arg @ref LL_APB1_GRP1_PERIPH_USART5 (*)
 583:../../dependencies/STM32CubeL0/Drivers/STM32L0xx_HAL_Driver/Inc/stm32l0xx_ll_bus.h ****   *         @arg @ref LL_APB1_GRP1_PERIPH_I2C1
 584:../../dependencies/STM32CubeL0/Drivers/STM32L0xx_HAL_Driver/Inc/stm32l0xx_ll_bus.h ****   *         @arg @ref LL_APB1_GRP1_PERIPH_I2C2 (*)
 585:../../dependencies/STM32CubeL0/Drivers/STM32L0xx_HAL_Driver/Inc/stm32l0xx_ll_bus.h ****   *         @arg @ref LL_APB1_GRP1_PERIPH_USB (*)
 586:../../dependencies/STM32CubeL0/Drivers/STM32L0xx_HAL_Driver/Inc/stm32l0xx_ll_bus.h ****   *         @arg @ref LL_APB1_GRP1_PERIPH_CRS (*)
 587:../../dependencies/STM32CubeL0/Drivers/STM32L0xx_HAL_Driver/Inc/stm32l0xx_ll_bus.h ****   *         @arg @ref LL_APB1_GRP1_PERIPH_PWR
 588:../../dependencies/STM32CubeL0/Drivers/STM32L0xx_HAL_Driver/Inc/stm32l0xx_ll_bus.h ****   *         @arg @ref LL_APB1_GRP1_PERIPH_DAC1 (*)
 589:../../dependencies/STM32CubeL0/Drivers/STM32L0xx_HAL_Driver/Inc/stm32l0xx_ll_bus.h ****   *         @arg @ref LL_APB1_GRP1_PERIPH_I2C3 (*)
 590:../../dependencies/STM32CubeL0/Drivers/STM32L0xx_HAL_Driver/Inc/stm32l0xx_ll_bus.h ****   *         @arg @ref LL_APB1_GRP1_PERIPH_LPTIM1
 591:../../dependencies/STM32CubeL0/Drivers/STM32L0xx_HAL_Driver/Inc/stm32l0xx_ll_bus.h ****   *
 592:../../dependencies/STM32CubeL0/Drivers/STM32L0xx_HAL_Driver/Inc/stm32l0xx_ll_bus.h ****   *         (*) value not defined in all devices.
 593:../../dependencies/STM32CubeL0/Drivers/STM32L0xx_HAL_Driver/Inc/stm32l0xx_ll_bus.h ****   * @retval None
 594:../../dependencies/STM32CubeL0/Drivers/STM32L0xx_HAL_Driver/Inc/stm32l0xx_ll_bus.h **** */
 595:../../dependencies/STM32CubeL0/Drivers/STM32L0xx_HAL_Driver/Inc/stm32l0xx_ll_bus.h **** __STATIC_INLINE void LL_APB1_GRP1_ForceReset(uint32_t Periphs)
 596:../../dependencies/STM32CubeL0/Drivers/STM32L0xx_HAL_Driver/Inc/stm32l0xx_ll_bus.h **** {
 243              		.loc 2 596 1
 244              		.cfi_startproc
 245              		@ args = 0, pretend = 0, frame = 8
 246              		@ frame_needed = 1, uses_anonymous_args = 0
 247 0000 80B5     		push	{r7, lr}
 248              		.cfi_def_cfa_offset 8
 249              		.cfi_offset 7, -8
 250              		.cfi_offset 14, -4
 251 0002 82B0     		sub	sp, sp, #8
 252              		.cfi_def_cfa_offset 16
 253 0004 00AF     		add	r7, sp, #0
 254              		.cfi_def_cfa_register 7
 255 0006 7860     		str	r0, [r7, #4]
 597:../../dependencies/STM32CubeL0/Drivers/STM32L0xx_HAL_Driver/Inc/stm32l0xx_ll_bus.h ****   SET_BIT(RCC->APB1RSTR, Periphs);
 256              		.loc 2 597 3
 257 0008 044B     		ldr	r3, .L15
 258 000a 996A     		ldr	r1, [r3, #40]
 259 000c 034B     		ldr	r3, .L15
 260 000e 7A68     		ldr	r2, [r7, #4]
 261 0010 0A43     		orrs	r2, r1
 262 0012 9A62     		str	r2, [r3, #40]
 598:../../dependencies/STM32CubeL0/Drivers/STM32L0xx_HAL_Driver/Inc/stm32l0xx_ll_bus.h **** }
 263              		.loc 2 598 1
 264 0014 C046     		nop
 265 0016 BD46     		mov	sp, r7
 266 0018 02B0     		add	sp, sp, #8
 267              		@ sp needed
 268 001a 80BD     		pop	{r7, pc}
 269              	.L16:
 270              		.align	2
 271              	.L15:
 272 001c 00100240 		.word	1073876992
 273              		.cfi_endproc
 274              	.LFE325:
 276              		.section	.text.LL_APB1_GRP1_ReleaseReset,"ax",%progbits
ARM GAS  /tmp/cc4HDSS2.s 			page 36


 277              		.align	1
 278              		.syntax unified
 279              		.code	16
 280              		.thumb_func
 281              		.fpu softvfp
 283              	LL_APB1_GRP1_ReleaseReset:
 284              	.LFB326:
 599:../../dependencies/STM32CubeL0/Drivers/STM32L0xx_HAL_Driver/Inc/stm32l0xx_ll_bus.h **** 
 600:../../dependencies/STM32CubeL0/Drivers/STM32L0xx_HAL_Driver/Inc/stm32l0xx_ll_bus.h **** /**
 601:../../dependencies/STM32CubeL0/Drivers/STM32L0xx_HAL_Driver/Inc/stm32l0xx_ll_bus.h ****   * @brief  Release APB1 peripherals reset.
 602:../../dependencies/STM32CubeL0/Drivers/STM32L0xx_HAL_Driver/Inc/stm32l0xx_ll_bus.h ****   * @rmtoll APB1RSTR     TIM2RST        LL_APB1_GRP1_ReleaseReset\n
 603:../../dependencies/STM32CubeL0/Drivers/STM32L0xx_HAL_Driver/Inc/stm32l0xx_ll_bus.h ****   *         APB1RSTR     TIM3RST        LL_APB1_GRP1_ReleaseReset\n
 604:../../dependencies/STM32CubeL0/Drivers/STM32L0xx_HAL_Driver/Inc/stm32l0xx_ll_bus.h ****   *         APB1RSTR     TIM6RST        LL_APB1_GRP1_ReleaseReset\n
 605:../../dependencies/STM32CubeL0/Drivers/STM32L0xx_HAL_Driver/Inc/stm32l0xx_ll_bus.h ****   *         APB1RSTR     TIM7RST        LL_APB1_GRP1_ReleaseReset\n
 606:../../dependencies/STM32CubeL0/Drivers/STM32L0xx_HAL_Driver/Inc/stm32l0xx_ll_bus.h ****   *         APB1RSTR     LCDRST         LL_APB1_GRP1_ReleaseReset\n
 607:../../dependencies/STM32CubeL0/Drivers/STM32L0xx_HAL_Driver/Inc/stm32l0xx_ll_bus.h ****   *         APB1RSTR     WWDGRST        LL_APB1_GRP1_ReleaseReset\n
 608:../../dependencies/STM32CubeL0/Drivers/STM32L0xx_HAL_Driver/Inc/stm32l0xx_ll_bus.h ****   *         APB1RSTR     SPI2RST        LL_APB1_GRP1_ReleaseReset\n
 609:../../dependencies/STM32CubeL0/Drivers/STM32L0xx_HAL_Driver/Inc/stm32l0xx_ll_bus.h ****   *         APB1RSTR     USART2RST      LL_APB1_GRP1_ReleaseReset\n
 610:../../dependencies/STM32CubeL0/Drivers/STM32L0xx_HAL_Driver/Inc/stm32l0xx_ll_bus.h ****   *         APB1RSTR     LPUART1RST     LL_APB1_GRP1_ReleaseReset\n
 611:../../dependencies/STM32CubeL0/Drivers/STM32L0xx_HAL_Driver/Inc/stm32l0xx_ll_bus.h ****   *         APB1RSTR     USART4RST      LL_APB1_GRP1_ReleaseReset\n
 612:../../dependencies/STM32CubeL0/Drivers/STM32L0xx_HAL_Driver/Inc/stm32l0xx_ll_bus.h ****   *         APB1RSTR     USART5RST      LL_APB1_GRP1_ReleaseReset\n
 613:../../dependencies/STM32CubeL0/Drivers/STM32L0xx_HAL_Driver/Inc/stm32l0xx_ll_bus.h ****   *         APB1RSTR     I2C1RST        LL_APB1_GRP1_ReleaseReset\n
 614:../../dependencies/STM32CubeL0/Drivers/STM32L0xx_HAL_Driver/Inc/stm32l0xx_ll_bus.h ****   *         APB1RSTR     I2C2RST        LL_APB1_GRP1_ReleaseReset\n
 615:../../dependencies/STM32CubeL0/Drivers/STM32L0xx_HAL_Driver/Inc/stm32l0xx_ll_bus.h ****   *         APB1RSTR     USBRST         LL_APB1_GRP1_ReleaseReset\n
 616:../../dependencies/STM32CubeL0/Drivers/STM32L0xx_HAL_Driver/Inc/stm32l0xx_ll_bus.h ****   *         APB1RSTR     CRSRST         LL_APB1_GRP1_ReleaseReset\n
 617:../../dependencies/STM32CubeL0/Drivers/STM32L0xx_HAL_Driver/Inc/stm32l0xx_ll_bus.h ****   *         APB1RSTR     PWRRST         LL_APB1_GRP1_ReleaseReset\n
 618:../../dependencies/STM32CubeL0/Drivers/STM32L0xx_HAL_Driver/Inc/stm32l0xx_ll_bus.h ****   *         APB1RSTR     DACRST         LL_APB1_GRP1_ReleaseReset\n
 619:../../dependencies/STM32CubeL0/Drivers/STM32L0xx_HAL_Driver/Inc/stm32l0xx_ll_bus.h ****   *         APB1RSTR     I2C3RST        LL_APB1_GRP1_ReleaseReset\n
 620:../../dependencies/STM32CubeL0/Drivers/STM32L0xx_HAL_Driver/Inc/stm32l0xx_ll_bus.h ****   *         APB1RSTR     LPTIM1RST      LL_APB1_GRP1_ReleaseReset
 621:../../dependencies/STM32CubeL0/Drivers/STM32L0xx_HAL_Driver/Inc/stm32l0xx_ll_bus.h ****   * @param  Periphs This parameter can be a combination of the following values:
 622:../../dependencies/STM32CubeL0/Drivers/STM32L0xx_HAL_Driver/Inc/stm32l0xx_ll_bus.h ****   *         @arg @ref LL_APB1_GRP1_PERIPH_ALL
 623:../../dependencies/STM32CubeL0/Drivers/STM32L0xx_HAL_Driver/Inc/stm32l0xx_ll_bus.h ****   *         @arg @ref LL_APB1_GRP1_PERIPH_TIM2
 624:../../dependencies/STM32CubeL0/Drivers/STM32L0xx_HAL_Driver/Inc/stm32l0xx_ll_bus.h ****   *         @arg @ref LL_APB1_GRP1_PERIPH_TIM3 (*)
 625:../../dependencies/STM32CubeL0/Drivers/STM32L0xx_HAL_Driver/Inc/stm32l0xx_ll_bus.h ****   *         @arg @ref LL_APB1_GRP1_PERIPH_TIM6 (*)
 626:../../dependencies/STM32CubeL0/Drivers/STM32L0xx_HAL_Driver/Inc/stm32l0xx_ll_bus.h ****   *         @arg @ref LL_APB1_GRP1_PERIPH_TIM7 (*)
 627:../../dependencies/STM32CubeL0/Drivers/STM32L0xx_HAL_Driver/Inc/stm32l0xx_ll_bus.h ****   *         @arg @ref LL_APB1_GRP1_PERIPH_LCD (*)
 628:../../dependencies/STM32CubeL0/Drivers/STM32L0xx_HAL_Driver/Inc/stm32l0xx_ll_bus.h ****   *         @arg @ref LL_APB1_GRP1_PERIPH_WWDG
 629:../../dependencies/STM32CubeL0/Drivers/STM32L0xx_HAL_Driver/Inc/stm32l0xx_ll_bus.h ****   *         @arg @ref LL_APB1_GRP1_PERIPH_SPI2 (*)
 630:../../dependencies/STM32CubeL0/Drivers/STM32L0xx_HAL_Driver/Inc/stm32l0xx_ll_bus.h ****   *         @arg @ref LL_APB1_GRP1_PERIPH_USART2
 631:../../dependencies/STM32CubeL0/Drivers/STM32L0xx_HAL_Driver/Inc/stm32l0xx_ll_bus.h ****   *         @arg @ref LL_APB1_GRP1_PERIPH_LPUART1
