ARM GAS  /var/folders/fs/dxwfnrqj18z860lwl3d6f5t00000gn/T//ccXcLPlJ.s 			page 1


   1              		.cpu cortex-m0plus
   2              		.eabi_attribute 20, 1
   3              		.eabi_attribute 21, 1
   4              		.eabi_attribute 23, 3
   5              		.eabi_attribute 24, 1
   6              		.eabi_attribute 25, 1
   7              		.eabi_attribute 26, 1
   8              		.eabi_attribute 30, 6
   9              		.eabi_attribute 34, 0
  10              		.eabi_attribute 18, 4
  11              		.file	"i2c.c"
  12              		.text
  13              	.Ltext0:
  14              		.cfi_sections	.debug_frame
  15              		.section	.rodata.CHANNEL_OFFSET_TAB,"a"
  16              		.align	2
  19              	CHANNEL_OFFSET_TAB:
  20 0000 081C3044 		.ascii	"\010\0340DXl\200"
  20      586C80
  21              		.section	.text.LL_I2C_EnableClockStretching,"ax",%progbits
  22              		.align	1
  23              		.arch armv6s-m
  24              		.syntax unified
  25              		.code	16
  26              		.thumb_func
  27              		.fpu softvfp
  29              	LL_I2C_EnableClockStretching:
  30              	.LFB352:
  31              		.file 1 "../../dependencies/STM32CubeL0/Drivers/STM32L0xx_HAL_Driver/Inc/stm32l0xx_ll_i2c.h"
   1:../../dependencies/STM32CubeL0/Drivers/STM32L0xx_HAL_Driver/Inc/stm32l0xx_ll_i2c.h **** /**
   2:../../dependencies/STM32CubeL0/Drivers/STM32L0xx_HAL_Driver/Inc/stm32l0xx_ll_i2c.h ****   ******************************************************************************
   3:../../dependencies/STM32CubeL0/Drivers/STM32L0xx_HAL_Driver/Inc/stm32l0xx_ll_i2c.h ****   * @file    stm32l0xx_ll_i2c.h
   4:../../dependencies/STM32CubeL0/Drivers/STM32L0xx_HAL_Driver/Inc/stm32l0xx_ll_i2c.h ****   * @author  MCD Application Team
   5:../../dependencies/STM32CubeL0/Drivers/STM32L0xx_HAL_Driver/Inc/stm32l0xx_ll_i2c.h ****   * @brief   Header file of I2C LL module.
   6:../../dependencies/STM32CubeL0/Drivers/STM32L0xx_HAL_Driver/Inc/stm32l0xx_ll_i2c.h ****   ******************************************************************************
   7:../../dependencies/STM32CubeL0/Drivers/STM32L0xx_HAL_Driver/Inc/stm32l0xx_ll_i2c.h ****   * @attention
   8:../../dependencies/STM32CubeL0/Drivers/STM32L0xx_HAL_Driver/Inc/stm32l0xx_ll_i2c.h ****   *
   9:../../dependencies/STM32CubeL0/Drivers/STM32L0xx_HAL_Driver/Inc/stm32l0xx_ll_i2c.h ****   * <h2><center>&copy; Copyright (c) 2016 STMicroelectronics.
  10:../../dependencies/STM32CubeL0/Drivers/STM32L0xx_HAL_Driver/Inc/stm32l0xx_ll_i2c.h ****   * All rights reserved.</center></h2>
  11:../../dependencies/STM32CubeL0/Drivers/STM32L0xx_HAL_Driver/Inc/stm32l0xx_ll_i2c.h ****   *
  12:../../dependencies/STM32CubeL0/Drivers/STM32L0xx_HAL_Driver/Inc/stm32l0xx_ll_i2c.h ****   * This software component is licensed by ST under BSD 3-Clause license,
  13:../../dependencies/STM32CubeL0/Drivers/STM32L0xx_HAL_Driver/Inc/stm32l0xx_ll_i2c.h ****   * the "License"; You may not use this file except in compliance with the
  14:../../dependencies/STM32CubeL0/Drivers/STM32L0xx_HAL_Driver/Inc/stm32l0xx_ll_i2c.h ****   * License. You may obtain a copy of the License at:
  15:../../dependencies/STM32CubeL0/Drivers/STM32L0xx_HAL_Driver/Inc/stm32l0xx_ll_i2c.h ****   *                        opensource.org/licenses/BSD-3-Clause
  16:../../dependencies/STM32CubeL0/Drivers/STM32L0xx_HAL_Driver/Inc/stm32l0xx_ll_i2c.h ****   *
  17:../../dependencies/STM32CubeL0/Drivers/STM32L0xx_HAL_Driver/Inc/stm32l0xx_ll_i2c.h ****   ******************************************************************************
  18:../../dependencies/STM32CubeL0/Drivers/STM32L0xx_HAL_Driver/Inc/stm32l0xx_ll_i2c.h ****   */
  19:../../dependencies/STM32CubeL0/Drivers/STM32L0xx_HAL_Driver/Inc/stm32l0xx_ll_i2c.h **** 
  20:../../dependencies/STM32CubeL0/Drivers/STM32L0xx_HAL_Driver/Inc/stm32l0xx_ll_i2c.h **** /* Define to prevent recursive inclusion -------------------------------------*/
  21:../../dependencies/STM32CubeL0/Drivers/STM32L0xx_HAL_Driver/Inc/stm32l0xx_ll_i2c.h **** #ifndef STM32L0xx_LL_I2C_H
  22:../../dependencies/STM32CubeL0/Drivers/STM32L0xx_HAL_Driver/Inc/stm32l0xx_ll_i2c.h **** #define STM32L0xx_LL_I2C_H
  23:../../dependencies/STM32CubeL0/Drivers/STM32L0xx_HAL_Driver/Inc/stm32l0xx_ll_i2c.h **** 
  24:../../dependencies/STM32CubeL0/Drivers/STM32L0xx_HAL_Driver/Inc/stm32l0xx_ll_i2c.h **** #ifdef __cplusplus
  25:../../dependencies/STM32CubeL0/Drivers/STM32L0xx_HAL_Driver/Inc/stm32l0xx_ll_i2c.h **** extern "C" {
  26:../../dependencies/STM32CubeL0/Drivers/STM32L0xx_HAL_Driver/Inc/stm32l0xx_ll_i2c.h **** #endif
  27:../../dependencies/STM32CubeL0/Drivers/STM32L0xx_HAL_Driver/Inc/stm32l0xx_ll_i2c.h **** 
  28:../../dependencies/STM32CubeL0/Drivers/STM32L0xx_HAL_Driver/Inc/stm32l0xx_ll_i2c.h **** /* Includes ------------------------------------------------------------------*/
ARM GAS  /var/folders/fs/dxwfnrqj18z860lwl3d6f5t00000gn/T//ccXcLPlJ.s 			page 2


  29:../../dependencies/STM32CubeL0/Drivers/STM32L0xx_HAL_Driver/Inc/stm32l0xx_ll_i2c.h **** #include "stm32l0xx.h"
  30:../../dependencies/STM32CubeL0/Drivers/STM32L0xx_HAL_Driver/Inc/stm32l0xx_ll_i2c.h **** 
  31:../../dependencies/STM32CubeL0/Drivers/STM32L0xx_HAL_Driver/Inc/stm32l0xx_ll_i2c.h **** /** @addtogroup STM32L0xx_LL_Driver
  32:../../dependencies/STM32CubeL0/Drivers/STM32L0xx_HAL_Driver/Inc/stm32l0xx_ll_i2c.h ****   * @{
  33:../../dependencies/STM32CubeL0/Drivers/STM32L0xx_HAL_Driver/Inc/stm32l0xx_ll_i2c.h ****   */
  34:../../dependencies/STM32CubeL0/Drivers/STM32L0xx_HAL_Driver/Inc/stm32l0xx_ll_i2c.h **** 
  35:../../dependencies/STM32CubeL0/Drivers/STM32L0xx_HAL_Driver/Inc/stm32l0xx_ll_i2c.h **** #if defined (I2C1) || defined (I2C2) || defined (I2C3)
  36:../../dependencies/STM32CubeL0/Drivers/STM32L0xx_HAL_Driver/Inc/stm32l0xx_ll_i2c.h **** 
  37:../../dependencies/STM32CubeL0/Drivers/STM32L0xx_HAL_Driver/Inc/stm32l0xx_ll_i2c.h **** /** @defgroup I2C_LL I2C
  38:../../dependencies/STM32CubeL0/Drivers/STM32L0xx_HAL_Driver/Inc/stm32l0xx_ll_i2c.h ****   * @{
  39:../../dependencies/STM32CubeL0/Drivers/STM32L0xx_HAL_Driver/Inc/stm32l0xx_ll_i2c.h ****   */
  40:../../dependencies/STM32CubeL0/Drivers/STM32L0xx_HAL_Driver/Inc/stm32l0xx_ll_i2c.h **** 
  41:../../dependencies/STM32CubeL0/Drivers/STM32L0xx_HAL_Driver/Inc/stm32l0xx_ll_i2c.h **** /* Private types -------------------------------------------------------------*/
  42:../../dependencies/STM32CubeL0/Drivers/STM32L0xx_HAL_Driver/Inc/stm32l0xx_ll_i2c.h **** /* Private variables ---------------------------------------------------------*/
  43:../../dependencies/STM32CubeL0/Drivers/STM32L0xx_HAL_Driver/Inc/stm32l0xx_ll_i2c.h **** 
  44:../../dependencies/STM32CubeL0/Drivers/STM32L0xx_HAL_Driver/Inc/stm32l0xx_ll_i2c.h **** /* Private constants ---------------------------------------------------------*/
  45:../../dependencies/STM32CubeL0/Drivers/STM32L0xx_HAL_Driver/Inc/stm32l0xx_ll_i2c.h **** /** @defgroup I2C_LL_Private_Constants I2C Private Constants
  46:../../dependencies/STM32CubeL0/Drivers/STM32L0xx_HAL_Driver/Inc/stm32l0xx_ll_i2c.h ****   * @{
  47:../../dependencies/STM32CubeL0/Drivers/STM32L0xx_HAL_Driver/Inc/stm32l0xx_ll_i2c.h ****   */
  48:../../dependencies/STM32CubeL0/Drivers/STM32L0xx_HAL_Driver/Inc/stm32l0xx_ll_i2c.h **** /**
  49:../../dependencies/STM32CubeL0/Drivers/STM32L0xx_HAL_Driver/Inc/stm32l0xx_ll_i2c.h ****   * @}
  50:../../dependencies/STM32CubeL0/Drivers/STM32L0xx_HAL_Driver/Inc/stm32l0xx_ll_i2c.h ****   */
  51:../../dependencies/STM32CubeL0/Drivers/STM32L0xx_HAL_Driver/Inc/stm32l0xx_ll_i2c.h **** 
  52:../../dependencies/STM32CubeL0/Drivers/STM32L0xx_HAL_Driver/Inc/stm32l0xx_ll_i2c.h **** /* Private macros ------------------------------------------------------------*/
  53:../../dependencies/STM32CubeL0/Drivers/STM32L0xx_HAL_Driver/Inc/stm32l0xx_ll_i2c.h **** #if defined(USE_FULL_LL_DRIVER)
  54:../../dependencies/STM32CubeL0/Drivers/STM32L0xx_HAL_Driver/Inc/stm32l0xx_ll_i2c.h **** /** @defgroup I2C_LL_Private_Macros I2C Private Macros
  55:../../dependencies/STM32CubeL0/Drivers/STM32L0xx_HAL_Driver/Inc/stm32l0xx_ll_i2c.h ****   * @{
  56:../../dependencies/STM32CubeL0/Drivers/STM32L0xx_HAL_Driver/Inc/stm32l0xx_ll_i2c.h ****   */
  57:../../dependencies/STM32CubeL0/Drivers/STM32L0xx_HAL_Driver/Inc/stm32l0xx_ll_i2c.h **** /**
  58:../../dependencies/STM32CubeL0/Drivers/STM32L0xx_HAL_Driver/Inc/stm32l0xx_ll_i2c.h ****   * @}
  59:../../dependencies/STM32CubeL0/Drivers/STM32L0xx_HAL_Driver/Inc/stm32l0xx_ll_i2c.h ****   */
  60:../../dependencies/STM32CubeL0/Drivers/STM32L0xx_HAL_Driver/Inc/stm32l0xx_ll_i2c.h **** #endif /*USE_FULL_LL_DRIVER*/
  61:../../dependencies/STM32CubeL0/Drivers/STM32L0xx_HAL_Driver/Inc/stm32l0xx_ll_i2c.h **** 
  62:../../dependencies/STM32CubeL0/Drivers/STM32L0xx_HAL_Driver/Inc/stm32l0xx_ll_i2c.h **** /* Exported types ------------------------------------------------------------*/
  63:../../dependencies/STM32CubeL0/Drivers/STM32L0xx_HAL_Driver/Inc/stm32l0xx_ll_i2c.h **** #if defined(USE_FULL_LL_DRIVER)
  64:../../dependencies/STM32CubeL0/Drivers/STM32L0xx_HAL_Driver/Inc/stm32l0xx_ll_i2c.h **** /** @defgroup I2C_LL_ES_INIT I2C Exported Init structure
  65:../../dependencies/STM32CubeL0/Drivers/STM32L0xx_HAL_Driver/Inc/stm32l0xx_ll_i2c.h ****   * @{
  66:../../dependencies/STM32CubeL0/Drivers/STM32L0xx_HAL_Driver/Inc/stm32l0xx_ll_i2c.h ****   */
  67:../../dependencies/STM32CubeL0/Drivers/STM32L0xx_HAL_Driver/Inc/stm32l0xx_ll_i2c.h **** typedef struct
  68:../../dependencies/STM32CubeL0/Drivers/STM32L0xx_HAL_Driver/Inc/stm32l0xx_ll_i2c.h **** {
  69:../../dependencies/STM32CubeL0/Drivers/STM32L0xx_HAL_Driver/Inc/stm32l0xx_ll_i2c.h ****   uint32_t PeripheralMode;      /*!< Specifies the peripheral mode.
  70:../../dependencies/STM32CubeL0/Drivers/STM32L0xx_HAL_Driver/Inc/stm32l0xx_ll_i2c.h ****                                      This parameter can be a value of @ref I2C_LL_EC_PERIPHERAL_MOD
  71:../../dependencies/STM32CubeL0/Drivers/STM32L0xx_HAL_Driver/Inc/stm32l0xx_ll_i2c.h **** 
  72:../../dependencies/STM32CubeL0/Drivers/STM32L0xx_HAL_Driver/Inc/stm32l0xx_ll_i2c.h ****                                      This feature can be modified afterwards using unitary function
  73:../../dependencies/STM32CubeL0/Drivers/STM32L0xx_HAL_Driver/Inc/stm32l0xx_ll_i2c.h ****                                      @ref LL_I2C_SetMode(). */
  74:../../dependencies/STM32CubeL0/Drivers/STM32L0xx_HAL_Driver/Inc/stm32l0xx_ll_i2c.h **** 
  75:../../dependencies/STM32CubeL0/Drivers/STM32L0xx_HAL_Driver/Inc/stm32l0xx_ll_i2c.h ****   uint32_t Timing;              /*!< Specifies the SDA setup, hold time and the SCL high, low perio
  76:../../dependencies/STM32CubeL0/Drivers/STM32L0xx_HAL_Driver/Inc/stm32l0xx_ll_i2c.h ****                                      This parameter must be set by referring to the STM32CubeMX Too
  77:../../dependencies/STM32CubeL0/Drivers/STM32L0xx_HAL_Driver/Inc/stm32l0xx_ll_i2c.h ****                                      the helper macro @ref __LL_I2C_CONVERT_TIMINGS().
  78:../../dependencies/STM32CubeL0/Drivers/STM32L0xx_HAL_Driver/Inc/stm32l0xx_ll_i2c.h **** 
  79:../../dependencies/STM32CubeL0/Drivers/STM32L0xx_HAL_Driver/Inc/stm32l0xx_ll_i2c.h ****                                      This feature can be modified afterwards using unitary function
  80:../../dependencies/STM32CubeL0/Drivers/STM32L0xx_HAL_Driver/Inc/stm32l0xx_ll_i2c.h ****                                      @ref LL_I2C_SetTiming(). */
  81:../../dependencies/STM32CubeL0/Drivers/STM32L0xx_HAL_Driver/Inc/stm32l0xx_ll_i2c.h **** 
  82:../../dependencies/STM32CubeL0/Drivers/STM32L0xx_HAL_Driver/Inc/stm32l0xx_ll_i2c.h ****   uint32_t AnalogFilter;        /*!< Enables or disables analog noise filter.
  83:../../dependencies/STM32CubeL0/Drivers/STM32L0xx_HAL_Driver/Inc/stm32l0xx_ll_i2c.h ****                                      This parameter can be a value of @ref I2C_LL_EC_ANALOGFILTER_S
  84:../../dependencies/STM32CubeL0/Drivers/STM32L0xx_HAL_Driver/Inc/stm32l0xx_ll_i2c.h **** 
  85:../../dependencies/STM32CubeL0/Drivers/STM32L0xx_HAL_Driver/Inc/stm32l0xx_ll_i2c.h ****                                      This feature can be modified afterwards using unitary function
ARM GAS  /var/folders/fs/dxwfnrqj18z860lwl3d6f5t00000gn/T//ccXcLPlJ.s 			page 3


  86:../../dependencies/STM32CubeL0/Drivers/STM32L0xx_HAL_Driver/Inc/stm32l0xx_ll_i2c.h ****                                      @ref LL_I2C_EnableAnalogFilter() or LL_I2C_DisableAnalogFilter
  87:../../dependencies/STM32CubeL0/Drivers/STM32L0xx_HAL_Driver/Inc/stm32l0xx_ll_i2c.h **** 
  88:../../dependencies/STM32CubeL0/Drivers/STM32L0xx_HAL_Driver/Inc/stm32l0xx_ll_i2c.h ****   uint32_t DigitalFilter;       /*!< Configures the digital noise filter.
  89:../../dependencies/STM32CubeL0/Drivers/STM32L0xx_HAL_Driver/Inc/stm32l0xx_ll_i2c.h ****                                      This parameter can be a number between Min_Data = 0x00 and Max
  90:../../dependencies/STM32CubeL0/Drivers/STM32L0xx_HAL_Driver/Inc/stm32l0xx_ll_i2c.h **** 
  91:../../dependencies/STM32CubeL0/Drivers/STM32L0xx_HAL_Driver/Inc/stm32l0xx_ll_i2c.h ****                                      This feature can be modified afterwards using unitary function
  92:../../dependencies/STM32CubeL0/Drivers/STM32L0xx_HAL_Driver/Inc/stm32l0xx_ll_i2c.h ****                                      @ref LL_I2C_SetDigitalFilter(). */
  93:../../dependencies/STM32CubeL0/Drivers/STM32L0xx_HAL_Driver/Inc/stm32l0xx_ll_i2c.h **** 
  94:../../dependencies/STM32CubeL0/Drivers/STM32L0xx_HAL_Driver/Inc/stm32l0xx_ll_i2c.h ****   uint32_t OwnAddress1;         /*!< Specifies the device own address 1.
  95:../../dependencies/STM32CubeL0/Drivers/STM32L0xx_HAL_Driver/Inc/stm32l0xx_ll_i2c.h ****                                      This parameter must be a value between Min_Data = 0x00 and Max
  96:../../dependencies/STM32CubeL0/Drivers/STM32L0xx_HAL_Driver/Inc/stm32l0xx_ll_i2c.h **** 
  97:../../dependencies/STM32CubeL0/Drivers/STM32L0xx_HAL_Driver/Inc/stm32l0xx_ll_i2c.h ****                                      This feature can be modified afterwards using unitary function
  98:../../dependencies/STM32CubeL0/Drivers/STM32L0xx_HAL_Driver/Inc/stm32l0xx_ll_i2c.h ****                                      @ref LL_I2C_SetOwnAddress1(). */
  99:../../dependencies/STM32CubeL0/Drivers/STM32L0xx_HAL_Driver/Inc/stm32l0xx_ll_i2c.h **** 
 100:../../dependencies/STM32CubeL0/Drivers/STM32L0xx_HAL_Driver/Inc/stm32l0xx_ll_i2c.h ****   uint32_t TypeAcknowledge;     /*!< Specifies the ACKnowledge or Non ACKnowledge condition after t
 101:../../dependencies/STM32CubeL0/Drivers/STM32L0xx_HAL_Driver/Inc/stm32l0xx_ll_i2c.h ****                                      match code or next received byte.
 102:../../dependencies/STM32CubeL0/Drivers/STM32L0xx_HAL_Driver/Inc/stm32l0xx_ll_i2c.h ****                                      This parameter can be a value of @ref I2C_LL_EC_I2C_ACKNOWLEDG
 103:../../dependencies/STM32CubeL0/Drivers/STM32L0xx_HAL_Driver/Inc/stm32l0xx_ll_i2c.h **** 
 104:../../dependencies/STM32CubeL0/Drivers/STM32L0xx_HAL_Driver/Inc/stm32l0xx_ll_i2c.h ****                                      This feature can be modified afterwards using unitary function
 105:../../dependencies/STM32CubeL0/Drivers/STM32L0xx_HAL_Driver/Inc/stm32l0xx_ll_i2c.h ****                                      @ref LL_I2C_AcknowledgeNextData(). */
 106:../../dependencies/STM32CubeL0/Drivers/STM32L0xx_HAL_Driver/Inc/stm32l0xx_ll_i2c.h **** 
 107:../../dependencies/STM32CubeL0/Drivers/STM32L0xx_HAL_Driver/Inc/stm32l0xx_ll_i2c.h ****   uint32_t OwnAddrSize;         /*!< Specifies the device own address 1 size (7-bit or 10-bit).
 108:../../dependencies/STM32CubeL0/Drivers/STM32L0xx_HAL_Driver/Inc/stm32l0xx_ll_i2c.h ****                                      This parameter can be a value of @ref I2C_LL_EC_OWNADDRESS1.
 109:../../dependencies/STM32CubeL0/Drivers/STM32L0xx_HAL_Driver/Inc/stm32l0xx_ll_i2c.h **** 
 110:../../dependencies/STM32CubeL0/Drivers/STM32L0xx_HAL_Driver/Inc/stm32l0xx_ll_i2c.h ****                                      This feature can be modified afterwards using unitary function
 111:../../dependencies/STM32CubeL0/Drivers/STM32L0xx_HAL_Driver/Inc/stm32l0xx_ll_i2c.h ****                                      @ref LL_I2C_SetOwnAddress1(). */
 112:../../dependencies/STM32CubeL0/Drivers/STM32L0xx_HAL_Driver/Inc/stm32l0xx_ll_i2c.h **** } LL_I2C_InitTypeDef;
 113:../../dependencies/STM32CubeL0/Drivers/STM32L0xx_HAL_Driver/Inc/stm32l0xx_ll_i2c.h **** /**
 114:../../dependencies/STM32CubeL0/Drivers/STM32L0xx_HAL_Driver/Inc/stm32l0xx_ll_i2c.h ****   * @}
 115:../../dependencies/STM32CubeL0/Drivers/STM32L0xx_HAL_Driver/Inc/stm32l0xx_ll_i2c.h ****   */
 116:../../dependencies/STM32CubeL0/Drivers/STM32L0xx_HAL_Driver/Inc/stm32l0xx_ll_i2c.h **** #endif /*USE_FULL_LL_DRIVER*/
 117:../../dependencies/STM32CubeL0/Drivers/STM32L0xx_HAL_Driver/Inc/stm32l0xx_ll_i2c.h **** 
 118:../../dependencies/STM32CubeL0/Drivers/STM32L0xx_HAL_Driver/Inc/stm32l0xx_ll_i2c.h **** /* Exported constants --------------------------------------------------------*/
 119:../../dependencies/STM32CubeL0/Drivers/STM32L0xx_HAL_Driver/Inc/stm32l0xx_ll_i2c.h **** /** @defgroup I2C_LL_Exported_Constants I2C Exported Constants
 120:../../dependencies/STM32CubeL0/Drivers/STM32L0xx_HAL_Driver/Inc/stm32l0xx_ll_i2c.h ****   * @{
 121:../../dependencies/STM32CubeL0/Drivers/STM32L0xx_HAL_Driver/Inc/stm32l0xx_ll_i2c.h ****   */
 122:../../dependencies/STM32CubeL0/Drivers/STM32L0xx_HAL_Driver/Inc/stm32l0xx_ll_i2c.h **** 
 123:../../dependencies/STM32CubeL0/Drivers/STM32L0xx_HAL_Driver/Inc/stm32l0xx_ll_i2c.h **** /** @defgroup I2C_LL_EC_CLEAR_FLAG Clear Flags Defines
 124:../../dependencies/STM32CubeL0/Drivers/STM32L0xx_HAL_Driver/Inc/stm32l0xx_ll_i2c.h ****   * @brief    Flags defines which can be used with LL_I2C_WriteReg function
 125:../../dependencies/STM32CubeL0/Drivers/STM32L0xx_HAL_Driver/Inc/stm32l0xx_ll_i2c.h ****   * @{
 126:../../dependencies/STM32CubeL0/Drivers/STM32L0xx_HAL_Driver/Inc/stm32l0xx_ll_i2c.h ****   */
 127:../../dependencies/STM32CubeL0/Drivers/STM32L0xx_HAL_Driver/Inc/stm32l0xx_ll_i2c.h **** #define LL_I2C_ICR_ADDRCF                   I2C_ICR_ADDRCF          /*!< Address Matched flag   */
 128:../../dependencies/STM32CubeL0/Drivers/STM32L0xx_HAL_Driver/Inc/stm32l0xx_ll_i2c.h **** #define LL_I2C_ICR_NACKCF                   I2C_ICR_NACKCF          /*!< Not Acknowledge flag   */
 129:../../dependencies/STM32CubeL0/Drivers/STM32L0xx_HAL_Driver/Inc/stm32l0xx_ll_i2c.h **** #define LL_I2C_ICR_STOPCF                   I2C_ICR_STOPCF          /*!< Stop detection flag    */
 130:../../dependencies/STM32CubeL0/Drivers/STM32L0xx_HAL_Driver/Inc/stm32l0xx_ll_i2c.h **** #define LL_I2C_ICR_BERRCF                   I2C_ICR_BERRCF          /*!< Bus error flag         */
 131:../../dependencies/STM32CubeL0/Drivers/STM32L0xx_HAL_Driver/Inc/stm32l0xx_ll_i2c.h **** #define LL_I2C_ICR_ARLOCF                   I2C_ICR_ARLOCF          /*!< Arbitration Lost flag  */
 132:../../dependencies/STM32CubeL0/Drivers/STM32L0xx_HAL_Driver/Inc/stm32l0xx_ll_i2c.h **** #define LL_I2C_ICR_OVRCF                    I2C_ICR_OVRCF           /*!< Overrun/Underrun flag  */
 133:../../dependencies/STM32CubeL0/Drivers/STM32L0xx_HAL_Driver/Inc/stm32l0xx_ll_i2c.h **** #define LL_I2C_ICR_PECCF                    I2C_ICR_PECCF           /*!< PEC error flag         */
 134:../../dependencies/STM32CubeL0/Drivers/STM32L0xx_HAL_Driver/Inc/stm32l0xx_ll_i2c.h **** #define LL_I2C_ICR_TIMOUTCF                 I2C_ICR_TIMOUTCF        /*!< Timeout detection flag */
 135:../../dependencies/STM32CubeL0/Drivers/STM32L0xx_HAL_Driver/Inc/stm32l0xx_ll_i2c.h **** #define LL_I2C_ICR_ALERTCF                  I2C_ICR_ALERTCF         /*!< Alert flag             */
 136:../../dependencies/STM32CubeL0/Drivers/STM32L0xx_HAL_Driver/Inc/stm32l0xx_ll_i2c.h **** /**
 137:../../dependencies/STM32CubeL0/Drivers/STM32L0xx_HAL_Driver/Inc/stm32l0xx_ll_i2c.h ****   * @}
 138:../../dependencies/STM32CubeL0/Drivers/STM32L0xx_HAL_Driver/Inc/stm32l0xx_ll_i2c.h ****   */
 139:../../dependencies/STM32CubeL0/Drivers/STM32L0xx_HAL_Driver/Inc/stm32l0xx_ll_i2c.h **** 
 140:../../dependencies/STM32CubeL0/Drivers/STM32L0xx_HAL_Driver/Inc/stm32l0xx_ll_i2c.h **** /** @defgroup I2C_LL_EC_GET_FLAG Get Flags Defines
 141:../../dependencies/STM32CubeL0/Drivers/STM32L0xx_HAL_Driver/Inc/stm32l0xx_ll_i2c.h ****   * @brief    Flags defines which can be used with LL_I2C_ReadReg function
 142:../../dependencies/STM32CubeL0/Drivers/STM32L0xx_HAL_Driver/Inc/stm32l0xx_ll_i2c.h ****   * @{
ARM GAS  /var/folders/fs/dxwfnrqj18z860lwl3d6f5t00000gn/T//ccXcLPlJ.s 			page 4


 143:../../dependencies/STM32CubeL0/Drivers/STM32L0xx_HAL_Driver/Inc/stm32l0xx_ll_i2c.h ****   */
 144:../../dependencies/STM32CubeL0/Drivers/STM32L0xx_HAL_Driver/Inc/stm32l0xx_ll_i2c.h **** #define LL_I2C_ISR_TXE                      I2C_ISR_TXE             /*!< Transmit data register emp
 145:../../dependencies/STM32CubeL0/Drivers/STM32L0xx_HAL_Driver/Inc/stm32l0xx_ll_i2c.h **** #define LL_I2C_ISR_TXIS                     I2C_ISR_TXIS            /*!< Transmit interrupt status 
 146:../../dependencies/STM32CubeL0/Drivers/STM32L0xx_HAL_Driver/Inc/stm32l0xx_ll_i2c.h **** #define LL_I2C_ISR_RXNE                     I2C_ISR_RXNE            /*!< Receive data register not 
 147:../../dependencies/STM32CubeL0/Drivers/STM32L0xx_HAL_Driver/Inc/stm32l0xx_ll_i2c.h **** #define LL_I2C_ISR_ADDR                     I2C_ISR_ADDR            /*!< Address matched (slave mod
 148:../../dependencies/STM32CubeL0/Drivers/STM32L0xx_HAL_Driver/Inc/stm32l0xx_ll_i2c.h **** #define LL_I2C_ISR_NACKF                    I2C_ISR_NACKF           /*!< Not Acknowledge received f
 149:../../dependencies/STM32CubeL0/Drivers/STM32L0xx_HAL_Driver/Inc/stm32l0xx_ll_i2c.h **** #define LL_I2C_ISR_STOPF                    I2C_ISR_STOPF           /*!< Stop detection flag       
 150:../../dependencies/STM32CubeL0/Drivers/STM32L0xx_HAL_Driver/Inc/stm32l0xx_ll_i2c.h **** #define LL_I2C_ISR_TC                       I2C_ISR_TC              /*!< Transfer Complete (master 
 151:../../dependencies/STM32CubeL0/Drivers/STM32L0xx_HAL_Driver/Inc/stm32l0xx_ll_i2c.h **** #define LL_I2C_ISR_TCR                      I2C_ISR_TCR             /*!< Transfer Complete Reload  
 152:../../dependencies/STM32CubeL0/Drivers/STM32L0xx_HAL_Driver/Inc/stm32l0xx_ll_i2c.h **** #define LL_I2C_ISR_BERR                     I2C_ISR_BERR            /*!< Bus error                 
 153:../../dependencies/STM32CubeL0/Drivers/STM32L0xx_HAL_Driver/Inc/stm32l0xx_ll_i2c.h **** #define LL_I2C_ISR_ARLO                     I2C_ISR_ARLO            /*!< Arbitration lost          
 154:../../dependencies/STM32CubeL0/Drivers/STM32L0xx_HAL_Driver/Inc/stm32l0xx_ll_i2c.h **** #define LL_I2C_ISR_OVR                      I2C_ISR_OVR             /*!< Overrun/Underrun (slave mo
 155:../../dependencies/STM32CubeL0/Drivers/STM32L0xx_HAL_Driver/Inc/stm32l0xx_ll_i2c.h **** #define LL_I2C_ISR_PECERR                   I2C_ISR_PECERR          /*!< PEC Error in reception (SM
 156:../../dependencies/STM32CubeL0/Drivers/STM32L0xx_HAL_Driver/Inc/stm32l0xx_ll_i2c.h **** #define LL_I2C_ISR_TIMEOUT                  I2C_ISR_TIMEOUT         /*!< Timeout detection flag (SM
 157:../../dependencies/STM32CubeL0/Drivers/STM32L0xx_HAL_Driver/Inc/stm32l0xx_ll_i2c.h **** #define LL_I2C_ISR_ALERT                    I2C_ISR_ALERT           /*!< SMBus alert (SMBus mode)  
 158:../../dependencies/STM32CubeL0/Drivers/STM32L0xx_HAL_Driver/Inc/stm32l0xx_ll_i2c.h **** #define LL_I2C_ISR_BUSY                     I2C_ISR_BUSY            /*!< Bus busy                  
 159:../../dependencies/STM32CubeL0/Drivers/STM32L0xx_HAL_Driver/Inc/stm32l0xx_ll_i2c.h **** /**
 160:../../dependencies/STM32CubeL0/Drivers/STM32L0xx_HAL_Driver/Inc/stm32l0xx_ll_i2c.h ****   * @}
 161:../../dependencies/STM32CubeL0/Drivers/STM32L0xx_HAL_Driver/Inc/stm32l0xx_ll_i2c.h ****   */
 162:../../dependencies/STM32CubeL0/Drivers/STM32L0xx_HAL_Driver/Inc/stm32l0xx_ll_i2c.h **** 
 163:../../dependencies/STM32CubeL0/Drivers/STM32L0xx_HAL_Driver/Inc/stm32l0xx_ll_i2c.h **** /** @defgroup I2C_LL_EC_IT IT Defines
 164:../../dependencies/STM32CubeL0/Drivers/STM32L0xx_HAL_Driver/Inc/stm32l0xx_ll_i2c.h ****   * @brief    IT defines which can be used with LL_I2C_ReadReg and  LL_I2C_WriteReg functions
 165:../../dependencies/STM32CubeL0/Drivers/STM32L0xx_HAL_Driver/Inc/stm32l0xx_ll_i2c.h ****   * @{
 166:../../dependencies/STM32CubeL0/Drivers/STM32L0xx_HAL_Driver/Inc/stm32l0xx_ll_i2c.h ****   */
 167:../../dependencies/STM32CubeL0/Drivers/STM32L0xx_HAL_Driver/Inc/stm32l0xx_ll_i2c.h **** #define LL_I2C_CR1_TXIE                     I2C_CR1_TXIE            /*!< TX Interrupt enable       
 168:../../dependencies/STM32CubeL0/Drivers/STM32L0xx_HAL_Driver/Inc/stm32l0xx_ll_i2c.h **** #define LL_I2C_CR1_RXIE                     I2C_CR1_RXIE            /*!< RX Interrupt enable       
 169:../../dependencies/STM32CubeL0/Drivers/STM32L0xx_HAL_Driver/Inc/stm32l0xx_ll_i2c.h **** #define LL_I2C_CR1_ADDRIE                   I2C_CR1_ADDRIE          /*!< Address match Interrupt en
 170:../../dependencies/STM32CubeL0/Drivers/STM32L0xx_HAL_Driver/Inc/stm32l0xx_ll_i2c.h **** #define LL_I2C_CR1_NACKIE                   I2C_CR1_NACKIE          /*!< Not acknowledge received I
 171:../../dependencies/STM32CubeL0/Drivers/STM32L0xx_HAL_Driver/Inc/stm32l0xx_ll_i2c.h **** #define LL_I2C_CR1_STOPIE                   I2C_CR1_STOPIE          /*!< STOP detection Interrupt e
 172:../../dependencies/STM32CubeL0/Drivers/STM32L0xx_HAL_Driver/Inc/stm32l0xx_ll_i2c.h **** #define LL_I2C_CR1_TCIE                     I2C_CR1_TCIE            /*!< Transfer Complete interrup
 173:../../dependencies/STM32CubeL0/Drivers/STM32L0xx_HAL_Driver/Inc/stm32l0xx_ll_i2c.h **** #define LL_I2C_CR1_ERRIE                    I2C_CR1_ERRIE           /*!< Error interrupts enable   
 174:../../dependencies/STM32CubeL0/Drivers/STM32L0xx_HAL_Driver/Inc/stm32l0xx_ll_i2c.h **** /**
 175:../../dependencies/STM32CubeL0/Drivers/STM32L0xx_HAL_Driver/Inc/stm32l0xx_ll_i2c.h ****   * @}
 176:../../dependencies/STM32CubeL0/Drivers/STM32L0xx_HAL_Driver/Inc/stm32l0xx_ll_i2c.h ****   */
 177:../../dependencies/STM32CubeL0/Drivers/STM32L0xx_HAL_Driver/Inc/stm32l0xx_ll_i2c.h **** 
 178:../../dependencies/STM32CubeL0/Drivers/STM32L0xx_HAL_Driver/Inc/stm32l0xx_ll_i2c.h **** /** @defgroup I2C_LL_EC_PERIPHERAL_MODE Peripheral Mode
 179:../../dependencies/STM32CubeL0/Drivers/STM32L0xx_HAL_Driver/Inc/stm32l0xx_ll_i2c.h ****   * @{
 180:../../dependencies/STM32CubeL0/Drivers/STM32L0xx_HAL_Driver/Inc/stm32l0xx_ll_i2c.h ****   */
 181:../../dependencies/STM32CubeL0/Drivers/STM32L0xx_HAL_Driver/Inc/stm32l0xx_ll_i2c.h **** #define LL_I2C_MODE_I2C                    0x00000000U              /*!< I2C Master or Slave mode  
 182:../../dependencies/STM32CubeL0/Drivers/STM32L0xx_HAL_Driver/Inc/stm32l0xx_ll_i2c.h **** #define LL_I2C_MODE_SMBUS_HOST             I2C_CR1_SMBHEN           /*!< SMBus Host address acknowl
 183:../../dependencies/STM32CubeL0/Drivers/STM32L0xx_HAL_Driver/Inc/stm32l0xx_ll_i2c.h **** #define LL_I2C_MODE_SMBUS_DEVICE           0x00000000U              /*!< SMBus Device default mode
 184:../../dependencies/STM32CubeL0/Drivers/STM32L0xx_HAL_Driver/Inc/stm32l0xx_ll_i2c.h ****                                                                          (Default address not ackno
 185:../../dependencies/STM32CubeL0/Drivers/STM32L0xx_HAL_Driver/Inc/stm32l0xx_ll_i2c.h **** #define LL_I2C_MODE_SMBUS_DEVICE_ARP       I2C_CR1_SMBDEN           /*!< SMBus Device Default addre
 186:../../dependencies/STM32CubeL0/Drivers/STM32L0xx_HAL_Driver/Inc/stm32l0xx_ll_i2c.h **** /**
 187:../../dependencies/STM32CubeL0/Drivers/STM32L0xx_HAL_Driver/Inc/stm32l0xx_ll_i2c.h ****   * @}
 188:../../dependencies/STM32CubeL0/Drivers/STM32L0xx_HAL_Driver/Inc/stm32l0xx_ll_i2c.h ****   */
 189:../../dependencies/STM32CubeL0/Drivers/STM32L0xx_HAL_Driver/Inc/stm32l0xx_ll_i2c.h **** 
 190:../../dependencies/STM32CubeL0/Drivers/STM32L0xx_HAL_Driver/Inc/stm32l0xx_ll_i2c.h **** /** @defgroup I2C_LL_EC_ANALOGFILTER_SELECTION Analog Filter Selection
 191:../../dependencies/STM32CubeL0/Drivers/STM32L0xx_HAL_Driver/Inc/stm32l0xx_ll_i2c.h ****   * @{
 192:../../dependencies/STM32CubeL0/Drivers/STM32L0xx_HAL_Driver/Inc/stm32l0xx_ll_i2c.h ****   */
 193:../../dependencies/STM32CubeL0/Drivers/STM32L0xx_HAL_Driver/Inc/stm32l0xx_ll_i2c.h **** #define LL_I2C_ANALOGFILTER_ENABLE          0x00000000U             /*!< Analog filter is enabled. 
 194:../../dependencies/STM32CubeL0/Drivers/STM32L0xx_HAL_Driver/Inc/stm32l0xx_ll_i2c.h **** #define LL_I2C_ANALOGFILTER_DISABLE         I2C_CR1_ANFOFF          /*!< Analog filter is disabled.
 195:../../dependencies/STM32CubeL0/Drivers/STM32L0xx_HAL_Driver/Inc/stm32l0xx_ll_i2c.h **** /**
 196:../../dependencies/STM32CubeL0/Drivers/STM32L0xx_HAL_Driver/Inc/stm32l0xx_ll_i2c.h ****   * @}
 197:../../dependencies/STM32CubeL0/Drivers/STM32L0xx_HAL_Driver/Inc/stm32l0xx_ll_i2c.h ****   */
 198:../../dependencies/STM32CubeL0/Drivers/STM32L0xx_HAL_Driver/Inc/stm32l0xx_ll_i2c.h **** 
 199:../../dependencies/STM32CubeL0/Drivers/STM32L0xx_HAL_Driver/Inc/stm32l0xx_ll_i2c.h **** /** @defgroup I2C_LL_EC_ADDRESSING_MODE Master Addressing Mode
ARM GAS  /var/folders/fs/dxwfnrqj18z860lwl3d6f5t00000gn/T//ccXcLPlJ.s 			page 5


 200:../../dependencies/STM32CubeL0/Drivers/STM32L0xx_HAL_Driver/Inc/stm32l0xx_ll_i2c.h ****   * @{
 201:../../dependencies/STM32CubeL0/Drivers/STM32L0xx_HAL_Driver/Inc/stm32l0xx_ll_i2c.h ****   */
 202:../../dependencies/STM32CubeL0/Drivers/STM32L0xx_HAL_Driver/Inc/stm32l0xx_ll_i2c.h **** #define LL_I2C_ADDRESSING_MODE_7BIT         0x00000000U              /*!< Master operates in 7-bit 
 203:../../dependencies/STM32CubeL0/Drivers/STM32L0xx_HAL_Driver/Inc/stm32l0xx_ll_i2c.h **** #define LL_I2C_ADDRESSING_MODE_10BIT        I2C_CR2_ADD10            /*!< Master operates in 10-bit
 204:../../dependencies/STM32CubeL0/Drivers/STM32L0xx_HAL_Driver/Inc/stm32l0xx_ll_i2c.h **** /**
 205:../../dependencies/STM32CubeL0/Drivers/STM32L0xx_HAL_Driver/Inc/stm32l0xx_ll_i2c.h ****   * @}
 206:../../dependencies/STM32CubeL0/Drivers/STM32L0xx_HAL_Driver/Inc/stm32l0xx_ll_i2c.h ****   */
 207:../../dependencies/STM32CubeL0/Drivers/STM32L0xx_HAL_Driver/Inc/stm32l0xx_ll_i2c.h **** 
 208:../../dependencies/STM32CubeL0/Drivers/STM32L0xx_HAL_Driver/Inc/stm32l0xx_ll_i2c.h **** /** @defgroup I2C_LL_EC_OWNADDRESS1 Own Address 1 Length
 209:../../dependencies/STM32CubeL0/Drivers/STM32L0xx_HAL_Driver/Inc/stm32l0xx_ll_i2c.h ****   * @{
 210:../../dependencies/STM32CubeL0/Drivers/STM32L0xx_HAL_Driver/Inc/stm32l0xx_ll_i2c.h ****   */
 211:../../dependencies/STM32CubeL0/Drivers/STM32L0xx_HAL_Driver/Inc/stm32l0xx_ll_i2c.h **** #define LL_I2C_OWNADDRESS1_7BIT             0x00000000U             /*!< Own address 1 is a 7-bit a
 212:../../dependencies/STM32CubeL0/Drivers/STM32L0xx_HAL_Driver/Inc/stm32l0xx_ll_i2c.h **** #define LL_I2C_OWNADDRESS1_10BIT            I2C_OAR1_OA1MODE        /*!< Own address 1 is a 10-bit 
 213:../../dependencies/STM32CubeL0/Drivers/STM32L0xx_HAL_Driver/Inc/stm32l0xx_ll_i2c.h **** /**
 214:../../dependencies/STM32CubeL0/Drivers/STM32L0xx_HAL_Driver/Inc/stm32l0xx_ll_i2c.h ****   * @}
 215:../../dependencies/STM32CubeL0/Drivers/STM32L0xx_HAL_Driver/Inc/stm32l0xx_ll_i2c.h ****   */
 216:../../dependencies/STM32CubeL0/Drivers/STM32L0xx_HAL_Driver/Inc/stm32l0xx_ll_i2c.h **** 
 217:../../dependencies/STM32CubeL0/Drivers/STM32L0xx_HAL_Driver/Inc/stm32l0xx_ll_i2c.h **** /** @defgroup I2C_LL_EC_OWNADDRESS2 Own Address 2 Masks
 218:../../dependencies/STM32CubeL0/Drivers/STM32L0xx_HAL_Driver/Inc/stm32l0xx_ll_i2c.h ****   * @{
 219:../../dependencies/STM32CubeL0/Drivers/STM32L0xx_HAL_Driver/Inc/stm32l0xx_ll_i2c.h ****   */
 220:../../dependencies/STM32CubeL0/Drivers/STM32L0xx_HAL_Driver/Inc/stm32l0xx_ll_i2c.h **** #define LL_I2C_OWNADDRESS2_NOMASK           I2C_OAR2_OA2NOMASK      /*!< Own Address2 No mask.     
 221:../../dependencies/STM32CubeL0/Drivers/STM32L0xx_HAL_Driver/Inc/stm32l0xx_ll_i2c.h **** #define LL_I2C_OWNADDRESS2_MASK01           I2C_OAR2_OA2MASK01      /*!< Only Address2 bits[7:2] ar
 222:../../dependencies/STM32CubeL0/Drivers/STM32L0xx_HAL_Driver/Inc/stm32l0xx_ll_i2c.h **** #define LL_I2C_OWNADDRESS2_MASK02           I2C_OAR2_OA2MASK02      /*!< Only Address2 bits[7:3] ar
 223:../../dependencies/STM32CubeL0/Drivers/STM32L0xx_HAL_Driver/Inc/stm32l0xx_ll_i2c.h **** #define LL_I2C_OWNADDRESS2_MASK03           I2C_OAR2_OA2MASK03      /*!< Only Address2 bits[7:4] ar
 224:../../dependencies/STM32CubeL0/Drivers/STM32L0xx_HAL_Driver/Inc/stm32l0xx_ll_i2c.h **** #define LL_I2C_OWNADDRESS2_MASK04           I2C_OAR2_OA2MASK04      /*!< Only Address2 bits[7:5] ar
 225:../../dependencies/STM32CubeL0/Drivers/STM32L0xx_HAL_Driver/Inc/stm32l0xx_ll_i2c.h **** #define LL_I2C_OWNADDRESS2_MASK05           I2C_OAR2_OA2MASK05      /*!< Only Address2 bits[7:6] ar
 226:../../dependencies/STM32CubeL0/Drivers/STM32L0xx_HAL_Driver/Inc/stm32l0xx_ll_i2c.h **** #define LL_I2C_OWNADDRESS2_MASK06           I2C_OAR2_OA2MASK06      /*!< Only Address2 bits[7] are 
 227:../../dependencies/STM32CubeL0/Drivers/STM32L0xx_HAL_Driver/Inc/stm32l0xx_ll_i2c.h **** #define LL_I2C_OWNADDRESS2_MASK07           I2C_OAR2_OA2MASK07      /*!< No comparison is done.
 228:../../dependencies/STM32CubeL0/Drivers/STM32L0xx_HAL_Driver/Inc/stm32l0xx_ll_i2c.h ****                                                                          All Address2 are acknowled
 229:../../dependencies/STM32CubeL0/Drivers/STM32L0xx_HAL_Driver/Inc/stm32l0xx_ll_i2c.h **** /**
 230:../../dependencies/STM32CubeL0/Drivers/STM32L0xx_HAL_Driver/Inc/stm32l0xx_ll_i2c.h ****   * @}
 231:../../dependencies/STM32CubeL0/Drivers/STM32L0xx_HAL_Driver/Inc/stm32l0xx_ll_i2c.h ****   */
 232:../../dependencies/STM32CubeL0/Drivers/STM32L0xx_HAL_Driver/Inc/stm32l0xx_ll_i2c.h **** 
 233:../../dependencies/STM32CubeL0/Drivers/STM32L0xx_HAL_Driver/Inc/stm32l0xx_ll_i2c.h **** /** @defgroup I2C_LL_EC_I2C_ACKNOWLEDGE Acknowledge Generation
 234:../../dependencies/STM32CubeL0/Drivers/STM32L0xx_HAL_Driver/Inc/stm32l0xx_ll_i2c.h ****   * @{
 235:../../dependencies/STM32CubeL0/Drivers/STM32L0xx_HAL_Driver/Inc/stm32l0xx_ll_i2c.h ****   */
 236:../../dependencies/STM32CubeL0/Drivers/STM32L0xx_HAL_Driver/Inc/stm32l0xx_ll_i2c.h **** #define LL_I2C_ACK                          0x00000000U              /*!< ACK is sent after current
 237:../../dependencies/STM32CubeL0/Drivers/STM32L0xx_HAL_Driver/Inc/stm32l0xx_ll_i2c.h **** #define LL_I2C_NACK                         I2C_CR2_NACK             /*!< NACK is sent after curren
 238:../../dependencies/STM32CubeL0/Drivers/STM32L0xx_HAL_Driver/Inc/stm32l0xx_ll_i2c.h **** /**
 239:../../dependencies/STM32CubeL0/Drivers/STM32L0xx_HAL_Driver/Inc/stm32l0xx_ll_i2c.h ****   * @}
 240:../../dependencies/STM32CubeL0/Drivers/STM32L0xx_HAL_Driver/Inc/stm32l0xx_ll_i2c.h ****   */
 241:../../dependencies/STM32CubeL0/Drivers/STM32L0xx_HAL_Driver/Inc/stm32l0xx_ll_i2c.h **** 
 242:../../dependencies/STM32CubeL0/Drivers/STM32L0xx_HAL_Driver/Inc/stm32l0xx_ll_i2c.h **** /** @defgroup I2C_LL_EC_ADDRSLAVE Slave Address Length
 243:../../dependencies/STM32CubeL0/Drivers/STM32L0xx_HAL_Driver/Inc/stm32l0xx_ll_i2c.h ****   * @{
 244:../../dependencies/STM32CubeL0/Drivers/STM32L0xx_HAL_Driver/Inc/stm32l0xx_ll_i2c.h ****   */
 245:../../dependencies/STM32CubeL0/Drivers/STM32L0xx_HAL_Driver/Inc/stm32l0xx_ll_i2c.h **** #define LL_I2C_ADDRSLAVE_7BIT               0x00000000U              /*!< Slave Address in 7-bit. *
 246:../../dependencies/STM32CubeL0/Drivers/STM32L0xx_HAL_Driver/Inc/stm32l0xx_ll_i2c.h **** #define LL_I2C_ADDRSLAVE_10BIT              I2C_CR2_ADD10            /*!< Slave Address in 10-bit.*
 247:../../dependencies/STM32CubeL0/Drivers/STM32L0xx_HAL_Driver/Inc/stm32l0xx_ll_i2c.h **** /**
 248:../../dependencies/STM32CubeL0/Drivers/STM32L0xx_HAL_Driver/Inc/stm32l0xx_ll_i2c.h ****   * @}
 249:../../dependencies/STM32CubeL0/Drivers/STM32L0xx_HAL_Driver/Inc/stm32l0xx_ll_i2c.h ****   */
 250:../../dependencies/STM32CubeL0/Drivers/STM32L0xx_HAL_Driver/Inc/stm32l0xx_ll_i2c.h **** 
 251:../../dependencies/STM32CubeL0/Drivers/STM32L0xx_HAL_Driver/Inc/stm32l0xx_ll_i2c.h **** /** @defgroup I2C_LL_EC_REQUEST Transfer Request Direction
 252:../../dependencies/STM32CubeL0/Drivers/STM32L0xx_HAL_Driver/Inc/stm32l0xx_ll_i2c.h ****   * @{
 253:../../dependencies/STM32CubeL0/Drivers/STM32L0xx_HAL_Driver/Inc/stm32l0xx_ll_i2c.h ****   */
 254:../../dependencies/STM32CubeL0/Drivers/STM32L0xx_HAL_Driver/Inc/stm32l0xx_ll_i2c.h **** #define LL_I2C_REQUEST_WRITE                0x00000000U              /*!< Master request a write tr
 255:../../dependencies/STM32CubeL0/Drivers/STM32L0xx_HAL_Driver/Inc/stm32l0xx_ll_i2c.h **** #define LL_I2C_REQUEST_READ                 I2C_CR2_RD_WRN           /*!< Master request a read tra
 256:../../dependencies/STM32CubeL0/Drivers/STM32L0xx_HAL_Driver/Inc/stm32l0xx_ll_i2c.h **** /**
ARM GAS  /var/folders/fs/dxwfnrqj18z860lwl3d6f5t00000gn/T//ccXcLPlJ.s 			page 6


 257:../../dependencies/STM32CubeL0/Drivers/STM32L0xx_HAL_Driver/Inc/stm32l0xx_ll_i2c.h ****   * @}
 258:../../dependencies/STM32CubeL0/Drivers/STM32L0xx_HAL_Driver/Inc/stm32l0xx_ll_i2c.h ****   */
 259:../../dependencies/STM32CubeL0/Drivers/STM32L0xx_HAL_Driver/Inc/stm32l0xx_ll_i2c.h **** 
 260:../../dependencies/STM32CubeL0/Drivers/STM32L0xx_HAL_Driver/Inc/stm32l0xx_ll_i2c.h **** /** @defgroup I2C_LL_EC_MODE Transfer End Mode
 261:../../dependencies/STM32CubeL0/Drivers/STM32L0xx_HAL_Driver/Inc/stm32l0xx_ll_i2c.h ****   * @{
 262:../../dependencies/STM32CubeL0/Drivers/STM32L0xx_HAL_Driver/Inc/stm32l0xx_ll_i2c.h ****   */
 263:../../dependencies/STM32CubeL0/Drivers/STM32L0xx_HAL_Driver/Inc/stm32l0xx_ll_i2c.h **** #define LL_I2C_MODE_RELOAD                  I2C_CR2_RELOAD           /*!< Enable I2C Reload mode.  
 264:../../dependencies/STM32CubeL0/Drivers/STM32L0xx_HAL_Driver/Inc/stm32l0xx_ll_i2c.h **** #define LL_I2C_MODE_AUTOEND                 I2C_CR2_AUTOEND          /*!< Enable I2C Automatic end 
 265:../../dependencies/STM32CubeL0/Drivers/STM32L0xx_HAL_Driver/Inc/stm32l0xx_ll_i2c.h ****                                                                           with no HW PEC comparison
 266:../../dependencies/STM32CubeL0/Drivers/STM32L0xx_HAL_Driver/Inc/stm32l0xx_ll_i2c.h **** #define LL_I2C_MODE_SOFTEND                 0x00000000U              /*!< Enable I2C Software end m
 267:../../dependencies/STM32CubeL0/Drivers/STM32L0xx_HAL_Driver/Inc/stm32l0xx_ll_i2c.h ****                                                                           with no HW PEC comparison
 268:../../dependencies/STM32CubeL0/Drivers/STM32L0xx_HAL_Driver/Inc/stm32l0xx_ll_i2c.h **** #define LL_I2C_MODE_SMBUS_RELOAD            LL_I2C_MODE_RELOAD       /*!< Enable SMBUS Automatic en
 269:../../dependencies/STM32CubeL0/Drivers/STM32L0xx_HAL_Driver/Inc/stm32l0xx_ll_i2c.h ****                                                                           with HW PEC comparison.  
 270:../../dependencies/STM32CubeL0/Drivers/STM32L0xx_HAL_Driver/Inc/stm32l0xx_ll_i2c.h **** #define LL_I2C_MODE_SMBUS_AUTOEND_NO_PEC    LL_I2C_MODE_AUTOEND      /*!< Enable SMBUS Automatic en
 271:../../dependencies/STM32CubeL0/Drivers/STM32L0xx_HAL_Driver/Inc/stm32l0xx_ll_i2c.h ****                                                                           with HW PEC comparison.  
 272:../../dependencies/STM32CubeL0/Drivers/STM32L0xx_HAL_Driver/Inc/stm32l0xx_ll_i2c.h **** #define LL_I2C_MODE_SMBUS_SOFTEND_NO_PEC    LL_I2C_MODE_SOFTEND      /*!< Enable SMBUS Software end
 273:../../dependencies/STM32CubeL0/Drivers/STM32L0xx_HAL_Driver/Inc/stm32l0xx_ll_i2c.h ****                                                                           with HW PEC comparison.  
 274:../../dependencies/STM32CubeL0/Drivers/STM32L0xx_HAL_Driver/Inc/stm32l0xx_ll_i2c.h **** #define LL_I2C_MODE_SMBUS_AUTOEND_WITH_PEC  (uint32_t)(LL_I2C_MODE_AUTOEND | I2C_CR2_PECBYTE)
 275:../../dependencies/STM32CubeL0/Drivers/STM32L0xx_HAL_Driver/Inc/stm32l0xx_ll_i2c.h **** /*!< Enable SMBUS Automatic end mode with HW PEC comparison.   */
 276:../../dependencies/STM32CubeL0/Drivers/STM32L0xx_HAL_Driver/Inc/stm32l0xx_ll_i2c.h **** #define LL_I2C_MODE_SMBUS_SOFTEND_WITH_PEC  (uint32_t)(LL_I2C_MODE_SOFTEND | I2C_CR2_PECBYTE)
 277:../../dependencies/STM32CubeL0/Drivers/STM32L0xx_HAL_Driver/Inc/stm32l0xx_ll_i2c.h **** /*!< Enable SMBUS Software end mode with HW PEC comparison.    */
 278:../../dependencies/STM32CubeL0/Drivers/STM32L0xx_HAL_Driver/Inc/stm32l0xx_ll_i2c.h **** /**
 279:../../dependencies/STM32CubeL0/Drivers/STM32L0xx_HAL_Driver/Inc/stm32l0xx_ll_i2c.h ****   * @}
 280:../../dependencies/STM32CubeL0/Drivers/STM32L0xx_HAL_Driver/Inc/stm32l0xx_ll_i2c.h ****   */
 281:../../dependencies/STM32CubeL0/Drivers/STM32L0xx_HAL_Driver/Inc/stm32l0xx_ll_i2c.h **** 
 282:../../dependencies/STM32CubeL0/Drivers/STM32L0xx_HAL_Driver/Inc/stm32l0xx_ll_i2c.h **** /** @defgroup I2C_LL_EC_GENERATE Start And Stop Generation
 283:../../dependencies/STM32CubeL0/Drivers/STM32L0xx_HAL_Driver/Inc/stm32l0xx_ll_i2c.h ****   * @{
 284:../../dependencies/STM32CubeL0/Drivers/STM32L0xx_HAL_Driver/Inc/stm32l0xx_ll_i2c.h ****   */
 285:../../dependencies/STM32CubeL0/Drivers/STM32L0xx_HAL_Driver/Inc/stm32l0xx_ll_i2c.h **** #define LL_I2C_GENERATE_NOSTARTSTOP         0x00000000U
 286:../../dependencies/STM32CubeL0/Drivers/STM32L0xx_HAL_Driver/Inc/stm32l0xx_ll_i2c.h **** /*!< Don't Generate Stop and Start condition. */
 287:../../dependencies/STM32CubeL0/Drivers/STM32L0xx_HAL_Driver/Inc/stm32l0xx_ll_i2c.h **** #define LL_I2C_GENERATE_STOP                (uint32_t)(0x80000000U | I2C_CR2_STOP)
 288:../../dependencies/STM32CubeL0/Drivers/STM32L0xx_HAL_Driver/Inc/stm32l0xx_ll_i2c.h **** /*!< Generate Stop condition (Size should be set to 0).      */
 289:../../dependencies/STM32CubeL0/Drivers/STM32L0xx_HAL_Driver/Inc/stm32l0xx_ll_i2c.h **** #define LL_I2C_GENERATE_START_READ          (uint32_t)(0x80000000U | I2C_CR2_START | I2C_CR2_RD_WRN
 290:../../dependencies/STM32CubeL0/Drivers/STM32L0xx_HAL_Driver/Inc/stm32l0xx_ll_i2c.h **** /*!< Generate Start for read request. */
 291:../../dependencies/STM32CubeL0/Drivers/STM32L0xx_HAL_Driver/Inc/stm32l0xx_ll_i2c.h **** #define LL_I2C_GENERATE_START_WRITE         (uint32_t)(0x80000000U | I2C_CR2_START)
 292:../../dependencies/STM32CubeL0/Drivers/STM32L0xx_HAL_Driver/Inc/stm32l0xx_ll_i2c.h **** /*!< Generate Start for write request. */
 293:../../dependencies/STM32CubeL0/Drivers/STM32L0xx_HAL_Driver/Inc/stm32l0xx_ll_i2c.h **** #define LL_I2C_GENERATE_RESTART_7BIT_READ   (uint32_t)(0x80000000U | I2C_CR2_START | I2C_CR2_RD_WRN
 294:../../dependencies/STM32CubeL0/Drivers/STM32L0xx_HAL_Driver/Inc/stm32l0xx_ll_i2c.h **** /*!< Generate Restart for read request, slave 7Bit address.  */
 295:../../dependencies/STM32CubeL0/Drivers/STM32L0xx_HAL_Driver/Inc/stm32l0xx_ll_i2c.h **** #define LL_I2C_GENERATE_RESTART_7BIT_WRITE  (uint32_t)(0x80000000U | I2C_CR2_START)
 296:../../dependencies/STM32CubeL0/Drivers/STM32L0xx_HAL_Driver/Inc/stm32l0xx_ll_i2c.h **** /*!< Generate Restart for write request, slave 7Bit address. */
 297:../../dependencies/STM32CubeL0/Drivers/STM32L0xx_HAL_Driver/Inc/stm32l0xx_ll_i2c.h **** #define LL_I2C_GENERATE_RESTART_10BIT_READ  (uint32_t)(0x80000000U | I2C_CR2_START | \
 298:../../dependencies/STM32CubeL0/Drivers/STM32L0xx_HAL_Driver/Inc/stm32l0xx_ll_i2c.h ****                                                        I2C_CR2_RD_WRN | I2C_CR2_HEAD10R)
 299:../../dependencies/STM32CubeL0/Drivers/STM32L0xx_HAL_Driver/Inc/stm32l0xx_ll_i2c.h **** /*!< Generate Restart for read request, slave 10Bit address. */
 300:../../dependencies/STM32CubeL0/Drivers/STM32L0xx_HAL_Driver/Inc/stm32l0xx_ll_i2c.h **** #define LL_I2C_GENERATE_RESTART_10BIT_WRITE (uint32_t)(0x80000000U | I2C_CR2_START)
 301:../../dependencies/STM32CubeL0/Drivers/STM32L0xx_HAL_Driver/Inc/stm32l0xx_ll_i2c.h **** /*!< Generate Restart for write request, slave 10Bit address.*/
 302:../../dependencies/STM32CubeL0/Drivers/STM32L0xx_HAL_Driver/Inc/stm32l0xx_ll_i2c.h **** /**
 303:../../dependencies/STM32CubeL0/Drivers/STM32L0xx_HAL_Driver/Inc/stm32l0xx_ll_i2c.h ****   * @}
 304:../../dependencies/STM32CubeL0/Drivers/STM32L0xx_HAL_Driver/Inc/stm32l0xx_ll_i2c.h ****   */
 305:../../dependencies/STM32CubeL0/Drivers/STM32L0xx_HAL_Driver/Inc/stm32l0xx_ll_i2c.h **** 
 306:../../dependencies/STM32CubeL0/Drivers/STM32L0xx_HAL_Driver/Inc/stm32l0xx_ll_i2c.h **** /** @defgroup I2C_LL_EC_DIRECTION Read Write Direction
 307:../../dependencies/STM32CubeL0/Drivers/STM32L0xx_HAL_Driver/Inc/stm32l0xx_ll_i2c.h ****   * @{
 308:../../dependencies/STM32CubeL0/Drivers/STM32L0xx_HAL_Driver/Inc/stm32l0xx_ll_i2c.h ****   */
 309:../../dependencies/STM32CubeL0/Drivers/STM32L0xx_HAL_Driver/Inc/stm32l0xx_ll_i2c.h **** #define LL_I2C_DIRECTION_WRITE              0x00000000U              /*!< Write transfer request by
 310:../../dependencies/STM32CubeL0/Drivers/STM32L0xx_HAL_Driver/Inc/stm32l0xx_ll_i2c.h ****                                                                           slave enters receiver mod
 311:../../dependencies/STM32CubeL0/Drivers/STM32L0xx_HAL_Driver/Inc/stm32l0xx_ll_i2c.h **** #define LL_I2C_DIRECTION_READ               I2C_ISR_DIR              /*!< Read transfer request by 
 312:../../dependencies/STM32CubeL0/Drivers/STM32L0xx_HAL_Driver/Inc/stm32l0xx_ll_i2c.h ****                                                                           slave enters transmitter 
 313:../../dependencies/STM32CubeL0/Drivers/STM32L0xx_HAL_Driver/Inc/stm32l0xx_ll_i2c.h **** /**
ARM GAS  /var/folders/fs/dxwfnrqj18z860lwl3d6f5t00000gn/T//ccXcLPlJ.s 			page 7


 314:../../dependencies/STM32CubeL0/Drivers/STM32L0xx_HAL_Driver/Inc/stm32l0xx_ll_i2c.h ****   * @}
 315:../../dependencies/STM32CubeL0/Drivers/STM32L0xx_HAL_Driver/Inc/stm32l0xx_ll_i2c.h ****   */
 316:../../dependencies/STM32CubeL0/Drivers/STM32L0xx_HAL_Driver/Inc/stm32l0xx_ll_i2c.h **** 
 317:../../dependencies/STM32CubeL0/Drivers/STM32L0xx_HAL_Driver/Inc/stm32l0xx_ll_i2c.h **** /** @defgroup I2C_LL_EC_DMA_REG_DATA DMA Register Data
 318:../../dependencies/STM32CubeL0/Drivers/STM32L0xx_HAL_Driver/Inc/stm32l0xx_ll_i2c.h ****   * @{
 319:../../dependencies/STM32CubeL0/Drivers/STM32L0xx_HAL_Driver/Inc/stm32l0xx_ll_i2c.h ****   */
 320:../../dependencies/STM32CubeL0/Drivers/STM32L0xx_HAL_Driver/Inc/stm32l0xx_ll_i2c.h **** #define LL_I2C_DMA_REG_DATA_TRANSMIT        0x00000000U              /*!< Get address of data regis
 321:../../dependencies/STM32CubeL0/Drivers/STM32L0xx_HAL_Driver/Inc/stm32l0xx_ll_i2c.h ****                                                                           transmission */
 322:../../dependencies/STM32CubeL0/Drivers/STM32L0xx_HAL_Driver/Inc/stm32l0xx_ll_i2c.h **** #define LL_I2C_DMA_REG_DATA_RECEIVE         0x00000001U              /*!< Get address of data regis
 323:../../dependencies/STM32CubeL0/Drivers/STM32L0xx_HAL_Driver/Inc/stm32l0xx_ll_i2c.h ****                                                                           reception */
 324:../../dependencies/STM32CubeL0/Drivers/STM32L0xx_HAL_Driver/Inc/stm32l0xx_ll_i2c.h **** /**
 325:../../dependencies/STM32CubeL0/Drivers/STM32L0xx_HAL_Driver/Inc/stm32l0xx_ll_i2c.h ****   * @}
 326:../../dependencies/STM32CubeL0/Drivers/STM32L0xx_HAL_Driver/Inc/stm32l0xx_ll_i2c.h ****   */
 327:../../dependencies/STM32CubeL0/Drivers/STM32L0xx_HAL_Driver/Inc/stm32l0xx_ll_i2c.h **** 
 328:../../dependencies/STM32CubeL0/Drivers/STM32L0xx_HAL_Driver/Inc/stm32l0xx_ll_i2c.h **** /** @defgroup I2C_LL_EC_SMBUS_TIMEOUTA_MODE SMBus TimeoutA Mode SCL SDA Timeout
 329:../../dependencies/STM32CubeL0/Drivers/STM32L0xx_HAL_Driver/Inc/stm32l0xx_ll_i2c.h ****   * @{
 330:../../dependencies/STM32CubeL0/Drivers/STM32L0xx_HAL_Driver/Inc/stm32l0xx_ll_i2c.h ****   */
 331:../../dependencies/STM32CubeL0/Drivers/STM32L0xx_HAL_Driver/Inc/stm32l0xx_ll_i2c.h **** #define LL_I2C_SMBUS_TIMEOUTA_MODE_SCL_LOW      0x00000000U          /*!< TimeoutA is used to detec
 332:../../dependencies/STM32CubeL0/Drivers/STM32L0xx_HAL_Driver/Inc/stm32l0xx_ll_i2c.h ****                                                                           SCL low level timeout.   
 333:../../dependencies/STM32CubeL0/Drivers/STM32L0xx_HAL_Driver/Inc/stm32l0xx_ll_i2c.h **** #define LL_I2C_SMBUS_TIMEOUTA_MODE_SDA_SCL_HIGH I2C_TIMEOUTR_TIDLE   /*!< TimeoutA is used to detec
 334:../../dependencies/STM32CubeL0/Drivers/STM32L0xx_HAL_Driver/Inc/stm32l0xx_ll_i2c.h ****                                                                           both SCL and SDA high lev
 335:../../dependencies/STM32CubeL0/Drivers/STM32L0xx_HAL_Driver/Inc/stm32l0xx_ll_i2c.h **** /**
 336:../../dependencies/STM32CubeL0/Drivers/STM32L0xx_HAL_Driver/Inc/stm32l0xx_ll_i2c.h ****   * @}
 337:../../dependencies/STM32CubeL0/Drivers/STM32L0xx_HAL_Driver/Inc/stm32l0xx_ll_i2c.h ****   */
 338:../../dependencies/STM32CubeL0/Drivers/STM32L0xx_HAL_Driver/Inc/stm32l0xx_ll_i2c.h **** 
 339:../../dependencies/STM32CubeL0/Drivers/STM32L0xx_HAL_Driver/Inc/stm32l0xx_ll_i2c.h **** /** @defgroup I2C_LL_EC_SMBUS_TIMEOUT_SELECTION SMBus Timeout Selection
 340:../../dependencies/STM32CubeL0/Drivers/STM32L0xx_HAL_Driver/Inc/stm32l0xx_ll_i2c.h ****   * @{
 341:../../dependencies/STM32CubeL0/Drivers/STM32L0xx_HAL_Driver/Inc/stm32l0xx_ll_i2c.h ****   */
 342:../../dependencies/STM32CubeL0/Drivers/STM32L0xx_HAL_Driver/Inc/stm32l0xx_ll_i2c.h **** #define LL_I2C_SMBUS_TIMEOUTA               I2C_TIMEOUTR_TIMOUTEN                 /*!< TimeoutA ena
 343:../../dependencies/STM32CubeL0/Drivers/STM32L0xx_HAL_Driver/Inc/stm32l0xx_ll_i2c.h **** #define LL_I2C_SMBUS_TIMEOUTB               I2C_TIMEOUTR_TEXTEN                   /*!< TimeoutB (ex
 344:../../dependencies/STM32CubeL0/Drivers/STM32L0xx_HAL_Driver/Inc/stm32l0xx_ll_i2c.h ****                                                                                        enable bit  
 345:../../dependencies/STM32CubeL0/Drivers/STM32L0xx_HAL_Driver/Inc/stm32l0xx_ll_i2c.h **** #define LL_I2C_SMBUS_ALL_TIMEOUT            (uint32_t)(I2C_TIMEOUTR_TIMOUTEN | \
 346:../../dependencies/STM32CubeL0/Drivers/STM32L0xx_HAL_Driver/Inc/stm32l0xx_ll_i2c.h ****                                                        I2C_TIMEOUTR_TEXTEN)       /*!< TimeoutA and
 347:../../dependencies/STM32CubeL0/Drivers/STM32L0xx_HAL_Driver/Inc/stm32l0xx_ll_i2c.h **** (extended clock) enable bits */
 348:../../dependencies/STM32CubeL0/Drivers/STM32L0xx_HAL_Driver/Inc/stm32l0xx_ll_i2c.h **** /**
 349:../../dependencies/STM32CubeL0/Drivers/STM32L0xx_HAL_Driver/Inc/stm32l0xx_ll_i2c.h ****   * @}
 350:../../dependencies/STM32CubeL0/Drivers/STM32L0xx_HAL_Driver/Inc/stm32l0xx_ll_i2c.h ****   */
 351:../../dependencies/STM32CubeL0/Drivers/STM32L0xx_HAL_Driver/Inc/stm32l0xx_ll_i2c.h **** 
 352:../../dependencies/STM32CubeL0/Drivers/STM32L0xx_HAL_Driver/Inc/stm32l0xx_ll_i2c.h **** /**
 353:../../dependencies/STM32CubeL0/Drivers/STM32L0xx_HAL_Driver/Inc/stm32l0xx_ll_i2c.h ****   * @}
 354:../../dependencies/STM32CubeL0/Drivers/STM32L0xx_HAL_Driver/Inc/stm32l0xx_ll_i2c.h ****   */
 355:../../dependencies/STM32CubeL0/Drivers/STM32L0xx_HAL_Driver/Inc/stm32l0xx_ll_i2c.h **** 
 356:../../dependencies/STM32CubeL0/Drivers/STM32L0xx_HAL_Driver/Inc/stm32l0xx_ll_i2c.h **** /* Exported macro ------------------------------------------------------------*/
 357:../../dependencies/STM32CubeL0/Drivers/STM32L0xx_HAL_Driver/Inc/stm32l0xx_ll_i2c.h **** /** @defgroup I2C_LL_Exported_Macros I2C Exported Macros
 358:../../dependencies/STM32CubeL0/Drivers/STM32L0xx_HAL_Driver/Inc/stm32l0xx_ll_i2c.h ****   * @{
 359:../../dependencies/STM32CubeL0/Drivers/STM32L0xx_HAL_Driver/Inc/stm32l0xx_ll_i2c.h ****   */
 360:../../dependencies/STM32CubeL0/Drivers/STM32L0xx_HAL_Driver/Inc/stm32l0xx_ll_i2c.h **** 
 361:../../dependencies/STM32CubeL0/Drivers/STM32L0xx_HAL_Driver/Inc/stm32l0xx_ll_i2c.h **** /** @defgroup I2C_LL_EM_WRITE_READ Common Write and read registers Macros
 362:../../dependencies/STM32CubeL0/Drivers/STM32L0xx_HAL_Driver/Inc/stm32l0xx_ll_i2c.h ****   * @{
 363:../../dependencies/STM32CubeL0/Drivers/STM32L0xx_HAL_Driver/Inc/stm32l0xx_ll_i2c.h ****   */
 364:../../dependencies/STM32CubeL0/Drivers/STM32L0xx_HAL_Driver/Inc/stm32l0xx_ll_i2c.h **** 
 365:../../dependencies/STM32CubeL0/Drivers/STM32L0xx_HAL_Driver/Inc/stm32l0xx_ll_i2c.h **** /**
 366:../../dependencies/STM32CubeL0/Drivers/STM32L0xx_HAL_Driver/Inc/stm32l0xx_ll_i2c.h ****   * @brief  Write a value in I2C register
 367:../../dependencies/STM32CubeL0/Drivers/STM32L0xx_HAL_Driver/Inc/stm32l0xx_ll_i2c.h ****   * @param  __INSTANCE__ I2C Instance
 368:../../dependencies/STM32CubeL0/Drivers/STM32L0xx_HAL_Driver/Inc/stm32l0xx_ll_i2c.h ****   * @param  __REG__ Register to be written
 369:../../dependencies/STM32CubeL0/Drivers/STM32L0xx_HAL_Driver/Inc/stm32l0xx_ll_i2c.h ****   * @param  __VALUE__ Value to be written in the register
 370:../../dependencies/STM32CubeL0/Drivers/STM32L0xx_HAL_Driver/Inc/stm32l0xx_ll_i2c.h ****   * @retval None
ARM GAS  /var/folders/fs/dxwfnrqj18z860lwl3d6f5t00000gn/T//ccXcLPlJ.s 			page 8


 371:../../dependencies/STM32CubeL0/Drivers/STM32L0xx_HAL_Driver/Inc/stm32l0xx_ll_i2c.h ****   */
 372:../../dependencies/STM32CubeL0/Drivers/STM32L0xx_HAL_Driver/Inc/stm32l0xx_ll_i2c.h **** #define LL_I2C_WriteReg(__INSTANCE__, __REG__, __VALUE__) WRITE_REG(__INSTANCE__->__REG__, (__VALUE
 373:../../dependencies/STM32CubeL0/Drivers/STM32L0xx_HAL_Driver/Inc/stm32l0xx_ll_i2c.h **** 
 374:../../dependencies/STM32CubeL0/Drivers/STM32L0xx_HAL_Driver/Inc/stm32l0xx_ll_i2c.h **** /**
 375:../../dependencies/STM32CubeL0/Drivers/STM32L0xx_HAL_Driver/Inc/stm32l0xx_ll_i2c.h ****   * @brief  Read a value in I2C register
 376:../../dependencies/STM32CubeL0/Drivers/STM32L0xx_HAL_Driver/Inc/stm32l0xx_ll_i2c.h ****   * @param  __INSTANCE__ I2C Instance
 377:../../dependencies/STM32CubeL0/Drivers/STM32L0xx_HAL_Driver/Inc/stm32l0xx_ll_i2c.h ****   * @param  __REG__ Register to be read
 378:../../dependencies/STM32CubeL0/Drivers/STM32L0xx_HAL_Driver/Inc/stm32l0xx_ll_i2c.h ****   * @retval Register value
 379:../../dependencies/STM32CubeL0/Drivers/STM32L0xx_HAL_Driver/Inc/stm32l0xx_ll_i2c.h ****   */
 380:../../dependencies/STM32CubeL0/Drivers/STM32L0xx_HAL_Driver/Inc/stm32l0xx_ll_i2c.h **** #define LL_I2C_ReadReg(__INSTANCE__, __REG__) READ_REG(__INSTANCE__->__REG__)
 381:../../dependencies/STM32CubeL0/Drivers/STM32L0xx_HAL_Driver/Inc/stm32l0xx_ll_i2c.h **** /**
 382:../../dependencies/STM32CubeL0/Drivers/STM32L0xx_HAL_Driver/Inc/stm32l0xx_ll_i2c.h ****   * @}
 383:../../dependencies/STM32CubeL0/Drivers/STM32L0xx_HAL_Driver/Inc/stm32l0xx_ll_i2c.h ****   */
 384:../../dependencies/STM32CubeL0/Drivers/STM32L0xx_HAL_Driver/Inc/stm32l0xx_ll_i2c.h **** 
 385:../../dependencies/STM32CubeL0/Drivers/STM32L0xx_HAL_Driver/Inc/stm32l0xx_ll_i2c.h **** /** @defgroup I2C_LL_EM_CONVERT_TIMINGS Convert SDA SCL timings
 386:../../dependencies/STM32CubeL0/Drivers/STM32L0xx_HAL_Driver/Inc/stm32l0xx_ll_i2c.h ****   * @{
 387:../../dependencies/STM32CubeL0/Drivers/STM32L0xx_HAL_Driver/Inc/stm32l0xx_ll_i2c.h ****   */
 388:../../dependencies/STM32CubeL0/Drivers/STM32L0xx_HAL_Driver/Inc/stm32l0xx_ll_i2c.h **** /**
 389:../../dependencies/STM32CubeL0/Drivers/STM32L0xx_HAL_Driver/Inc/stm32l0xx_ll_i2c.h ****   * @brief  Configure the SDA setup, hold time and the SCL high, low period.
 390:../../dependencies/STM32CubeL0/Drivers/STM32L0xx_HAL_Driver/Inc/stm32l0xx_ll_i2c.h ****   * @param  __PRESCALER__ This parameter must be a value between  Min_Data=0 and Max_Data=0xF.
 391:../../dependencies/STM32CubeL0/Drivers/STM32L0xx_HAL_Driver/Inc/stm32l0xx_ll_i2c.h ****   * @param  __SETUP_TIME__ This parameter must be a value between Min_Data=0 and Max_Data=0xF.
 392:../../dependencies/STM32CubeL0/Drivers/STM32L0xx_HAL_Driver/Inc/stm32l0xx_ll_i2c.h ****                            (tscldel = (SCLDEL+1)xtpresc)
 393:../../dependencies/STM32CubeL0/Drivers/STM32L0xx_HAL_Driver/Inc/stm32l0xx_ll_i2c.h ****   * @param  __HOLD_TIME__  This parameter must be a value between Min_Data=0 and Max_Data=0xF.
 394:../../dependencies/STM32CubeL0/Drivers/STM32L0xx_HAL_Driver/Inc/stm32l0xx_ll_i2c.h ****                            (tsdadel = SDADELxtpresc)
 395:../../dependencies/STM32CubeL0/Drivers/STM32L0xx_HAL_Driver/Inc/stm32l0xx_ll_i2c.h ****   * @param  __SCLH_PERIOD__ This parameter must be a value between Min_Data=0 and Max_Data=0xFF.
 396:../../dependencies/STM32CubeL0/Drivers/STM32L0xx_HAL_Driver/Inc/stm32l0xx_ll_i2c.h ****                             (tsclh = (SCLH+1)xtpresc)
 397:../../dependencies/STM32CubeL0/Drivers/STM32L0xx_HAL_Driver/Inc/stm32l0xx_ll_i2c.h ****   * @param  __SCLL_PERIOD__ This parameter must be a value between  Min_Data=0 and Max_Data=0xFF.
 398:../../dependencies/STM32CubeL0/Drivers/STM32L0xx_HAL_Driver/Inc/stm32l0xx_ll_i2c.h ****                             (tscll = (SCLL+1)xtpresc)
 399:../../dependencies/STM32CubeL0/Drivers/STM32L0xx_HAL_Driver/Inc/stm32l0xx_ll_i2c.h ****   * @retval Value between Min_Data=0 and Max_Data=0xFFFFFFFF
 400:../../dependencies/STM32CubeL0/Drivers/STM32L0xx_HAL_Driver/Inc/stm32l0xx_ll_i2c.h ****   */
 401:../../dependencies/STM32CubeL0/Drivers/STM32L0xx_HAL_Driver/Inc/stm32l0xx_ll_i2c.h **** #define __LL_I2C_CONVERT_TIMINGS(__PRESCALER__, __SETUP_TIME__, __HOLD_TIME__, __SCLH_PERIOD__, __S
 402:../../dependencies/STM32CubeL0/Drivers/STM32L0xx_HAL_Driver/Inc/stm32l0xx_ll_i2c.h ****   ((((uint32_t)(__PRESCALER__)    << I2C_TIMINGR_PRESC_Pos)  & I2C_TIMINGR_PRESC)   | \
 403:../../dependencies/STM32CubeL0/Drivers/STM32L0xx_HAL_Driver/Inc/stm32l0xx_ll_i2c.h ****    (((uint32_t)(__SETUP_TIME__)   << I2C_TIMINGR_SCLDEL_Pos) & I2C_TIMINGR_SCLDEL)  | \
 404:../../dependencies/STM32CubeL0/Drivers/STM32L0xx_HAL_Driver/Inc/stm32l0xx_ll_i2c.h ****    (((uint32_t)(__HOLD_TIME__)    << I2C_TIMINGR_SDADEL_Pos) & I2C_TIMINGR_SDADEL)  | \
 405:../../dependencies/STM32CubeL0/Drivers/STM32L0xx_HAL_Driver/Inc/stm32l0xx_ll_i2c.h ****    (((uint32_t)(__SCLH_PERIOD__)  << I2C_TIMINGR_SCLH_Pos)   & I2C_TIMINGR_SCLH)    | \
 406:../../dependencies/STM32CubeL0/Drivers/STM32L0xx_HAL_Driver/Inc/stm32l0xx_ll_i2c.h ****    (((uint32_t)(__SCLL_PERIOD__)  << I2C_TIMINGR_SCLL_Pos)   & I2C_TIMINGR_SCLL))
 407:../../dependencies/STM32CubeL0/Drivers/STM32L0xx_HAL_Driver/Inc/stm32l0xx_ll_i2c.h **** /**
 408:../../dependencies/STM32CubeL0/Drivers/STM32L0xx_HAL_Driver/Inc/stm32l0xx_ll_i2c.h ****   * @}
 409:../../dependencies/STM32CubeL0/Drivers/STM32L0xx_HAL_Driver/Inc/stm32l0xx_ll_i2c.h ****   */
 410:../../dependencies/STM32CubeL0/Drivers/STM32L0xx_HAL_Driver/Inc/stm32l0xx_ll_i2c.h **** 
 411:../../dependencies/STM32CubeL0/Drivers/STM32L0xx_HAL_Driver/Inc/stm32l0xx_ll_i2c.h **** /**
 412:../../dependencies/STM32CubeL0/Drivers/STM32L0xx_HAL_Driver/Inc/stm32l0xx_ll_i2c.h ****   * @}
 413:../../dependencies/STM32CubeL0/Drivers/STM32L0xx_HAL_Driver/Inc/stm32l0xx_ll_i2c.h ****   */
 414:../../dependencies/STM32CubeL0/Drivers/STM32L0xx_HAL_Driver/Inc/stm32l0xx_ll_i2c.h **** 
 415:../../dependencies/STM32CubeL0/Drivers/STM32L0xx_HAL_Driver/Inc/stm32l0xx_ll_i2c.h **** /* Exported functions --------------------------------------------------------*/
 416:../../dependencies/STM32CubeL0/Drivers/STM32L0xx_HAL_Driver/Inc/stm32l0xx_ll_i2c.h **** /** @defgroup I2C_LL_Exported_Functions I2C Exported Functions
 417:../../dependencies/STM32CubeL0/Drivers/STM32L0xx_HAL_Driver/Inc/stm32l0xx_ll_i2c.h ****   * @{
 418:../../dependencies/STM32CubeL0/Drivers/STM32L0xx_HAL_Driver/Inc/stm32l0xx_ll_i2c.h ****   */
 419:../../dependencies/STM32CubeL0/Drivers/STM32L0xx_HAL_Driver/Inc/stm32l0xx_ll_i2c.h **** 
 420:../../dependencies/STM32CubeL0/Drivers/STM32L0xx_HAL_Driver/Inc/stm32l0xx_ll_i2c.h **** /** @defgroup I2C_LL_EF_Configuration Configuration
 421:../../dependencies/STM32CubeL0/Drivers/STM32L0xx_HAL_Driver/Inc/stm32l0xx_ll_i2c.h ****   * @{
 422:../../dependencies/STM32CubeL0/Drivers/STM32L0xx_HAL_Driver/Inc/stm32l0xx_ll_i2c.h ****   */
 423:../../dependencies/STM32CubeL0/Drivers/STM32L0xx_HAL_Driver/Inc/stm32l0xx_ll_i2c.h **** 
 424:../../dependencies/STM32CubeL0/Drivers/STM32L0xx_HAL_Driver/Inc/stm32l0xx_ll_i2c.h **** /**
 425:../../dependencies/STM32CubeL0/Drivers/STM32L0xx_HAL_Driver/Inc/stm32l0xx_ll_i2c.h ****   * @brief  Enable I2C peripheral (PE = 1).
 426:../../dependencies/STM32CubeL0/Drivers/STM32L0xx_HAL_Driver/Inc/stm32l0xx_ll_i2c.h ****   * @rmtoll CR1          PE            LL_I2C_Enable
 427:../../dependencies/STM32CubeL0/Drivers/STM32L0xx_HAL_Driver/Inc/stm32l0xx_ll_i2c.h ****   * @param  I2Cx I2C Instance.
ARM GAS  /var/folders/fs/dxwfnrqj18z860lwl3d6f5t00000gn/T//ccXcLPlJ.s 			page 9


 428:../../dependencies/STM32CubeL0/Drivers/STM32L0xx_HAL_Driver/Inc/stm32l0xx_ll_i2c.h ****   * @retval None
 429:../../dependencies/STM32CubeL0/Drivers/STM32L0xx_HAL_Driver/Inc/stm32l0xx_ll_i2c.h ****   */
 430:../../dependencies/STM32CubeL0/Drivers/STM32L0xx_HAL_Driver/Inc/stm32l0xx_ll_i2c.h **** __STATIC_INLINE void LL_I2C_Enable(I2C_TypeDef *I2Cx)
 431:../../dependencies/STM32CubeL0/Drivers/STM32L0xx_HAL_Driver/Inc/stm32l0xx_ll_i2c.h **** {
 432:../../dependencies/STM32CubeL0/Drivers/STM32L0xx_HAL_Driver/Inc/stm32l0xx_ll_i2c.h ****   SET_BIT(I2Cx->CR1, I2C_CR1_PE);
 433:../../dependencies/STM32CubeL0/Drivers/STM32L0xx_HAL_Driver/Inc/stm32l0xx_ll_i2c.h **** }
 434:../../dependencies/STM32CubeL0/Drivers/STM32L0xx_HAL_Driver/Inc/stm32l0xx_ll_i2c.h **** 
 435:../../dependencies/STM32CubeL0/Drivers/STM32L0xx_HAL_Driver/Inc/stm32l0xx_ll_i2c.h **** /**
 436:../../dependencies/STM32CubeL0/Drivers/STM32L0xx_HAL_Driver/Inc/stm32l0xx_ll_i2c.h ****   * @brief  Disable I2C peripheral (PE = 0).
 437:../../dependencies/STM32CubeL0/Drivers/STM32L0xx_HAL_Driver/Inc/stm32l0xx_ll_i2c.h ****   * @note   When PE = 0, the I2C SCL and SDA lines are released.
 438:../../dependencies/STM32CubeL0/Drivers/STM32L0xx_HAL_Driver/Inc/stm32l0xx_ll_i2c.h ****   *         Internal state machines and status bits are put back to their reset value.
 439:../../dependencies/STM32CubeL0/Drivers/STM32L0xx_HAL_Driver/Inc/stm32l0xx_ll_i2c.h ****   *         When cleared, PE must be kept low for at least 3 APB clock cycles.
 440:../../dependencies/STM32CubeL0/Drivers/STM32L0xx_HAL_Driver/Inc/stm32l0xx_ll_i2c.h ****   * @rmtoll CR1          PE            LL_I2C_Disable
 441:../../dependencies/STM32CubeL0/Drivers/STM32L0xx_HAL_Driver/Inc/stm32l0xx_ll_i2c.h ****   * @param  I2Cx I2C Instance.
 442:../../dependencies/STM32CubeL0/Drivers/STM32L0xx_HAL_Driver/Inc/stm32l0xx_ll_i2c.h ****   * @retval None
 443:../../dependencies/STM32CubeL0/Drivers/STM32L0xx_HAL_Driver/Inc/stm32l0xx_ll_i2c.h ****   */
 444:../../dependencies/STM32CubeL0/Drivers/STM32L0xx_HAL_Driver/Inc/stm32l0xx_ll_i2c.h **** __STATIC_INLINE void LL_I2C_Disable(I2C_TypeDef *I2Cx)
 445:../../dependencies/STM32CubeL0/Drivers/STM32L0xx_HAL_Driver/Inc/stm32l0xx_ll_i2c.h **** {
 446:../../dependencies/STM32CubeL0/Drivers/STM32L0xx_HAL_Driver/Inc/stm32l0xx_ll_i2c.h ****   CLEAR_BIT(I2Cx->CR1, I2C_CR1_PE);
 447:../../dependencies/STM32CubeL0/Drivers/STM32L0xx_HAL_Driver/Inc/stm32l0xx_ll_i2c.h **** }
 448:../../dependencies/STM32CubeL0/Drivers/STM32L0xx_HAL_Driver/Inc/stm32l0xx_ll_i2c.h **** 
 449:../../dependencies/STM32CubeL0/Drivers/STM32L0xx_HAL_Driver/Inc/stm32l0xx_ll_i2c.h **** /**
 450:../../dependencies/STM32CubeL0/Drivers/STM32L0xx_HAL_Driver/Inc/stm32l0xx_ll_i2c.h ****   * @brief  Check if the I2C peripheral is enabled or disabled.
 451:../../dependencies/STM32CubeL0/Drivers/STM32L0xx_HAL_Driver/Inc/stm32l0xx_ll_i2c.h ****   * @rmtoll CR1          PE            LL_I2C_IsEnabled
 452:../../dependencies/STM32CubeL0/Drivers/STM32L0xx_HAL_Driver/Inc/stm32l0xx_ll_i2c.h ****   * @param  I2Cx I2C Instance.
 453:../../dependencies/STM32CubeL0/Drivers/STM32L0xx_HAL_Driver/Inc/stm32l0xx_ll_i2c.h ****   * @retval State of bit (1 or 0).
 454:../../dependencies/STM32CubeL0/Drivers/STM32L0xx_HAL_Driver/Inc/stm32l0xx_ll_i2c.h ****   */
 455:../../dependencies/STM32CubeL0/Drivers/STM32L0xx_HAL_Driver/Inc/stm32l0xx_ll_i2c.h **** __STATIC_INLINE uint32_t LL_I2C_IsEnabled(I2C_TypeDef *I2Cx)
 456:../../dependencies/STM32CubeL0/Drivers/STM32L0xx_HAL_Driver/Inc/stm32l0xx_ll_i2c.h **** {
 457:../../dependencies/STM32CubeL0/Drivers/STM32L0xx_HAL_Driver/Inc/stm32l0xx_ll_i2c.h ****   return ((READ_BIT(I2Cx->CR1, I2C_CR1_PE) == (I2C_CR1_PE)) ? 1UL : 0UL);
 458:../../dependencies/STM32CubeL0/Drivers/STM32L0xx_HAL_Driver/Inc/stm32l0xx_ll_i2c.h **** }
 459:../../dependencies/STM32CubeL0/Drivers/STM32L0xx_HAL_Driver/Inc/stm32l0xx_ll_i2c.h **** 
 460:../../dependencies/STM32CubeL0/Drivers/STM32L0xx_HAL_Driver/Inc/stm32l0xx_ll_i2c.h **** /**
 461:../../dependencies/STM32CubeL0/Drivers/STM32L0xx_HAL_Driver/Inc/stm32l0xx_ll_i2c.h ****   * @brief  Configure Noise Filters (Analog and Digital).
 462:../../dependencies/STM32CubeL0/Drivers/STM32L0xx_HAL_Driver/Inc/stm32l0xx_ll_i2c.h ****   * @note   If the analog filter is also enabled, the digital filter is added to analog filter.
 463:../../dependencies/STM32CubeL0/Drivers/STM32L0xx_HAL_Driver/Inc/stm32l0xx_ll_i2c.h ****   *         The filters can only be programmed when the I2C is disabled (PE = 0).
 464:../../dependencies/STM32CubeL0/Drivers/STM32L0xx_HAL_Driver/Inc/stm32l0xx_ll_i2c.h ****   * @rmtoll CR1          ANFOFF        LL_I2C_ConfigFilters\n
 465:../../dependencies/STM32CubeL0/Drivers/STM32L0xx_HAL_Driver/Inc/stm32l0xx_ll_i2c.h ****   *         CR1          DNF           LL_I2C_ConfigFilters
 466:../../dependencies/STM32CubeL0/Drivers/STM32L0xx_HAL_Driver/Inc/stm32l0xx_ll_i2c.h ****   * @param  I2Cx I2C Instance.
 467:../../dependencies/STM32CubeL0/Drivers/STM32L0xx_HAL_Driver/Inc/stm32l0xx_ll_i2c.h ****   * @param  AnalogFilter This parameter can be one of the following values:
 468:../../dependencies/STM32CubeL0/Drivers/STM32L0xx_HAL_Driver/Inc/stm32l0xx_ll_i2c.h ****   *         @arg @ref LL_I2C_ANALOGFILTER_ENABLE
 469:../../dependencies/STM32CubeL0/Drivers/STM32L0xx_HAL_Driver/Inc/stm32l0xx_ll_i2c.h ****   *         @arg @ref LL_I2C_ANALOGFILTER_DISABLE
 470:../../dependencies/STM32CubeL0/Drivers/STM32L0xx_HAL_Driver/Inc/stm32l0xx_ll_i2c.h ****   * @param  DigitalFilter This parameter must be a value between Min_Data=0x00 (Digital filter disa
 471:../../dependencies/STM32CubeL0/Drivers/STM32L0xx_HAL_Driver/Inc/stm32l0xx_ll_i2c.h ****                           and Max_Data=0x0F (Digital filter enabled and filtering capability up to 
 472:../../dependencies/STM32CubeL0/Drivers/STM32L0xx_HAL_Driver/Inc/stm32l0xx_ll_i2c.h ****   *         This parameter is used to configure the digital noise filter on SDA and SCL input.
 473:../../dependencies/STM32CubeL0/Drivers/STM32L0xx_HAL_Driver/Inc/stm32l0xx_ll_i2c.h ****   *         The digital filter will filter spikes with a length of up to DNF[3:0]*ti2cclk.
 474:../../dependencies/STM32CubeL0/Drivers/STM32L0xx_HAL_Driver/Inc/stm32l0xx_ll_i2c.h ****   * @retval None
 475:../../dependencies/STM32CubeL0/Drivers/STM32L0xx_HAL_Driver/Inc/stm32l0xx_ll_i2c.h ****   */
 476:../../dependencies/STM32CubeL0/Drivers/STM32L0xx_HAL_Driver/Inc/stm32l0xx_ll_i2c.h **** __STATIC_INLINE void LL_I2C_ConfigFilters(I2C_TypeDef *I2Cx, uint32_t AnalogFilter, uint32_t Digita
 477:../../dependencies/STM32CubeL0/Drivers/STM32L0xx_HAL_Driver/Inc/stm32l0xx_ll_i2c.h **** {
 478:../../dependencies/STM32CubeL0/Drivers/STM32L0xx_HAL_Driver/Inc/stm32l0xx_ll_i2c.h ****   MODIFY_REG(I2Cx->CR1, I2C_CR1_ANFOFF | I2C_CR1_DNF, AnalogFilter | (DigitalFilter << I2C_CR1_DNF_
 479:../../dependencies/STM32CubeL0/Drivers/STM32L0xx_HAL_Driver/Inc/stm32l0xx_ll_i2c.h **** }
 480:../../dependencies/STM32CubeL0/Drivers/STM32L0xx_HAL_Driver/Inc/stm32l0xx_ll_i2c.h **** 
 481:../../dependencies/STM32CubeL0/Drivers/STM32L0xx_HAL_Driver/Inc/stm32l0xx_ll_i2c.h **** /**
 482:../../dependencies/STM32CubeL0/Drivers/STM32L0xx_HAL_Driver/Inc/stm32l0xx_ll_i2c.h ****   * @brief  Configure Digital Noise Filter.
 483:../../dependencies/STM32CubeL0/Drivers/STM32L0xx_HAL_Driver/Inc/stm32l0xx_ll_i2c.h ****   * @note   If the analog filter is also enabled, the digital filter is added to analog filter.
 484:../../dependencies/STM32CubeL0/Drivers/STM32L0xx_HAL_Driver/Inc/stm32l0xx_ll_i2c.h ****   *         This filter can only be programmed when the I2C is disabled (PE = 0).
ARM GAS  /var/folders/fs/dxwfnrqj18z860lwl3d6f5t00000gn/T//ccXcLPlJ.s 			page 10


 485:../../dependencies/STM32CubeL0/Drivers/STM32L0xx_HAL_Driver/Inc/stm32l0xx_ll_i2c.h ****   * @rmtoll CR1          DNF           LL_I2C_SetDigitalFilter
 486:../../dependencies/STM32CubeL0/Drivers/STM32L0xx_HAL_Driver/Inc/stm32l0xx_ll_i2c.h ****   * @param  I2Cx I2C Instance.
 487:../../dependencies/STM32CubeL0/Drivers/STM32L0xx_HAL_Driver/Inc/stm32l0xx_ll_i2c.h ****   * @param  DigitalFilter This parameter must be a value between Min_Data=0x00 (Digital filter disa
 488:../../dependencies/STM32CubeL0/Drivers/STM32L0xx_HAL_Driver/Inc/stm32l0xx_ll_i2c.h ****                           and Max_Data=0x0F (Digital filter enabled and filtering capability up to 
 489:../../dependencies/STM32CubeL0/Drivers/STM32L0xx_HAL_Driver/Inc/stm32l0xx_ll_i2c.h ****   *         This parameter is used to configure the digital noise filter on SDA and SCL input.
 490:../../dependencies/STM32CubeL0/Drivers/STM32L0xx_HAL_Driver/Inc/stm32l0xx_ll_i2c.h ****   *         The digital filter will filter spikes with a length of up to DNF[3:0]*ti2cclk.
 491:../../dependencies/STM32CubeL0/Drivers/STM32L0xx_HAL_Driver/Inc/stm32l0xx_ll_i2c.h ****   * @retval None
 492:../../dependencies/STM32CubeL0/Drivers/STM32L0xx_HAL_Driver/Inc/stm32l0xx_ll_i2c.h ****   */
 493:../../dependencies/STM32CubeL0/Drivers/STM32L0xx_HAL_Driver/Inc/stm32l0xx_ll_i2c.h **** __STATIC_INLINE void LL_I2C_SetDigitalFilter(I2C_TypeDef *I2Cx, uint32_t DigitalFilter)
 494:../../dependencies/STM32CubeL0/Drivers/STM32L0xx_HAL_Driver/Inc/stm32l0xx_ll_i2c.h **** {
 495:../../dependencies/STM32CubeL0/Drivers/STM32L0xx_HAL_Driver/Inc/stm32l0xx_ll_i2c.h ****   MODIFY_REG(I2Cx->CR1, I2C_CR1_DNF, DigitalFilter << I2C_CR1_DNF_Pos);
 496:../../dependencies/STM32CubeL0/Drivers/STM32L0xx_HAL_Driver/Inc/stm32l0xx_ll_i2c.h **** }
 497:../../dependencies/STM32CubeL0/Drivers/STM32L0xx_HAL_Driver/Inc/stm32l0xx_ll_i2c.h **** 
 498:../../dependencies/STM32CubeL0/Drivers/STM32L0xx_HAL_Driver/Inc/stm32l0xx_ll_i2c.h **** /**
 499:../../dependencies/STM32CubeL0/Drivers/STM32L0xx_HAL_Driver/Inc/stm32l0xx_ll_i2c.h ****   * @brief  Get the current Digital Noise Filter configuration.
 500:../../dependencies/STM32CubeL0/Drivers/STM32L0xx_HAL_Driver/Inc/stm32l0xx_ll_i2c.h ****   * @rmtoll CR1          DNF           LL_I2C_GetDigitalFilter
 501:../../dependencies/STM32CubeL0/Drivers/STM32L0xx_HAL_Driver/Inc/stm32l0xx_ll_i2c.h ****   * @param  I2Cx I2C Instance.
 502:../../dependencies/STM32CubeL0/Drivers/STM32L0xx_HAL_Driver/Inc/stm32l0xx_ll_i2c.h ****   * @retval Value between Min_Data=0x0 and Max_Data=0xF
 503:../../dependencies/STM32CubeL0/Drivers/STM32L0xx_HAL_Driver/Inc/stm32l0xx_ll_i2c.h ****   */
 504:../../dependencies/STM32CubeL0/Drivers/STM32L0xx_HAL_Driver/Inc/stm32l0xx_ll_i2c.h **** __STATIC_INLINE uint32_t LL_I2C_GetDigitalFilter(I2C_TypeDef *I2Cx)
 505:../../dependencies/STM32CubeL0/Drivers/STM32L0xx_HAL_Driver/Inc/stm32l0xx_ll_i2c.h **** {
 506:../../dependencies/STM32CubeL0/Drivers/STM32L0xx_HAL_Driver/Inc/stm32l0xx_ll_i2c.h ****   return (uint32_t)(READ_BIT(I2Cx->CR1, I2C_CR1_DNF) >> I2C_CR1_DNF_Pos);
 507:../../dependencies/STM32CubeL0/Drivers/STM32L0xx_HAL_Driver/Inc/stm32l0xx_ll_i2c.h **** }
 508:../../dependencies/STM32CubeL0/Drivers/STM32L0xx_HAL_Driver/Inc/stm32l0xx_ll_i2c.h **** 
 509:../../dependencies/STM32CubeL0/Drivers/STM32L0xx_HAL_Driver/Inc/stm32l0xx_ll_i2c.h **** /**
 510:../../dependencies/STM32CubeL0/Drivers/STM32L0xx_HAL_Driver/Inc/stm32l0xx_ll_i2c.h ****   * @brief  Enable Analog Noise Filter.
 511:../../dependencies/STM32CubeL0/Drivers/STM32L0xx_HAL_Driver/Inc/stm32l0xx_ll_i2c.h ****   * @note   This filter can only be programmed when the I2C is disabled (PE = 0).
 512:../../dependencies/STM32CubeL0/Drivers/STM32L0xx_HAL_Driver/Inc/stm32l0xx_ll_i2c.h ****   * @rmtoll CR1          ANFOFF        LL_I2C_EnableAnalogFilter
 513:../../dependencies/STM32CubeL0/Drivers/STM32L0xx_HAL_Driver/Inc/stm32l0xx_ll_i2c.h ****   * @param  I2Cx I2C Instance.
 514:../../dependencies/STM32CubeL0/Drivers/STM32L0xx_HAL_Driver/Inc/stm32l0xx_ll_i2c.h ****   * @retval None
 515:../../dependencies/STM32CubeL0/Drivers/STM32L0xx_HAL_Driver/Inc/stm32l0xx_ll_i2c.h ****   */
 516:../../dependencies/STM32CubeL0/Drivers/STM32L0xx_HAL_Driver/Inc/stm32l0xx_ll_i2c.h **** __STATIC_INLINE void LL_I2C_EnableAnalogFilter(I2C_TypeDef *I2Cx)
 517:../../dependencies/STM32CubeL0/Drivers/STM32L0xx_HAL_Driver/Inc/stm32l0xx_ll_i2c.h **** {
 518:../../dependencies/STM32CubeL0/Drivers/STM32L0xx_HAL_Driver/Inc/stm32l0xx_ll_i2c.h ****   CLEAR_BIT(I2Cx->CR1, I2C_CR1_ANFOFF);
 519:../../dependencies/STM32CubeL0/Drivers/STM32L0xx_HAL_Driver/Inc/stm32l0xx_ll_i2c.h **** }
 520:../../dependencies/STM32CubeL0/Drivers/STM32L0xx_HAL_Driver/Inc/stm32l0xx_ll_i2c.h **** 
 521:../../dependencies/STM32CubeL0/Drivers/STM32L0xx_HAL_Driver/Inc/stm32l0xx_ll_i2c.h **** /**
 522:../../dependencies/STM32CubeL0/Drivers/STM32L0xx_HAL_Driver/Inc/stm32l0xx_ll_i2c.h ****   * @brief  Disable Analog Noise Filter.
 523:../../dependencies/STM32CubeL0/Drivers/STM32L0xx_HAL_Driver/Inc/stm32l0xx_ll_i2c.h ****   * @note   This filter can only be programmed when the I2C is disabled (PE = 0).
 524:../../dependencies/STM32CubeL0/Drivers/STM32L0xx_HAL_Driver/Inc/stm32l0xx_ll_i2c.h ****   * @rmtoll CR1          ANFOFF        LL_I2C_DisableAnalogFilter
 525:../../dependencies/STM32CubeL0/Drivers/STM32L0xx_HAL_Driver/Inc/stm32l0xx_ll_i2c.h ****   * @param  I2Cx I2C Instance.
 526:../../dependencies/STM32CubeL0/Drivers/STM32L0xx_HAL_Driver/Inc/stm32l0xx_ll_i2c.h ****   * @retval None
 527:../../dependencies/STM32CubeL0/Drivers/STM32L0xx_HAL_Driver/Inc/stm32l0xx_ll_i2c.h ****   */
 528:../../dependencies/STM32CubeL0/Drivers/STM32L0xx_HAL_Driver/Inc/stm32l0xx_ll_i2c.h **** __STATIC_INLINE void LL_I2C_DisableAnalogFilter(I2C_TypeDef *I2Cx)
 529:../../dependencies/STM32CubeL0/Drivers/STM32L0xx_HAL_Driver/Inc/stm32l0xx_ll_i2c.h **** {
 530:../../dependencies/STM32CubeL0/Drivers/STM32L0xx_HAL_Driver/Inc/stm32l0xx_ll_i2c.h ****   SET_BIT(I2Cx->CR1, I2C_CR1_ANFOFF);
 531:../../dependencies/STM32CubeL0/Drivers/STM32L0xx_HAL_Driver/Inc/stm32l0xx_ll_i2c.h **** }
 532:../../dependencies/STM32CubeL0/Drivers/STM32L0xx_HAL_Driver/Inc/stm32l0xx_ll_i2c.h **** 
 533:../../dependencies/STM32CubeL0/Drivers/STM32L0xx_HAL_Driver/Inc/stm32l0xx_ll_i2c.h **** /**
 534:../../dependencies/STM32CubeL0/Drivers/STM32L0xx_HAL_Driver/Inc/stm32l0xx_ll_i2c.h ****   * @brief  Check if Analog Noise Filter is enabled or disabled.
 535:../../dependencies/STM32CubeL0/Drivers/STM32L0xx_HAL_Driver/Inc/stm32l0xx_ll_i2c.h ****   * @rmtoll CR1          ANFOFF        LL_I2C_IsEnabledAnalogFilter
 536:../../dependencies/STM32CubeL0/Drivers/STM32L0xx_HAL_Driver/Inc/stm32l0xx_ll_i2c.h ****   * @param  I2Cx I2C Instance.
 537:../../dependencies/STM32CubeL0/Drivers/STM32L0xx_HAL_Driver/Inc/stm32l0xx_ll_i2c.h ****   * @retval State of bit (1 or 0).
 538:../../dependencies/STM32CubeL0/Drivers/STM32L0xx_HAL_Driver/Inc/stm32l0xx_ll_i2c.h ****   */
 539:../../dependencies/STM32CubeL0/Drivers/STM32L0xx_HAL_Driver/Inc/stm32l0xx_ll_i2c.h **** __STATIC_INLINE uint32_t LL_I2C_IsEnabledAnalogFilter(I2C_TypeDef *I2Cx)
 540:../../dependencies/STM32CubeL0/Drivers/STM32L0xx_HAL_Driver/Inc/stm32l0xx_ll_i2c.h **** {
 541:../../dependencies/STM32CubeL0/Drivers/STM32L0xx_HAL_Driver/Inc/stm32l0xx_ll_i2c.h ****   return ((READ_BIT(I2Cx->CR1, I2C_CR1_ANFOFF) != (I2C_CR1_ANFOFF)) ? 1UL : 0UL);
ARM GAS  /var/folders/fs/dxwfnrqj18z860lwl3d6f5t00000gn/T//ccXcLPlJ.s 			page 11


 542:../../dependencies/STM32CubeL0/Drivers/STM32L0xx_HAL_Driver/Inc/stm32l0xx_ll_i2c.h **** }
 543:../../dependencies/STM32CubeL0/Drivers/STM32L0xx_HAL_Driver/Inc/stm32l0xx_ll_i2c.h **** 
 544:../../dependencies/STM32CubeL0/Drivers/STM32L0xx_HAL_Driver/Inc/stm32l0xx_ll_i2c.h **** /**
 545:../../dependencies/STM32CubeL0/Drivers/STM32L0xx_HAL_Driver/Inc/stm32l0xx_ll_i2c.h ****   * @brief  Enable DMA transmission requests.
 546:../../dependencies/STM32CubeL0/Drivers/STM32L0xx_HAL_Driver/Inc/stm32l0xx_ll_i2c.h ****   * @rmtoll CR1          TXDMAEN       LL_I2C_EnableDMAReq_TX
 547:../../dependencies/STM32CubeL0/Drivers/STM32L0xx_HAL_Driver/Inc/stm32l0xx_ll_i2c.h ****   * @param  I2Cx I2C Instance.
 548:../../dependencies/STM32CubeL0/Drivers/STM32L0xx_HAL_Driver/Inc/stm32l0xx_ll_i2c.h ****   * @retval None
 549:../../dependencies/STM32CubeL0/Drivers/STM32L0xx_HAL_Driver/Inc/stm32l0xx_ll_i2c.h ****   */
 550:../../dependencies/STM32CubeL0/Drivers/STM32L0xx_HAL_Driver/Inc/stm32l0xx_ll_i2c.h **** __STATIC_INLINE void LL_I2C_EnableDMAReq_TX(I2C_TypeDef *I2Cx)
 551:../../dependencies/STM32CubeL0/Drivers/STM32L0xx_HAL_Driver/Inc/stm32l0xx_ll_i2c.h **** {
 552:../../dependencies/STM32CubeL0/Drivers/STM32L0xx_HAL_Driver/Inc/stm32l0xx_ll_i2c.h ****   SET_BIT(I2Cx->CR1, I2C_CR1_TXDMAEN);
 553:../../dependencies/STM32CubeL0/Drivers/STM32L0xx_HAL_Driver/Inc/stm32l0xx_ll_i2c.h **** }
 554:../../dependencies/STM32CubeL0/Drivers/STM32L0xx_HAL_Driver/Inc/stm32l0xx_ll_i2c.h **** 
 555:../../dependencies/STM32CubeL0/Drivers/STM32L0xx_HAL_Driver/Inc/stm32l0xx_ll_i2c.h **** /**
 556:../../dependencies/STM32CubeL0/Drivers/STM32L0xx_HAL_Driver/Inc/stm32l0xx_ll_i2c.h ****   * @brief  Disable DMA transmission requests.
 557:../../dependencies/STM32CubeL0/Drivers/STM32L0xx_HAL_Driver/Inc/stm32l0xx_ll_i2c.h ****   * @rmtoll CR1          TXDMAEN       LL_I2C_DisableDMAReq_TX
 558:../../dependencies/STM32CubeL0/Drivers/STM32L0xx_HAL_Driver/Inc/stm32l0xx_ll_i2c.h ****   * @param  I2Cx I2C Instance.
 559:../../dependencies/STM32CubeL0/Drivers/STM32L0xx_HAL_Driver/Inc/stm32l0xx_ll_i2c.h ****   * @retval None
 560:../../dependencies/STM32CubeL0/Drivers/STM32L0xx_HAL_Driver/Inc/stm32l0xx_ll_i2c.h ****   */
 561:../../dependencies/STM32CubeL0/Drivers/STM32L0xx_HAL_Driver/Inc/stm32l0xx_ll_i2c.h **** __STATIC_INLINE void LL_I2C_DisableDMAReq_TX(I2C_TypeDef *I2Cx)
 562:../../dependencies/STM32CubeL0/Drivers/STM32L0xx_HAL_Driver/Inc/stm32l0xx_ll_i2c.h **** {
 563:../../dependencies/STM32CubeL0/Drivers/STM32L0xx_HAL_Driver/Inc/stm32l0xx_ll_i2c.h ****   CLEAR_BIT(I2Cx->CR1, I2C_CR1_TXDMAEN);
 564:../../dependencies/STM32CubeL0/Drivers/STM32L0xx_HAL_Driver/Inc/stm32l0xx_ll_i2c.h **** }
 565:../../dependencies/STM32CubeL0/Drivers/STM32L0xx_HAL_Driver/Inc/stm32l0xx_ll_i2c.h **** 
 566:../../dependencies/STM32CubeL0/Drivers/STM32L0xx_HAL_Driver/Inc/stm32l0xx_ll_i2c.h **** /**
 567:../../dependencies/STM32CubeL0/Drivers/STM32L0xx_HAL_Driver/Inc/stm32l0xx_ll_i2c.h ****   * @brief  Check if DMA transmission requests are enabled or disabled.
 568:../../dependencies/STM32CubeL0/Drivers/STM32L0xx_HAL_Driver/Inc/stm32l0xx_ll_i2c.h ****   * @rmtoll CR1          TXDMAEN       LL_I2C_IsEnabledDMAReq_TX
 569:../../dependencies/STM32CubeL0/Drivers/STM32L0xx_HAL_Driver/Inc/stm32l0xx_ll_i2c.h ****   * @param  I2Cx I2C Instance.
 570:../../dependencies/STM32CubeL0/Drivers/STM32L0xx_HAL_Driver/Inc/stm32l0xx_ll_i2c.h ****   * @retval State of bit (1 or 0).
 571:../../dependencies/STM32CubeL0/Drivers/STM32L0xx_HAL_Driver/Inc/stm32l0xx_ll_i2c.h ****   */
 572:../../dependencies/STM32CubeL0/Drivers/STM32L0xx_HAL_Driver/Inc/stm32l0xx_ll_i2c.h **** __STATIC_INLINE uint32_t LL_I2C_IsEnabledDMAReq_TX(I2C_TypeDef *I2Cx)
 573:../../dependencies/STM32CubeL0/Drivers/STM32L0xx_HAL_Driver/Inc/stm32l0xx_ll_i2c.h **** {
 574:../../dependencies/STM32CubeL0/Drivers/STM32L0xx_HAL_Driver/Inc/stm32l0xx_ll_i2c.h ****   return ((READ_BIT(I2Cx->CR1, I2C_CR1_TXDMAEN) == (I2C_CR1_TXDMAEN)) ? 1UL : 0UL);
 575:../../dependencies/STM32CubeL0/Drivers/STM32L0xx_HAL_Driver/Inc/stm32l0xx_ll_i2c.h **** }
 576:../../dependencies/STM32CubeL0/Drivers/STM32L0xx_HAL_Driver/Inc/stm32l0xx_ll_i2c.h **** 
 577:../../dependencies/STM32CubeL0/Drivers/STM32L0xx_HAL_Driver/Inc/stm32l0xx_ll_i2c.h **** /**
 578:../../dependencies/STM32CubeL0/Drivers/STM32L0xx_HAL_Driver/Inc/stm32l0xx_ll_i2c.h ****   * @brief  Enable DMA reception requests.
 579:../../dependencies/STM32CubeL0/Drivers/STM32L0xx_HAL_Driver/Inc/stm32l0xx_ll_i2c.h ****   * @rmtoll CR1          RXDMAEN       LL_I2C_EnableDMAReq_RX
 580:../../dependencies/STM32CubeL0/Drivers/STM32L0xx_HAL_Driver/Inc/stm32l0xx_ll_i2c.h ****   * @param  I2Cx I2C Instance.
 581:../../dependencies/STM32CubeL0/Drivers/STM32L0xx_HAL_Driver/Inc/stm32l0xx_ll_i2c.h ****   * @retval None
 582:../../dependencies/STM32CubeL0/Drivers/STM32L0xx_HAL_Driver/Inc/stm32l0xx_ll_i2c.h ****   */
 583:../../dependencies/STM32CubeL0/Drivers/STM32L0xx_HAL_Driver/Inc/stm32l0xx_ll_i2c.h **** __STATIC_INLINE void LL_I2C_EnableDMAReq_RX(I2C_TypeDef *I2Cx)
 584:../../dependencies/STM32CubeL0/Drivers/STM32L0xx_HAL_Driver/Inc/stm32l0xx_ll_i2c.h **** {
 585:../../dependencies/STM32CubeL0/Drivers/STM32L0xx_HAL_Driver/Inc/stm32l0xx_ll_i2c.h ****   SET_BIT(I2Cx->CR1, I2C_CR1_RXDMAEN);
 586:../../dependencies/STM32CubeL0/Drivers/STM32L0xx_HAL_Driver/Inc/stm32l0xx_ll_i2c.h **** }
 587:../../dependencies/STM32CubeL0/Drivers/STM32L0xx_HAL_Driver/Inc/stm32l0xx_ll_i2c.h **** 
 588:../../dependencies/STM32CubeL0/Drivers/STM32L0xx_HAL_Driver/Inc/stm32l0xx_ll_i2c.h **** /**
 589:../../dependencies/STM32CubeL0/Drivers/STM32L0xx_HAL_Driver/Inc/stm32l0xx_ll_i2c.h ****   * @brief  Disable DMA reception requests.
 590:../../dependencies/STM32CubeL0/Drivers/STM32L0xx_HAL_Driver/Inc/stm32l0xx_ll_i2c.h ****   * @rmtoll CR1          RXDMAEN       LL_I2C_DisableDMAReq_RX
 591:../../dependencies/STM32CubeL0/Drivers/STM32L0xx_HAL_Driver/Inc/stm32l0xx_ll_i2c.h ****   * @param  I2Cx I2C Instance.
 592:../../dependencies/STM32CubeL0/Drivers/STM32L0xx_HAL_Driver/Inc/stm32l0xx_ll_i2c.h ****   * @retval None
 593:../../dependencies/STM32CubeL0/Drivers/STM32L0xx_HAL_Driver/Inc/stm32l0xx_ll_i2c.h ****   */
 594:../../dependencies/STM32CubeL0/Drivers/STM32L0xx_HAL_Driver/Inc/stm32l0xx_ll_i2c.h **** __STATIC_INLINE void LL_I2C_DisableDMAReq_RX(I2C_TypeDef *I2Cx)
 595:../../dependencies/STM32CubeL0/Drivers/STM32L0xx_HAL_Driver/Inc/stm32l0xx_ll_i2c.h **** {
 596:../../dependencies/STM32CubeL0/Drivers/STM32L0xx_HAL_Driver/Inc/stm32l0xx_ll_i2c.h ****   CLEAR_BIT(I2Cx->CR1, I2C_CR1_RXDMAEN);
 597:../../dependencies/STM32CubeL0/Drivers/STM32L0xx_HAL_Driver/Inc/stm32l0xx_ll_i2c.h **** }
 598:../../dependencies/STM32CubeL0/Drivers/STM32L0xx_HAL_Driver/Inc/stm32l0xx_ll_i2c.h **** 
ARM GAS  /var/folders/fs/dxwfnrqj18z860lwl3d6f5t00000gn/T//ccXcLPlJ.s 			page 12


 599:../../dependencies/STM32CubeL0/Drivers/STM32L0xx_HAL_Driver/Inc/stm32l0xx_ll_i2c.h **** /**
 600:../../dependencies/STM32CubeL0/Drivers/STM32L0xx_HAL_Driver/Inc/stm32l0xx_ll_i2c.h ****   * @brief  Check if DMA reception requests are enabled or disabled.
 601:../../dependencies/STM32CubeL0/Drivers/STM32L0xx_HAL_Driver/Inc/stm32l0xx_ll_i2c.h ****   * @rmtoll CR1          RXDMAEN       LL_I2C_IsEnabledDMAReq_RX
 602:../../dependencies/STM32CubeL0/Drivers/STM32L0xx_HAL_Driver/Inc/stm32l0xx_ll_i2c.h ****   * @param  I2Cx I2C Instance.
 603:../../dependencies/STM32CubeL0/Drivers/STM32L0xx_HAL_Driver/Inc/stm32l0xx_ll_i2c.h ****   * @retval State of bit (1 or 0).
 604:../../dependencies/STM32CubeL0/Drivers/STM32L0xx_HAL_Driver/Inc/stm32l0xx_ll_i2c.h ****   */
 605:../../dependencies/STM32CubeL0/Drivers/STM32L0xx_HAL_Driver/Inc/stm32l0xx_ll_i2c.h **** __STATIC_INLINE uint32_t LL_I2C_IsEnabledDMAReq_RX(I2C_TypeDef *I2Cx)
 606:../../dependencies/STM32CubeL0/Drivers/STM32L0xx_HAL_Driver/Inc/stm32l0xx_ll_i2c.h **** {
 607:../../dependencies/STM32CubeL0/Drivers/STM32L0xx_HAL_Driver/Inc/stm32l0xx_ll_i2c.h ****   return ((READ_BIT(I2Cx->CR1, I2C_CR1_RXDMAEN) == (I2C_CR1_RXDMAEN)) ? 1UL : 0UL);
 608:../../dependencies/STM32CubeL0/Drivers/STM32L0xx_HAL_Driver/Inc/stm32l0xx_ll_i2c.h **** }
 609:../../dependencies/STM32CubeL0/Drivers/STM32L0xx_HAL_Driver/Inc/stm32l0xx_ll_i2c.h **** 
 610:../../dependencies/STM32CubeL0/Drivers/STM32L0xx_HAL_Driver/Inc/stm32l0xx_ll_i2c.h **** /**
 611:../../dependencies/STM32CubeL0/Drivers/STM32L0xx_HAL_Driver/Inc/stm32l0xx_ll_i2c.h ****   * @brief  Get the data register address used for DMA transfer
 612:../../dependencies/STM32CubeL0/Drivers/STM32L0xx_HAL_Driver/Inc/stm32l0xx_ll_i2c.h ****   * @rmtoll TXDR         TXDATA        LL_I2C_DMA_GetRegAddr\n
 613:../../dependencies/STM32CubeL0/Drivers/STM32L0xx_HAL_Driver/Inc/stm32l0xx_ll_i2c.h ****   *         RXDR         RXDATA        LL_I2C_DMA_GetRegAddr
 614:../../dependencies/STM32CubeL0/Drivers/STM32L0xx_HAL_Driver/Inc/stm32l0xx_ll_i2c.h ****   * @param  I2Cx I2C Instance
 615:../../dependencies/STM32CubeL0/Drivers/STM32L0xx_HAL_Driver/Inc/stm32l0xx_ll_i2c.h ****   * @param  Direction This parameter can be one of the following values:
 616:../../dependencies/STM32CubeL0/Drivers/STM32L0xx_HAL_Driver/Inc/stm32l0xx_ll_i2c.h ****   *         @arg @ref LL_I2C_DMA_REG_DATA_TRANSMIT
 617:../../dependencies/STM32CubeL0/Drivers/STM32L0xx_HAL_Driver/Inc/stm32l0xx_ll_i2c.h ****   *         @arg @ref LL_I2C_DMA_REG_DATA_RECEIVE
 618:../../dependencies/STM32CubeL0/Drivers/STM32L0xx_HAL_Driver/Inc/stm32l0xx_ll_i2c.h ****   * @retval Address of data register
 619:../../dependencies/STM32CubeL0/Drivers/STM32L0xx_HAL_Driver/Inc/stm32l0xx_ll_i2c.h ****   */
 620:../../dependencies/STM32CubeL0/Drivers/STM32L0xx_HAL_Driver/Inc/stm32l0xx_ll_i2c.h **** __STATIC_INLINE uint32_t LL_I2C_DMA_GetRegAddr(I2C_TypeDef *I2Cx, uint32_t Direction)
 621:../../dependencies/STM32CubeL0/Drivers/STM32L0xx_HAL_Driver/Inc/stm32l0xx_ll_i2c.h **** {
 622:../../dependencies/STM32CubeL0/Drivers/STM32L0xx_HAL_Driver/Inc/stm32l0xx_ll_i2c.h ****   uint32_t data_reg_addr;
 623:../../dependencies/STM32CubeL0/Drivers/STM32L0xx_HAL_Driver/Inc/stm32l0xx_ll_i2c.h **** 
 624:../../dependencies/STM32CubeL0/Drivers/STM32L0xx_HAL_Driver/Inc/stm32l0xx_ll_i2c.h ****   if (Direction == LL_I2C_DMA_REG_DATA_TRANSMIT)
 625:../../dependencies/STM32CubeL0/Drivers/STM32L0xx_HAL_Driver/Inc/stm32l0xx_ll_i2c.h ****   {
 626:../../dependencies/STM32CubeL0/Drivers/STM32L0xx_HAL_Driver/Inc/stm32l0xx_ll_i2c.h ****     /* return address of TXDR register */
 627:../../dependencies/STM32CubeL0/Drivers/STM32L0xx_HAL_Driver/Inc/stm32l0xx_ll_i2c.h ****     data_reg_addr = (uint32_t) &(I2Cx->TXDR);
 628:../../dependencies/STM32CubeL0/Drivers/STM32L0xx_HAL_Driver/Inc/stm32l0xx_ll_i2c.h ****   }
 629:../../dependencies/STM32CubeL0/Drivers/STM32L0xx_HAL_Driver/Inc/stm32l0xx_ll_i2c.h ****   else
 630:../../dependencies/STM32CubeL0/Drivers/STM32L0xx_HAL_Driver/Inc/stm32l0xx_ll_i2c.h ****   {
 631:../../dependencies/STM32CubeL0/Drivers/STM32L0xx_HAL_Driver/Inc/stm32l0xx_ll_i2c.h ****     /* return address of RXDR register */
 632:../../dependencies/STM32CubeL0/Drivers/STM32L0xx_HAL_Driver/Inc/stm32l0xx_ll_i2c.h ****     data_reg_addr = (uint32_t) &(I2Cx->RXDR);
 633:../../dependencies/STM32CubeL0/Drivers/STM32L0xx_HAL_Driver/Inc/stm32l0xx_ll_i2c.h ****   }
 634:../../dependencies/STM32CubeL0/Drivers/STM32L0xx_HAL_Driver/Inc/stm32l0xx_ll_i2c.h **** 
 635:../../dependencies/STM32CubeL0/Drivers/STM32L0xx_HAL_Driver/Inc/stm32l0xx_ll_i2c.h ****   return data_reg_addr;
 636:../../dependencies/STM32CubeL0/Drivers/STM32L0xx_HAL_Driver/Inc/stm32l0xx_ll_i2c.h **** }
 637:../../dependencies/STM32CubeL0/Drivers/STM32L0xx_HAL_Driver/Inc/stm32l0xx_ll_i2c.h **** 
 638:../../dependencies/STM32CubeL0/Drivers/STM32L0xx_HAL_Driver/Inc/stm32l0xx_ll_i2c.h **** /**
 639:../../dependencies/STM32CubeL0/Drivers/STM32L0xx_HAL_Driver/Inc/stm32l0xx_ll_i2c.h ****   * @brief  Enable Clock stretching.
 640:../../dependencies/STM32CubeL0/Drivers/STM32L0xx_HAL_Driver/Inc/stm32l0xx_ll_i2c.h ****   * @note   This bit can only be programmed when the I2C is disabled (PE = 0).
 641:../../dependencies/STM32CubeL0/Drivers/STM32L0xx_HAL_Driver/Inc/stm32l0xx_ll_i2c.h ****   * @rmtoll CR1          NOSTRETCH     LL_I2C_EnableClockStretching
 642:../../dependencies/STM32CubeL0/Drivers/STM32L0xx_HAL_Driver/Inc/stm32l0xx_ll_i2c.h ****   * @param  I2Cx I2C Instance.
 643:../../dependencies/STM32CubeL0/Drivers/STM32L0xx_HAL_Driver/Inc/stm32l0xx_ll_i2c.h ****   * @retval None
 644:../../dependencies/STM32CubeL0/Drivers/STM32L0xx_HAL_Driver/Inc/stm32l0xx_ll_i2c.h ****   */
 645:../../dependencies/STM32CubeL0/Drivers/STM32L0xx_HAL_Driver/Inc/stm32l0xx_ll_i2c.h **** __STATIC_INLINE void LL_I2C_EnableClockStretching(I2C_TypeDef *I2Cx)
 646:../../dependencies/STM32CubeL0/Drivers/STM32L0xx_HAL_Driver/Inc/stm32l0xx_ll_i2c.h **** {
  32              		.loc 1 646 1
  33              		.cfi_startproc
  34              		@ args = 0, pretend = 0, frame = 8
  35              		@ frame_needed = 1, uses_anonymous_args = 0
  36 0000 80B5     		push	{r7, lr}
  37              		.cfi_def_cfa_offset 8
  38              		.cfi_offset 7, -8
  39              		.cfi_offset 14, -4
  40 0002 82B0     		sub	sp, sp, #8
ARM GAS  /var/folders/fs/dxwfnrqj18z860lwl3d6f5t00000gn/T//ccXcLPlJ.s 			page 13


  41              		.cfi_def_cfa_offset 16
  42 0004 00AF     		add	r7, sp, #0
  43              		.cfi_def_cfa_register 7
  44 0006 7860     		str	r0, [r7, #4]
 647:../../dependencies/STM32CubeL0/Drivers/STM32L0xx_HAL_Driver/Inc/stm32l0xx_ll_i2c.h ****   CLEAR_BIT(I2Cx->CR1, I2C_CR1_NOSTRETCH);
  45              		.loc 1 647 3
  46 0008 7B68     		ldr	r3, [r7, #4]
  47 000a 1B68     		ldr	r3, [r3]
  48 000c 034A     		ldr	r2, .L2
  49 000e 1A40     		ands	r2, r3
  50 0010 7B68     		ldr	r3, [r7, #4]
  51 0012 1A60     		str	r2, [r3]
 648:../../dependencies/STM32CubeL0/Drivers/STM32L0xx_HAL_Driver/Inc/stm32l0xx_ll_i2c.h **** }
  52              		.loc 1 648 1
  53 0014 C046     		nop
  54 0016 BD46     		mov	sp, r7
  55 0018 02B0     		add	sp, sp, #8
  56              		@ sp needed
  57 001a 80BD     		pop	{r7, pc}
  58              	.L3:
  59              		.align	2
  60              	.L2:
  61 001c FFFFFDFF 		.word	-131073
  62              		.cfi_endproc
  63              	.LFE352:
  65              		.section	.text.LL_I2C_DisableGeneralCall,"ax",%progbits
  66              		.align	1
  67              		.syntax unified
  68              		.code	16
  69              		.thumb_func
  70              		.fpu softvfp
  72              	LL_I2C_DisableGeneralCall:
  73              	.LFB362:
 649:../../dependencies/STM32CubeL0/Drivers/STM32L0xx_HAL_Driver/Inc/stm32l0xx_ll_i2c.h **** 
 650:../../dependencies/STM32CubeL0/Drivers/STM32L0xx_HAL_Driver/Inc/stm32l0xx_ll_i2c.h **** /**
 651:../../dependencies/STM32CubeL0/Drivers/STM32L0xx_HAL_Driver/Inc/stm32l0xx_ll_i2c.h ****   * @brief  Disable Clock stretching.
 652:../../dependencies/STM32CubeL0/Drivers/STM32L0xx_HAL_Driver/Inc/stm32l0xx_ll_i2c.h ****   * @note   This bit can only be programmed when the I2C is disabled (PE = 0).
 653:../../dependencies/STM32CubeL0/Drivers/STM32L0xx_HAL_Driver/Inc/stm32l0xx_ll_i2c.h ****   * @rmtoll CR1          NOSTRETCH     LL_I2C_DisableClockStretching
 654:../../dependencies/STM32CubeL0/Drivers/STM32L0xx_HAL_Driver/Inc/stm32l0xx_ll_i2c.h ****   * @param  I2Cx I2C Instance.
 655:../../dependencies/STM32CubeL0/Drivers/STM32L0xx_HAL_Driver/Inc/stm32l0xx_ll_i2c.h ****   * @retval None
 656:../../dependencies/STM32CubeL0/Drivers/STM32L0xx_HAL_Driver/Inc/stm32l0xx_ll_i2c.h ****   */
 657:../../dependencies/STM32CubeL0/Drivers/STM32L0xx_HAL_Driver/Inc/stm32l0xx_ll_i2c.h **** __STATIC_INLINE void LL_I2C_DisableClockStretching(I2C_TypeDef *I2Cx)
 658:../../dependencies/STM32CubeL0/Drivers/STM32L0xx_HAL_Driver/Inc/stm32l0xx_ll_i2c.h **** {
 659:../../dependencies/STM32CubeL0/Drivers/STM32L0xx_HAL_Driver/Inc/stm32l0xx_ll_i2c.h ****   SET_BIT(I2Cx->CR1, I2C_CR1_NOSTRETCH);
 660:../../dependencies/STM32CubeL0/Drivers/STM32L0xx_HAL_Driver/Inc/stm32l0xx_ll_i2c.h **** }
 661:../../dependencies/STM32CubeL0/Drivers/STM32L0xx_HAL_Driver/Inc/stm32l0xx_ll_i2c.h **** 
 662:../../dependencies/STM32CubeL0/Drivers/STM32L0xx_HAL_Driver/Inc/stm32l0xx_ll_i2c.h **** /**
 663:../../dependencies/STM32CubeL0/Drivers/STM32L0xx_HAL_Driver/Inc/stm32l0xx_ll_i2c.h ****   * @brief  Check if Clock stretching is enabled or disabled.
 664:../../dependencies/STM32CubeL0/Drivers/STM32L0xx_HAL_Driver/Inc/stm32l0xx_ll_i2c.h ****   * @rmtoll CR1          NOSTRETCH     LL_I2C_IsEnabledClockStretching
 665:../../dependencies/STM32CubeL0/Drivers/STM32L0xx_HAL_Driver/Inc/stm32l0xx_ll_i2c.h ****   * @param  I2Cx I2C Instance.
 666:../../dependencies/STM32CubeL0/Drivers/STM32L0xx_HAL_Driver/Inc/stm32l0xx_ll_i2c.h ****   * @retval State of bit (1 or 0).
 667:../../dependencies/STM32CubeL0/Drivers/STM32L0xx_HAL_Driver/Inc/stm32l0xx_ll_i2c.h ****   */
 668:../../dependencies/STM32CubeL0/Drivers/STM32L0xx_HAL_Driver/Inc/stm32l0xx_ll_i2c.h **** __STATIC_INLINE uint32_t LL_I2C_IsEnabledClockStretching(I2C_TypeDef *I2Cx)
 669:../../dependencies/STM32CubeL0/Drivers/STM32L0xx_HAL_Driver/Inc/stm32l0xx_ll_i2c.h **** {
 670:../../dependencies/STM32CubeL0/Drivers/STM32L0xx_HAL_Driver/Inc/stm32l0xx_ll_i2c.h ****   return ((READ_BIT(I2Cx->CR1, I2C_CR1_NOSTRETCH) != (I2C_CR1_NOSTRETCH)) ? 1UL : 0UL);
 671:../../dependencies/STM32CubeL0/Drivers/STM32L0xx_HAL_Driver/Inc/stm32l0xx_ll_i2c.h **** }
 672:../../dependencies/STM32CubeL0/Drivers/STM32L0xx_HAL_Driver/Inc/stm32l0xx_ll_i2c.h **** 
ARM GAS  /var/folders/fs/dxwfnrqj18z860lwl3d6f5t00000gn/T//ccXcLPlJ.s 			page 14


 673:../../dependencies/STM32CubeL0/Drivers/STM32L0xx_HAL_Driver/Inc/stm32l0xx_ll_i2c.h **** /**
 674:../../dependencies/STM32CubeL0/Drivers/STM32L0xx_HAL_Driver/Inc/stm32l0xx_ll_i2c.h ****   * @brief  Enable hardware byte control in slave mode.
 675:../../dependencies/STM32CubeL0/Drivers/STM32L0xx_HAL_Driver/Inc/stm32l0xx_ll_i2c.h ****   * @rmtoll CR1          SBC           LL_I2C_EnableSlaveByteControl
 676:../../dependencies/STM32CubeL0/Drivers/STM32L0xx_HAL_Driver/Inc/stm32l0xx_ll_i2c.h ****   * @param  I2Cx I2C Instance.
 677:../../dependencies/STM32CubeL0/Drivers/STM32L0xx_HAL_Driver/Inc/stm32l0xx_ll_i2c.h ****   * @retval None
 678:../../dependencies/STM32CubeL0/Drivers/STM32L0xx_HAL_Driver/Inc/stm32l0xx_ll_i2c.h ****   */
 679:../../dependencies/STM32CubeL0/Drivers/STM32L0xx_HAL_Driver/Inc/stm32l0xx_ll_i2c.h **** __STATIC_INLINE void LL_I2C_EnableSlaveByteControl(I2C_TypeDef *I2Cx)
 680:../../dependencies/STM32CubeL0/Drivers/STM32L0xx_HAL_Driver/Inc/stm32l0xx_ll_i2c.h **** {
 681:../../dependencies/STM32CubeL0/Drivers/STM32L0xx_HAL_Driver/Inc/stm32l0xx_ll_i2c.h ****   SET_BIT(I2Cx->CR1, I2C_CR1_SBC);
 682:../../dependencies/STM32CubeL0/Drivers/STM32L0xx_HAL_Driver/Inc/stm32l0xx_ll_i2c.h **** }
 683:../../dependencies/STM32CubeL0/Drivers/STM32L0xx_HAL_Driver/Inc/stm32l0xx_ll_i2c.h **** 
 684:../../dependencies/STM32CubeL0/Drivers/STM32L0xx_HAL_Driver/Inc/stm32l0xx_ll_i2c.h **** /**
 685:../../dependencies/STM32CubeL0/Drivers/STM32L0xx_HAL_Driver/Inc/stm32l0xx_ll_i2c.h ****   * @brief  Disable hardware byte control in slave mode.
 686:../../dependencies/STM32CubeL0/Drivers/STM32L0xx_HAL_Driver/Inc/stm32l0xx_ll_i2c.h ****   * @rmtoll CR1          SBC           LL_I2C_DisableSlaveByteControl
 687:../../dependencies/STM32CubeL0/Drivers/STM32L0xx_HAL_Driver/Inc/stm32l0xx_ll_i2c.h ****   * @param  I2Cx I2C Instance.
 688:../../dependencies/STM32CubeL0/Drivers/STM32L0xx_HAL_Driver/Inc/stm32l0xx_ll_i2c.h ****   * @retval None
 689:../../dependencies/STM32CubeL0/Drivers/STM32L0xx_HAL_Driver/Inc/stm32l0xx_ll_i2c.h ****   */
 690:../../dependencies/STM32CubeL0/Drivers/STM32L0xx_HAL_Driver/Inc/stm32l0xx_ll_i2c.h **** __STATIC_INLINE void LL_I2C_DisableSlaveByteControl(I2C_TypeDef *I2Cx)
 691:../../dependencies/STM32CubeL0/Drivers/STM32L0xx_HAL_Driver/Inc/stm32l0xx_ll_i2c.h **** {
 692:../../dependencies/STM32CubeL0/Drivers/STM32L0xx_HAL_Driver/Inc/stm32l0xx_ll_i2c.h ****   CLEAR_BIT(I2Cx->CR1, I2C_CR1_SBC);
 693:../../dependencies/STM32CubeL0/Drivers/STM32L0xx_HAL_Driver/Inc/stm32l0xx_ll_i2c.h **** }
 694:../../dependencies/STM32CubeL0/Drivers/STM32L0xx_HAL_Driver/Inc/stm32l0xx_ll_i2c.h **** 
 695:../../dependencies/STM32CubeL0/Drivers/STM32L0xx_HAL_Driver/Inc/stm32l0xx_ll_i2c.h **** /**
 696:../../dependencies/STM32CubeL0/Drivers/STM32L0xx_HAL_Driver/Inc/stm32l0xx_ll_i2c.h ****   * @brief  Check if hardware byte control in slave mode is enabled or disabled.
 697:../../dependencies/STM32CubeL0/Drivers/STM32L0xx_HAL_Driver/Inc/stm32l0xx_ll_i2c.h ****   * @rmtoll CR1          SBC           LL_I2C_IsEnabledSlaveByteControl
 698:../../dependencies/STM32CubeL0/Drivers/STM32L0xx_HAL_Driver/Inc/stm32l0xx_ll_i2c.h ****   * @param  I2Cx I2C Instance.
 699:../../dependencies/STM32CubeL0/Drivers/STM32L0xx_HAL_Driver/Inc/stm32l0xx_ll_i2c.h ****   * @retval State of bit (1 or 0).
 700:../../dependencies/STM32CubeL0/Drivers/STM32L0xx_HAL_Driver/Inc/stm32l0xx_ll_i2c.h ****   */
 701:../../dependencies/STM32CubeL0/Drivers/STM32L0xx_HAL_Driver/Inc/stm32l0xx_ll_i2c.h **** __STATIC_INLINE uint32_t LL_I2C_IsEnabledSlaveByteControl(I2C_TypeDef *I2Cx)
 702:../../dependencies/STM32CubeL0/Drivers/STM32L0xx_HAL_Driver/Inc/stm32l0xx_ll_i2c.h **** {
 703:../../dependencies/STM32CubeL0/Drivers/STM32L0xx_HAL_Driver/Inc/stm32l0xx_ll_i2c.h ****   return ((READ_BIT(I2Cx->CR1, I2C_CR1_SBC) == (I2C_CR1_SBC)) ? 1UL : 0UL);
 704:../../dependencies/STM32CubeL0/Drivers/STM32L0xx_HAL_Driver/Inc/stm32l0xx_ll_i2c.h **** }
 705:../../dependencies/STM32CubeL0/Drivers/STM32L0xx_HAL_Driver/Inc/stm32l0xx_ll_i2c.h **** 
 706:../../dependencies/STM32CubeL0/Drivers/STM32L0xx_HAL_Driver/Inc/stm32l0xx_ll_i2c.h **** /**
 707:../../dependencies/STM32CubeL0/Drivers/STM32L0xx_HAL_Driver/Inc/stm32l0xx_ll_i2c.h ****   * @brief  Enable Wakeup from STOP.
 708:../../dependencies/STM32CubeL0/Drivers/STM32L0xx_HAL_Driver/Inc/stm32l0xx_ll_i2c.h ****   * @note   The macro IS_I2C_WAKEUP_FROMSTOP_INSTANCE(I2Cx) can be used to check whether or not
 709:../../dependencies/STM32CubeL0/Drivers/STM32L0xx_HAL_Driver/Inc/stm32l0xx_ll_i2c.h ****   *         WakeUpFromStop feature is supported by the I2Cx Instance.
 710:../../dependencies/STM32CubeL0/Drivers/STM32L0xx_HAL_Driver/Inc/stm32l0xx_ll_i2c.h ****   * @note   This bit can only be programmed when Digital Filter is disabled.
 711:../../dependencies/STM32CubeL0/Drivers/STM32L0xx_HAL_Driver/Inc/stm32l0xx_ll_i2c.h ****   * @rmtoll CR1          WUPEN         LL_I2C_EnableWakeUpFromStop
 712:../../dependencies/STM32CubeL0/Drivers/STM32L0xx_HAL_Driver/Inc/stm32l0xx_ll_i2c.h ****   * @param  I2Cx I2C Instance.
 713:../../dependencies/STM32CubeL0/Drivers/STM32L0xx_HAL_Driver/Inc/stm32l0xx_ll_i2c.h ****   * @retval None
 714:../../dependencies/STM32CubeL0/Drivers/STM32L0xx_HAL_Driver/Inc/stm32l0xx_ll_i2c.h ****   */
 715:../../dependencies/STM32CubeL0/Drivers/STM32L0xx_HAL_Driver/Inc/stm32l0xx_ll_i2c.h **** __STATIC_INLINE void LL_I2C_EnableWakeUpFromStop(I2C_TypeDef *I2Cx)
 716:../../dependencies/STM32CubeL0/Drivers/STM32L0xx_HAL_Driver/Inc/stm32l0xx_ll_i2c.h **** {
 717:../../dependencies/STM32CubeL0/Drivers/STM32L0xx_HAL_Driver/Inc/stm32l0xx_ll_i2c.h ****   SET_BIT(I2Cx->CR1, I2C_CR1_WUPEN);
 718:../../dependencies/STM32CubeL0/Drivers/STM32L0xx_HAL_Driver/Inc/stm32l0xx_ll_i2c.h **** }
 719:../../dependencies/STM32CubeL0/Drivers/STM32L0xx_HAL_Driver/Inc/stm32l0xx_ll_i2c.h **** 
 720:../../dependencies/STM32CubeL0/Drivers/STM32L0xx_HAL_Driver/Inc/stm32l0xx_ll_i2c.h **** /**
 721:../../dependencies/STM32CubeL0/Drivers/STM32L0xx_HAL_Driver/Inc/stm32l0xx_ll_i2c.h ****   * @brief  Disable Wakeup from STOP.
 722:../../dependencies/STM32CubeL0/Drivers/STM32L0xx_HAL_Driver/Inc/stm32l0xx_ll_i2c.h ****   * @note   The macro IS_I2C_WAKEUP_FROMSTOP_INSTANCE(I2Cx) can be used to check whether or not
 723:../../dependencies/STM32CubeL0/Drivers/STM32L0xx_HAL_Driver/Inc/stm32l0xx_ll_i2c.h ****   *         WakeUpFromStop feature is supported by the I2Cx Instance.
 724:../../dependencies/STM32CubeL0/Drivers/STM32L0xx_HAL_Driver/Inc/stm32l0xx_ll_i2c.h ****   * @rmtoll CR1          WUPEN         LL_I2C_DisableWakeUpFromStop
 725:../../dependencies/STM32CubeL0/Drivers/STM32L0xx_HAL_Driver/Inc/stm32l0xx_ll_i2c.h ****   * @param  I2Cx I2C Instance.
 726:../../dependencies/STM32CubeL0/Drivers/STM32L0xx_HAL_Driver/Inc/stm32l0xx_ll_i2c.h ****   * @retval None
 727:../../dependencies/STM32CubeL0/Drivers/STM32L0xx_HAL_Driver/Inc/stm32l0xx_ll_i2c.h ****   */
 728:../../dependencies/STM32CubeL0/Drivers/STM32L0xx_HAL_Driver/Inc/stm32l0xx_ll_i2c.h **** __STATIC_INLINE void LL_I2C_DisableWakeUpFromStop(I2C_TypeDef *I2Cx)
 729:../../dependencies/STM32CubeL0/Drivers/STM32L0xx_HAL_Driver/Inc/stm32l0xx_ll_i2c.h **** {
ARM GAS  /var/folders/fs/dxwfnrqj18z860lwl3d6f5t00000gn/T//ccXcLPlJ.s 			page 15


 730:../../dependencies/STM32CubeL0/Drivers/STM32L0xx_HAL_Driver/Inc/stm32l0xx_ll_i2c.h ****   CLEAR_BIT(I2Cx->CR1, I2C_CR1_WUPEN);
 731:../../dependencies/STM32CubeL0/Drivers/STM32L0xx_HAL_Driver/Inc/stm32l0xx_ll_i2c.h **** }
 732:../../dependencies/STM32CubeL0/Drivers/STM32L0xx_HAL_Driver/Inc/stm32l0xx_ll_i2c.h **** 
 733:../../dependencies/STM32CubeL0/Drivers/STM32L0xx_HAL_Driver/Inc/stm32l0xx_ll_i2c.h **** /**
 734:../../dependencies/STM32CubeL0/Drivers/STM32L0xx_HAL_Driver/Inc/stm32l0xx_ll_i2c.h ****   * @brief  Check if Wakeup from STOP is enabled or disabled.
 735:../../dependencies/STM32CubeL0/Drivers/STM32L0xx_HAL_Driver/Inc/stm32l0xx_ll_i2c.h ****   * @note   The macro IS_I2C_WAKEUP_FROMSTOP_INSTANCE(I2Cx) can be used to check whether or not
 736:../../dependencies/STM32CubeL0/Drivers/STM32L0xx_HAL_Driver/Inc/stm32l0xx_ll_i2c.h ****   *         WakeUpFromStop feature is supported by the I2Cx Instance.
 737:../../dependencies/STM32CubeL0/Drivers/STM32L0xx_HAL_Driver/Inc/stm32l0xx_ll_i2c.h ****   * @rmtoll CR1          WUPEN         LL_I2C_IsEnabledWakeUpFromStop
 738:../../dependencies/STM32CubeL0/Drivers/STM32L0xx_HAL_Driver/Inc/stm32l0xx_ll_i2c.h ****   * @param  I2Cx I2C Instance.
 739:../../dependencies/STM32CubeL0/Drivers/STM32L0xx_HAL_Driver/Inc/stm32l0xx_ll_i2c.h ****   * @retval State of bit (1 or 0).
 740:../../dependencies/STM32CubeL0/Drivers/STM32L0xx_HAL_Driver/Inc/stm32l0xx_ll_i2c.h ****   */
 741:../../dependencies/STM32CubeL0/Drivers/STM32L0xx_HAL_Driver/Inc/stm32l0xx_ll_i2c.h **** __STATIC_INLINE uint32_t LL_I2C_IsEnabledWakeUpFromStop(I2C_TypeDef *I2Cx)
 742:../../dependencies/STM32CubeL0/Drivers/STM32L0xx_HAL_Driver/Inc/stm32l0xx_ll_i2c.h **** {
 743:../../dependencies/STM32CubeL0/Drivers/STM32L0xx_HAL_Driver/Inc/stm32l0xx_ll_i2c.h ****   return ((READ_BIT(I2Cx->CR1, I2C_CR1_WUPEN) == (I2C_CR1_WUPEN)) ? 1UL : 0UL);
 744:../../dependencies/STM32CubeL0/Drivers/STM32L0xx_HAL_Driver/Inc/stm32l0xx_ll_i2c.h **** }
 745:../../dependencies/STM32CubeL0/Drivers/STM32L0xx_HAL_Driver/Inc/stm32l0xx_ll_i2c.h **** 
 746:../../dependencies/STM32CubeL0/Drivers/STM32L0xx_HAL_Driver/Inc/stm32l0xx_ll_i2c.h **** /**
 747:../../dependencies/STM32CubeL0/Drivers/STM32L0xx_HAL_Driver/Inc/stm32l0xx_ll_i2c.h ****   * @brief  Enable General Call.
 748:../../dependencies/STM32CubeL0/Drivers/STM32L0xx_HAL_Driver/Inc/stm32l0xx_ll_i2c.h ****   * @note   When enabled the Address 0x00 is ACKed.
 749:../../dependencies/STM32CubeL0/Drivers/STM32L0xx_HAL_Driver/Inc/stm32l0xx_ll_i2c.h ****   * @rmtoll CR1          GCEN          LL_I2C_EnableGeneralCall
 750:../../dependencies/STM32CubeL0/Drivers/STM32L0xx_HAL_Driver/Inc/stm32l0xx_ll_i2c.h ****   * @param  I2Cx I2C Instance.
 751:../../dependencies/STM32CubeL0/Drivers/STM32L0xx_HAL_Driver/Inc/stm32l0xx_ll_i2c.h ****   * @retval None
 752:../../dependencies/STM32CubeL0/Drivers/STM32L0xx_HAL_Driver/Inc/stm32l0xx_ll_i2c.h ****   */
 753:../../dependencies/STM32CubeL0/Drivers/STM32L0xx_HAL_Driver/Inc/stm32l0xx_ll_i2c.h **** __STATIC_INLINE void LL_I2C_EnableGeneralCall(I2C_TypeDef *I2Cx)
 754:../../dependencies/STM32CubeL0/Drivers/STM32L0xx_HAL_Driver/Inc/stm32l0xx_ll_i2c.h **** {
 755:../../dependencies/STM32CubeL0/Drivers/STM32L0xx_HAL_Driver/Inc/stm32l0xx_ll_i2c.h ****   SET_BIT(I2Cx->CR1, I2C_CR1_GCEN);
 756:../../dependencies/STM32CubeL0/Drivers/STM32L0xx_HAL_Driver/Inc/stm32l0xx_ll_i2c.h **** }
 757:../../dependencies/STM32CubeL0/Drivers/STM32L0xx_HAL_Driver/Inc/stm32l0xx_ll_i2c.h **** 
 758:../../dependencies/STM32CubeL0/Drivers/STM32L0xx_HAL_Driver/Inc/stm32l0xx_ll_i2c.h **** /**
 759:../../dependencies/STM32CubeL0/Drivers/STM32L0xx_HAL_Driver/Inc/stm32l0xx_ll_i2c.h ****   * @brief  Disable General Call.
 760:../../dependencies/STM32CubeL0/Drivers/STM32L0xx_HAL_Driver/Inc/stm32l0xx_ll_i2c.h ****   * @note   When disabled the Address 0x00 is NACKed.
 761:../../dependencies/STM32CubeL0/Drivers/STM32L0xx_HAL_Driver/Inc/stm32l0xx_ll_i2c.h ****   * @rmtoll CR1          GCEN          LL_I2C_DisableGeneralCall
 762:../../dependencies/STM32CubeL0/Drivers/STM32L0xx_HAL_Driver/Inc/stm32l0xx_ll_i2c.h ****   * @param  I2Cx I2C Instance.
 763:../../dependencies/STM32CubeL0/Drivers/STM32L0xx_HAL_Driver/Inc/stm32l0xx_ll_i2c.h ****   * @retval None
 764:../../dependencies/STM32CubeL0/Drivers/STM32L0xx_HAL_Driver/Inc/stm32l0xx_ll_i2c.h ****   */
 765:../../dependencies/STM32CubeL0/Drivers/STM32L0xx_HAL_Driver/Inc/stm32l0xx_ll_i2c.h **** __STATIC_INLINE void LL_I2C_DisableGeneralCall(I2C_TypeDef *I2Cx)
 766:../../dependencies/STM32CubeL0/Drivers/STM32L0xx_HAL_Driver/Inc/stm32l0xx_ll_i2c.h **** {
  74              		.loc 1 766 1
  75              		.cfi_startproc
  76              		@ args = 0, pretend = 0, frame = 8
  77              		@ frame_needed = 1, uses_anonymous_args = 0
  78 0000 80B5     		push	{r7, lr}
  79              		.cfi_def_cfa_offset 8
  80              		.cfi_offset 7, -8
  81              		.cfi_offset 14, -4
  82 0002 82B0     		sub	sp, sp, #8
  83              		.cfi_def_cfa_offset 16
  84 0004 00AF     		add	r7, sp, #0
  85              		.cfi_def_cfa_register 7
  86 0006 7860     		str	r0, [r7, #4]
 767:../../dependencies/STM32CubeL0/Drivers/STM32L0xx_HAL_Driver/Inc/stm32l0xx_ll_i2c.h ****   CLEAR_BIT(I2Cx->CR1, I2C_CR1_GCEN);
  87              		.loc 1 767 3
  88 0008 7B68     		ldr	r3, [r7, #4]
  89 000a 1B68     		ldr	r3, [r3]
  90 000c 034A     		ldr	r2, .L5
  91 000e 1A40     		ands	r2, r3
  92 0010 7B68     		ldr	r3, [r7, #4]
ARM GAS  /var/folders/fs/dxwfnrqj18z860lwl3d6f5t00000gn/T//ccXcLPlJ.s 			page 16


  93 0012 1A60     		str	r2, [r3]
 768:../../dependencies/STM32CubeL0/Drivers/STM32L0xx_HAL_Driver/Inc/stm32l0xx_ll_i2c.h **** }
  94              		.loc 1 768 1
  95 0014 C046     		nop
  96 0016 BD46     		mov	sp, r7
  97 0018 02B0     		add	sp, sp, #8
  98              		@ sp needed
  99 001a 80BD     		pop	{r7, pc}
 100              	.L6:
 101              		.align	2
 102              	.L5:
 103 001c FFFFF7FF 		.word	-524289
 104              		.cfi_endproc
 105              	.LFE362:
 107              		.section	.text.LL_I2C_SetOwnAddress2,"ax",%progbits
 108              		.align	1
 109              		.syntax unified
 110              		.code	16
 111              		.thumb_func
 112              		.fpu softvfp
 114              	LL_I2C_SetOwnAddress2:
 115              	.LFB370:
 769:../../dependencies/STM32CubeL0/Drivers/STM32L0xx_HAL_Driver/Inc/stm32l0xx_ll_i2c.h **** 
 770:../../dependencies/STM32CubeL0/Drivers/STM32L0xx_HAL_Driver/Inc/stm32l0xx_ll_i2c.h **** /**
 771:../../dependencies/STM32CubeL0/Drivers/STM32L0xx_HAL_Driver/Inc/stm32l0xx_ll_i2c.h ****   * @brief  Check if General Call is enabled or disabled.
 772:../../dependencies/STM32CubeL0/Drivers/STM32L0xx_HAL_Driver/Inc/stm32l0xx_ll_i2c.h ****   * @rmtoll CR1          GCEN          LL_I2C_IsEnabledGeneralCall
 773:../../dependencies/STM32CubeL0/Drivers/STM32L0xx_HAL_Driver/Inc/stm32l0xx_ll_i2c.h ****   * @param  I2Cx I2C Instance.
 774:../../dependencies/STM32CubeL0/Drivers/STM32L0xx_HAL_Driver/Inc/stm32l0xx_ll_i2c.h ****   * @retval State of bit (1 or 0).
 775:../../dependencies/STM32CubeL0/Drivers/STM32L0xx_HAL_Driver/Inc/stm32l0xx_ll_i2c.h ****   */
 776:../../dependencies/STM32CubeL0/Drivers/STM32L0xx_HAL_Driver/Inc/stm32l0xx_ll_i2c.h **** __STATIC_INLINE uint32_t LL_I2C_IsEnabledGeneralCall(I2C_TypeDef *I2Cx)
 777:../../dependencies/STM32CubeL0/Drivers/STM32L0xx_HAL_Driver/Inc/stm32l0xx_ll_i2c.h **** {
 778:../../dependencies/STM32CubeL0/Drivers/STM32L0xx_HAL_Driver/Inc/stm32l0xx_ll_i2c.h ****   return ((READ_BIT(I2Cx->CR1, I2C_CR1_GCEN) == (I2C_CR1_GCEN)) ? 1UL : 0UL);
 779:../../dependencies/STM32CubeL0/Drivers/STM32L0xx_HAL_Driver/Inc/stm32l0xx_ll_i2c.h **** }
 780:../../dependencies/STM32CubeL0/Drivers/STM32L0xx_HAL_Driver/Inc/stm32l0xx_ll_i2c.h **** 
 781:../../dependencies/STM32CubeL0/Drivers/STM32L0xx_HAL_Driver/Inc/stm32l0xx_ll_i2c.h **** /**
 782:../../dependencies/STM32CubeL0/Drivers/STM32L0xx_HAL_Driver/Inc/stm32l0xx_ll_i2c.h ****   * @brief  Configure the Master to operate in 7-bit or 10-bit addressing mode.
 783:../../dependencies/STM32CubeL0/Drivers/STM32L0xx_HAL_Driver/Inc/stm32l0xx_ll_i2c.h ****   * @note   Changing this bit is not allowed, when the START bit is set.
 784:../../dependencies/STM32CubeL0/Drivers/STM32L0xx_HAL_Driver/Inc/stm32l0xx_ll_i2c.h ****   * @rmtoll CR2          ADD10         LL_I2C_SetMasterAddressingMode
 785:../../dependencies/STM32CubeL0/Drivers/STM32L0xx_HAL_Driver/Inc/stm32l0xx_ll_i2c.h ****   * @param  I2Cx I2C Instance.
 786:../../dependencies/STM32CubeL0/Drivers/STM32L0xx_HAL_Driver/Inc/stm32l0xx_ll_i2c.h ****   * @param  AddressingMode This parameter can be one of the following values:
 787:../../dependencies/STM32CubeL0/Drivers/STM32L0xx_HAL_Driver/Inc/stm32l0xx_ll_i2c.h ****   *         @arg @ref LL_I2C_ADDRESSING_MODE_7BIT
 788:../../dependencies/STM32CubeL0/Drivers/STM32L0xx_HAL_Driver/Inc/stm32l0xx_ll_i2c.h ****   *         @arg @ref LL_I2C_ADDRESSING_MODE_10BIT
 789:../../dependencies/STM32CubeL0/Drivers/STM32L0xx_HAL_Driver/Inc/stm32l0xx_ll_i2c.h ****   * @retval None
 790:../../dependencies/STM32CubeL0/Drivers/STM32L0xx_HAL_Driver/Inc/stm32l0xx_ll_i2c.h ****   */
 791:../../dependencies/STM32CubeL0/Drivers/STM32L0xx_HAL_Driver/Inc/stm32l0xx_ll_i2c.h **** __STATIC_INLINE void LL_I2C_SetMasterAddressingMode(I2C_TypeDef *I2Cx, uint32_t AddressingMode)
 792:../../dependencies/STM32CubeL0/Drivers/STM32L0xx_HAL_Driver/Inc/stm32l0xx_ll_i2c.h **** {
 793:../../dependencies/STM32CubeL0/Drivers/STM32L0xx_HAL_Driver/Inc/stm32l0xx_ll_i2c.h ****   MODIFY_REG(I2Cx->CR2, I2C_CR2_ADD10, AddressingMode);
 794:../../dependencies/STM32CubeL0/Drivers/STM32L0xx_HAL_Driver/Inc/stm32l0xx_ll_i2c.h **** }
 795:../../dependencies/STM32CubeL0/Drivers/STM32L0xx_HAL_Driver/Inc/stm32l0xx_ll_i2c.h **** 
 796:../../dependencies/STM32CubeL0/Drivers/STM32L0xx_HAL_Driver/Inc/stm32l0xx_ll_i2c.h **** /**
 797:../../dependencies/STM32CubeL0/Drivers/STM32L0xx_HAL_Driver/Inc/stm32l0xx_ll_i2c.h ****   * @brief  Get the Master addressing mode.
 798:../../dependencies/STM32CubeL0/Drivers/STM32L0xx_HAL_Driver/Inc/stm32l0xx_ll_i2c.h ****   * @rmtoll CR2          ADD10         LL_I2C_GetMasterAddressingMode
 799:../../dependencies/STM32CubeL0/Drivers/STM32L0xx_HAL_Driver/Inc/stm32l0xx_ll_i2c.h ****   * @param  I2Cx I2C Instance.
 800:../../dependencies/STM32CubeL0/Drivers/STM32L0xx_HAL_Driver/Inc/stm32l0xx_ll_i2c.h ****   * @retval Returned value can be one of the following values:
 801:../../dependencies/STM32CubeL0/Drivers/STM32L0xx_HAL_Driver/Inc/stm32l0xx_ll_i2c.h ****   *         @arg @ref LL_I2C_ADDRESSING_MODE_7BIT
 802:../../dependencies/STM32CubeL0/Drivers/STM32L0xx_HAL_Driver/Inc/stm32l0xx_ll_i2c.h ****   *         @arg @ref LL_I2C_ADDRESSING_MODE_10BIT
 803:../../dependencies/STM32CubeL0/Drivers/STM32L0xx_HAL_Driver/Inc/stm32l0xx_ll_i2c.h ****   */
ARM GAS  /var/folders/fs/dxwfnrqj18z860lwl3d6f5t00000gn/T//ccXcLPlJ.s 			page 17


 804:../../dependencies/STM32CubeL0/Drivers/STM32L0xx_HAL_Driver/Inc/stm32l0xx_ll_i2c.h **** __STATIC_INLINE uint32_t LL_I2C_GetMasterAddressingMode(I2C_TypeDef *I2Cx)
 805:../../dependencies/STM32CubeL0/Drivers/STM32L0xx_HAL_Driver/Inc/stm32l0xx_ll_i2c.h **** {
 806:../../dependencies/STM32CubeL0/Drivers/STM32L0xx_HAL_Driver/Inc/stm32l0xx_ll_i2c.h ****   return (uint32_t)(READ_BIT(I2Cx->CR2, I2C_CR2_ADD10));
 807:../../dependencies/STM32CubeL0/Drivers/STM32L0xx_HAL_Driver/Inc/stm32l0xx_ll_i2c.h **** }
 808:../../dependencies/STM32CubeL0/Drivers/STM32L0xx_HAL_Driver/Inc/stm32l0xx_ll_i2c.h **** 
 809:../../dependencies/STM32CubeL0/Drivers/STM32L0xx_HAL_Driver/Inc/stm32l0xx_ll_i2c.h **** /**
 810:../../dependencies/STM32CubeL0/Drivers/STM32L0xx_HAL_Driver/Inc/stm32l0xx_ll_i2c.h ****   * @brief  Set the Own Address1.
 811:../../dependencies/STM32CubeL0/Drivers/STM32L0xx_HAL_Driver/Inc/stm32l0xx_ll_i2c.h ****   * @rmtoll OAR1         OA1           LL_I2C_SetOwnAddress1\n
 812:../../dependencies/STM32CubeL0/Drivers/STM32L0xx_HAL_Driver/Inc/stm32l0xx_ll_i2c.h ****   *         OAR1         OA1MODE       LL_I2C_SetOwnAddress1
 813:../../dependencies/STM32CubeL0/Drivers/STM32L0xx_HAL_Driver/Inc/stm32l0xx_ll_i2c.h ****   * @param  I2Cx I2C Instance.
 814:../../dependencies/STM32CubeL0/Drivers/STM32L0xx_HAL_Driver/Inc/stm32l0xx_ll_i2c.h ****   * @param  OwnAddress1 This parameter must be a value between Min_Data=0 and Max_Data=0x3FF.
 815:../../dependencies/STM32CubeL0/Drivers/STM32L0xx_HAL_Driver/Inc/stm32l0xx_ll_i2c.h ****   * @param  OwnAddrSize This parameter can be one of the following values:
 816:../../dependencies/STM32CubeL0/Drivers/STM32L0xx_HAL_Driver/Inc/stm32l0xx_ll_i2c.h ****   *         @arg @ref LL_I2C_OWNADDRESS1_7BIT
 817:../../dependencies/STM32CubeL0/Drivers/STM32L0xx_HAL_Driver/Inc/stm32l0xx_ll_i2c.h ****   *         @arg @ref LL_I2C_OWNADDRESS1_10BIT
 818:../../dependencies/STM32CubeL0/Drivers/STM32L0xx_HAL_Driver/Inc/stm32l0xx_ll_i2c.h ****   * @retval None
 819:../../dependencies/STM32CubeL0/Drivers/STM32L0xx_HAL_Driver/Inc/stm32l0xx_ll_i2c.h ****   */
 820:../../dependencies/STM32CubeL0/Drivers/STM32L0xx_HAL_Driver/Inc/stm32l0xx_ll_i2c.h **** __STATIC_INLINE void LL_I2C_SetOwnAddress1(I2C_TypeDef *I2Cx, uint32_t OwnAddress1, uint32_t OwnAdd
 821:../../dependencies/STM32CubeL0/Drivers/STM32L0xx_HAL_Driver/Inc/stm32l0xx_ll_i2c.h **** {
 822:../../dependencies/STM32CubeL0/Drivers/STM32L0xx_HAL_Driver/Inc/stm32l0xx_ll_i2c.h ****   MODIFY_REG(I2Cx->OAR1, I2C_OAR1_OA1 | I2C_OAR1_OA1MODE, OwnAddress1 | OwnAddrSize);
 823:../../dependencies/STM32CubeL0/Drivers/STM32L0xx_HAL_Driver/Inc/stm32l0xx_ll_i2c.h **** }
 824:../../dependencies/STM32CubeL0/Drivers/STM32L0xx_HAL_Driver/Inc/stm32l0xx_ll_i2c.h **** 
 825:../../dependencies/STM32CubeL0/Drivers/STM32L0xx_HAL_Driver/Inc/stm32l0xx_ll_i2c.h **** /**
 826:../../dependencies/STM32CubeL0/Drivers/STM32L0xx_HAL_Driver/Inc/stm32l0xx_ll_i2c.h ****   * @brief  Enable acknowledge on Own Address1 match address.
 827:../../dependencies/STM32CubeL0/Drivers/STM32L0xx_HAL_Driver/Inc/stm32l0xx_ll_i2c.h ****   * @rmtoll OAR1         OA1EN         LL_I2C_EnableOwnAddress1
 828:../../dependencies/STM32CubeL0/Drivers/STM32L0xx_HAL_Driver/Inc/stm32l0xx_ll_i2c.h ****   * @param  I2Cx I2C Instance.
 829:../../dependencies/STM32CubeL0/Drivers/STM32L0xx_HAL_Driver/Inc/stm32l0xx_ll_i2c.h ****   * @retval None
 830:../../dependencies/STM32CubeL0/Drivers/STM32L0xx_HAL_Driver/Inc/stm32l0xx_ll_i2c.h ****   */
 831:../../dependencies/STM32CubeL0/Drivers/STM32L0xx_HAL_Driver/Inc/stm32l0xx_ll_i2c.h **** __STATIC_INLINE void LL_I2C_EnableOwnAddress1(I2C_TypeDef *I2Cx)
 832:../../dependencies/STM32CubeL0/Drivers/STM32L0xx_HAL_Driver/Inc/stm32l0xx_ll_i2c.h **** {
 833:../../dependencies/STM32CubeL0/Drivers/STM32L0xx_HAL_Driver/Inc/stm32l0xx_ll_i2c.h ****   SET_BIT(I2Cx->OAR1, I2C_OAR1_OA1EN);
 834:../../dependencies/STM32CubeL0/Drivers/STM32L0xx_HAL_Driver/Inc/stm32l0xx_ll_i2c.h **** }
 835:../../dependencies/STM32CubeL0/Drivers/STM32L0xx_HAL_Driver/Inc/stm32l0xx_ll_i2c.h **** 
 836:../../dependencies/STM32CubeL0/Drivers/STM32L0xx_HAL_Driver/Inc/stm32l0xx_ll_i2c.h **** /**
 837:../../dependencies/STM32CubeL0/Drivers/STM32L0xx_HAL_Driver/Inc/stm32l0xx_ll_i2c.h ****   * @brief  Disable acknowledge on Own Address1 match address.
 838:../../dependencies/STM32CubeL0/Drivers/STM32L0xx_HAL_Driver/Inc/stm32l0xx_ll_i2c.h ****   * @rmtoll OAR1         OA1EN         LL_I2C_DisableOwnAddress1
 839:../../dependencies/STM32CubeL0/Drivers/STM32L0xx_HAL_Driver/Inc/stm32l0xx_ll_i2c.h ****   * @param  I2Cx I2C Instance.
 840:../../dependencies/STM32CubeL0/Drivers/STM32L0xx_HAL_Driver/Inc/stm32l0xx_ll_i2c.h ****   * @retval None
 841:../../dependencies/STM32CubeL0/Drivers/STM32L0xx_HAL_Driver/Inc/stm32l0xx_ll_i2c.h ****   */
 842:../../dependencies/STM32CubeL0/Drivers/STM32L0xx_HAL_Driver/Inc/stm32l0xx_ll_i2c.h **** __STATIC_INLINE void LL_I2C_DisableOwnAddress1(I2C_TypeDef *I2Cx)
 843:../../dependencies/STM32CubeL0/Drivers/STM32L0xx_HAL_Driver/Inc/stm32l0xx_ll_i2c.h **** {
 844:../../dependencies/STM32CubeL0/Drivers/STM32L0xx_HAL_Driver/Inc/stm32l0xx_ll_i2c.h ****   CLEAR_BIT(I2Cx->OAR1, I2C_OAR1_OA1EN);
 845:../../dependencies/STM32CubeL0/Drivers/STM32L0xx_HAL_Driver/Inc/stm32l0xx_ll_i2c.h **** }
 846:../../dependencies/STM32CubeL0/Drivers/STM32L0xx_HAL_Driver/Inc/stm32l0xx_ll_i2c.h **** 
 847:../../dependencies/STM32CubeL0/Drivers/STM32L0xx_HAL_Driver/Inc/stm32l0xx_ll_i2c.h **** /**
 848:../../dependencies/STM32CubeL0/Drivers/STM32L0xx_HAL_Driver/Inc/stm32l0xx_ll_i2c.h ****   * @brief  Check if Own Address1 acknowledge is enabled or disabled.
 849:../../dependencies/STM32CubeL0/Drivers/STM32L0xx_HAL_Driver/Inc/stm32l0xx_ll_i2c.h ****   * @rmtoll OAR1         OA1EN         LL_I2C_IsEnabledOwnAddress1
 850:../../dependencies/STM32CubeL0/Drivers/STM32L0xx_HAL_Driver/Inc/stm32l0xx_ll_i2c.h ****   * @param  I2Cx I2C Instance.
 851:../../dependencies/STM32CubeL0/Drivers/STM32L0xx_HAL_Driver/Inc/stm32l0xx_ll_i2c.h ****   * @retval State of bit (1 or 0).
 852:../../dependencies/STM32CubeL0/Drivers/STM32L0xx_HAL_Driver/Inc/stm32l0xx_ll_i2c.h ****   */
 853:../../dependencies/STM32CubeL0/Drivers/STM32L0xx_HAL_Driver/Inc/stm32l0xx_ll_i2c.h **** __STATIC_INLINE uint32_t LL_I2C_IsEnabledOwnAddress1(I2C_TypeDef *I2Cx)
 854:../../dependencies/STM32CubeL0/Drivers/STM32L0xx_HAL_Driver/Inc/stm32l0xx_ll_i2c.h **** {
 855:../../dependencies/STM32CubeL0/Drivers/STM32L0xx_HAL_Driver/Inc/stm32l0xx_ll_i2c.h ****   return ((READ_BIT(I2Cx->OAR1, I2C_OAR1_OA1EN) == (I2C_OAR1_OA1EN)) ? 1UL : 0UL);
 856:../../dependencies/STM32CubeL0/Drivers/STM32L0xx_HAL_Driver/Inc/stm32l0xx_ll_i2c.h **** }
 857:../../dependencies/STM32CubeL0/Drivers/STM32L0xx_HAL_Driver/Inc/stm32l0xx_ll_i2c.h **** 
 858:../../dependencies/STM32CubeL0/Drivers/STM32L0xx_HAL_Driver/Inc/stm32l0xx_ll_i2c.h **** /**
 859:../../dependencies/STM32CubeL0/Drivers/STM32L0xx_HAL_Driver/Inc/stm32l0xx_ll_i2c.h ****   * @brief  Set the 7bits Own Address2.
 860:../../dependencies/STM32CubeL0/Drivers/STM32L0xx_HAL_Driver/Inc/stm32l0xx_ll_i2c.h ****   * @note   This action has no effect if own address2 is enabled.
ARM GAS  /var/folders/fs/dxwfnrqj18z860lwl3d6f5t00000gn/T//ccXcLPlJ.s 			page 18


 861:../../dependencies/STM32CubeL0/Drivers/STM32L0xx_HAL_Driver/Inc/stm32l0xx_ll_i2c.h ****   * @rmtoll OAR2         OA2           LL_I2C_SetOwnAddress2\n
 862:../../dependencies/STM32CubeL0/Drivers/STM32L0xx_HAL_Driver/Inc/stm32l0xx_ll_i2c.h ****   *         OAR2         OA2MSK        LL_I2C_SetOwnAddress2
 863:../../dependencies/STM32CubeL0/Drivers/STM32L0xx_HAL_Driver/Inc/stm32l0xx_ll_i2c.h ****   * @param  I2Cx I2C Instance.
 864:../../dependencies/STM32CubeL0/Drivers/STM32L0xx_HAL_Driver/Inc/stm32l0xx_ll_i2c.h ****   * @param  OwnAddress2 Value between Min_Data=0 and Max_Data=0x7F.
 865:../../dependencies/STM32CubeL0/Drivers/STM32L0xx_HAL_Driver/Inc/stm32l0xx_ll_i2c.h ****   * @param  OwnAddrMask This parameter can be one of the following values:
 866:../../dependencies/STM32CubeL0/Drivers/STM32L0xx_HAL_Driver/Inc/stm32l0xx_ll_i2c.h ****   *         @arg @ref LL_I2C_OWNADDRESS2_NOMASK
 867:../../dependencies/STM32CubeL0/Drivers/STM32L0xx_HAL_Driver/Inc/stm32l0xx_ll_i2c.h ****   *         @arg @ref LL_I2C_OWNADDRESS2_MASK01
 868:../../dependencies/STM32CubeL0/Drivers/STM32L0xx_HAL_Driver/Inc/stm32l0xx_ll_i2c.h ****   *         @arg @ref LL_I2C_OWNADDRESS2_MASK02
 869:../../dependencies/STM32CubeL0/Drivers/STM32L0xx_HAL_Driver/Inc/stm32l0xx_ll_i2c.h ****   *         @arg @ref LL_I2C_OWNADDRESS2_MASK03
 870:../../dependencies/STM32CubeL0/Drivers/STM32L0xx_HAL_Driver/Inc/stm32l0xx_ll_i2c.h ****   *         @arg @ref LL_I2C_OWNADDRESS2_MASK04
 871:../../dependencies/STM32CubeL0/Drivers/STM32L0xx_HAL_Driver/Inc/stm32l0xx_ll_i2c.h ****   *         @arg @ref LL_I2C_OWNADDRESS2_MASK05
 872:../../dependencies/STM32CubeL0/Drivers/STM32L0xx_HAL_Driver/Inc/stm32l0xx_ll_i2c.h ****   *         @arg @ref LL_I2C_OWNADDRESS2_MASK06
 873:../../dependencies/STM32CubeL0/Drivers/STM32L0xx_HAL_Driver/Inc/stm32l0xx_ll_i2c.h ****   *         @arg @ref LL_I2C_OWNADDRESS2_MASK07
 874:../../dependencies/STM32CubeL0/Drivers/STM32L0xx_HAL_Driver/Inc/stm32l0xx_ll_i2c.h ****   * @retval None
 875:../../dependencies/STM32CubeL0/Drivers/STM32L0xx_HAL_Driver/Inc/stm32l0xx_ll_i2c.h ****   */
 876:../../dependencies/STM32CubeL0/Drivers/STM32L0xx_HAL_Driver/Inc/stm32l0xx_ll_i2c.h **** __STATIC_INLINE void LL_I2C_SetOwnAddress2(I2C_TypeDef *I2Cx, uint32_t OwnAddress2, uint32_t OwnAdd
 877:../../dependencies/STM32CubeL0/Drivers/STM32L0xx_HAL_Driver/Inc/stm32l0xx_ll_i2c.h **** {
 116              		.loc 1 877 1
 117              		.cfi_startproc
 118              		@ args = 0, pretend = 0, frame = 16
 119              		@ frame_needed = 1, uses_anonymous_args = 0
 120 0000 80B5     		push	{r7, lr}
 121              		.cfi_def_cfa_offset 8
 122              		.cfi_offset 7, -8
 123              		.cfi_offset 14, -4
 124 0002 84B0     		sub	sp, sp, #16
 125              		.cfi_def_cfa_offset 24
 126 0004 00AF     		add	r7, sp, #0
 127              		.cfi_def_cfa_register 7
 128 0006 F860     		str	r0, [r7, #12]
 129 0008 B960     		str	r1, [r7, #8]
 130 000a 7A60     		str	r2, [r7, #4]
 878:../../dependencies/STM32CubeL0/Drivers/STM32L0xx_HAL_Driver/Inc/stm32l0xx_ll_i2c.h ****   MODIFY_REG(I2Cx->OAR2, I2C_OAR2_OA2 | I2C_OAR2_OA2MSK, OwnAddress2 | OwnAddrMask);
 131              		.loc 1 878 3
 132 000c FB68     		ldr	r3, [r7, #12]
 133 000e DB68     		ldr	r3, [r3, #12]
 134 0010 054A     		ldr	r2, .L8
 135 0012 1A40     		ands	r2, r3
 136 0014 B968     		ldr	r1, [r7, #8]
 137 0016 7B68     		ldr	r3, [r7, #4]
 138 0018 0B43     		orrs	r3, r1
 139 001a 1A43     		orrs	r2, r3
 140 001c FB68     		ldr	r3, [r7, #12]
 141 001e DA60     		str	r2, [r3, #12]
 879:../../dependencies/STM32CubeL0/Drivers/STM32L0xx_HAL_Driver/Inc/stm32l0xx_ll_i2c.h **** }
 142              		.loc 1 879 1
 143 0020 C046     		nop
 144 0022 BD46     		mov	sp, r7
 145 0024 04B0     		add	sp, sp, #16
 146              		@ sp needed
 147 0026 80BD     		pop	{r7, pc}
 148              	.L9:
 149              		.align	2
 150              	.L8:
 151 0028 01F8FFFF 		.word	-2047
 152              		.cfi_endproc
 153              	.LFE370:
ARM GAS  /var/folders/fs/dxwfnrqj18z860lwl3d6f5t00000gn/T//ccXcLPlJ.s 			page 19


 155              		.section	.text.LL_I2C_DisableOwnAddress2,"ax",%progbits
 156              		.align	1
 157              		.syntax unified
 158              		.code	16
 159              		.thumb_func
 160              		.fpu softvfp
 162              	LL_I2C_DisableOwnAddress2:
 163              	.LFB372:
 880:../../dependencies/STM32CubeL0/Drivers/STM32L0xx_HAL_Driver/Inc/stm32l0xx_ll_i2c.h **** 
 881:../../dependencies/STM32CubeL0/Drivers/STM32L0xx_HAL_Driver/Inc/stm32l0xx_ll_i2c.h **** /**
 882:../../dependencies/STM32CubeL0/Drivers/STM32L0xx_HAL_Driver/Inc/stm32l0xx_ll_i2c.h ****   * @brief  Enable acknowledge on Own Address2 match address.
 883:../../dependencies/STM32CubeL0/Drivers/STM32L0xx_HAL_Driver/Inc/stm32l0xx_ll_i2c.h ****   * @rmtoll OAR2         OA2EN         LL_I2C_EnableOwnAddress2
 884:../../dependencies/STM32CubeL0/Drivers/STM32L0xx_HAL_Driver/Inc/stm32l0xx_ll_i2c.h ****   * @param  I2Cx I2C Instance.
 885:../../dependencies/STM32CubeL0/Drivers/STM32L0xx_HAL_Driver/Inc/stm32l0xx_ll_i2c.h ****   * @retval None
 886:../../dependencies/STM32CubeL0/Drivers/STM32L0xx_HAL_Driver/Inc/stm32l0xx_ll_i2c.h ****   */
 887:../../dependencies/STM32CubeL0/Drivers/STM32L0xx_HAL_Driver/Inc/stm32l0xx_ll_i2c.h **** __STATIC_INLINE void LL_I2C_EnableOwnAddress2(I2C_TypeDef *I2Cx)
 888:../../dependencies/STM32CubeL0/Drivers/STM32L0xx_HAL_Driver/Inc/stm32l0xx_ll_i2c.h **** {
 889:../../dependencies/STM32CubeL0/Drivers/STM32L0xx_HAL_Driver/Inc/stm32l0xx_ll_i2c.h ****   SET_BIT(I2Cx->OAR2, I2C_OAR2_OA2EN);
 890:../../dependencies/STM32CubeL0/Drivers/STM32L0xx_HAL_Driver/Inc/stm32l0xx_ll_i2c.h **** }
 891:../../dependencies/STM32CubeL0/Drivers/STM32L0xx_HAL_Driver/Inc/stm32l0xx_ll_i2c.h **** 
 892:../../dependencies/STM32CubeL0/Drivers/STM32L0xx_HAL_Driver/Inc/stm32l0xx_ll_i2c.h **** /**
 893:../../dependencies/STM32CubeL0/Drivers/STM32L0xx_HAL_Driver/Inc/stm32l0xx_ll_i2c.h ****   * @brief  Disable  acknowledge on Own Address2 match address.
 894:../../dependencies/STM32CubeL0/Drivers/STM32L0xx_HAL_Driver/Inc/stm32l0xx_ll_i2c.h ****   * @rmtoll OAR2         OA2EN         LL_I2C_DisableOwnAddress2
 895:../../dependencies/STM32CubeL0/Drivers/STM32L0xx_HAL_Driver/Inc/stm32l0xx_ll_i2c.h ****   * @param  I2Cx I2C Instance.
 896:../../dependencies/STM32CubeL0/Drivers/STM32L0xx_HAL_Driver/Inc/stm32l0xx_ll_i2c.h ****   * @retval None
 897:../../dependencies/STM32CubeL0/Drivers/STM32L0xx_HAL_Driver/Inc/stm32l0xx_ll_i2c.h ****   */
 898:../../dependencies/STM32CubeL0/Drivers/STM32L0xx_HAL_Driver/Inc/stm32l0xx_ll_i2c.h **** __STATIC_INLINE void LL_I2C_DisableOwnAddress2(I2C_TypeDef *I2Cx)
 899:../../dependencies/STM32CubeL0/Drivers/STM32L0xx_HAL_Driver/Inc/stm32l0xx_ll_i2c.h **** {
 164              		.loc 1 899 1
 165              		.cfi_startproc
 166              		@ args = 0, pretend = 0, frame = 8
 167              		@ frame_needed = 1, uses_anonymous_args = 0
 168 0000 80B5     		push	{r7, lr}
 169              		.cfi_def_cfa_offset 8
 170              		.cfi_offset 7, -8
 171              		.cfi_offset 14, -4
 172 0002 82B0     		sub	sp, sp, #8
 173              		.cfi_def_cfa_offset 16
 174 0004 00AF     		add	r7, sp, #0
 175              		.cfi_def_cfa_register 7
 176 0006 7860     		str	r0, [r7, #4]
 900:../../dependencies/STM32CubeL0/Drivers/STM32L0xx_HAL_Driver/Inc/stm32l0xx_ll_i2c.h ****   CLEAR_BIT(I2Cx->OAR2, I2C_OAR2_OA2EN);
 177              		.loc 1 900 3
 178 0008 7B68     		ldr	r3, [r7, #4]
 179 000a DB68     		ldr	r3, [r3, #12]
 180 000c 034A     		ldr	r2, .L11
 181 000e 1A40     		ands	r2, r3
 182 0010 7B68     		ldr	r3, [r7, #4]
 183 0012 DA60     		str	r2, [r3, #12]
 901:../../dependencies/STM32CubeL0/Drivers/STM32L0xx_HAL_Driver/Inc/stm32l0xx_ll_i2c.h **** }
 184              		.loc 1 901 1
 185 0014 C046     		nop
 186 0016 BD46     		mov	sp, r7
 187 0018 02B0     		add	sp, sp, #8
 188              		@ sp needed
 189 001a 80BD     		pop	{r7, pc}
 190              	.L12:
ARM GAS  /var/folders/fs/dxwfnrqj18z860lwl3d6f5t00000gn/T//ccXcLPlJ.s 			page 20


 191              		.align	2
 192              	.L11:
 193 001c FF7FFFFF 		.word	-32769
 194              		.cfi_endproc
 195              	.LFE372:
 197              		.section	.text.LL_I2C_IsActiveFlag_TXE,"ax",%progbits
 198              		.align	1
 199              		.syntax unified
 200              		.code	16
 201              		.thumb_func
 202              		.fpu softvfp
 204              	LL_I2C_IsActiveFlag_TXE:
 205              	.LFB419:
 902:../../dependencies/STM32CubeL0/Drivers/STM32L0xx_HAL_Driver/Inc/stm32l0xx_ll_i2c.h **** 
 903:../../dependencies/STM32CubeL0/Drivers/STM32L0xx_HAL_Driver/Inc/stm32l0xx_ll_i2c.h **** /**
 904:../../dependencies/STM32CubeL0/Drivers/STM32L0xx_HAL_Driver/Inc/stm32l0xx_ll_i2c.h ****   * @brief  Check if Own Address1 acknowledge is enabled or disabled.
 905:../../dependencies/STM32CubeL0/Drivers/STM32L0xx_HAL_Driver/Inc/stm32l0xx_ll_i2c.h ****   * @rmtoll OAR2         OA2EN         LL_I2C_IsEnabledOwnAddress2
 906:../../dependencies/STM32CubeL0/Drivers/STM32L0xx_HAL_Driver/Inc/stm32l0xx_ll_i2c.h ****   * @param  I2Cx I2C Instance.
 907:../../dependencies/STM32CubeL0/Drivers/STM32L0xx_HAL_Driver/Inc/stm32l0xx_ll_i2c.h ****   * @retval State of bit (1 or 0).
 908:../../dependencies/STM32CubeL0/Drivers/STM32L0xx_HAL_Driver/Inc/stm32l0xx_ll_i2c.h ****   */
 909:../../dependencies/STM32CubeL0/Drivers/STM32L0xx_HAL_Driver/Inc/stm32l0xx_ll_i2c.h **** __STATIC_INLINE uint32_t LL_I2C_IsEnabledOwnAddress2(I2C_TypeDef *I2Cx)
 910:../../dependencies/STM32CubeL0/Drivers/STM32L0xx_HAL_Driver/Inc/stm32l0xx_ll_i2c.h **** {
 911:../../dependencies/STM32CubeL0/Drivers/STM32L0xx_HAL_Driver/Inc/stm32l0xx_ll_i2c.h ****   return ((READ_BIT(I2Cx->OAR2, I2C_OAR2_OA2EN) == (I2C_OAR2_OA2EN)) ? 1UL : 0UL);
 912:../../dependencies/STM32CubeL0/Drivers/STM32L0xx_HAL_Driver/Inc/stm32l0xx_ll_i2c.h **** }
 913:../../dependencies/STM32CubeL0/Drivers/STM32L0xx_HAL_Driver/Inc/stm32l0xx_ll_i2c.h **** 
 914:../../dependencies/STM32CubeL0/Drivers/STM32L0xx_HAL_Driver/Inc/stm32l0xx_ll_i2c.h **** /**
 915:../../dependencies/STM32CubeL0/Drivers/STM32L0xx_HAL_Driver/Inc/stm32l0xx_ll_i2c.h ****   * @brief  Configure the SDA setup, hold time and the SCL high, low period.
 916:../../dependencies/STM32CubeL0/Drivers/STM32L0xx_HAL_Driver/Inc/stm32l0xx_ll_i2c.h ****   * @note   This bit can only be programmed when the I2C is disabled (PE = 0).
 917:../../dependencies/STM32CubeL0/Drivers/STM32L0xx_HAL_Driver/Inc/stm32l0xx_ll_i2c.h ****   * @rmtoll TIMINGR      TIMINGR       LL_I2C_SetTiming
 918:../../dependencies/STM32CubeL0/Drivers/STM32L0xx_HAL_Driver/Inc/stm32l0xx_ll_i2c.h ****   * @param  I2Cx I2C Instance.
 919:../../dependencies/STM32CubeL0/Drivers/STM32L0xx_HAL_Driver/Inc/stm32l0xx_ll_i2c.h ****   * @param  Timing This parameter must be a value between Min_Data=0 and Max_Data=0xFFFFFFFF.
 920:../../dependencies/STM32CubeL0/Drivers/STM32L0xx_HAL_Driver/Inc/stm32l0xx_ll_i2c.h ****   * @note   This parameter is computed with the STM32CubeMX Tool.
 921:../../dependencies/STM32CubeL0/Drivers/STM32L0xx_HAL_Driver/Inc/stm32l0xx_ll_i2c.h ****   * @retval None
 922:../../dependencies/STM32CubeL0/Drivers/STM32L0xx_HAL_Driver/Inc/stm32l0xx_ll_i2c.h ****   */
 923:../../dependencies/STM32CubeL0/Drivers/STM32L0xx_HAL_Driver/Inc/stm32l0xx_ll_i2c.h **** __STATIC_INLINE void LL_I2C_SetTiming(I2C_TypeDef *I2Cx, uint32_t Timing)
 924:../../dependencies/STM32CubeL0/Drivers/STM32L0xx_HAL_Driver/Inc/stm32l0xx_ll_i2c.h **** {
 925:../../dependencies/STM32CubeL0/Drivers/STM32L0xx_HAL_Driver/Inc/stm32l0xx_ll_i2c.h ****   WRITE_REG(I2Cx->TIMINGR, Timing);
 926:../../dependencies/STM32CubeL0/Drivers/STM32L0xx_HAL_Driver/Inc/stm32l0xx_ll_i2c.h **** }
 927:../../dependencies/STM32CubeL0/Drivers/STM32L0xx_HAL_Driver/Inc/stm32l0xx_ll_i2c.h **** 
 928:../../dependencies/STM32CubeL0/Drivers/STM32L0xx_HAL_Driver/Inc/stm32l0xx_ll_i2c.h **** /**
 929:../../dependencies/STM32CubeL0/Drivers/STM32L0xx_HAL_Driver/Inc/stm32l0xx_ll_i2c.h ****   * @brief  Get the Timing Prescaler setting.
 930:../../dependencies/STM32CubeL0/Drivers/STM32L0xx_HAL_Driver/Inc/stm32l0xx_ll_i2c.h ****   * @rmtoll TIMINGR      PRESC         LL_I2C_GetTimingPrescaler
 931:../../dependencies/STM32CubeL0/Drivers/STM32L0xx_HAL_Driver/Inc/stm32l0xx_ll_i2c.h ****   * @param  I2Cx I2C Instance.
 932:../../dependencies/STM32CubeL0/Drivers/STM32L0xx_HAL_Driver/Inc/stm32l0xx_ll_i2c.h ****   * @retval Value between Min_Data=0x0 and Max_Data=0xF
 933:../../dependencies/STM32CubeL0/Drivers/STM32L0xx_HAL_Driver/Inc/stm32l0xx_ll_i2c.h ****   */
 934:../../dependencies/STM32CubeL0/Drivers/STM32L0xx_HAL_Driver/Inc/stm32l0xx_ll_i2c.h **** __STATIC_INLINE uint32_t LL_I2C_GetTimingPrescaler(I2C_TypeDef *I2Cx)
 935:../../dependencies/STM32CubeL0/Drivers/STM32L0xx_HAL_Driver/Inc/stm32l0xx_ll_i2c.h **** {
 936:../../dependencies/STM32CubeL0/Drivers/STM32L0xx_HAL_Driver/Inc/stm32l0xx_ll_i2c.h ****   return (uint32_t)(READ_BIT(I2Cx->TIMINGR, I2C_TIMINGR_PRESC) >> I2C_TIMINGR_PRESC_Pos);
 937:../../dependencies/STM32CubeL0/Drivers/STM32L0xx_HAL_Driver/Inc/stm32l0xx_ll_i2c.h **** }
 938:../../dependencies/STM32CubeL0/Drivers/STM32L0xx_HAL_Driver/Inc/stm32l0xx_ll_i2c.h **** 
 939:../../dependencies/STM32CubeL0/Drivers/STM32L0xx_HAL_Driver/Inc/stm32l0xx_ll_i2c.h **** /**
 940:../../dependencies/STM32CubeL0/Drivers/STM32L0xx_HAL_Driver/Inc/stm32l0xx_ll_i2c.h ****   * @brief  Get the SCL low period setting.
 941:../../dependencies/STM32CubeL0/Drivers/STM32L0xx_HAL_Driver/Inc/stm32l0xx_ll_i2c.h ****   * @rmtoll TIMINGR      SCLL          LL_I2C_GetClockLowPeriod
 942:../../dependencies/STM32CubeL0/Drivers/STM32L0xx_HAL_Driver/Inc/stm32l0xx_ll_i2c.h ****   * @param  I2Cx I2C Instance.
 943:../../dependencies/STM32CubeL0/Drivers/STM32L0xx_HAL_Driver/Inc/stm32l0xx_ll_i2c.h ****   * @retval Value between Min_Data=0x00 and Max_Data=0xFF
 944:../../dependencies/STM32CubeL0/Drivers/STM32L0xx_HAL_Driver/Inc/stm32l0xx_ll_i2c.h ****   */
 945:../../dependencies/STM32CubeL0/Drivers/STM32L0xx_HAL_Driver/Inc/stm32l0xx_ll_i2c.h **** __STATIC_INLINE uint32_t LL_I2C_GetClockLowPeriod(I2C_TypeDef *I2Cx)
ARM GAS  /var/folders/fs/dxwfnrqj18z860lwl3d6f5t00000gn/T//ccXcLPlJ.s 			page 21


 946:../../dependencies/STM32CubeL0/Drivers/STM32L0xx_HAL_Driver/Inc/stm32l0xx_ll_i2c.h **** {
 947:../../dependencies/STM32CubeL0/Drivers/STM32L0xx_HAL_Driver/Inc/stm32l0xx_ll_i2c.h ****   return (uint32_t)(READ_BIT(I2Cx->TIMINGR, I2C_TIMINGR_SCLL) >> I2C_TIMINGR_SCLL_Pos);
 948:../../dependencies/STM32CubeL0/Drivers/STM32L0xx_HAL_Driver/Inc/stm32l0xx_ll_i2c.h **** }
 949:../../dependencies/STM32CubeL0/Drivers/STM32L0xx_HAL_Driver/Inc/stm32l0xx_ll_i2c.h **** 
 950:../../dependencies/STM32CubeL0/Drivers/STM32L0xx_HAL_Driver/Inc/stm32l0xx_ll_i2c.h **** /**
 951:../../dependencies/STM32CubeL0/Drivers/STM32L0xx_HAL_Driver/Inc/stm32l0xx_ll_i2c.h ****   * @brief  Get the SCL high period setting.
 952:../../dependencies/STM32CubeL0/Drivers/STM32L0xx_HAL_Driver/Inc/stm32l0xx_ll_i2c.h ****   * @rmtoll TIMINGR      SCLH          LL_I2C_GetClockHighPeriod
 953:../../dependencies/STM32CubeL0/Drivers/STM32L0xx_HAL_Driver/Inc/stm32l0xx_ll_i2c.h ****   * @param  I2Cx I2C Instance.
 954:../../dependencies/STM32CubeL0/Drivers/STM32L0xx_HAL_Driver/Inc/stm32l0xx_ll_i2c.h ****   * @retval Value between Min_Data=0x00 and Max_Data=0xFF
 955:../../dependencies/STM32CubeL0/Drivers/STM32L0xx_HAL_Driver/Inc/stm32l0xx_ll_i2c.h ****   */
 956:../../dependencies/STM32CubeL0/Drivers/STM32L0xx_HAL_Driver/Inc/stm32l0xx_ll_i2c.h **** __STATIC_INLINE uint32_t LL_I2C_GetClockHighPeriod(I2C_TypeDef *I2Cx)
 957:../../dependencies/STM32CubeL0/Drivers/STM32L0xx_HAL_Driver/Inc/stm32l0xx_ll_i2c.h **** {
 958:../../dependencies/STM32CubeL0/Drivers/STM32L0xx_HAL_Driver/Inc/stm32l0xx_ll_i2c.h ****   return (uint32_t)(READ_BIT(I2Cx->TIMINGR, I2C_TIMINGR_SCLH) >> I2C_TIMINGR_SCLH_Pos);
 959:../../dependencies/STM32CubeL0/Drivers/STM32L0xx_HAL_Driver/Inc/stm32l0xx_ll_i2c.h **** }
 960:../../dependencies/STM32CubeL0/Drivers/STM32L0xx_HAL_Driver/Inc/stm32l0xx_ll_i2c.h **** 
 961:../../dependencies/STM32CubeL0/Drivers/STM32L0xx_HAL_Driver/Inc/stm32l0xx_ll_i2c.h **** /**
 962:../../dependencies/STM32CubeL0/Drivers/STM32L0xx_HAL_Driver/Inc/stm32l0xx_ll_i2c.h ****   * @brief  Get the SDA hold time.
 963:../../dependencies/STM32CubeL0/Drivers/STM32L0xx_HAL_Driver/Inc/stm32l0xx_ll_i2c.h ****   * @rmtoll TIMINGR      SDADEL        LL_I2C_GetDataHoldTime
 964:../../dependencies/STM32CubeL0/Drivers/STM32L0xx_HAL_Driver/Inc/stm32l0xx_ll_i2c.h ****   * @param  I2Cx I2C Instance.
 965:../../dependencies/STM32CubeL0/Drivers/STM32L0xx_HAL_Driver/Inc/stm32l0xx_ll_i2c.h ****   * @retval Value between Min_Data=0x0 and Max_Data=0xF
 966:../../dependencies/STM32CubeL0/Drivers/STM32L0xx_HAL_Driver/Inc/stm32l0xx_ll_i2c.h ****   */
 967:../../dependencies/STM32CubeL0/Drivers/STM32L0xx_HAL_Driver/Inc/stm32l0xx_ll_i2c.h **** __STATIC_INLINE uint32_t LL_I2C_GetDataHoldTime(I2C_TypeDef *I2Cx)
 968:../../dependencies/STM32CubeL0/Drivers/STM32L0xx_HAL_Driver/Inc/stm32l0xx_ll_i2c.h **** {
 969:../../dependencies/STM32CubeL0/Drivers/STM32L0xx_HAL_Driver/Inc/stm32l0xx_ll_i2c.h ****   return (uint32_t)(READ_BIT(I2Cx->TIMINGR, I2C_TIMINGR_SDADEL) >> I2C_TIMINGR_SDADEL_Pos);
 970:../../dependencies/STM32CubeL0/Drivers/STM32L0xx_HAL_Driver/Inc/stm32l0xx_ll_i2c.h **** }
 971:../../dependencies/STM32CubeL0/Drivers/STM32L0xx_HAL_Driver/Inc/stm32l0xx_ll_i2c.h **** 
 972:../../dependencies/STM32CubeL0/Drivers/STM32L0xx_HAL_Driver/Inc/stm32l0xx_ll_i2c.h **** /**
 973:../../dependencies/STM32CubeL0/Drivers/STM32L0xx_HAL_Driver/Inc/stm32l0xx_ll_i2c.h ****   * @brief  Get the SDA setup time.
 974:../../dependencies/STM32CubeL0/Drivers/STM32L0xx_HAL_Driver/Inc/stm32l0xx_ll_i2c.h ****   * @rmtoll TIMINGR      SCLDEL        LL_I2C_GetDataSetupTime
 975:../../dependencies/STM32CubeL0/Drivers/STM32L0xx_HAL_Driver/Inc/stm32l0xx_ll_i2c.h ****   * @param  I2Cx I2C Instance.
 976:../../dependencies/STM32CubeL0/Drivers/STM32L0xx_HAL_Driver/Inc/stm32l0xx_ll_i2c.h ****   * @retval Value between Min_Data=0x0 and Max_Data=0xF
 977:../../dependencies/STM32CubeL0/Drivers/STM32L0xx_HAL_Driver/Inc/stm32l0xx_ll_i2c.h ****   */
 978:../../dependencies/STM32CubeL0/Drivers/STM32L0xx_HAL_Driver/Inc/stm32l0xx_ll_i2c.h **** __STATIC_INLINE uint32_t LL_I2C_GetDataSetupTime(I2C_TypeDef *I2Cx)
 979:../../dependencies/STM32CubeL0/Drivers/STM32L0xx_HAL_Driver/Inc/stm32l0xx_ll_i2c.h **** {
 980:../../dependencies/STM32CubeL0/Drivers/STM32L0xx_HAL_Driver/Inc/stm32l0xx_ll_i2c.h ****   return (uint32_t)(READ_BIT(I2Cx->TIMINGR, I2C_TIMINGR_SCLDEL) >> I2C_TIMINGR_SCLDEL_Pos);
 981:../../dependencies/STM32CubeL0/Drivers/STM32L0xx_HAL_Driver/Inc/stm32l0xx_ll_i2c.h **** }
 982:../../dependencies/STM32CubeL0/Drivers/STM32L0xx_HAL_Driver/Inc/stm32l0xx_ll_i2c.h **** 
 983:../../dependencies/STM32CubeL0/Drivers/STM32L0xx_HAL_Driver/Inc/stm32l0xx_ll_i2c.h **** /**
 984:../../dependencies/STM32CubeL0/Drivers/STM32L0xx_HAL_Driver/Inc/stm32l0xx_ll_i2c.h ****   * @brief  Configure peripheral mode.
 985:../../dependencies/STM32CubeL0/Drivers/STM32L0xx_HAL_Driver/Inc/stm32l0xx_ll_i2c.h ****   * @note   The macro IS_SMBUS_INSTANCE(I2Cx) can be used to check whether or not
 986:../../dependencies/STM32CubeL0/Drivers/STM32L0xx_HAL_Driver/Inc/stm32l0xx_ll_i2c.h ****   *         SMBus feature is supported by the I2Cx Instance.
 987:../../dependencies/STM32CubeL0/Drivers/STM32L0xx_HAL_Driver/Inc/stm32l0xx_ll_i2c.h ****   * @rmtoll CR1          SMBHEN        LL_I2C_SetMode\n
 988:../../dependencies/STM32CubeL0/Drivers/STM32L0xx_HAL_Driver/Inc/stm32l0xx_ll_i2c.h ****   *         CR1          SMBDEN        LL_I2C_SetMode
 989:../../dependencies/STM32CubeL0/Drivers/STM32L0xx_HAL_Driver/Inc/stm32l0xx_ll_i2c.h ****   * @param  I2Cx I2C Instance.
 990:../../dependencies/STM32CubeL0/Drivers/STM32L0xx_HAL_Driver/Inc/stm32l0xx_ll_i2c.h ****   * @param  PeripheralMode This parameter can be one of the following values:
 991:../../dependencies/STM32CubeL0/Drivers/STM32L0xx_HAL_Driver/Inc/stm32l0xx_ll_i2c.h ****   *         @arg @ref LL_I2C_MODE_I2C
 992:../../dependencies/STM32CubeL0/Drivers/STM32L0xx_HAL_Driver/Inc/stm32l0xx_ll_i2c.h ****   *         @arg @ref LL_I2C_MODE_SMBUS_HOST
 993:../../dependencies/STM32CubeL0/Drivers/STM32L0xx_HAL_Driver/Inc/stm32l0xx_ll_i2c.h ****   *         @arg @ref LL_I2C_MODE_SMBUS_DEVICE
 994:../../dependencies/STM32CubeL0/Drivers/STM32L0xx_HAL_Driver/Inc/stm32l0xx_ll_i2c.h ****   *         @arg @ref LL_I2C_MODE_SMBUS_DEVICE_ARP
 995:../../dependencies/STM32CubeL0/Drivers/STM32L0xx_HAL_Driver/Inc/stm32l0xx_ll_i2c.h ****   * @retval None
 996:../../dependencies/STM32CubeL0/Drivers/STM32L0xx_HAL_Driver/Inc/stm32l0xx_ll_i2c.h ****   */
 997:../../dependencies/STM32CubeL0/Drivers/STM32L0xx_HAL_Driver/Inc/stm32l0xx_ll_i2c.h **** __STATIC_INLINE void LL_I2C_SetMode(I2C_TypeDef *I2Cx, uint32_t PeripheralMode)
 998:../../dependencies/STM32CubeL0/Drivers/STM32L0xx_HAL_Driver/Inc/stm32l0xx_ll_i2c.h **** {
 999:../../dependencies/STM32CubeL0/Drivers/STM32L0xx_HAL_Driver/Inc/stm32l0xx_ll_i2c.h ****   MODIFY_REG(I2Cx->CR1, I2C_CR1_SMBHEN | I2C_CR1_SMBDEN, PeripheralMode);
1000:../../dependencies/STM32CubeL0/Drivers/STM32L0xx_HAL_Driver/Inc/stm32l0xx_ll_i2c.h **** }
1001:../../dependencies/STM32CubeL0/Drivers/STM32L0xx_HAL_Driver/Inc/stm32l0xx_ll_i2c.h **** 
1002:../../dependencies/STM32CubeL0/Drivers/STM32L0xx_HAL_Driver/Inc/stm32l0xx_ll_i2c.h **** /**
ARM GAS  /var/folders/fs/dxwfnrqj18z860lwl3d6f5t00000gn/T//ccXcLPlJ.s 			page 22


1003:../../dependencies/STM32CubeL0/Drivers/STM32L0xx_HAL_Driver/Inc/stm32l0xx_ll_i2c.h ****   * @brief  Get peripheral mode.
1004:../../dependencies/STM32CubeL0/Drivers/STM32L0xx_HAL_Driver/Inc/stm32l0xx_ll_i2c.h ****   * @note   The macro IS_SMBUS_INSTANCE(I2Cx) can be used to check whether or not
1005:../../dependencies/STM32CubeL0/Drivers/STM32L0xx_HAL_Driver/Inc/stm32l0xx_ll_i2c.h ****   *         SMBus feature is supported by the I2Cx Instance.
1006:../../dependencies/STM32CubeL0/Drivers/STM32L0xx_HAL_Driver/Inc/stm32l0xx_ll_i2c.h ****   * @rmtoll CR1          SMBHEN        LL_I2C_GetMode\n
1007:../../dependencies/STM32CubeL0/Drivers/STM32L0xx_HAL_Driver/Inc/stm32l0xx_ll_i2c.h ****   *         CR1          SMBDEN        LL_I2C_GetMode
1008:../../dependencies/STM32CubeL0/Drivers/STM32L0xx_HAL_Driver/Inc/stm32l0xx_ll_i2c.h ****   * @param  I2Cx I2C Instance.
1009:../../dependencies/STM32CubeL0/Drivers/STM32L0xx_HAL_Driver/Inc/stm32l0xx_ll_i2c.h ****   * @retval Returned value can be one of the following values:
1010:../../dependencies/STM32CubeL0/Drivers/STM32L0xx_HAL_Driver/Inc/stm32l0xx_ll_i2c.h ****   *         @arg @ref LL_I2C_MODE_I2C
1011:../../dependencies/STM32CubeL0/Drivers/STM32L0xx_HAL_Driver/Inc/stm32l0xx_ll_i2c.h ****   *         @arg @ref LL_I2C_MODE_SMBUS_HOST
1012:../../dependencies/STM32CubeL0/Drivers/STM32L0xx_HAL_Driver/Inc/stm32l0xx_ll_i2c.h ****   *         @arg @ref LL_I2C_MODE_SMBUS_DEVICE
1013:../../dependencies/STM32CubeL0/Drivers/STM32L0xx_HAL_Driver/Inc/stm32l0xx_ll_i2c.h ****   *         @arg @ref LL_I2C_MODE_SMBUS_DEVICE_ARP
1014:../../dependencies/STM32CubeL0/Drivers/STM32L0xx_HAL_Driver/Inc/stm32l0xx_ll_i2c.h ****   */
1015:../../dependencies/STM32CubeL0/Drivers/STM32L0xx_HAL_Driver/Inc/stm32l0xx_ll_i2c.h **** __STATIC_INLINE uint32_t LL_I2C_GetMode(I2C_TypeDef *I2Cx)
1016:../../dependencies/STM32CubeL0/Drivers/STM32L0xx_HAL_Driver/Inc/stm32l0xx_ll_i2c.h **** {
1017:../../dependencies/STM32CubeL0/Drivers/STM32L0xx_HAL_Driver/Inc/stm32l0xx_ll_i2c.h ****   return (uint32_t)(READ_BIT(I2Cx->CR1, I2C_CR1_SMBHEN | I2C_CR1_SMBDEN));
1018:../../dependencies/STM32CubeL0/Drivers/STM32L0xx_HAL_Driver/Inc/stm32l0xx_ll_i2c.h **** }
1019:../../dependencies/STM32CubeL0/Drivers/STM32L0xx_HAL_Driver/Inc/stm32l0xx_ll_i2c.h **** 
1020:../../dependencies/STM32CubeL0/Drivers/STM32L0xx_HAL_Driver/Inc/stm32l0xx_ll_i2c.h **** /**
1021:../../dependencies/STM32CubeL0/Drivers/STM32L0xx_HAL_Driver/Inc/stm32l0xx_ll_i2c.h ****   * @brief  Enable SMBus alert (Host or Device mode)
1022:../../dependencies/STM32CubeL0/Drivers/STM32L0xx_HAL_Driver/Inc/stm32l0xx_ll_i2c.h ****   * @note   The macro IS_SMBUS_INSTANCE(I2Cx) can be used to check whether or not
1023:../../dependencies/STM32CubeL0/Drivers/STM32L0xx_HAL_Driver/Inc/stm32l0xx_ll_i2c.h ****   *         SMBus feature is supported by the I2Cx Instance.
1024:../../dependencies/STM32CubeL0/Drivers/STM32L0xx_HAL_Driver/Inc/stm32l0xx_ll_i2c.h ****   * @note   SMBus Device mode:
1025:../../dependencies/STM32CubeL0/Drivers/STM32L0xx_HAL_Driver/Inc/stm32l0xx_ll_i2c.h ****   *         - SMBus Alert pin is drived low and
1026:../../dependencies/STM32CubeL0/Drivers/STM32L0xx_HAL_Driver/Inc/stm32l0xx_ll_i2c.h ****   *           Alert Response Address Header acknowledge is enabled.
1027:../../dependencies/STM32CubeL0/Drivers/STM32L0xx_HAL_Driver/Inc/stm32l0xx_ll_i2c.h ****   *         SMBus Host mode:
1028:../../dependencies/STM32CubeL0/Drivers/STM32L0xx_HAL_Driver/Inc/stm32l0xx_ll_i2c.h ****   *         - SMBus Alert pin management is supported.
1029:../../dependencies/STM32CubeL0/Drivers/STM32L0xx_HAL_Driver/Inc/stm32l0xx_ll_i2c.h ****   * @rmtoll CR1          ALERTEN       LL_I2C_EnableSMBusAlert
1030:../../dependencies/STM32CubeL0/Drivers/STM32L0xx_HAL_Driver/Inc/stm32l0xx_ll_i2c.h ****   * @param  I2Cx I2C Instance.
1031:../../dependencies/STM32CubeL0/Drivers/STM32L0xx_HAL_Driver/Inc/stm32l0xx_ll_i2c.h ****   * @retval None
1032:../../dependencies/STM32CubeL0/Drivers/STM32L0xx_HAL_Driver/Inc/stm32l0xx_ll_i2c.h ****   */
1033:../../dependencies/STM32CubeL0/Drivers/STM32L0xx_HAL_Driver/Inc/stm32l0xx_ll_i2c.h **** __STATIC_INLINE void LL_I2C_EnableSMBusAlert(I2C_TypeDef *I2Cx)
1034:../../dependencies/STM32CubeL0/Drivers/STM32L0xx_HAL_Driver/Inc/stm32l0xx_ll_i2c.h **** {
1035:../../dependencies/STM32CubeL0/Drivers/STM32L0xx_HAL_Driver/Inc/stm32l0xx_ll_i2c.h ****   SET_BIT(I2Cx->CR1, I2C_CR1_ALERTEN);
1036:../../dependencies/STM32CubeL0/Drivers/STM32L0xx_HAL_Driver/Inc/stm32l0xx_ll_i2c.h **** }
1037:../../dependencies/STM32CubeL0/Drivers/STM32L0xx_HAL_Driver/Inc/stm32l0xx_ll_i2c.h **** 
1038:../../dependencies/STM32CubeL0/Drivers/STM32L0xx_HAL_Driver/Inc/stm32l0xx_ll_i2c.h **** /**
1039:../../dependencies/STM32CubeL0/Drivers/STM32L0xx_HAL_Driver/Inc/stm32l0xx_ll_i2c.h ****   * @brief  Disable SMBus alert (Host or Device mode)
1040:../../dependencies/STM32CubeL0/Drivers/STM32L0xx_HAL_Driver/Inc/stm32l0xx_ll_i2c.h ****   * @note   The macro IS_SMBUS_INSTANCE(I2Cx) can be used to check whether or not
1041:../../dependencies/STM32CubeL0/Drivers/STM32L0xx_HAL_Driver/Inc/stm32l0xx_ll_i2c.h ****   *         SMBus feature is supported by the I2Cx Instance.
1042:../../dependencies/STM32CubeL0/Drivers/STM32L0xx_HAL_Driver/Inc/stm32l0xx_ll_i2c.h ****   * @note   SMBus Device mode:
1043:../../dependencies/STM32CubeL0/Drivers/STM32L0xx_HAL_Driver/Inc/stm32l0xx_ll_i2c.h ****   *         - SMBus Alert pin is not drived (can be used as a standard GPIO) and
1044:../../dependencies/STM32CubeL0/Drivers/STM32L0xx_HAL_Driver/Inc/stm32l0xx_ll_i2c.h ****   *           Alert Response Address Header acknowledge is disabled.
1045:../../dependencies/STM32CubeL0/Drivers/STM32L0xx_HAL_Driver/Inc/stm32l0xx_ll_i2c.h ****   *         SMBus Host mode:
1046:../../dependencies/STM32CubeL0/Drivers/STM32L0xx_HAL_Driver/Inc/stm32l0xx_ll_i2c.h ****   *         - SMBus Alert pin management is not supported.
1047:../../dependencies/STM32CubeL0/Drivers/STM32L0xx_HAL_Driver/Inc/stm32l0xx_ll_i2c.h ****   * @rmtoll CR1          ALERTEN       LL_I2C_DisableSMBusAlert
1048:../../dependencies/STM32CubeL0/Drivers/STM32L0xx_HAL_Driver/Inc/stm32l0xx_ll_i2c.h ****   * @param  I2Cx I2C Instance.
1049:../../dependencies/STM32CubeL0/Drivers/STM32L0xx_HAL_Driver/Inc/stm32l0xx_ll_i2c.h ****   * @retval None
1050:../../dependencies/STM32CubeL0/Drivers/STM32L0xx_HAL_Driver/Inc/stm32l0xx_ll_i2c.h ****   */
1051:../../dependencies/STM32CubeL0/Drivers/STM32L0xx_HAL_Driver/Inc/stm32l0xx_ll_i2c.h **** __STATIC_INLINE void LL_I2C_DisableSMBusAlert(I2C_TypeDef *I2Cx)
1052:../../dependencies/STM32CubeL0/Drivers/STM32L0xx_HAL_Driver/Inc/stm32l0xx_ll_i2c.h **** {
1053:../../dependencies/STM32CubeL0/Drivers/STM32L0xx_HAL_Driver/Inc/stm32l0xx_ll_i2c.h ****   CLEAR_BIT(I2Cx->CR1, I2C_CR1_ALERTEN);
1054:../../dependencies/STM32CubeL0/Drivers/STM32L0xx_HAL_Driver/Inc/stm32l0xx_ll_i2c.h **** }
1055:../../dependencies/STM32CubeL0/Drivers/STM32L0xx_HAL_Driver/Inc/stm32l0xx_ll_i2c.h **** 
1056:../../dependencies/STM32CubeL0/Drivers/STM32L0xx_HAL_Driver/Inc/stm32l0xx_ll_i2c.h **** /**
1057:../../dependencies/STM32CubeL0/Drivers/STM32L0xx_HAL_Driver/Inc/stm32l0xx_ll_i2c.h ****   * @brief  Check if SMBus alert (Host or Device mode) is enabled or disabled.
1058:../../dependencies/STM32CubeL0/Drivers/STM32L0xx_HAL_Driver/Inc/stm32l0xx_ll_i2c.h ****   * @note   The macro IS_SMBUS_INSTANCE(I2Cx) can be used to check whether or not
1059:../../dependencies/STM32CubeL0/Drivers/STM32L0xx_HAL_Driver/Inc/stm32l0xx_ll_i2c.h ****   *         SMBus feature is supported by the I2Cx Instance.
ARM GAS  /var/folders/fs/dxwfnrqj18z860lwl3d6f5t00000gn/T//ccXcLPlJ.s 			page 23


1060:../../dependencies/STM32CubeL0/Drivers/STM32L0xx_HAL_Driver/Inc/stm32l0xx_ll_i2c.h ****   * @rmtoll CR1          ALERTEN       LL_I2C_IsEnabledSMBusAlert
1061:../../dependencies/STM32CubeL0/Drivers/STM32L0xx_HAL_Driver/Inc/stm32l0xx_ll_i2c.h ****   * @param  I2Cx I2C Instance.
1062:../../dependencies/STM32CubeL0/Drivers/STM32L0xx_HAL_Driver/Inc/stm32l0xx_ll_i2c.h ****   * @retval State of bit (1 or 0).
1063:../../dependencies/STM32CubeL0/Drivers/STM32L0xx_HAL_Driver/Inc/stm32l0xx_ll_i2c.h ****   */
1064:../../dependencies/STM32CubeL0/Drivers/STM32L0xx_HAL_Driver/Inc/stm32l0xx_ll_i2c.h **** __STATIC_INLINE uint32_t LL_I2C_IsEnabledSMBusAlert(I2C_TypeDef *I2Cx)
1065:../../dependencies/STM32CubeL0/Drivers/STM32L0xx_HAL_Driver/Inc/stm32l0xx_ll_i2c.h **** {
1066:../../dependencies/STM32CubeL0/Drivers/STM32L0xx_HAL_Driver/Inc/stm32l0xx_ll_i2c.h ****   return ((READ_BIT(I2Cx->CR1, I2C_CR1_ALERTEN) == (I2C_CR1_ALERTEN)) ? 1UL : 0UL);
1067:../../dependencies/STM32CubeL0/Drivers/STM32L0xx_HAL_Driver/Inc/stm32l0xx_ll_i2c.h **** }
1068:../../dependencies/STM32CubeL0/Drivers/STM32L0xx_HAL_Driver/Inc/stm32l0xx_ll_i2c.h **** 
1069:../../dependencies/STM32CubeL0/Drivers/STM32L0xx_HAL_Driver/Inc/stm32l0xx_ll_i2c.h **** /**
1070:../../dependencies/STM32CubeL0/Drivers/STM32L0xx_HAL_Driver/Inc/stm32l0xx_ll_i2c.h ****   * @brief  Enable SMBus Packet Error Calculation (PEC).
1071:../../dependencies/STM32CubeL0/Drivers/STM32L0xx_HAL_Driver/Inc/stm32l0xx_ll_i2c.h ****   * @note   The macro IS_SMBUS_INSTANCE(I2Cx) can be used to check whether or not
1072:../../dependencies/STM32CubeL0/Drivers/STM32L0xx_HAL_Driver/Inc/stm32l0xx_ll_i2c.h ****   *         SMBus feature is supported by the I2Cx Instance.
1073:../../dependencies/STM32CubeL0/Drivers/STM32L0xx_HAL_Driver/Inc/stm32l0xx_ll_i2c.h ****   * @rmtoll CR1          PECEN         LL_I2C_EnableSMBusPEC
1074:../../dependencies/STM32CubeL0/Drivers/STM32L0xx_HAL_Driver/Inc/stm32l0xx_ll_i2c.h ****   * @param  I2Cx I2C Instance.
1075:../../dependencies/STM32CubeL0/Drivers/STM32L0xx_HAL_Driver/Inc/stm32l0xx_ll_i2c.h ****   * @retval None
1076:../../dependencies/STM32CubeL0/Drivers/STM32L0xx_HAL_Driver/Inc/stm32l0xx_ll_i2c.h ****   */
1077:../../dependencies/STM32CubeL0/Drivers/STM32L0xx_HAL_Driver/Inc/stm32l0xx_ll_i2c.h **** __STATIC_INLINE void LL_I2C_EnableSMBusPEC(I2C_TypeDef *I2Cx)
1078:../../dependencies/STM32CubeL0/Drivers/STM32L0xx_HAL_Driver/Inc/stm32l0xx_ll_i2c.h **** {
1079:../../dependencies/STM32CubeL0/Drivers/STM32L0xx_HAL_Driver/Inc/stm32l0xx_ll_i2c.h ****   SET_BIT(I2Cx->CR1, I2C_CR1_PECEN);
1080:../../dependencies/STM32CubeL0/Drivers/STM32L0xx_HAL_Driver/Inc/stm32l0xx_ll_i2c.h **** }
1081:../../dependencies/STM32CubeL0/Drivers/STM32L0xx_HAL_Driver/Inc/stm32l0xx_ll_i2c.h **** 
1082:../../dependencies/STM32CubeL0/Drivers/STM32L0xx_HAL_Driver/Inc/stm32l0xx_ll_i2c.h **** /**
1083:../../dependencies/STM32CubeL0/Drivers/STM32L0xx_HAL_Driver/Inc/stm32l0xx_ll_i2c.h ****   * @brief  Disable SMBus Packet Error Calculation (PEC).
1084:../../dependencies/STM32CubeL0/Drivers/STM32L0xx_HAL_Driver/Inc/stm32l0xx_ll_i2c.h ****   * @note   The macro IS_SMBUS_INSTANCE(I2Cx) can be used to check whether or not
1085:../../dependencies/STM32CubeL0/Drivers/STM32L0xx_HAL_Driver/Inc/stm32l0xx_ll_i2c.h ****   *         SMBus feature is supported by the I2Cx Instance.
1086:../../dependencies/STM32CubeL0/Drivers/STM32L0xx_HAL_Driver/Inc/stm32l0xx_ll_i2c.h ****   * @rmtoll CR1          PECEN         LL_I2C_DisableSMBusPEC
1087:../../dependencies/STM32CubeL0/Drivers/STM32L0xx_HAL_Driver/Inc/stm32l0xx_ll_i2c.h ****   * @param  I2Cx I2C Instance.
1088:../../dependencies/STM32CubeL0/Drivers/STM32L0xx_HAL_Driver/Inc/stm32l0xx_ll_i2c.h ****   * @retval None
1089:../../dependencies/STM32CubeL0/Drivers/STM32L0xx_HAL_Driver/Inc/stm32l0xx_ll_i2c.h ****   */
1090:../../dependencies/STM32CubeL0/Drivers/STM32L0xx_HAL_Driver/Inc/stm32l0xx_ll_i2c.h **** __STATIC_INLINE void LL_I2C_DisableSMBusPEC(I2C_TypeDef *I2Cx)
1091:../../dependencies/STM32CubeL0/Drivers/STM32L0xx_HAL_Driver/Inc/stm32l0xx_ll_i2c.h **** {
1092:../../dependencies/STM32CubeL0/Drivers/STM32L0xx_HAL_Driver/Inc/stm32l0xx_ll_i2c.h ****   CLEAR_BIT(I2Cx->CR1, I2C_CR1_PECEN);
1093:../../dependencies/STM32CubeL0/Drivers/STM32L0xx_HAL_Driver/Inc/stm32l0xx_ll_i2c.h **** }
1094:../../dependencies/STM32CubeL0/Drivers/STM32L0xx_HAL_Driver/Inc/stm32l0xx_ll_i2c.h **** 
1095:../../dependencies/STM32CubeL0/Drivers/STM32L0xx_HAL_Driver/Inc/stm32l0xx_ll_i2c.h **** /**
1096:../../dependencies/STM32CubeL0/Drivers/STM32L0xx_HAL_Driver/Inc/stm32l0xx_ll_i2c.h ****   * @brief  Check if SMBus Packet Error Calculation (PEC) is enabled or disabled.
1097:../../dependencies/STM32CubeL0/Drivers/STM32L0xx_HAL_Driver/Inc/stm32l0xx_ll_i2c.h ****   * @note   The macro IS_SMBUS_INSTANCE(I2Cx) can be used to check whether or not
1098:../../dependencies/STM32CubeL0/Drivers/STM32L0xx_HAL_Driver/Inc/stm32l0xx_ll_i2c.h ****   *         SMBus feature is supported by the I2Cx Instance.
1099:../../dependencies/STM32CubeL0/Drivers/STM32L0xx_HAL_Driver/Inc/stm32l0xx_ll_i2c.h ****   * @rmtoll CR1          PECEN         LL_I2C_IsEnabledSMBusPEC
1100:../../dependencies/STM32CubeL0/Drivers/STM32L0xx_HAL_Driver/Inc/stm32l0xx_ll_i2c.h ****   * @param  I2Cx I2C Instance.
1101:../../dependencies/STM32CubeL0/Drivers/STM32L0xx_HAL_Driver/Inc/stm32l0xx_ll_i2c.h ****   * @retval State of bit (1 or 0).
1102:../../dependencies/STM32CubeL0/Drivers/STM32L0xx_HAL_Driver/Inc/stm32l0xx_ll_i2c.h ****   */
1103:../../dependencies/STM32CubeL0/Drivers/STM32L0xx_HAL_Driver/Inc/stm32l0xx_ll_i2c.h **** __STATIC_INLINE uint32_t LL_I2C_IsEnabledSMBusPEC(I2C_TypeDef *I2Cx)
1104:../../dependencies/STM32CubeL0/Drivers/STM32L0xx_HAL_Driver/Inc/stm32l0xx_ll_i2c.h **** {
1105:../../dependencies/STM32CubeL0/Drivers/STM32L0xx_HAL_Driver/Inc/stm32l0xx_ll_i2c.h ****   return ((READ_BIT(I2Cx->CR1, I2C_CR1_PECEN) == (I2C_CR1_PECEN)) ? 1UL : 0UL);
1106:../../dependencies/STM32CubeL0/Drivers/STM32L0xx_HAL_Driver/Inc/stm32l0xx_ll_i2c.h **** }
1107:../../dependencies/STM32CubeL0/Drivers/STM32L0xx_HAL_Driver/Inc/stm32l0xx_ll_i2c.h **** 
1108:../../dependencies/STM32CubeL0/Drivers/STM32L0xx_HAL_Driver/Inc/stm32l0xx_ll_i2c.h **** /**
1109:../../dependencies/STM32CubeL0/Drivers/STM32L0xx_HAL_Driver/Inc/stm32l0xx_ll_i2c.h ****   * @brief  Configure the SMBus Clock Timeout.
1110:../../dependencies/STM32CubeL0/Drivers/STM32L0xx_HAL_Driver/Inc/stm32l0xx_ll_i2c.h ****   * @note   The macro IS_SMBUS_INSTANCE(I2Cx) can be used to check whether or not
1111:../../dependencies/STM32CubeL0/Drivers/STM32L0xx_HAL_Driver/Inc/stm32l0xx_ll_i2c.h ****   *         SMBus feature is supported by the I2Cx Instance.
1112:../../dependencies/STM32CubeL0/Drivers/STM32L0xx_HAL_Driver/Inc/stm32l0xx_ll_i2c.h ****   * @note   This configuration can only be programmed when associated Timeout is disabled (TimeoutA
1113:../../dependencies/STM32CubeL0/Drivers/STM32L0xx_HAL_Driver/Inc/stm32l0xx_ll_i2c.h ****   * @rmtoll TIMEOUTR     TIMEOUTA      LL_I2C_ConfigSMBusTimeout\n
1114:../../dependencies/STM32CubeL0/Drivers/STM32L0xx_HAL_Driver/Inc/stm32l0xx_ll_i2c.h ****   *         TIMEOUTR     TIDLE         LL_I2C_ConfigSMBusTimeout\n
1115:../../dependencies/STM32CubeL0/Drivers/STM32L0xx_HAL_Driver/Inc/stm32l0xx_ll_i2c.h ****   *         TIMEOUTR     TIMEOUTB      LL_I2C_ConfigSMBusTimeout
1116:../../dependencies/STM32CubeL0/Drivers/STM32L0xx_HAL_Driver/Inc/stm32l0xx_ll_i2c.h ****   * @param  I2Cx I2C Instance.
ARM GAS  /var/folders/fs/dxwfnrqj18z860lwl3d6f5t00000gn/T//ccXcLPlJ.s 			page 24


1117:../../dependencies/STM32CubeL0/Drivers/STM32L0xx_HAL_Driver/Inc/stm32l0xx_ll_i2c.h ****   * @param  TimeoutA This parameter must be a value between  Min_Data=0 and Max_Data=0xFFF.
1118:../../dependencies/STM32CubeL0/Drivers/STM32L0xx_HAL_Driver/Inc/stm32l0xx_ll_i2c.h ****   * @param  TimeoutAMode This parameter can be one of the following values:
1119:../../dependencies/STM32CubeL0/Drivers/STM32L0xx_HAL_Driver/Inc/stm32l0xx_ll_i2c.h ****   *         @arg @ref LL_I2C_SMBUS_TIMEOUTA_MODE_SCL_LOW
1120:../../dependencies/STM32CubeL0/Drivers/STM32L0xx_HAL_Driver/Inc/stm32l0xx_ll_i2c.h ****   *         @arg @ref LL_I2C_SMBUS_TIMEOUTA_MODE_SDA_SCL_HIGH
1121:../../dependencies/STM32CubeL0/Drivers/STM32L0xx_HAL_Driver/Inc/stm32l0xx_ll_i2c.h ****   * @param  TimeoutB
1122:../../dependencies/STM32CubeL0/Drivers/STM32L0xx_HAL_Driver/Inc/stm32l0xx_ll_i2c.h ****   * @retval None
1123:../../dependencies/STM32CubeL0/Drivers/STM32L0xx_HAL_Driver/Inc/stm32l0xx_ll_i2c.h ****   */
1124:../../dependencies/STM32CubeL0/Drivers/STM32L0xx_HAL_Driver/Inc/stm32l0xx_ll_i2c.h **** __STATIC_INLINE void LL_I2C_ConfigSMBusTimeout(I2C_TypeDef *I2Cx, uint32_t TimeoutA, uint32_t Timeo
1125:../../dependencies/STM32CubeL0/Drivers/STM32L0xx_HAL_Driver/Inc/stm32l0xx_ll_i2c.h ****                                                uint32_t TimeoutB)
1126:../../dependencies/STM32CubeL0/Drivers/STM32L0xx_HAL_Driver/Inc/stm32l0xx_ll_i2c.h **** {
1127:../../dependencies/STM32CubeL0/Drivers/STM32L0xx_HAL_Driver/Inc/stm32l0xx_ll_i2c.h ****   MODIFY_REG(I2Cx->TIMEOUTR, I2C_TIMEOUTR_TIMEOUTA | I2C_TIMEOUTR_TIDLE | I2C_TIMEOUTR_TIMEOUTB,
1128:../../dependencies/STM32CubeL0/Drivers/STM32L0xx_HAL_Driver/Inc/stm32l0xx_ll_i2c.h ****              TimeoutA | TimeoutAMode | (TimeoutB << I2C_TIMEOUTR_TIMEOUTB_Pos));
1129:../../dependencies/STM32CubeL0/Drivers/STM32L0xx_HAL_Driver/Inc/stm32l0xx_ll_i2c.h **** }
1130:../../dependencies/STM32CubeL0/Drivers/STM32L0xx_HAL_Driver/Inc/stm32l0xx_ll_i2c.h **** 
1131:../../dependencies/STM32CubeL0/Drivers/STM32L0xx_HAL_Driver/Inc/stm32l0xx_ll_i2c.h **** /**
1132:../../dependencies/STM32CubeL0/Drivers/STM32L0xx_HAL_Driver/Inc/stm32l0xx_ll_i2c.h ****   * @brief  Configure the SMBus Clock TimeoutA (SCL low timeout or SCL and SDA high timeout depends
1133:../../dependencies/STM32CubeL0/Drivers/STM32L0xx_HAL_Driver/Inc/stm32l0xx_ll_i2c.h ****   * @note   The macro IS_SMBUS_INSTANCE(I2Cx) can be used to check whether or not
1134:../../dependencies/STM32CubeL0/Drivers/STM32L0xx_HAL_Driver/Inc/stm32l0xx_ll_i2c.h ****   *         SMBus feature is supported by the I2Cx Instance.
1135:../../dependencies/STM32CubeL0/Drivers/STM32L0xx_HAL_Driver/Inc/stm32l0xx_ll_i2c.h ****   * @note   These bits can only be programmed when TimeoutA is disabled.
1136:../../dependencies/STM32CubeL0/Drivers/STM32L0xx_HAL_Driver/Inc/stm32l0xx_ll_i2c.h ****   * @rmtoll TIMEOUTR     TIMEOUTA      LL_I2C_SetSMBusTimeoutA
1137:../../dependencies/STM32CubeL0/Drivers/STM32L0xx_HAL_Driver/Inc/stm32l0xx_ll_i2c.h ****   * @param  I2Cx I2C Instance.
1138:../../dependencies/STM32CubeL0/Drivers/STM32L0xx_HAL_Driver/Inc/stm32l0xx_ll_i2c.h ****   * @param  TimeoutA This parameter must be a value between  Min_Data=0 and Max_Data=0xFFF.
1139:../../dependencies/STM32CubeL0/Drivers/STM32L0xx_HAL_Driver/Inc/stm32l0xx_ll_i2c.h ****   * @retval None
1140:../../dependencies/STM32CubeL0/Drivers/STM32L0xx_HAL_Driver/Inc/stm32l0xx_ll_i2c.h ****   */
1141:../../dependencies/STM32CubeL0/Drivers/STM32L0xx_HAL_Driver/Inc/stm32l0xx_ll_i2c.h **** __STATIC_INLINE void LL_I2C_SetSMBusTimeoutA(I2C_TypeDef *I2Cx, uint32_t TimeoutA)
1142:../../dependencies/STM32CubeL0/Drivers/STM32L0xx_HAL_Driver/Inc/stm32l0xx_ll_i2c.h **** {
1143:../../dependencies/STM32CubeL0/Drivers/STM32L0xx_HAL_Driver/Inc/stm32l0xx_ll_i2c.h ****   WRITE_REG(I2Cx->TIMEOUTR, TimeoutA);
1144:../../dependencies/STM32CubeL0/Drivers/STM32L0xx_HAL_Driver/Inc/stm32l0xx_ll_i2c.h **** }
1145:../../dependencies/STM32CubeL0/Drivers/STM32L0xx_HAL_Driver/Inc/stm32l0xx_ll_i2c.h **** 
1146:../../dependencies/STM32CubeL0/Drivers/STM32L0xx_HAL_Driver/Inc/stm32l0xx_ll_i2c.h **** /**
1147:../../dependencies/STM32CubeL0/Drivers/STM32L0xx_HAL_Driver/Inc/stm32l0xx_ll_i2c.h ****   * @brief  Get the SMBus Clock TimeoutA setting.
1148:../../dependencies/STM32CubeL0/Drivers/STM32L0xx_HAL_Driver/Inc/stm32l0xx_ll_i2c.h ****   * @note   The macro IS_SMBUS_INSTANCE(I2Cx) can be used to check whether or not
1149:../../dependencies/STM32CubeL0/Drivers/STM32L0xx_HAL_Driver/Inc/stm32l0xx_ll_i2c.h ****   *         SMBus feature is supported by the I2Cx Instance.
1150:../../dependencies/STM32CubeL0/Drivers/STM32L0xx_HAL_Driver/Inc/stm32l0xx_ll_i2c.h ****   * @rmtoll TIMEOUTR     TIMEOUTA      LL_I2C_GetSMBusTimeoutA
1151:../../dependencies/STM32CubeL0/Drivers/STM32L0xx_HAL_Driver/Inc/stm32l0xx_ll_i2c.h ****   * @param  I2Cx I2C Instance.
1152:../../dependencies/STM32CubeL0/Drivers/STM32L0xx_HAL_Driver/Inc/stm32l0xx_ll_i2c.h ****   * @retval Value between Min_Data=0 and Max_Data=0xFFF
1153:../../dependencies/STM32CubeL0/Drivers/STM32L0xx_HAL_Driver/Inc/stm32l0xx_ll_i2c.h ****   */
1154:../../dependencies/STM32CubeL0/Drivers/STM32L0xx_HAL_Driver/Inc/stm32l0xx_ll_i2c.h **** __STATIC_INLINE uint32_t LL_I2C_GetSMBusTimeoutA(I2C_TypeDef *I2Cx)
1155:../../dependencies/STM32CubeL0/Drivers/STM32L0xx_HAL_Driver/Inc/stm32l0xx_ll_i2c.h **** {
1156:../../dependencies/STM32CubeL0/Drivers/STM32L0xx_HAL_Driver/Inc/stm32l0xx_ll_i2c.h ****   return (uint32_t)(READ_BIT(I2Cx->TIMEOUTR, I2C_TIMEOUTR_TIMEOUTA));
1157:../../dependencies/STM32CubeL0/Drivers/STM32L0xx_HAL_Driver/Inc/stm32l0xx_ll_i2c.h **** }
1158:../../dependencies/STM32CubeL0/Drivers/STM32L0xx_HAL_Driver/Inc/stm32l0xx_ll_i2c.h **** 
1159:../../dependencies/STM32CubeL0/Drivers/STM32L0xx_HAL_Driver/Inc/stm32l0xx_ll_i2c.h **** /**
1160:../../dependencies/STM32CubeL0/Drivers/STM32L0xx_HAL_Driver/Inc/stm32l0xx_ll_i2c.h ****   * @brief  Set the SMBus Clock TimeoutA mode.
1161:../../dependencies/STM32CubeL0/Drivers/STM32L0xx_HAL_Driver/Inc/stm32l0xx_ll_i2c.h ****   * @note   The macro IS_SMBUS_INSTANCE(I2Cx) can be used to check whether or not
1162:../../dependencies/STM32CubeL0/Drivers/STM32L0xx_HAL_Driver/Inc/stm32l0xx_ll_i2c.h ****   *         SMBus feature is supported by the I2Cx Instance.
1163:../../dependencies/STM32CubeL0/Drivers/STM32L0xx_HAL_Driver/Inc/stm32l0xx_ll_i2c.h ****   * @note   This bit can only be programmed when TimeoutA is disabled.
1164:../../dependencies/STM32CubeL0/Drivers/STM32L0xx_HAL_Driver/Inc/stm32l0xx_ll_i2c.h ****   * @rmtoll TIMEOUTR     TIDLE         LL_I2C_SetSMBusTimeoutAMode
1165:../../dependencies/STM32CubeL0/Drivers/STM32L0xx_HAL_Driver/Inc/stm32l0xx_ll_i2c.h ****   * @param  I2Cx I2C Instance.
1166:../../dependencies/STM32CubeL0/Drivers/STM32L0xx_HAL_Driver/Inc/stm32l0xx_ll_i2c.h ****   * @param  TimeoutAMode This parameter can be one of the following values:
1167:../../dependencies/STM32CubeL0/Drivers/STM32L0xx_HAL_Driver/Inc/stm32l0xx_ll_i2c.h ****   *         @arg @ref LL_I2C_SMBUS_TIMEOUTA_MODE_SCL_LOW
1168:../../dependencies/STM32CubeL0/Drivers/STM32L0xx_HAL_Driver/Inc/stm32l0xx_ll_i2c.h ****   *         @arg @ref LL_I2C_SMBUS_TIMEOUTA_MODE_SDA_SCL_HIGH
1169:../../dependencies/STM32CubeL0/Drivers/STM32L0xx_HAL_Driver/Inc/stm32l0xx_ll_i2c.h ****   * @retval None
1170:../../dependencies/STM32CubeL0/Drivers/STM32L0xx_HAL_Driver/Inc/stm32l0xx_ll_i2c.h ****   */
1171:../../dependencies/STM32CubeL0/Drivers/STM32L0xx_HAL_Driver/Inc/stm32l0xx_ll_i2c.h **** __STATIC_INLINE void LL_I2C_SetSMBusTimeoutAMode(I2C_TypeDef *I2Cx, uint32_t TimeoutAMode)
1172:../../dependencies/STM32CubeL0/Drivers/STM32L0xx_HAL_Driver/Inc/stm32l0xx_ll_i2c.h **** {
1173:../../dependencies/STM32CubeL0/Drivers/STM32L0xx_HAL_Driver/Inc/stm32l0xx_ll_i2c.h ****   WRITE_REG(I2Cx->TIMEOUTR, TimeoutAMode);
ARM GAS  /var/folders/fs/dxwfnrqj18z860lwl3d6f5t00000gn/T//ccXcLPlJ.s 			page 25


1174:../../dependencies/STM32CubeL0/Drivers/STM32L0xx_HAL_Driver/Inc/stm32l0xx_ll_i2c.h **** }
1175:../../dependencies/STM32CubeL0/Drivers/STM32L0xx_HAL_Driver/Inc/stm32l0xx_ll_i2c.h **** 
1176:../../dependencies/STM32CubeL0/Drivers/STM32L0xx_HAL_Driver/Inc/stm32l0xx_ll_i2c.h **** /**
1177:../../dependencies/STM32CubeL0/Drivers/STM32L0xx_HAL_Driver/Inc/stm32l0xx_ll_i2c.h ****   * @brief  Get the SMBus Clock TimeoutA mode.
1178:../../dependencies/STM32CubeL0/Drivers/STM32L0xx_HAL_Driver/Inc/stm32l0xx_ll_i2c.h ****   * @note   The macro IS_SMBUS_INSTANCE(I2Cx) can be used to check whether or not
1179:../../dependencies/STM32CubeL0/Drivers/STM32L0xx_HAL_Driver/Inc/stm32l0xx_ll_i2c.h ****   *         SMBus feature is supported by the I2Cx Instance.
1180:../../dependencies/STM32CubeL0/Drivers/STM32L0xx_HAL_Driver/Inc/stm32l0xx_ll_i2c.h ****   * @rmtoll TIMEOUTR     TIDLE         LL_I2C_GetSMBusTimeoutAMode
1181:../../dependencies/STM32CubeL0/Drivers/STM32L0xx_HAL_Driver/Inc/stm32l0xx_ll_i2c.h ****   * @param  I2Cx I2C Instance.
1182:../../dependencies/STM32CubeL0/Drivers/STM32L0xx_HAL_Driver/Inc/stm32l0xx_ll_i2c.h ****   * @retval Returned value can be one of the following values:
1183:../../dependencies/STM32CubeL0/Drivers/STM32L0xx_HAL_Driver/Inc/stm32l0xx_ll_i2c.h ****   *         @arg @ref LL_I2C_SMBUS_TIMEOUTA_MODE_SCL_LOW
1184:../../dependencies/STM32CubeL0/Drivers/STM32L0xx_HAL_Driver/Inc/stm32l0xx_ll_i2c.h ****   *         @arg @ref LL_I2C_SMBUS_TIMEOUTA_MODE_SDA_SCL_HIGH
1185:../../dependencies/STM32CubeL0/Drivers/STM32L0xx_HAL_Driver/Inc/stm32l0xx_ll_i2c.h ****   */
1186:../../dependencies/STM32CubeL0/Drivers/STM32L0xx_HAL_Driver/Inc/stm32l0xx_ll_i2c.h **** __STATIC_INLINE uint32_t LL_I2C_GetSMBusTimeoutAMode(I2C_TypeDef *I2Cx)
1187:../../dependencies/STM32CubeL0/Drivers/STM32L0xx_HAL_Driver/Inc/stm32l0xx_ll_i2c.h **** {
1188:../../dependencies/STM32CubeL0/Drivers/STM32L0xx_HAL_Driver/Inc/stm32l0xx_ll_i2c.h ****   return (uint32_t)(READ_BIT(I2Cx->TIMEOUTR, I2C_TIMEOUTR_TIDLE));
1189:../../dependencies/STM32CubeL0/Drivers/STM32L0xx_HAL_Driver/Inc/stm32l0xx_ll_i2c.h **** }
1190:../../dependencies/STM32CubeL0/Drivers/STM32L0xx_HAL_Driver/Inc/stm32l0xx_ll_i2c.h **** 
1191:../../dependencies/STM32CubeL0/Drivers/STM32L0xx_HAL_Driver/Inc/stm32l0xx_ll_i2c.h **** /**
1192:../../dependencies/STM32CubeL0/Drivers/STM32L0xx_HAL_Driver/Inc/stm32l0xx_ll_i2c.h ****   * @brief  Configure the SMBus Extended Cumulative Clock TimeoutB (Master or Slave mode).
1193:../../dependencies/STM32CubeL0/Drivers/STM32L0xx_HAL_Driver/Inc/stm32l0xx_ll_i2c.h ****   * @note   The macro IS_SMBUS_INSTANCE(I2Cx) can be used to check whether or not
1194:../../dependencies/STM32CubeL0/Drivers/STM32L0xx_HAL_Driver/Inc/stm32l0xx_ll_i2c.h ****   *         SMBus feature is supported by the I2Cx Instance.
1195:../../dependencies/STM32CubeL0/Drivers/STM32L0xx_HAL_Driver/Inc/stm32l0xx_ll_i2c.h ****   * @note   These bits can only be programmed when TimeoutB is disabled.
1196:../../dependencies/STM32CubeL0/Drivers/STM32L0xx_HAL_Driver/Inc/stm32l0xx_ll_i2c.h ****   * @rmtoll TIMEOUTR     TIMEOUTB      LL_I2C_SetSMBusTimeoutB
1197:../../dependencies/STM32CubeL0/Drivers/STM32L0xx_HAL_Driver/Inc/stm32l0xx_ll_i2c.h ****   * @param  I2Cx I2C Instance.
1198:../../dependencies/STM32CubeL0/Drivers/STM32L0xx_HAL_Driver/Inc/stm32l0xx_ll_i2c.h ****   * @param  TimeoutB This parameter must be a value between  Min_Data=0 and Max_Data=0xFFF.
1199:../../dependencies/STM32CubeL0/Drivers/STM32L0xx_HAL_Driver/Inc/stm32l0xx_ll_i2c.h ****   * @retval None
1200:../../dependencies/STM32CubeL0/Drivers/STM32L0xx_HAL_Driver/Inc/stm32l0xx_ll_i2c.h ****   */
1201:../../dependencies/STM32CubeL0/Drivers/STM32L0xx_HAL_Driver/Inc/stm32l0xx_ll_i2c.h **** __STATIC_INLINE void LL_I2C_SetSMBusTimeoutB(I2C_TypeDef *I2Cx, uint32_t TimeoutB)
1202:../../dependencies/STM32CubeL0/Drivers/STM32L0xx_HAL_Driver/Inc/stm32l0xx_ll_i2c.h **** {
1203:../../dependencies/STM32CubeL0/Drivers/STM32L0xx_HAL_Driver/Inc/stm32l0xx_ll_i2c.h ****   WRITE_REG(I2Cx->TIMEOUTR, TimeoutB << I2C_TIMEOUTR_TIMEOUTB_Pos);
1204:../../dependencies/STM32CubeL0/Drivers/STM32L0xx_HAL_Driver/Inc/stm32l0xx_ll_i2c.h **** }
1205:../../dependencies/STM32CubeL0/Drivers/STM32L0xx_HAL_Driver/Inc/stm32l0xx_ll_i2c.h **** 
1206:../../dependencies/STM32CubeL0/Drivers/STM32L0xx_HAL_Driver/Inc/stm32l0xx_ll_i2c.h **** /**
1207:../../dependencies/STM32CubeL0/Drivers/STM32L0xx_HAL_Driver/Inc/stm32l0xx_ll_i2c.h ****   * @brief  Get the SMBus Extended Cumulative Clock TimeoutB setting.
1208:../../dependencies/STM32CubeL0/Drivers/STM32L0xx_HAL_Driver/Inc/stm32l0xx_ll_i2c.h ****   * @note   The macro IS_SMBUS_INSTANCE(I2Cx) can be used to check whether or not
1209:../../dependencies/STM32CubeL0/Drivers/STM32L0xx_HAL_Driver/Inc/stm32l0xx_ll_i2c.h ****   *         SMBus feature is supported by the I2Cx Instance.
1210:../../dependencies/STM32CubeL0/Drivers/STM32L0xx_HAL_Driver/Inc/stm32l0xx_ll_i2c.h ****   * @rmtoll TIMEOUTR     TIMEOUTB      LL_I2C_GetSMBusTimeoutB
1211:../../dependencies/STM32CubeL0/Drivers/STM32L0xx_HAL_Driver/Inc/stm32l0xx_ll_i2c.h ****   * @param  I2Cx I2C Instance.
1212:../../dependencies/STM32CubeL0/Drivers/STM32L0xx_HAL_Driver/Inc/stm32l0xx_ll_i2c.h ****   * @retval Value between Min_Data=0 and Max_Data=0xFFF
1213:../../dependencies/STM32CubeL0/Drivers/STM32L0xx_HAL_Driver/Inc/stm32l0xx_ll_i2c.h ****   */
1214:../../dependencies/STM32CubeL0/Drivers/STM32L0xx_HAL_Driver/Inc/stm32l0xx_ll_i2c.h **** __STATIC_INLINE uint32_t LL_I2C_GetSMBusTimeoutB(I2C_TypeDef *I2Cx)
1215:../../dependencies/STM32CubeL0/Drivers/STM32L0xx_HAL_Driver/Inc/stm32l0xx_ll_i2c.h **** {
1216:../../dependencies/STM32CubeL0/Drivers/STM32L0xx_HAL_Driver/Inc/stm32l0xx_ll_i2c.h ****   return (uint32_t)(READ_BIT(I2Cx->TIMEOUTR, I2C_TIMEOUTR_TIMEOUTB) >> I2C_TIMEOUTR_TIMEOUTB_Pos);
1217:../../dependencies/STM32CubeL0/Drivers/STM32L0xx_HAL_Driver/Inc/stm32l0xx_ll_i2c.h **** }
1218:../../dependencies/STM32CubeL0/Drivers/STM32L0xx_HAL_Driver/Inc/stm32l0xx_ll_i2c.h **** 
1219:../../dependencies/STM32CubeL0/Drivers/STM32L0xx_HAL_Driver/Inc/stm32l0xx_ll_i2c.h **** /**
1220:../../dependencies/STM32CubeL0/Drivers/STM32L0xx_HAL_Driver/Inc/stm32l0xx_ll_i2c.h ****   * @brief  Enable the SMBus Clock Timeout.
1221:../../dependencies/STM32CubeL0/Drivers/STM32L0xx_HAL_Driver/Inc/stm32l0xx_ll_i2c.h ****   * @note   The macro IS_SMBUS_INSTANCE(I2Cx) can be used to check whether or not
1222:../../dependencies/STM32CubeL0/Drivers/STM32L0xx_HAL_Driver/Inc/stm32l0xx_ll_i2c.h ****   *         SMBus feature is supported by the I2Cx Instance.
1223:../../dependencies/STM32CubeL0/Drivers/STM32L0xx_HAL_Driver/Inc/stm32l0xx_ll_i2c.h ****   * @rmtoll TIMEOUTR     TIMOUTEN      LL_I2C_EnableSMBusTimeout\n
1224:../../dependencies/STM32CubeL0/Drivers/STM32L0xx_HAL_Driver/Inc/stm32l0xx_ll_i2c.h ****   *         TIMEOUTR     TEXTEN        LL_I2C_EnableSMBusTimeout
1225:../../dependencies/STM32CubeL0/Drivers/STM32L0xx_HAL_Driver/Inc/stm32l0xx_ll_i2c.h ****   * @param  I2Cx I2C Instance.
1226:../../dependencies/STM32CubeL0/Drivers/STM32L0xx_HAL_Driver/Inc/stm32l0xx_ll_i2c.h ****   * @param  ClockTimeout This parameter can be one of the following values:
1227:../../dependencies/STM32CubeL0/Drivers/STM32L0xx_HAL_Driver/Inc/stm32l0xx_ll_i2c.h ****   *         @arg @ref LL_I2C_SMBUS_TIMEOUTA
1228:../../dependencies/STM32CubeL0/Drivers/STM32L0xx_HAL_Driver/Inc/stm32l0xx_ll_i2c.h ****   *         @arg @ref LL_I2C_SMBUS_TIMEOUTB
1229:../../dependencies/STM32CubeL0/Drivers/STM32L0xx_HAL_Driver/Inc/stm32l0xx_ll_i2c.h ****   *         @arg @ref LL_I2C_SMBUS_ALL_TIMEOUT
1230:../../dependencies/STM32CubeL0/Drivers/STM32L0xx_HAL_Driver/Inc/stm32l0xx_ll_i2c.h ****   * @retval None
ARM GAS  /var/folders/fs/dxwfnrqj18z860lwl3d6f5t00000gn/T//ccXcLPlJ.s 			page 26


1231:../../dependencies/STM32CubeL0/Drivers/STM32L0xx_HAL_Driver/Inc/stm32l0xx_ll_i2c.h ****   */
1232:../../dependencies/STM32CubeL0/Drivers/STM32L0xx_HAL_Driver/Inc/stm32l0xx_ll_i2c.h **** __STATIC_INLINE void LL_I2C_EnableSMBusTimeout(I2C_TypeDef *I2Cx, uint32_t ClockTimeout)
1233:../../dependencies/STM32CubeL0/Drivers/STM32L0xx_HAL_Driver/Inc/stm32l0xx_ll_i2c.h **** {
1234:../../dependencies/STM32CubeL0/Drivers/STM32L0xx_HAL_Driver/Inc/stm32l0xx_ll_i2c.h ****   SET_BIT(I2Cx->TIMEOUTR, ClockTimeout);
1235:../../dependencies/STM32CubeL0/Drivers/STM32L0xx_HAL_Driver/Inc/stm32l0xx_ll_i2c.h **** }
1236:../../dependencies/STM32CubeL0/Drivers/STM32L0xx_HAL_Driver/Inc/stm32l0xx_ll_i2c.h **** 
1237:../../dependencies/STM32CubeL0/Drivers/STM32L0xx_HAL_Driver/Inc/stm32l0xx_ll_i2c.h **** /**
1238:../../dependencies/STM32CubeL0/Drivers/STM32L0xx_HAL_Driver/Inc/stm32l0xx_ll_i2c.h ****   * @brief  Disable the SMBus Clock Timeout.
1239:../../dependencies/STM32CubeL0/Drivers/STM32L0xx_HAL_Driver/Inc/stm32l0xx_ll_i2c.h ****   * @note   The macro IS_SMBUS_INSTANCE(I2Cx) can be used to check whether or not
1240:../../dependencies/STM32CubeL0/Drivers/STM32L0xx_HAL_Driver/Inc/stm32l0xx_ll_i2c.h ****   *         SMBus feature is supported by the I2Cx Instance.
1241:../../dependencies/STM32CubeL0/Drivers/STM32L0xx_HAL_Driver/Inc/stm32l0xx_ll_i2c.h ****   * @rmtoll TIMEOUTR     TIMOUTEN      LL_I2C_DisableSMBusTimeout\n
1242:../../dependencies/STM32CubeL0/Drivers/STM32L0xx_HAL_Driver/Inc/stm32l0xx_ll_i2c.h ****   *         TIMEOUTR     TEXTEN        LL_I2C_DisableSMBusTimeout
1243:../../dependencies/STM32CubeL0/Drivers/STM32L0xx_HAL_Driver/Inc/stm32l0xx_ll_i2c.h ****   * @param  I2Cx I2C Instance.
1244:../../dependencies/STM32CubeL0/Drivers/STM32L0xx_HAL_Driver/Inc/stm32l0xx_ll_i2c.h ****   * @param  ClockTimeout This parameter can be one of the following values:
1245:../../dependencies/STM32CubeL0/Drivers/STM32L0xx_HAL_Driver/Inc/stm32l0xx_ll_i2c.h ****   *         @arg @ref LL_I2C_SMBUS_TIMEOUTA
1246:../../dependencies/STM32CubeL0/Drivers/STM32L0xx_HAL_Driver/Inc/stm32l0xx_ll_i2c.h ****   *         @arg @ref LL_I2C_SMBUS_TIMEOUTB
1247:../../dependencies/STM32CubeL0/Drivers/STM32L0xx_HAL_Driver/Inc/stm32l0xx_ll_i2c.h ****   *         @arg @ref LL_I2C_SMBUS_ALL_TIMEOUT
1248:../../dependencies/STM32CubeL0/Drivers/STM32L0xx_HAL_Driver/Inc/stm32l0xx_ll_i2c.h ****   * @retval None
1249:../../dependencies/STM32CubeL0/Drivers/STM32L0xx_HAL_Driver/Inc/stm32l0xx_ll_i2c.h ****   */
1250:../../dependencies/STM32CubeL0/Drivers/STM32L0xx_HAL_Driver/Inc/stm32l0xx_ll_i2c.h **** __STATIC_INLINE void LL_I2C_DisableSMBusTimeout(I2C_TypeDef *I2Cx, uint32_t ClockTimeout)
1251:../../dependencies/STM32CubeL0/Drivers/STM32L0xx_HAL_Driver/Inc/stm32l0xx_ll_i2c.h **** {
1252:../../dependencies/STM32CubeL0/Drivers/STM32L0xx_HAL_Driver/Inc/stm32l0xx_ll_i2c.h ****   CLEAR_BIT(I2Cx->TIMEOUTR, ClockTimeout);
1253:../../dependencies/STM32CubeL0/Drivers/STM32L0xx_HAL_Driver/Inc/stm32l0xx_ll_i2c.h **** }
1254:../../dependencies/STM32CubeL0/Drivers/STM32L0xx_HAL_Driver/Inc/stm32l0xx_ll_i2c.h **** 
1255:../../dependencies/STM32CubeL0/Drivers/STM32L0xx_HAL_Driver/Inc/stm32l0xx_ll_i2c.h **** /**
1256:../../dependencies/STM32CubeL0/Drivers/STM32L0xx_HAL_Driver/Inc/stm32l0xx_ll_i2c.h ****   * @brief  Check if the SMBus Clock Timeout is enabled or disabled.
1257:../../dependencies/STM32CubeL0/Drivers/STM32L0xx_HAL_Driver/Inc/stm32l0xx_ll_i2c.h ****   * @note   The macro IS_SMBUS_INSTANCE(I2Cx) can be used to check whether or not
1258:../../dependencies/STM32CubeL0/Drivers/STM32L0xx_HAL_Driver/Inc/stm32l0xx_ll_i2c.h ****   *         SMBus feature is supported by the I2Cx Instance.
1259:../../dependencies/STM32CubeL0/Drivers/STM32L0xx_HAL_Driver/Inc/stm32l0xx_ll_i2c.h ****   * @rmtoll TIMEOUTR     TIMOUTEN      LL_I2C_IsEnabledSMBusTimeout\n
1260:../../dependencies/STM32CubeL0/Drivers/STM32L0xx_HAL_Driver/Inc/stm32l0xx_ll_i2c.h ****   *         TIMEOUTR     TEXTEN        LL_I2C_IsEnabledSMBusTimeout
1261:../../dependencies/STM32CubeL0/Drivers/STM32L0xx_HAL_Driver/Inc/stm32l0xx_ll_i2c.h ****   * @param  I2Cx I2C Instance.
1262:../../dependencies/STM32CubeL0/Drivers/STM32L0xx_HAL_Driver/Inc/stm32l0xx_ll_i2c.h ****   * @param  ClockTimeout This parameter can be one of the following values:
1263:../../dependencies/STM32CubeL0/Drivers/STM32L0xx_HAL_Driver/Inc/stm32l0xx_ll_i2c.h ****   *         @arg @ref LL_I2C_SMBUS_TIMEOUTA
1264:../../dependencies/STM32CubeL0/Drivers/STM32L0xx_HAL_Driver/Inc/stm32l0xx_ll_i2c.h ****   *         @arg @ref LL_I2C_SMBUS_TIMEOUTB
1265:../../dependencies/STM32CubeL0/Drivers/STM32L0xx_HAL_Driver/Inc/stm32l0xx_ll_i2c.h ****   *         @arg @ref LL_I2C_SMBUS_ALL_TIMEOUT
1266:../../dependencies/STM32CubeL0/Drivers/STM32L0xx_HAL_Driver/Inc/stm32l0xx_ll_i2c.h ****   * @retval State of bit (1 or 0).
1267:../../dependencies/STM32CubeL0/Drivers/STM32L0xx_HAL_Driver/Inc/stm32l0xx_ll_i2c.h ****   */
1268:../../dependencies/STM32CubeL0/Drivers/STM32L0xx_HAL_Driver/Inc/stm32l0xx_ll_i2c.h **** __STATIC_INLINE uint32_t LL_I2C_IsEnabledSMBusTimeout(I2C_TypeDef *I2Cx, uint32_t ClockTimeout)
1269:../../dependencies/STM32CubeL0/Drivers/STM32L0xx_HAL_Driver/Inc/stm32l0xx_ll_i2c.h **** {
1270:../../dependencies/STM32CubeL0/Drivers/STM32L0xx_HAL_Driver/Inc/stm32l0xx_ll_i2c.h ****   return ((READ_BIT(I2Cx->TIMEOUTR, (I2C_TIMEOUTR_TIMOUTEN | I2C_TIMEOUTR_TEXTEN)) == \
1271:../../dependencies/STM32CubeL0/Drivers/STM32L0xx_HAL_Driver/Inc/stm32l0xx_ll_i2c.h ****            (ClockTimeout)) ? 1UL : 0UL);
1272:../../dependencies/STM32CubeL0/Drivers/STM32L0xx_HAL_Driver/Inc/stm32l0xx_ll_i2c.h **** }
1273:../../dependencies/STM32CubeL0/Drivers/STM32L0xx_HAL_Driver/Inc/stm32l0xx_ll_i2c.h **** 
1274:../../dependencies/STM32CubeL0/Drivers/STM32L0xx_HAL_Driver/Inc/stm32l0xx_ll_i2c.h **** /**
1275:../../dependencies/STM32CubeL0/Drivers/STM32L0xx_HAL_Driver/Inc/stm32l0xx_ll_i2c.h ****   * @}
1276:../../dependencies/STM32CubeL0/Drivers/STM32L0xx_HAL_Driver/Inc/stm32l0xx_ll_i2c.h ****   */
1277:../../dependencies/STM32CubeL0/Drivers/STM32L0xx_HAL_Driver/Inc/stm32l0xx_ll_i2c.h **** 
1278:../../dependencies/STM32CubeL0/Drivers/STM32L0xx_HAL_Driver/Inc/stm32l0xx_ll_i2c.h **** /** @defgroup I2C_LL_EF_IT_Management IT_Management
1279:../../dependencies/STM32CubeL0/Drivers/STM32L0xx_HAL_Driver/Inc/stm32l0xx_ll_i2c.h ****   * @{
1280:../../dependencies/STM32CubeL0/Drivers/STM32L0xx_HAL_Driver/Inc/stm32l0xx_ll_i2c.h ****   */
1281:../../dependencies/STM32CubeL0/Drivers/STM32L0xx_HAL_Driver/Inc/stm32l0xx_ll_i2c.h **** 
1282:../../dependencies/STM32CubeL0/Drivers/STM32L0xx_HAL_Driver/Inc/stm32l0xx_ll_i2c.h **** /**
1283:../../dependencies/STM32CubeL0/Drivers/STM32L0xx_HAL_Driver/Inc/stm32l0xx_ll_i2c.h ****   * @brief  Enable TXIS interrupt.
1284:../../dependencies/STM32CubeL0/Drivers/STM32L0xx_HAL_Driver/Inc/stm32l0xx_ll_i2c.h ****   * @rmtoll CR1          TXIE          LL_I2C_EnableIT_TX
1285:../../dependencies/STM32CubeL0/Drivers/STM32L0xx_HAL_Driver/Inc/stm32l0xx_ll_i2c.h ****   * @param  I2Cx I2C Instance.
1286:../../dependencies/STM32CubeL0/Drivers/STM32L0xx_HAL_Driver/Inc/stm32l0xx_ll_i2c.h ****   * @retval None
1287:../../dependencies/STM32CubeL0/Drivers/STM32L0xx_HAL_Driver/Inc/stm32l0xx_ll_i2c.h ****   */
ARM GAS  /var/folders/fs/dxwfnrqj18z860lwl3d6f5t00000gn/T//ccXcLPlJ.s 			page 27


1288:../../dependencies/STM32CubeL0/Drivers/STM32L0xx_HAL_Driver/Inc/stm32l0xx_ll_i2c.h **** __STATIC_INLINE void LL_I2C_EnableIT_TX(I2C_TypeDef *I2Cx)
1289:../../dependencies/STM32CubeL0/Drivers/STM32L0xx_HAL_Driver/Inc/stm32l0xx_ll_i2c.h **** {
1290:../../dependencies/STM32CubeL0/Drivers/STM32L0xx_HAL_Driver/Inc/stm32l0xx_ll_i2c.h ****   SET_BIT(I2Cx->CR1, I2C_CR1_TXIE);
1291:../../dependencies/STM32CubeL0/Drivers/STM32L0xx_HAL_Driver/Inc/stm32l0xx_ll_i2c.h **** }
1292:../../dependencies/STM32CubeL0/Drivers/STM32L0xx_HAL_Driver/Inc/stm32l0xx_ll_i2c.h **** 
1293:../../dependencies/STM32CubeL0/Drivers/STM32L0xx_HAL_Driver/Inc/stm32l0xx_ll_i2c.h **** /**
1294:../../dependencies/STM32CubeL0/Drivers/STM32L0xx_HAL_Driver/Inc/stm32l0xx_ll_i2c.h ****   * @brief  Disable TXIS interrupt.
1295:../../dependencies/STM32CubeL0/Drivers/STM32L0xx_HAL_Driver/Inc/stm32l0xx_ll_i2c.h ****   * @rmtoll CR1          TXIE          LL_I2C_DisableIT_TX
1296:../../dependencies/STM32CubeL0/Drivers/STM32L0xx_HAL_Driver/Inc/stm32l0xx_ll_i2c.h ****   * @param  I2Cx I2C Instance.
1297:../../dependencies/STM32CubeL0/Drivers/STM32L0xx_HAL_Driver/Inc/stm32l0xx_ll_i2c.h ****   * @retval None
1298:../../dependencies/STM32CubeL0/Drivers/STM32L0xx_HAL_Driver/Inc/stm32l0xx_ll_i2c.h ****   */
1299:../../dependencies/STM32CubeL0/Drivers/STM32L0xx_HAL_Driver/Inc/stm32l0xx_ll_i2c.h **** __STATIC_INLINE void LL_I2C_DisableIT_TX(I2C_TypeDef *I2Cx)
1300:../../dependencies/STM32CubeL0/Drivers/STM32L0xx_HAL_Driver/Inc/stm32l0xx_ll_i2c.h **** {
1301:../../dependencies/STM32CubeL0/Drivers/STM32L0xx_HAL_Driver/Inc/stm32l0xx_ll_i2c.h ****   CLEAR_BIT(I2Cx->CR1, I2C_CR1_TXIE);
1302:../../dependencies/STM32CubeL0/Drivers/STM32L0xx_HAL_Driver/Inc/stm32l0xx_ll_i2c.h **** }
1303:../../dependencies/STM32CubeL0/Drivers/STM32L0xx_HAL_Driver/Inc/stm32l0xx_ll_i2c.h **** 
1304:../../dependencies/STM32CubeL0/Drivers/STM32L0xx_HAL_Driver/Inc/stm32l0xx_ll_i2c.h **** /**
1305:../../dependencies/STM32CubeL0/Drivers/STM32L0xx_HAL_Driver/Inc/stm32l0xx_ll_i2c.h ****   * @brief  Check if the TXIS Interrupt is enabled or disabled.
1306:../../dependencies/STM32CubeL0/Drivers/STM32L0xx_HAL_Driver/Inc/stm32l0xx_ll_i2c.h ****   * @rmtoll CR1          TXIE          LL_I2C_IsEnabledIT_TX
1307:../../dependencies/STM32CubeL0/Drivers/STM32L0xx_HAL_Driver/Inc/stm32l0xx_ll_i2c.h ****   * @param  I2Cx I2C Instance.
1308:../../dependencies/STM32CubeL0/Drivers/STM32L0xx_HAL_Driver/Inc/stm32l0xx_ll_i2c.h ****   * @retval State of bit (1 or 0).
1309:../../dependencies/STM32CubeL0/Drivers/STM32L0xx_HAL_Driver/Inc/stm32l0xx_ll_i2c.h ****   */
1310:../../dependencies/STM32CubeL0/Drivers/STM32L0xx_HAL_Driver/Inc/stm32l0xx_ll_i2c.h **** __STATIC_INLINE uint32_t LL_I2C_IsEnabledIT_TX(I2C_TypeDef *I2Cx)
1311:../../dependencies/STM32CubeL0/Drivers/STM32L0xx_HAL_Driver/Inc/stm32l0xx_ll_i2c.h **** {
1312:../../dependencies/STM32CubeL0/Drivers/STM32L0xx_HAL_Driver/Inc/stm32l0xx_ll_i2c.h ****   return ((READ_BIT(I2Cx->CR1, I2C_CR1_TXIE) == (I2C_CR1_TXIE)) ? 1UL : 0UL);
1313:../../dependencies/STM32CubeL0/Drivers/STM32L0xx_HAL_Driver/Inc/stm32l0xx_ll_i2c.h **** }
1314:../../dependencies/STM32CubeL0/Drivers/STM32L0xx_HAL_Driver/Inc/stm32l0xx_ll_i2c.h **** 
1315:../../dependencies/STM32CubeL0/Drivers/STM32L0xx_HAL_Driver/Inc/stm32l0xx_ll_i2c.h **** /**
1316:../../dependencies/STM32CubeL0/Drivers/STM32L0xx_HAL_Driver/Inc/stm32l0xx_ll_i2c.h ****   * @brief  Enable RXNE interrupt.
1317:../../dependencies/STM32CubeL0/Drivers/STM32L0xx_HAL_Driver/Inc/stm32l0xx_ll_i2c.h ****   * @rmtoll CR1          RXIE          LL_I2C_EnableIT_RX
1318:../../dependencies/STM32CubeL0/Drivers/STM32L0xx_HAL_Driver/Inc/stm32l0xx_ll_i2c.h ****   * @param  I2Cx I2C Instance.
1319:../../dependencies/STM32CubeL0/Drivers/STM32L0xx_HAL_Driver/Inc/stm32l0xx_ll_i2c.h ****   * @retval None
1320:../../dependencies/STM32CubeL0/Drivers/STM32L0xx_HAL_Driver/Inc/stm32l0xx_ll_i2c.h ****   */
1321:../../dependencies/STM32CubeL0/Drivers/STM32L0xx_HAL_Driver/Inc/stm32l0xx_ll_i2c.h **** __STATIC_INLINE void LL_I2C_EnableIT_RX(I2C_TypeDef *I2Cx)
1322:../../dependencies/STM32CubeL0/Drivers/STM32L0xx_HAL_Driver/Inc/stm32l0xx_ll_i2c.h **** {
1323:../../dependencies/STM32CubeL0/Drivers/STM32L0xx_HAL_Driver/Inc/stm32l0xx_ll_i2c.h ****   SET_BIT(I2Cx->CR1, I2C_CR1_RXIE);
1324:../../dependencies/STM32CubeL0/Drivers/STM32L0xx_HAL_Driver/Inc/stm32l0xx_ll_i2c.h **** }
1325:../../dependencies/STM32CubeL0/Drivers/STM32L0xx_HAL_Driver/Inc/stm32l0xx_ll_i2c.h **** 
1326:../../dependencies/STM32CubeL0/Drivers/STM32L0xx_HAL_Driver/Inc/stm32l0xx_ll_i2c.h **** /**
1327:../../dependencies/STM32CubeL0/Drivers/STM32L0xx_HAL_Driver/Inc/stm32l0xx_ll_i2c.h ****   * @brief  Disable RXNE interrupt.
1328:../../dependencies/STM32CubeL0/Drivers/STM32L0xx_HAL_Driver/Inc/stm32l0xx_ll_i2c.h ****   * @rmtoll CR1          RXIE          LL_I2C_DisableIT_RX
1329:../../dependencies/STM32CubeL0/Drivers/STM32L0xx_HAL_Driver/Inc/stm32l0xx_ll_i2c.h ****   * @param  I2Cx I2C Instance.
1330:../../dependencies/STM32CubeL0/Drivers/STM32L0xx_HAL_Driver/Inc/stm32l0xx_ll_i2c.h ****   * @retval None
1331:../../dependencies/STM32CubeL0/Drivers/STM32L0xx_HAL_Driver/Inc/stm32l0xx_ll_i2c.h ****   */
1332:../../dependencies/STM32CubeL0/Drivers/STM32L0xx_HAL_Driver/Inc/stm32l0xx_ll_i2c.h **** __STATIC_INLINE void LL_I2C_DisableIT_RX(I2C_TypeDef *I2Cx)
1333:../../dependencies/STM32CubeL0/Drivers/STM32L0xx_HAL_Driver/Inc/stm32l0xx_ll_i2c.h **** {
1334:../../dependencies/STM32CubeL0/Drivers/STM32L0xx_HAL_Driver/Inc/stm32l0xx_ll_i2c.h ****   CLEAR_BIT(I2Cx->CR1, I2C_CR1_RXIE);
1335:../../dependencies/STM32CubeL0/Drivers/STM32L0xx_HAL_Driver/Inc/stm32l0xx_ll_i2c.h **** }
1336:../../dependencies/STM32CubeL0/Drivers/STM32L0xx_HAL_Driver/Inc/stm32l0xx_ll_i2c.h **** 
1337:../../dependencies/STM32CubeL0/Drivers/STM32L0xx_HAL_Driver/Inc/stm32l0xx_ll_i2c.h **** /**
1338:../../dependencies/STM32CubeL0/Drivers/STM32L0xx_HAL_Driver/Inc/stm32l0xx_ll_i2c.h ****   * @brief  Check if the RXNE Interrupt is enabled or disabled.
1339:../../dependencies/STM32CubeL0/Drivers/STM32L0xx_HAL_Driver/Inc/stm32l0xx_ll_i2c.h ****   * @rmtoll CR1          RXIE          LL_I2C_IsEnabledIT_RX
1340:../../dependencies/STM32CubeL0/Drivers/STM32L0xx_HAL_Driver/Inc/stm32l0xx_ll_i2c.h ****   * @param  I2Cx I2C Instance.
1341:../../dependencies/STM32CubeL0/Drivers/STM32L0xx_HAL_Driver/Inc/stm32l0xx_ll_i2c.h ****   * @retval State of bit (1 or 0).
1342:../../dependencies/STM32CubeL0/Drivers/STM32L0xx_HAL_Driver/Inc/stm32l0xx_ll_i2c.h ****   */
1343:../../dependencies/STM32CubeL0/Drivers/STM32L0xx_HAL_Driver/Inc/stm32l0xx_ll_i2c.h **** __STATIC_INLINE uint32_t LL_I2C_IsEnabledIT_RX(I2C_TypeDef *I2Cx)
1344:../../dependencies/STM32CubeL0/Drivers/STM32L0xx_HAL_Driver/Inc/stm32l0xx_ll_i2c.h **** {
ARM GAS  /var/folders/fs/dxwfnrqj18z860lwl3d6f5t00000gn/T//ccXcLPlJ.s 			page 28


1345:../../dependencies/STM32CubeL0/Drivers/STM32L0xx_HAL_Driver/Inc/stm32l0xx_ll_i2c.h ****   return ((READ_BIT(I2Cx->CR1, I2C_CR1_RXIE) == (I2C_CR1_RXIE)) ? 1UL : 0UL);
1346:../../dependencies/STM32CubeL0/Drivers/STM32L0xx_HAL_Driver/Inc/stm32l0xx_ll_i2c.h **** }
1347:../../dependencies/STM32CubeL0/Drivers/STM32L0xx_HAL_Driver/Inc/stm32l0xx_ll_i2c.h **** 
1348:../../dependencies/STM32CubeL0/Drivers/STM32L0xx_HAL_Driver/Inc/stm32l0xx_ll_i2c.h **** /**
1349:../../dependencies/STM32CubeL0/Drivers/STM32L0xx_HAL_Driver/Inc/stm32l0xx_ll_i2c.h ****   * @brief  Enable Address match interrupt (slave mode only).
1350:../../dependencies/STM32CubeL0/Drivers/STM32L0xx_HAL_Driver/Inc/stm32l0xx_ll_i2c.h ****   * @rmtoll CR1          ADDRIE        LL_I2C_EnableIT_ADDR
1351:../../dependencies/STM32CubeL0/Drivers/STM32L0xx_HAL_Driver/Inc/stm32l0xx_ll_i2c.h ****   * @param  I2Cx I2C Instance.
1352:../../dependencies/STM32CubeL0/Drivers/STM32L0xx_HAL_Driver/Inc/stm32l0xx_ll_i2c.h ****   * @retval None
1353:../../dependencies/STM32CubeL0/Drivers/STM32L0xx_HAL_Driver/Inc/stm32l0xx_ll_i2c.h ****   */
1354:../../dependencies/STM32CubeL0/Drivers/STM32L0xx_HAL_Driver/Inc/stm32l0xx_ll_i2c.h **** __STATIC_INLINE void LL_I2C_EnableIT_ADDR(I2C_TypeDef *I2Cx)
1355:../../dependencies/STM32CubeL0/Drivers/STM32L0xx_HAL_Driver/Inc/stm32l0xx_ll_i2c.h **** {
1356:../../dependencies/STM32CubeL0/Drivers/STM32L0xx_HAL_Driver/Inc/stm32l0xx_ll_i2c.h ****   SET_BIT(I2Cx->CR1, I2C_CR1_ADDRIE);
1357:../../dependencies/STM32CubeL0/Drivers/STM32L0xx_HAL_Driver/Inc/stm32l0xx_ll_i2c.h **** }
1358:../../dependencies/STM32CubeL0/Drivers/STM32L0xx_HAL_Driver/Inc/stm32l0xx_ll_i2c.h **** 
1359:../../dependencies/STM32CubeL0/Drivers/STM32L0xx_HAL_Driver/Inc/stm32l0xx_ll_i2c.h **** /**
1360:../../dependencies/STM32CubeL0/Drivers/STM32L0xx_HAL_Driver/Inc/stm32l0xx_ll_i2c.h ****   * @brief  Disable Address match interrupt (slave mode only).
1361:../../dependencies/STM32CubeL0/Drivers/STM32L0xx_HAL_Driver/Inc/stm32l0xx_ll_i2c.h ****   * @rmtoll CR1          ADDRIE        LL_I2C_DisableIT_ADDR
1362:../../dependencies/STM32CubeL0/Drivers/STM32L0xx_HAL_Driver/Inc/stm32l0xx_ll_i2c.h ****   * @param  I2Cx I2C Instance.
1363:../../dependencies/STM32CubeL0/Drivers/STM32L0xx_HAL_Driver/Inc/stm32l0xx_ll_i2c.h ****   * @retval None
1364:../../dependencies/STM32CubeL0/Drivers/STM32L0xx_HAL_Driver/Inc/stm32l0xx_ll_i2c.h ****   */
1365:../../dependencies/STM32CubeL0/Drivers/STM32L0xx_HAL_Driver/Inc/stm32l0xx_ll_i2c.h **** __STATIC_INLINE void LL_I2C_DisableIT_ADDR(I2C_TypeDef *I2Cx)
1366:../../dependencies/STM32CubeL0/Drivers/STM32L0xx_HAL_Driver/Inc/stm32l0xx_ll_i2c.h **** {
1367:../../dependencies/STM32CubeL0/Drivers/STM32L0xx_HAL_Driver/Inc/stm32l0xx_ll_i2c.h ****   CLEAR_BIT(I2Cx->CR1, I2C_CR1_ADDRIE);
1368:../../dependencies/STM32CubeL0/Drivers/STM32L0xx_HAL_Driver/Inc/stm32l0xx_ll_i2c.h **** }
1369:../../dependencies/STM32CubeL0/Drivers/STM32L0xx_HAL_Driver/Inc/stm32l0xx_ll_i2c.h **** 
1370:../../dependencies/STM32CubeL0/Drivers/STM32L0xx_HAL_Driver/Inc/stm32l0xx_ll_i2c.h **** /**
1371:../../dependencies/STM32CubeL0/Drivers/STM32L0xx_HAL_Driver/Inc/stm32l0xx_ll_i2c.h ****   * @brief  Check if Address match interrupt is enabled or disabled.
1372:../../dependencies/STM32CubeL0/Drivers/STM32L0xx_HAL_Driver/Inc/stm32l0xx_ll_i2c.h ****   * @rmtoll CR1          ADDRIE        LL_I2C_IsEnabledIT_ADDR
1373:../../dependencies/STM32CubeL0/Drivers/STM32L0xx_HAL_Driver/Inc/stm32l0xx_ll_i2c.h ****   * @param  I2Cx I2C Instance.
1374:../../dependencies/STM32CubeL0/Drivers/STM32L0xx_HAL_Driver/Inc/stm32l0xx_ll_i2c.h ****   * @retval State of bit (1 or 0).
1375:../../dependencies/STM32CubeL0/Drivers/STM32L0xx_HAL_Driver/Inc/stm32l0xx_ll_i2c.h ****   */
1376:../../dependencies/STM32CubeL0/Drivers/STM32L0xx_HAL_Driver/Inc/stm32l0xx_ll_i2c.h **** __STATIC_INLINE uint32_t LL_I2C_IsEnabledIT_ADDR(I2C_TypeDef *I2Cx)
1377:../../dependencies/STM32CubeL0/Drivers/STM32L0xx_HAL_Driver/Inc/stm32l0xx_ll_i2c.h **** {
1378:../../dependencies/STM32CubeL0/Drivers/STM32L0xx_HAL_Driver/Inc/stm32l0xx_ll_i2c.h ****   return ((READ_BIT(I2Cx->CR1, I2C_CR1_ADDRIE) == (I2C_CR1_ADDRIE)) ? 1UL : 0UL);
1379:../../dependencies/STM32CubeL0/Drivers/STM32L0xx_HAL_Driver/Inc/stm32l0xx_ll_i2c.h **** }
1380:../../dependencies/STM32CubeL0/Drivers/STM32L0xx_HAL_Driver/Inc/stm32l0xx_ll_i2c.h **** 
1381:../../dependencies/STM32CubeL0/Drivers/STM32L0xx_HAL_Driver/Inc/stm32l0xx_ll_i2c.h **** /**
1382:../../dependencies/STM32CubeL0/Drivers/STM32L0xx_HAL_Driver/Inc/stm32l0xx_ll_i2c.h ****   * @brief  Enable Not acknowledge received interrupt.
1383:../../dependencies/STM32CubeL0/Drivers/STM32L0xx_HAL_Driver/Inc/stm32l0xx_ll_i2c.h ****   * @rmtoll CR1          NACKIE        LL_I2C_EnableIT_NACK
1384:../../dependencies/STM32CubeL0/Drivers/STM32L0xx_HAL_Driver/Inc/stm32l0xx_ll_i2c.h ****   * @param  I2Cx I2C Instance.
1385:../../dependencies/STM32CubeL0/Drivers/STM32L0xx_HAL_Driver/Inc/stm32l0xx_ll_i2c.h ****   * @retval None
1386:../../dependencies/STM32CubeL0/Drivers/STM32L0xx_HAL_Driver/Inc/stm32l0xx_ll_i2c.h ****   */
1387:../../dependencies/STM32CubeL0/Drivers/STM32L0xx_HAL_Driver/Inc/stm32l0xx_ll_i2c.h **** __STATIC_INLINE void LL_I2C_EnableIT_NACK(I2C_TypeDef *I2Cx)
1388:../../dependencies/STM32CubeL0/Drivers/STM32L0xx_HAL_Driver/Inc/stm32l0xx_ll_i2c.h **** {
1389:../../dependencies/STM32CubeL0/Drivers/STM32L0xx_HAL_Driver/Inc/stm32l0xx_ll_i2c.h ****   SET_BIT(I2Cx->CR1, I2C_CR1_NACKIE);
1390:../../dependencies/STM32CubeL0/Drivers/STM32L0xx_HAL_Driver/Inc/stm32l0xx_ll_i2c.h **** }
1391:../../dependencies/STM32CubeL0/Drivers/STM32L0xx_HAL_Driver/Inc/stm32l0xx_ll_i2c.h **** 
1392:../../dependencies/STM32CubeL0/Drivers/STM32L0xx_HAL_Driver/Inc/stm32l0xx_ll_i2c.h **** /**
1393:../../dependencies/STM32CubeL0/Drivers/STM32L0xx_HAL_Driver/Inc/stm32l0xx_ll_i2c.h ****   * @brief  Disable Not acknowledge received interrupt.
1394:../../dependencies/STM32CubeL0/Drivers/STM32L0xx_HAL_Driver/Inc/stm32l0xx_ll_i2c.h ****   * @rmtoll CR1          NACKIE        LL_I2C_DisableIT_NACK
1395:../../dependencies/STM32CubeL0/Drivers/STM32L0xx_HAL_Driver/Inc/stm32l0xx_ll_i2c.h ****   * @param  I2Cx I2C Instance.
1396:../../dependencies/STM32CubeL0/Drivers/STM32L0xx_HAL_Driver/Inc/stm32l0xx_ll_i2c.h ****   * @retval None
1397:../../dependencies/STM32CubeL0/Drivers/STM32L0xx_HAL_Driver/Inc/stm32l0xx_ll_i2c.h ****   */
1398:../../dependencies/STM32CubeL0/Drivers/STM32L0xx_HAL_Driver/Inc/stm32l0xx_ll_i2c.h **** __STATIC_INLINE void LL_I2C_DisableIT_NACK(I2C_TypeDef *I2Cx)
1399:../../dependencies/STM32CubeL0/Drivers/STM32L0xx_HAL_Driver/Inc/stm32l0xx_ll_i2c.h **** {
1400:../../dependencies/STM32CubeL0/Drivers/STM32L0xx_HAL_Driver/Inc/stm32l0xx_ll_i2c.h ****   CLEAR_BIT(I2Cx->CR1, I2C_CR1_NACKIE);
1401:../../dependencies/STM32CubeL0/Drivers/STM32L0xx_HAL_Driver/Inc/stm32l0xx_ll_i2c.h **** }
ARM GAS  /var/folders/fs/dxwfnrqj18z860lwl3d6f5t00000gn/T//ccXcLPlJ.s 			page 29


1402:../../dependencies/STM32CubeL0/Drivers/STM32L0xx_HAL_Driver/Inc/stm32l0xx_ll_i2c.h **** 
1403:../../dependencies/STM32CubeL0/Drivers/STM32L0xx_HAL_Driver/Inc/stm32l0xx_ll_i2c.h **** /**
1404:../../dependencies/STM32CubeL0/Drivers/STM32L0xx_HAL_Driver/Inc/stm32l0xx_ll_i2c.h ****   * @brief  Check if Not acknowledge received interrupt is enabled or disabled.
1405:../../dependencies/STM32CubeL0/Drivers/STM32L0xx_HAL_Driver/Inc/stm32l0xx_ll_i2c.h ****   * @rmtoll CR1          NACKIE        LL_I2C_IsEnabledIT_NACK
1406:../../dependencies/STM32CubeL0/Drivers/STM32L0xx_HAL_Driver/Inc/stm32l0xx_ll_i2c.h ****   * @param  I2Cx I2C Instance.
1407:../../dependencies/STM32CubeL0/Drivers/STM32L0xx_HAL_Driver/Inc/stm32l0xx_ll_i2c.h ****   * @retval State of bit (1 or 0).
1408:../../dependencies/STM32CubeL0/Drivers/STM32L0xx_HAL_Driver/Inc/stm32l0xx_ll_i2c.h ****   */
1409:../../dependencies/STM32CubeL0/Drivers/STM32L0xx_HAL_Driver/Inc/stm32l0xx_ll_i2c.h **** __STATIC_INLINE uint32_t LL_I2C_IsEnabledIT_NACK(I2C_TypeDef *I2Cx)
1410:../../dependencies/STM32CubeL0/Drivers/STM32L0xx_HAL_Driver/Inc/stm32l0xx_ll_i2c.h **** {
1411:../../dependencies/STM32CubeL0/Drivers/STM32L0xx_HAL_Driver/Inc/stm32l0xx_ll_i2c.h ****   return ((READ_BIT(I2Cx->CR1, I2C_CR1_NACKIE) == (I2C_CR1_NACKIE)) ? 1UL : 0UL);
1412:../../dependencies/STM32CubeL0/Drivers/STM32L0xx_HAL_Driver/Inc/stm32l0xx_ll_i2c.h **** }
1413:../../dependencies/STM32CubeL0/Drivers/STM32L0xx_HAL_Driver/Inc/stm32l0xx_ll_i2c.h **** 
1414:../../dependencies/STM32CubeL0/Drivers/STM32L0xx_HAL_Driver/Inc/stm32l0xx_ll_i2c.h **** /**
1415:../../dependencies/STM32CubeL0/Drivers/STM32L0xx_HAL_Driver/Inc/stm32l0xx_ll_i2c.h ****   * @brief  Enable STOP detection interrupt.
1416:../../dependencies/STM32CubeL0/Drivers/STM32L0xx_HAL_Driver/Inc/stm32l0xx_ll_i2c.h ****   * @rmtoll CR1          STOPIE        LL_I2C_EnableIT_STOP
1417:../../dependencies/STM32CubeL0/Drivers/STM32L0xx_HAL_Driver/Inc/stm32l0xx_ll_i2c.h ****   * @param  I2Cx I2C Instance.
1418:../../dependencies/STM32CubeL0/Drivers/STM32L0xx_HAL_Driver/Inc/stm32l0xx_ll_i2c.h ****   * @retval None
1419:../../dependencies/STM32CubeL0/Drivers/STM32L0xx_HAL_Driver/Inc/stm32l0xx_ll_i2c.h ****   */
1420:../../dependencies/STM32CubeL0/Drivers/STM32L0xx_HAL_Driver/Inc/stm32l0xx_ll_i2c.h **** __STATIC_INLINE void LL_I2C_EnableIT_STOP(I2C_TypeDef *I2Cx)
1421:../../dependencies/STM32CubeL0/Drivers/STM32L0xx_HAL_Driver/Inc/stm32l0xx_ll_i2c.h **** {
1422:../../dependencies/STM32CubeL0/Drivers/STM32L0xx_HAL_Driver/Inc/stm32l0xx_ll_i2c.h ****   SET_BIT(I2Cx->CR1, I2C_CR1_STOPIE);
1423:../../dependencies/STM32CubeL0/Drivers/STM32L0xx_HAL_Driver/Inc/stm32l0xx_ll_i2c.h **** }
1424:../../dependencies/STM32CubeL0/Drivers/STM32L0xx_HAL_Driver/Inc/stm32l0xx_ll_i2c.h **** 
1425:../../dependencies/STM32CubeL0/Drivers/STM32L0xx_HAL_Driver/Inc/stm32l0xx_ll_i2c.h **** /**
1426:../../dependencies/STM32CubeL0/Drivers/STM32L0xx_HAL_Driver/Inc/stm32l0xx_ll_i2c.h ****   * @brief  Disable STOP detection interrupt.
1427:../../dependencies/STM32CubeL0/Drivers/STM32L0xx_HAL_Driver/Inc/stm32l0xx_ll_i2c.h ****   * @rmtoll CR1          STOPIE        LL_I2C_DisableIT_STOP
1428:../../dependencies/STM32CubeL0/Drivers/STM32L0xx_HAL_Driver/Inc/stm32l0xx_ll_i2c.h ****   * @param  I2Cx I2C Instance.
1429:../../dependencies/STM32CubeL0/Drivers/STM32L0xx_HAL_Driver/Inc/stm32l0xx_ll_i2c.h ****   * @retval None
1430:../../dependencies/STM32CubeL0/Drivers/STM32L0xx_HAL_Driver/Inc/stm32l0xx_ll_i2c.h ****   */
1431:../../dependencies/STM32CubeL0/Drivers/STM32L0xx_HAL_Driver/Inc/stm32l0xx_ll_i2c.h **** __STATIC_INLINE void LL_I2C_DisableIT_STOP(I2C_TypeDef *I2Cx)
1432:../../dependencies/STM32CubeL0/Drivers/STM32L0xx_HAL_Driver/Inc/stm32l0xx_ll_i2c.h **** {
1433:../../dependencies/STM32CubeL0/Drivers/STM32L0xx_HAL_Driver/Inc/stm32l0xx_ll_i2c.h ****   CLEAR_BIT(I2Cx->CR1, I2C_CR1_STOPIE);
1434:../../dependencies/STM32CubeL0/Drivers/STM32L0xx_HAL_Driver/Inc/stm32l0xx_ll_i2c.h **** }
1435:../../dependencies/STM32CubeL0/Drivers/STM32L0xx_HAL_Driver/Inc/stm32l0xx_ll_i2c.h **** 
1436:../../dependencies/STM32CubeL0/Drivers/STM32L0xx_HAL_Driver/Inc/stm32l0xx_ll_i2c.h **** /**
1437:../../dependencies/STM32CubeL0/Drivers/STM32L0xx_HAL_Driver/Inc/stm32l0xx_ll_i2c.h ****   * @brief  Check if STOP detection interrupt is enabled or disabled.
1438:../../dependencies/STM32CubeL0/Drivers/STM32L0xx_HAL_Driver/Inc/stm32l0xx_ll_i2c.h ****   * @rmtoll CR1          STOPIE        LL_I2C_IsEnabledIT_STOP
1439:../../dependencies/STM32CubeL0/Drivers/STM32L0xx_HAL_Driver/Inc/stm32l0xx_ll_i2c.h ****   * @param  I2Cx I2C Instance.
1440:../../dependencies/STM32CubeL0/Drivers/STM32L0xx_HAL_Driver/Inc/stm32l0xx_ll_i2c.h ****   * @retval State of bit (1 or 0).
1441:../../dependencies/STM32CubeL0/Drivers/STM32L0xx_HAL_Driver/Inc/stm32l0xx_ll_i2c.h ****   */
1442:../../dependencies/STM32CubeL0/Drivers/STM32L0xx_HAL_Driver/Inc/stm32l0xx_ll_i2c.h **** __STATIC_INLINE uint32_t LL_I2C_IsEnabledIT_STOP(I2C_TypeDef *I2Cx)
1443:../../dependencies/STM32CubeL0/Drivers/STM32L0xx_HAL_Driver/Inc/stm32l0xx_ll_i2c.h **** {
1444:../../dependencies/STM32CubeL0/Drivers/STM32L0xx_HAL_Driver/Inc/stm32l0xx_ll_i2c.h ****   return ((READ_BIT(I2Cx->CR1, I2C_CR1_STOPIE) == (I2C_CR1_STOPIE)) ? 1UL : 0UL);
1445:../../dependencies/STM32CubeL0/Drivers/STM32L0xx_HAL_Driver/Inc/stm32l0xx_ll_i2c.h **** }
1446:../../dependencies/STM32CubeL0/Drivers/STM32L0xx_HAL_Driver/Inc/stm32l0xx_ll_i2c.h **** 
1447:../../dependencies/STM32CubeL0/Drivers/STM32L0xx_HAL_Driver/Inc/stm32l0xx_ll_i2c.h **** /**
1448:../../dependencies/STM32CubeL0/Drivers/STM32L0xx_HAL_Driver/Inc/stm32l0xx_ll_i2c.h ****   * @brief  Enable Transfer Complete interrupt.
1449:../../dependencies/STM32CubeL0/Drivers/STM32L0xx_HAL_Driver/Inc/stm32l0xx_ll_i2c.h ****   * @note   Any of these events will generate interrupt :
1450:../../dependencies/STM32CubeL0/Drivers/STM32L0xx_HAL_Driver/Inc/stm32l0xx_ll_i2c.h ****   *         Transfer Complete (TC)
1451:../../dependencies/STM32CubeL0/Drivers/STM32L0xx_HAL_Driver/Inc/stm32l0xx_ll_i2c.h ****   *         Transfer Complete Reload (TCR)
1452:../../dependencies/STM32CubeL0/Drivers/STM32L0xx_HAL_Driver/Inc/stm32l0xx_ll_i2c.h ****   * @rmtoll CR1          TCIE          LL_I2C_EnableIT_TC
1453:../../dependencies/STM32CubeL0/Drivers/STM32L0xx_HAL_Driver/Inc/stm32l0xx_ll_i2c.h ****   * @param  I2Cx I2C Instance.
1454:../../dependencies/STM32CubeL0/Drivers/STM32L0xx_HAL_Driver/Inc/stm32l0xx_ll_i2c.h ****   * @retval None
1455:../../dependencies/STM32CubeL0/Drivers/STM32L0xx_HAL_Driver/Inc/stm32l0xx_ll_i2c.h ****   */
1456:../../dependencies/STM32CubeL0/Drivers/STM32L0xx_HAL_Driver/Inc/stm32l0xx_ll_i2c.h **** __STATIC_INLINE void LL_I2C_EnableIT_TC(I2C_TypeDef *I2Cx)
1457:../../dependencies/STM32CubeL0/Drivers/STM32L0xx_HAL_Driver/Inc/stm32l0xx_ll_i2c.h **** {
1458:../../dependencies/STM32CubeL0/Drivers/STM32L0xx_HAL_Driver/Inc/stm32l0xx_ll_i2c.h ****   SET_BIT(I2Cx->CR1, I2C_CR1_TCIE);
ARM GAS  /var/folders/fs/dxwfnrqj18z860lwl3d6f5t00000gn/T//ccXcLPlJ.s 			page 30


1459:../../dependencies/STM32CubeL0/Drivers/STM32L0xx_HAL_Driver/Inc/stm32l0xx_ll_i2c.h **** }
1460:../../dependencies/STM32CubeL0/Drivers/STM32L0xx_HAL_Driver/Inc/stm32l0xx_ll_i2c.h **** 
1461:../../dependencies/STM32CubeL0/Drivers/STM32L0xx_HAL_Driver/Inc/stm32l0xx_ll_i2c.h **** /**
1462:../../dependencies/STM32CubeL0/Drivers/STM32L0xx_HAL_Driver/Inc/stm32l0xx_ll_i2c.h ****   * @brief  Disable Transfer Complete interrupt.
1463:../../dependencies/STM32CubeL0/Drivers/STM32L0xx_HAL_Driver/Inc/stm32l0xx_ll_i2c.h ****   * @note   Any of these events will generate interrupt :
1464:../../dependencies/STM32CubeL0/Drivers/STM32L0xx_HAL_Driver/Inc/stm32l0xx_ll_i2c.h ****   *         Transfer Complete (TC)
1465:../../dependencies/STM32CubeL0/Drivers/STM32L0xx_HAL_Driver/Inc/stm32l0xx_ll_i2c.h ****   *         Transfer Complete Reload (TCR)
1466:../../dependencies/STM32CubeL0/Drivers/STM32L0xx_HAL_Driver/Inc/stm32l0xx_ll_i2c.h ****   * @rmtoll CR1          TCIE          LL_I2C_DisableIT_TC
1467:../../dependencies/STM32CubeL0/Drivers/STM32L0xx_HAL_Driver/Inc/stm32l0xx_ll_i2c.h ****   * @param  I2Cx I2C Instance.
1468:../../dependencies/STM32CubeL0/Drivers/STM32L0xx_HAL_Driver/Inc/stm32l0xx_ll_i2c.h ****   * @retval None
1469:../../dependencies/STM32CubeL0/Drivers/STM32L0xx_HAL_Driver/Inc/stm32l0xx_ll_i2c.h ****   */
1470:../../dependencies/STM32CubeL0/Drivers/STM32L0xx_HAL_Driver/Inc/stm32l0xx_ll_i2c.h **** __STATIC_INLINE void LL_I2C_DisableIT_TC(I2C_TypeDef *I2Cx)
1471:../../dependencies/STM32CubeL0/Drivers/STM32L0xx_HAL_Driver/Inc/stm32l0xx_ll_i2c.h **** {
1472:../../dependencies/STM32CubeL0/Drivers/STM32L0xx_HAL_Driver/Inc/stm32l0xx_ll_i2c.h ****   CLEAR_BIT(I2Cx->CR1, I2C_CR1_TCIE);
1473:../../dependencies/STM32CubeL0/Drivers/STM32L0xx_HAL_Driver/Inc/stm32l0xx_ll_i2c.h **** }
1474:../../dependencies/STM32CubeL0/Drivers/STM32L0xx_HAL_Driver/Inc/stm32l0xx_ll_i2c.h **** 
1475:../../dependencies/STM32CubeL0/Drivers/STM32L0xx_HAL_Driver/Inc/stm32l0xx_ll_i2c.h **** /**
1476:../../dependencies/STM32CubeL0/Drivers/STM32L0xx_HAL_Driver/Inc/stm32l0xx_ll_i2c.h ****   * @brief  Check if Transfer Complete interrupt is enabled or disabled.
1477:../../dependencies/STM32CubeL0/Drivers/STM32L0xx_HAL_Driver/Inc/stm32l0xx_ll_i2c.h ****   * @rmtoll CR1          TCIE          LL_I2C_IsEnabledIT_TC
1478:../../dependencies/STM32CubeL0/Drivers/STM32L0xx_HAL_Driver/Inc/stm32l0xx_ll_i2c.h ****   * @param  I2Cx I2C Instance.
1479:../../dependencies/STM32CubeL0/Drivers/STM32L0xx_HAL_Driver/Inc/stm32l0xx_ll_i2c.h ****   * @retval State of bit (1 or 0).
1480:../../dependencies/STM32CubeL0/Drivers/STM32L0xx_HAL_Driver/Inc/stm32l0xx_ll_i2c.h ****   */
1481:../../dependencies/STM32CubeL0/Drivers/STM32L0xx_HAL_Driver/Inc/stm32l0xx_ll_i2c.h **** __STATIC_INLINE uint32_t LL_I2C_IsEnabledIT_TC(I2C_TypeDef *I2Cx)
1482:../../dependencies/STM32CubeL0/Drivers/STM32L0xx_HAL_Driver/Inc/stm32l0xx_ll_i2c.h **** {
1483:../../dependencies/STM32CubeL0/Drivers/STM32L0xx_HAL_Driver/Inc/stm32l0xx_ll_i2c.h ****   return ((READ_BIT(I2Cx->CR1, I2C_CR1_TCIE) == (I2C_CR1_TCIE)) ? 1UL : 0UL);
1484:../../dependencies/STM32CubeL0/Drivers/STM32L0xx_HAL_Driver/Inc/stm32l0xx_ll_i2c.h **** }
1485:../../dependencies/STM32CubeL0/Drivers/STM32L0xx_HAL_Driver/Inc/stm32l0xx_ll_i2c.h **** 
1486:../../dependencies/STM32CubeL0/Drivers/STM32L0xx_HAL_Driver/Inc/stm32l0xx_ll_i2c.h **** /**
1487:../../dependencies/STM32CubeL0/Drivers/STM32L0xx_HAL_Driver/Inc/stm32l0xx_ll_i2c.h ****   * @brief  Enable Error interrupts.
1488:../../dependencies/STM32CubeL0/Drivers/STM32L0xx_HAL_Driver/Inc/stm32l0xx_ll_i2c.h ****   * @note   The macro IS_SMBUS_INSTANCE(I2Cx) can be used to check whether or not
1489:../../dependencies/STM32CubeL0/Drivers/STM32L0xx_HAL_Driver/Inc/stm32l0xx_ll_i2c.h ****   *         SMBus feature is supported by the I2Cx Instance.
1490:../../dependencies/STM32CubeL0/Drivers/STM32L0xx_HAL_Driver/Inc/stm32l0xx_ll_i2c.h ****   * @note   Any of these errors will generate interrupt :
1491:../../dependencies/STM32CubeL0/Drivers/STM32L0xx_HAL_Driver/Inc/stm32l0xx_ll_i2c.h ****   *         Arbitration Loss (ARLO)
1492:../../dependencies/STM32CubeL0/Drivers/STM32L0xx_HAL_Driver/Inc/stm32l0xx_ll_i2c.h ****   *         Bus Error detection (BERR)
1493:../../dependencies/STM32CubeL0/Drivers/STM32L0xx_HAL_Driver/Inc/stm32l0xx_ll_i2c.h ****   *         Overrun/Underrun (OVR)
1494:../../dependencies/STM32CubeL0/Drivers/STM32L0xx_HAL_Driver/Inc/stm32l0xx_ll_i2c.h ****   *         SMBus Timeout detection (TIMEOUT)
1495:../../dependencies/STM32CubeL0/Drivers/STM32L0xx_HAL_Driver/Inc/stm32l0xx_ll_i2c.h ****   *         SMBus PEC error detection (PECERR)
1496:../../dependencies/STM32CubeL0/Drivers/STM32L0xx_HAL_Driver/Inc/stm32l0xx_ll_i2c.h ****   *         SMBus Alert pin event detection (ALERT)
1497:../../dependencies/STM32CubeL0/Drivers/STM32L0xx_HAL_Driver/Inc/stm32l0xx_ll_i2c.h ****   * @rmtoll CR1          ERRIE         LL_I2C_EnableIT_ERR
1498:../../dependencies/STM32CubeL0/Drivers/STM32L0xx_HAL_Driver/Inc/stm32l0xx_ll_i2c.h ****   * @param  I2Cx I2C Instance.
1499:../../dependencies/STM32CubeL0/Drivers/STM32L0xx_HAL_Driver/Inc/stm32l0xx_ll_i2c.h ****   * @retval None
1500:../../dependencies/STM32CubeL0/Drivers/STM32L0xx_HAL_Driver/Inc/stm32l0xx_ll_i2c.h ****   */
1501:../../dependencies/STM32CubeL0/Drivers/STM32L0xx_HAL_Driver/Inc/stm32l0xx_ll_i2c.h **** __STATIC_INLINE void LL_I2C_EnableIT_ERR(I2C_TypeDef *I2Cx)
1502:../../dependencies/STM32CubeL0/Drivers/STM32L0xx_HAL_Driver/Inc/stm32l0xx_ll_i2c.h **** {
1503:../../dependencies/STM32CubeL0/Drivers/STM32L0xx_HAL_Driver/Inc/stm32l0xx_ll_i2c.h ****   SET_BIT(I2Cx->CR1, I2C_CR1_ERRIE);
1504:../../dependencies/STM32CubeL0/Drivers/STM32L0xx_HAL_Driver/Inc/stm32l0xx_ll_i2c.h **** }
1505:../../dependencies/STM32CubeL0/Drivers/STM32L0xx_HAL_Driver/Inc/stm32l0xx_ll_i2c.h **** 
1506:../../dependencies/STM32CubeL0/Drivers/STM32L0xx_HAL_Driver/Inc/stm32l0xx_ll_i2c.h **** /**
1507:../../dependencies/STM32CubeL0/Drivers/STM32L0xx_HAL_Driver/Inc/stm32l0xx_ll_i2c.h ****   * @brief  Disable Error interrupts.
1508:../../dependencies/STM32CubeL0/Drivers/STM32L0xx_HAL_Driver/Inc/stm32l0xx_ll_i2c.h ****   * @note   The macro IS_SMBUS_INSTANCE(I2Cx) can be used to check whether or not
1509:../../dependencies/STM32CubeL0/Drivers/STM32L0xx_HAL_Driver/Inc/stm32l0xx_ll_i2c.h ****   *         SMBus feature is supported by the I2Cx Instance.
1510:../../dependencies/STM32CubeL0/Drivers/STM32L0xx_HAL_Driver/Inc/stm32l0xx_ll_i2c.h ****   * @note   Any of these errors will generate interrupt :
1511:../../dependencies/STM32CubeL0/Drivers/STM32L0xx_HAL_Driver/Inc/stm32l0xx_ll_i2c.h ****   *         Arbitration Loss (ARLO)
1512:../../dependencies/STM32CubeL0/Drivers/STM32L0xx_HAL_Driver/Inc/stm32l0xx_ll_i2c.h ****   *         Bus Error detection (BERR)
1513:../../dependencies/STM32CubeL0/Drivers/STM32L0xx_HAL_Driver/Inc/stm32l0xx_ll_i2c.h ****   *         Overrun/Underrun (OVR)
1514:../../dependencies/STM32CubeL0/Drivers/STM32L0xx_HAL_Driver/Inc/stm32l0xx_ll_i2c.h ****   *         SMBus Timeout detection (TIMEOUT)
1515:../../dependencies/STM32CubeL0/Drivers/STM32L0xx_HAL_Driver/Inc/stm32l0xx_ll_i2c.h ****   *         SMBus PEC error detection (PECERR)
ARM GAS  /var/folders/fs/dxwfnrqj18z860lwl3d6f5t00000gn/T//ccXcLPlJ.s 			page 31


1516:../../dependencies/STM32CubeL0/Drivers/STM32L0xx_HAL_Driver/Inc/stm32l0xx_ll_i2c.h ****   *         SMBus Alert pin event detection (ALERT)
1517:../../dependencies/STM32CubeL0/Drivers/STM32L0xx_HAL_Driver/Inc/stm32l0xx_ll_i2c.h ****   * @rmtoll CR1          ERRIE         LL_I2C_DisableIT_ERR
1518:../../dependencies/STM32CubeL0/Drivers/STM32L0xx_HAL_Driver/Inc/stm32l0xx_ll_i2c.h ****   * @param  I2Cx I2C Instance.
1519:../../dependencies/STM32CubeL0/Drivers/STM32L0xx_HAL_Driver/Inc/stm32l0xx_ll_i2c.h ****   * @retval None
1520:../../dependencies/STM32CubeL0/Drivers/STM32L0xx_HAL_Driver/Inc/stm32l0xx_ll_i2c.h ****   */
1521:../../dependencies/STM32CubeL0/Drivers/STM32L0xx_HAL_Driver/Inc/stm32l0xx_ll_i2c.h **** __STATIC_INLINE void LL_I2C_DisableIT_ERR(I2C_TypeDef *I2Cx)
1522:../../dependencies/STM32CubeL0/Drivers/STM32L0xx_HAL_Driver/Inc/stm32l0xx_ll_i2c.h **** {
1523:../../dependencies/STM32CubeL0/Drivers/STM32L0xx_HAL_Driver/Inc/stm32l0xx_ll_i2c.h ****   CLEAR_BIT(I2Cx->CR1, I2C_CR1_ERRIE);
1524:../../dependencies/STM32CubeL0/Drivers/STM32L0xx_HAL_Driver/Inc/stm32l0xx_ll_i2c.h **** }
1525:../../dependencies/STM32CubeL0/Drivers/STM32L0xx_HAL_Driver/Inc/stm32l0xx_ll_i2c.h **** 
1526:../../dependencies/STM32CubeL0/Drivers/STM32L0xx_HAL_Driver/Inc/stm32l0xx_ll_i2c.h **** /**
1527:../../dependencies/STM32CubeL0/Drivers/STM32L0xx_HAL_Driver/Inc/stm32l0xx_ll_i2c.h ****   * @brief  Check if Error interrupts are enabled or disabled.
1528:../../dependencies/STM32CubeL0/Drivers/STM32L0xx_HAL_Driver/Inc/stm32l0xx_ll_i2c.h ****   * @rmtoll CR1          ERRIE         LL_I2C_IsEnabledIT_ERR
1529:../../dependencies/STM32CubeL0/Drivers/STM32L0xx_HAL_Driver/Inc/stm32l0xx_ll_i2c.h ****   * @param  I2Cx I2C Instance.
1530:../../dependencies/STM32CubeL0/Drivers/STM32L0xx_HAL_Driver/Inc/stm32l0xx_ll_i2c.h ****   * @retval State of bit (1 or 0).
1531:../../dependencies/STM32CubeL0/Drivers/STM32L0xx_HAL_Driver/Inc/stm32l0xx_ll_i2c.h ****   */
1532:../../dependencies/STM32CubeL0/Drivers/STM32L0xx_HAL_Driver/Inc/stm32l0xx_ll_i2c.h **** __STATIC_INLINE uint32_t LL_I2C_IsEnabledIT_ERR(I2C_TypeDef *I2Cx)
1533:../../dependencies/STM32CubeL0/Drivers/STM32L0xx_HAL_Driver/Inc/stm32l0xx_ll_i2c.h **** {
1534:../../dependencies/STM32CubeL0/Drivers/STM32L0xx_HAL_Driver/Inc/stm32l0xx_ll_i2c.h ****   return ((READ_BIT(I2Cx->CR1, I2C_CR1_ERRIE) == (I2C_CR1_ERRIE)) ? 1UL : 0UL);
1535:../../dependencies/STM32CubeL0/Drivers/STM32L0xx_HAL_Driver/Inc/stm32l0xx_ll_i2c.h **** }
1536:../../dependencies/STM32CubeL0/Drivers/STM32L0xx_HAL_Driver/Inc/stm32l0xx_ll_i2c.h **** 
1537:../../dependencies/STM32CubeL0/Drivers/STM32L0xx_HAL_Driver/Inc/stm32l0xx_ll_i2c.h **** /**
1538:../../dependencies/STM32CubeL0/Drivers/STM32L0xx_HAL_Driver/Inc/stm32l0xx_ll_i2c.h ****   * @}
1539:../../dependencies/STM32CubeL0/Drivers/STM32L0xx_HAL_Driver/Inc/stm32l0xx_ll_i2c.h ****   */
1540:../../dependencies/STM32CubeL0/Drivers/STM32L0xx_HAL_Driver/Inc/stm32l0xx_ll_i2c.h **** 
1541:../../dependencies/STM32CubeL0/Drivers/STM32L0xx_HAL_Driver/Inc/stm32l0xx_ll_i2c.h **** /** @defgroup I2C_LL_EF_FLAG_management FLAG_management
1542:../../dependencies/STM32CubeL0/Drivers/STM32L0xx_HAL_Driver/Inc/stm32l0xx_ll_i2c.h ****   * @{
1543:../../dependencies/STM32CubeL0/Drivers/STM32L0xx_HAL_Driver/Inc/stm32l0xx_ll_i2c.h ****   */
1544:../../dependencies/STM32CubeL0/Drivers/STM32L0xx_HAL_Driver/Inc/stm32l0xx_ll_i2c.h **** 
1545:../../dependencies/STM32CubeL0/Drivers/STM32L0xx_HAL_Driver/Inc/stm32l0xx_ll_i2c.h **** /**
1546:../../dependencies/STM32CubeL0/Drivers/STM32L0xx_HAL_Driver/Inc/stm32l0xx_ll_i2c.h ****   * @brief  Indicate the status of Transmit data register empty flag.
1547:../../dependencies/STM32CubeL0/Drivers/STM32L0xx_HAL_Driver/Inc/stm32l0xx_ll_i2c.h ****   * @note   RESET: When next data is written in Transmit data register.
1548:../../dependencies/STM32CubeL0/Drivers/STM32L0xx_HAL_Driver/Inc/stm32l0xx_ll_i2c.h ****   *         SET: When Transmit data register is empty.
1549:../../dependencies/STM32CubeL0/Drivers/STM32L0xx_HAL_Driver/Inc/stm32l0xx_ll_i2c.h ****   * @rmtoll ISR          TXE           LL_I2C_IsActiveFlag_TXE
1550:../../dependencies/STM32CubeL0/Drivers/STM32L0xx_HAL_Driver/Inc/stm32l0xx_ll_i2c.h ****   * @param  I2Cx I2C Instance.
1551:../../dependencies/STM32CubeL0/Drivers/STM32L0xx_HAL_Driver/Inc/stm32l0xx_ll_i2c.h ****   * @retval State of bit (1 or 0).
1552:../../dependencies/STM32CubeL0/Drivers/STM32L0xx_HAL_Driver/Inc/stm32l0xx_ll_i2c.h ****   */
1553:../../dependencies/STM32CubeL0/Drivers/STM32L0xx_HAL_Driver/Inc/stm32l0xx_ll_i2c.h **** __STATIC_INLINE uint32_t LL_I2C_IsActiveFlag_TXE(I2C_TypeDef *I2Cx)
1554:../../dependencies/STM32CubeL0/Drivers/STM32L0xx_HAL_Driver/Inc/stm32l0xx_ll_i2c.h **** {
 206              		.loc 1 1554 1
 207              		.cfi_startproc
 208              		@ args = 0, pretend = 0, frame = 8
 209              		@ frame_needed = 1, uses_anonymous_args = 0
 210 0000 80B5     		push	{r7, lr}
 211              		.cfi_def_cfa_offset 8
 212              		.cfi_offset 7, -8
 213              		.cfi_offset 14, -4
 214 0002 82B0     		sub	sp, sp, #8
 215              		.cfi_def_cfa_offset 16
 216 0004 00AF     		add	r7, sp, #0
 217              		.cfi_def_cfa_register 7
 218 0006 7860     		str	r0, [r7, #4]
1555:../../dependencies/STM32CubeL0/Drivers/STM32L0xx_HAL_Driver/Inc/stm32l0xx_ll_i2c.h ****   return ((READ_BIT(I2Cx->ISR, I2C_ISR_TXE) == (I2C_ISR_TXE)) ? 1UL : 0UL);
 219              		.loc 1 1555 12
 220 0008 7B68     		ldr	r3, [r7, #4]
 221 000a 9B69     		ldr	r3, [r3, #24]
 222 000c 0122     		movs	r2, #1
ARM GAS  /var/folders/fs/dxwfnrqj18z860lwl3d6f5t00000gn/T//ccXcLPlJ.s 			page 32


 223 000e 1340     		ands	r3, r2
 224              		.loc 1 1555 69
 225 0010 012B     		cmp	r3, #1
 226 0012 01D1     		bne	.L14
 227              		.loc 1 1555 69 is_stmt 0 discriminator 1
 228 0014 0123     		movs	r3, #1
 229 0016 00E0     		b	.L16
 230              	.L14:
 231              		.loc 1 1555 69 discriminator 2
 232 0018 0023     		movs	r3, #0
 233              	.L16:
1556:../../dependencies/STM32CubeL0/Drivers/STM32L0xx_HAL_Driver/Inc/stm32l0xx_ll_i2c.h **** }
 234              		.loc 1 1556 1 is_stmt 1 discriminator 5
 235 001a 1800     		movs	r0, r3
 236 001c BD46     		mov	sp, r7
 237 001e 02B0     		add	sp, sp, #8
 238              		@ sp needed
 239 0020 80BD     		pop	{r7, pc}
 240              		.cfi_endproc
 241              	.LFE419:
 243              		.section	.text.LL_I2C_IsActiveFlag_RXNE,"ax",%progbits
 244              		.align	1
 245              		.syntax unified
 246              		.code	16
 247              		.thumb_func
 248              		.fpu softvfp
 250              	LL_I2C_IsActiveFlag_RXNE:
 251              	.LFB421:
1557:../../dependencies/STM32CubeL0/Drivers/STM32L0xx_HAL_Driver/Inc/stm32l0xx_ll_i2c.h **** 
1558:../../dependencies/STM32CubeL0/Drivers/STM32L0xx_HAL_Driver/Inc/stm32l0xx_ll_i2c.h **** /**
1559:../../dependencies/STM32CubeL0/Drivers/STM32L0xx_HAL_Driver/Inc/stm32l0xx_ll_i2c.h ****   * @brief  Indicate the status of Transmit interrupt flag.
1560:../../dependencies/STM32CubeL0/Drivers/STM32L0xx_HAL_Driver/Inc/stm32l0xx_ll_i2c.h ****   * @note   RESET: When next data is written in Transmit data register.
1561:../../dependencies/STM32CubeL0/Drivers/STM32L0xx_HAL_Driver/Inc/stm32l0xx_ll_i2c.h ****   *         SET: When Transmit data register is empty.
1562:../../dependencies/STM32CubeL0/Drivers/STM32L0xx_HAL_Driver/Inc/stm32l0xx_ll_i2c.h ****   * @rmtoll ISR          TXIS          LL_I2C_IsActiveFlag_TXIS
1563:../../dependencies/STM32CubeL0/Drivers/STM32L0xx_HAL_Driver/Inc/stm32l0xx_ll_i2c.h ****   * @param  I2Cx I2C Instance.
1564:../../dependencies/STM32CubeL0/Drivers/STM32L0xx_HAL_Driver/Inc/stm32l0xx_ll_i2c.h ****   * @retval State of bit (1 or 0).
1565:../../dependencies/STM32CubeL0/Drivers/STM32L0xx_HAL_Driver/Inc/stm32l0xx_ll_i2c.h ****   */
1566:../../dependencies/STM32CubeL0/Drivers/STM32L0xx_HAL_Driver/Inc/stm32l0xx_ll_i2c.h **** __STATIC_INLINE uint32_t LL_I2C_IsActiveFlag_TXIS(I2C_TypeDef *I2Cx)
1567:../../dependencies/STM32CubeL0/Drivers/STM32L0xx_HAL_Driver/Inc/stm32l0xx_ll_i2c.h **** {
1568:../../dependencies/STM32CubeL0/Drivers/STM32L0xx_HAL_Driver/Inc/stm32l0xx_ll_i2c.h ****   return ((READ_BIT(I2Cx->ISR, I2C_ISR_TXIS) == (I2C_ISR_TXIS)) ? 1UL : 0UL);
1569:../../dependencies/STM32CubeL0/Drivers/STM32L0xx_HAL_Driver/Inc/stm32l0xx_ll_i2c.h **** }
1570:../../dependencies/STM32CubeL0/Drivers/STM32L0xx_HAL_Driver/Inc/stm32l0xx_ll_i2c.h **** 
1571:../../dependencies/STM32CubeL0/Drivers/STM32L0xx_HAL_Driver/Inc/stm32l0xx_ll_i2c.h **** /**
1572:../../dependencies/STM32CubeL0/Drivers/STM32L0xx_HAL_Driver/Inc/stm32l0xx_ll_i2c.h ****   * @brief  Indicate the status of Receive data register not empty flag.
1573:../../dependencies/STM32CubeL0/Drivers/STM32L0xx_HAL_Driver/Inc/stm32l0xx_ll_i2c.h ****   * @note   RESET: When Receive data register is read.
1574:../../dependencies/STM32CubeL0/Drivers/STM32L0xx_HAL_Driver/Inc/stm32l0xx_ll_i2c.h ****   *         SET: When the received data is copied in Receive data register.
1575:../../dependencies/STM32CubeL0/Drivers/STM32L0xx_HAL_Driver/Inc/stm32l0xx_ll_i2c.h ****   * @rmtoll ISR          RXNE          LL_I2C_IsActiveFlag_RXNE
1576:../../dependencies/STM32CubeL0/Drivers/STM32L0xx_HAL_Driver/Inc/stm32l0xx_ll_i2c.h ****   * @param  I2Cx I2C Instance.
1577:../../dependencies/STM32CubeL0/Drivers/STM32L0xx_HAL_Driver/Inc/stm32l0xx_ll_i2c.h ****   * @retval State of bit (1 or 0).
1578:../../dependencies/STM32CubeL0/Drivers/STM32L0xx_HAL_Driver/Inc/stm32l0xx_ll_i2c.h ****   */
1579:../../dependencies/STM32CubeL0/Drivers/STM32L0xx_HAL_Driver/Inc/stm32l0xx_ll_i2c.h **** __STATIC_INLINE uint32_t LL_I2C_IsActiveFlag_RXNE(I2C_TypeDef *I2Cx)
1580:../../dependencies/STM32CubeL0/Drivers/STM32L0xx_HAL_Driver/Inc/stm32l0xx_ll_i2c.h **** {
 252              		.loc 1 1580 1
 253              		.cfi_startproc
 254              		@ args = 0, pretend = 0, frame = 8
 255              		@ frame_needed = 1, uses_anonymous_args = 0
 256 0000 80B5     		push	{r7, lr}
ARM GAS  /var/folders/fs/dxwfnrqj18z860lwl3d6f5t00000gn/T//ccXcLPlJ.s 			page 33


 257              		.cfi_def_cfa_offset 8
 258              		.cfi_offset 7, -8
 259              		.cfi_offset 14, -4
 260 0002 82B0     		sub	sp, sp, #8
 261              		.cfi_def_cfa_offset 16
 262 0004 00AF     		add	r7, sp, #0
 263              		.cfi_def_cfa_register 7
 264 0006 7860     		str	r0, [r7, #4]
1581:../../dependencies/STM32CubeL0/Drivers/STM32L0xx_HAL_Driver/Inc/stm32l0xx_ll_i2c.h ****   return ((READ_BIT(I2Cx->ISR, I2C_ISR_RXNE) == (I2C_ISR_RXNE)) ? 1UL : 0UL);
 265              		.loc 1 1581 12
 266 0008 7B68     		ldr	r3, [r7, #4]
 267 000a 9B69     		ldr	r3, [r3, #24]
 268 000c 0422     		movs	r2, #4
 269 000e 1340     		ands	r3, r2
 270              		.loc 1 1581 71
 271 0010 042B     		cmp	r3, #4
 272 0012 01D1     		bne	.L18
 273              		.loc 1 1581 71 is_stmt 0 discriminator 1
 274 0014 0123     		movs	r3, #1
 275 0016 00E0     		b	.L20
 276              	.L18:
 277              		.loc 1 1581 71 discriminator 2
 278 0018 0023     		movs	r3, #0
 279              	.L20:
1582:../../dependencies/STM32CubeL0/Drivers/STM32L0xx_HAL_Driver/Inc/stm32l0xx_ll_i2c.h **** }
 280              		.loc 1 1582 1 is_stmt 1 discriminator 5
 281 001a 1800     		movs	r0, r3
 282 001c BD46     		mov	sp, r7
 283 001e 02B0     		add	sp, sp, #8
 284              		@ sp needed
 285 0020 80BD     		pop	{r7, pc}
 286              		.cfi_endproc
 287              	.LFE421:
 289              		.section	.text.LL_I2C_IsActiveFlag_STOP,"ax",%progbits
 290              		.align	1
 291              		.syntax unified
 292              		.code	16
 293              		.thumb_func
 294              		.fpu softvfp
 296              	LL_I2C_IsActiveFlag_STOP:
 297              	.LFB424:
1583:../../dependencies/STM32CubeL0/Drivers/STM32L0xx_HAL_Driver/Inc/stm32l0xx_ll_i2c.h **** 
1584:../../dependencies/STM32CubeL0/Drivers/STM32L0xx_HAL_Driver/Inc/stm32l0xx_ll_i2c.h **** /**
1585:../../dependencies/STM32CubeL0/Drivers/STM32L0xx_HAL_Driver/Inc/stm32l0xx_ll_i2c.h ****   * @brief  Indicate the status of Address matched flag (slave mode).
1586:../../dependencies/STM32CubeL0/Drivers/STM32L0xx_HAL_Driver/Inc/stm32l0xx_ll_i2c.h ****   * @note   RESET: Clear default value.
1587:../../dependencies/STM32CubeL0/Drivers/STM32L0xx_HAL_Driver/Inc/stm32l0xx_ll_i2c.h ****   *         SET: When the received slave address matched with one of the enabled slave address.
1588:../../dependencies/STM32CubeL0/Drivers/STM32L0xx_HAL_Driver/Inc/stm32l0xx_ll_i2c.h ****   * @rmtoll ISR          ADDR          LL_I2C_IsActiveFlag_ADDR
1589:../../dependencies/STM32CubeL0/Drivers/STM32L0xx_HAL_Driver/Inc/stm32l0xx_ll_i2c.h ****   * @param  I2Cx I2C Instance.
1590:../../dependencies/STM32CubeL0/Drivers/STM32L0xx_HAL_Driver/Inc/stm32l0xx_ll_i2c.h ****   * @retval State of bit (1 or 0).
1591:../../dependencies/STM32CubeL0/Drivers/STM32L0xx_HAL_Driver/Inc/stm32l0xx_ll_i2c.h ****   */
1592:../../dependencies/STM32CubeL0/Drivers/STM32L0xx_HAL_Driver/Inc/stm32l0xx_ll_i2c.h **** __STATIC_INLINE uint32_t LL_I2C_IsActiveFlag_ADDR(I2C_TypeDef *I2Cx)
1593:../../dependencies/STM32CubeL0/Drivers/STM32L0xx_HAL_Driver/Inc/stm32l0xx_ll_i2c.h **** {
1594:../../dependencies/STM32CubeL0/Drivers/STM32L0xx_HAL_Driver/Inc/stm32l0xx_ll_i2c.h ****   return ((READ_BIT(I2Cx->ISR, I2C_ISR_ADDR) == (I2C_ISR_ADDR)) ? 1UL : 0UL);
1595:../../dependencies/STM32CubeL0/Drivers/STM32L0xx_HAL_Driver/Inc/stm32l0xx_ll_i2c.h **** }
1596:../../dependencies/STM32CubeL0/Drivers/STM32L0xx_HAL_Driver/Inc/stm32l0xx_ll_i2c.h **** 
1597:../../dependencies/STM32CubeL0/Drivers/STM32L0xx_HAL_Driver/Inc/stm32l0xx_ll_i2c.h **** /**
1598:../../dependencies/STM32CubeL0/Drivers/STM32L0xx_HAL_Driver/Inc/stm32l0xx_ll_i2c.h ****   * @brief  Indicate the status of Not Acknowledge received flag.
ARM GAS  /var/folders/fs/dxwfnrqj18z860lwl3d6f5t00000gn/T//ccXcLPlJ.s 			page 34


1599:../../dependencies/STM32CubeL0/Drivers/STM32L0xx_HAL_Driver/Inc/stm32l0xx_ll_i2c.h ****   * @note   RESET: Clear default value.
1600:../../dependencies/STM32CubeL0/Drivers/STM32L0xx_HAL_Driver/Inc/stm32l0xx_ll_i2c.h ****   *         SET: When a NACK is received after a byte transmission.
1601:../../dependencies/STM32CubeL0/Drivers/STM32L0xx_HAL_Driver/Inc/stm32l0xx_ll_i2c.h ****   * @rmtoll ISR          NACKF         LL_I2C_IsActiveFlag_NACK
1602:../../dependencies/STM32CubeL0/Drivers/STM32L0xx_HAL_Driver/Inc/stm32l0xx_ll_i2c.h ****   * @param  I2Cx I2C Instance.
1603:../../dependencies/STM32CubeL0/Drivers/STM32L0xx_HAL_Driver/Inc/stm32l0xx_ll_i2c.h ****   * @retval State of bit (1 or 0).
1604:../../dependencies/STM32CubeL0/Drivers/STM32L0xx_HAL_Driver/Inc/stm32l0xx_ll_i2c.h ****   */
1605:../../dependencies/STM32CubeL0/Drivers/STM32L0xx_HAL_Driver/Inc/stm32l0xx_ll_i2c.h **** __STATIC_INLINE uint32_t LL_I2C_IsActiveFlag_NACK(I2C_TypeDef *I2Cx)
1606:../../dependencies/STM32CubeL0/Drivers/STM32L0xx_HAL_Driver/Inc/stm32l0xx_ll_i2c.h **** {
1607:../../dependencies/STM32CubeL0/Drivers/STM32L0xx_HAL_Driver/Inc/stm32l0xx_ll_i2c.h ****   return ((READ_BIT(I2Cx->ISR, I2C_ISR_NACKF) == (I2C_ISR_NACKF)) ? 1UL : 0UL);
1608:../../dependencies/STM32CubeL0/Drivers/STM32L0xx_HAL_Driver/Inc/stm32l0xx_ll_i2c.h **** }
1609:../../dependencies/STM32CubeL0/Drivers/STM32L0xx_HAL_Driver/Inc/stm32l0xx_ll_i2c.h **** 
1610:../../dependencies/STM32CubeL0/Drivers/STM32L0xx_HAL_Driver/Inc/stm32l0xx_ll_i2c.h **** /**
1611:../../dependencies/STM32CubeL0/Drivers/STM32L0xx_HAL_Driver/Inc/stm32l0xx_ll_i2c.h ****   * @brief  Indicate the status of Stop detection flag.
1612:../../dependencies/STM32CubeL0/Drivers/STM32L0xx_HAL_Driver/Inc/stm32l0xx_ll_i2c.h ****   * @note   RESET: Clear default value.
1613:../../dependencies/STM32CubeL0/Drivers/STM32L0xx_HAL_Driver/Inc/stm32l0xx_ll_i2c.h ****   *         SET: When a Stop condition is detected.
1614:../../dependencies/STM32CubeL0/Drivers/STM32L0xx_HAL_Driver/Inc/stm32l0xx_ll_i2c.h ****   * @rmtoll ISR          STOPF         LL_I2C_IsActiveFlag_STOP
1615:../../dependencies/STM32CubeL0/Drivers/STM32L0xx_HAL_Driver/Inc/stm32l0xx_ll_i2c.h ****   * @param  I2Cx I2C Instance.
1616:../../dependencies/STM32CubeL0/Drivers/STM32L0xx_HAL_Driver/Inc/stm32l0xx_ll_i2c.h ****   * @retval State of bit (1 or 0).
1617:../../dependencies/STM32CubeL0/Drivers/STM32L0xx_HAL_Driver/Inc/stm32l0xx_ll_i2c.h ****   */
1618:../../dependencies/STM32CubeL0/Drivers/STM32L0xx_HAL_Driver/Inc/stm32l0xx_ll_i2c.h **** __STATIC_INLINE uint32_t LL_I2C_IsActiveFlag_STOP(I2C_TypeDef *I2Cx)
1619:../../dependencies/STM32CubeL0/Drivers/STM32L0xx_HAL_Driver/Inc/stm32l0xx_ll_i2c.h **** {
 298              		.loc 1 1619 1
 299              		.cfi_startproc
 300              		@ args = 0, pretend = 0, frame = 8
 301              		@ frame_needed = 1, uses_anonymous_args = 0
 302 0000 80B5     		push	{r7, lr}
 303              		.cfi_def_cfa_offset 8
 304              		.cfi_offset 7, -8
 305              		.cfi_offset 14, -4
 306 0002 82B0     		sub	sp, sp, #8
 307              		.cfi_def_cfa_offset 16
 308 0004 00AF     		add	r7, sp, #0
 309              		.cfi_def_cfa_register 7
 310 0006 7860     		str	r0, [r7, #4]
1620:../../dependencies/STM32CubeL0/Drivers/STM32L0xx_HAL_Driver/Inc/stm32l0xx_ll_i2c.h ****   return ((READ_BIT(I2Cx->ISR, I2C_ISR_STOPF) == (I2C_ISR_STOPF)) ? 1UL : 0UL);
 311              		.loc 1 1620 12
 312 0008 7B68     		ldr	r3, [r7, #4]
 313 000a 9B69     		ldr	r3, [r3, #24]
 314 000c 2022     		movs	r2, #32
 315 000e 1340     		ands	r3, r2
 316              		.loc 1 1620 73
 317 0010 202B     		cmp	r3, #32
 318 0012 01D1     		bne	.L22
 319              		.loc 1 1620 73 is_stmt 0 discriminator 1
 320 0014 0123     		movs	r3, #1
 321 0016 00E0     		b	.L24
 322              	.L22:
 323              		.loc 1 1620 73 discriminator 2
 324 0018 0023     		movs	r3, #0
 325              	.L24:
1621:../../dependencies/STM32CubeL0/Drivers/STM32L0xx_HAL_Driver/Inc/stm32l0xx_ll_i2c.h **** }
 326              		.loc 1 1621 1 is_stmt 1 discriminator 5
 327 001a 1800     		movs	r0, r3
 328 001c BD46     		mov	sp, r7
 329 001e 02B0     		add	sp, sp, #8
 330              		@ sp needed
 331 0020 80BD     		pop	{r7, pc}
ARM GAS  /var/folders/fs/dxwfnrqj18z860lwl3d6f5t00000gn/T//ccXcLPlJ.s 			page 35


 332              		.cfi_endproc
 333              	.LFE424:
 335              		.section	.text.LL_I2C_ClearFlag_STOP,"ax",%progbits
 336              		.align	1
 337              		.syntax unified
 338              		.code	16
 339              		.thumb_func
 340              		.fpu softvfp
 342              	LL_I2C_ClearFlag_STOP:
 343              	.LFB436:
1622:../../dependencies/STM32CubeL0/Drivers/STM32L0xx_HAL_Driver/Inc/stm32l0xx_ll_i2c.h **** 
1623:../../dependencies/STM32CubeL0/Drivers/STM32L0xx_HAL_Driver/Inc/stm32l0xx_ll_i2c.h **** /**
1624:../../dependencies/STM32CubeL0/Drivers/STM32L0xx_HAL_Driver/Inc/stm32l0xx_ll_i2c.h ****   * @brief  Indicate the status of Transfer complete flag (master mode).
1625:../../dependencies/STM32CubeL0/Drivers/STM32L0xx_HAL_Driver/Inc/stm32l0xx_ll_i2c.h ****   * @note   RESET: Clear default value.
1626:../../dependencies/STM32CubeL0/Drivers/STM32L0xx_HAL_Driver/Inc/stm32l0xx_ll_i2c.h ****   *         SET: When RELOAD=0, AUTOEND=0 and NBYTES date have been transferred.
1627:../../dependencies/STM32CubeL0/Drivers/STM32L0xx_HAL_Driver/Inc/stm32l0xx_ll_i2c.h ****   * @rmtoll ISR          TC            LL_I2C_IsActiveFlag_TC
1628:../../dependencies/STM32CubeL0/Drivers/STM32L0xx_HAL_Driver/Inc/stm32l0xx_ll_i2c.h ****   * @param  I2Cx I2C Instance.
1629:../../dependencies/STM32CubeL0/Drivers/STM32L0xx_HAL_Driver/Inc/stm32l0xx_ll_i2c.h ****   * @retval State of bit (1 or 0).
1630:../../dependencies/STM32CubeL0/Drivers/STM32L0xx_HAL_Driver/Inc/stm32l0xx_ll_i2c.h ****   */
1631:../../dependencies/STM32CubeL0/Drivers/STM32L0xx_HAL_Driver/Inc/stm32l0xx_ll_i2c.h **** __STATIC_INLINE uint32_t LL_I2C_IsActiveFlag_TC(I2C_TypeDef *I2Cx)
1632:../../dependencies/STM32CubeL0/Drivers/STM32L0xx_HAL_Driver/Inc/stm32l0xx_ll_i2c.h **** {
1633:../../dependencies/STM32CubeL0/Drivers/STM32L0xx_HAL_Driver/Inc/stm32l0xx_ll_i2c.h ****   return ((READ_BIT(I2Cx->ISR, I2C_ISR_TC) == (I2C_ISR_TC)) ? 1UL : 0UL);
1634:../../dependencies/STM32CubeL0/Drivers/STM32L0xx_HAL_Driver/Inc/stm32l0xx_ll_i2c.h **** }
1635:../../dependencies/STM32CubeL0/Drivers/STM32L0xx_HAL_Driver/Inc/stm32l0xx_ll_i2c.h **** 
1636:../../dependencies/STM32CubeL0/Drivers/STM32L0xx_HAL_Driver/Inc/stm32l0xx_ll_i2c.h **** /**
1637:../../dependencies/STM32CubeL0/Drivers/STM32L0xx_HAL_Driver/Inc/stm32l0xx_ll_i2c.h ****   * @brief  Indicate the status of Transfer complete flag (master mode).
1638:../../dependencies/STM32CubeL0/Drivers/STM32L0xx_HAL_Driver/Inc/stm32l0xx_ll_i2c.h ****   * @note   RESET: Clear default value.
1639:../../dependencies/STM32CubeL0/Drivers/STM32L0xx_HAL_Driver/Inc/stm32l0xx_ll_i2c.h ****   *         SET: When RELOAD=1 and NBYTES date have been transferred.
1640:../../dependencies/STM32CubeL0/Drivers/STM32L0xx_HAL_Driver/Inc/stm32l0xx_ll_i2c.h ****   * @rmtoll ISR          TCR           LL_I2C_IsActiveFlag_TCR
1641:../../dependencies/STM32CubeL0/Drivers/STM32L0xx_HAL_Driver/Inc/stm32l0xx_ll_i2c.h ****   * @param  I2Cx I2C Instance.
1642:../../dependencies/STM32CubeL0/Drivers/STM32L0xx_HAL_Driver/Inc/stm32l0xx_ll_i2c.h ****   * @retval State of bit (1 or 0).
1643:../../dependencies/STM32CubeL0/Drivers/STM32L0xx_HAL_Driver/Inc/stm32l0xx_ll_i2c.h ****   */
1644:../../dependencies/STM32CubeL0/Drivers/STM32L0xx_HAL_Driver/Inc/stm32l0xx_ll_i2c.h **** __STATIC_INLINE uint32_t LL_I2C_IsActiveFlag_TCR(I2C_TypeDef *I2Cx)
1645:../../dependencies/STM32CubeL0/Drivers/STM32L0xx_HAL_Driver/Inc/stm32l0xx_ll_i2c.h **** {
1646:../../dependencies/STM32CubeL0/Drivers/STM32L0xx_HAL_Driver/Inc/stm32l0xx_ll_i2c.h ****   return ((READ_BIT(I2Cx->ISR, I2C_ISR_TCR) == (I2C_ISR_TCR)) ? 1UL : 0UL);
1647:../../dependencies/STM32CubeL0/Drivers/STM32L0xx_HAL_Driver/Inc/stm32l0xx_ll_i2c.h **** }
1648:../../dependencies/STM32CubeL0/Drivers/STM32L0xx_HAL_Driver/Inc/stm32l0xx_ll_i2c.h **** 
1649:../../dependencies/STM32CubeL0/Drivers/STM32L0xx_HAL_Driver/Inc/stm32l0xx_ll_i2c.h **** /**
1650:../../dependencies/STM32CubeL0/Drivers/STM32L0xx_HAL_Driver/Inc/stm32l0xx_ll_i2c.h ****   * @brief  Indicate the status of Bus error flag.
1651:../../dependencies/STM32CubeL0/Drivers/STM32L0xx_HAL_Driver/Inc/stm32l0xx_ll_i2c.h ****   * @note   RESET: Clear default value.
1652:../../dependencies/STM32CubeL0/Drivers/STM32L0xx_HAL_Driver/Inc/stm32l0xx_ll_i2c.h ****   *         SET: When a misplaced Start or Stop condition is detected.
1653:../../dependencies/STM32CubeL0/Drivers/STM32L0xx_HAL_Driver/Inc/stm32l0xx_ll_i2c.h ****   * @rmtoll ISR          BERR          LL_I2C_IsActiveFlag_BERR
1654:../../dependencies/STM32CubeL0/Drivers/STM32L0xx_HAL_Driver/Inc/stm32l0xx_ll_i2c.h ****   * @param  I2Cx I2C Instance.
1655:../../dependencies/STM32CubeL0/Drivers/STM32L0xx_HAL_Driver/Inc/stm32l0xx_ll_i2c.h ****   * @retval State of bit (1 or 0).
1656:../../dependencies/STM32CubeL0/Drivers/STM32L0xx_HAL_Driver/Inc/stm32l0xx_ll_i2c.h ****   */
1657:../../dependencies/STM32CubeL0/Drivers/STM32L0xx_HAL_Driver/Inc/stm32l0xx_ll_i2c.h **** __STATIC_INLINE uint32_t LL_I2C_IsActiveFlag_BERR(I2C_TypeDef *I2Cx)
1658:../../dependencies/STM32CubeL0/Drivers/STM32L0xx_HAL_Driver/Inc/stm32l0xx_ll_i2c.h **** {
1659:../../dependencies/STM32CubeL0/Drivers/STM32L0xx_HAL_Driver/Inc/stm32l0xx_ll_i2c.h ****   return ((READ_BIT(I2Cx->ISR, I2C_ISR_BERR) == (I2C_ISR_BERR)) ? 1UL : 0UL);
1660:../../dependencies/STM32CubeL0/Drivers/STM32L0xx_HAL_Driver/Inc/stm32l0xx_ll_i2c.h **** }
1661:../../dependencies/STM32CubeL0/Drivers/STM32L0xx_HAL_Driver/Inc/stm32l0xx_ll_i2c.h **** 
1662:../../dependencies/STM32CubeL0/Drivers/STM32L0xx_HAL_Driver/Inc/stm32l0xx_ll_i2c.h **** /**
1663:../../dependencies/STM32CubeL0/Drivers/STM32L0xx_HAL_Driver/Inc/stm32l0xx_ll_i2c.h ****   * @brief  Indicate the status of Arbitration lost flag.
1664:../../dependencies/STM32CubeL0/Drivers/STM32L0xx_HAL_Driver/Inc/stm32l0xx_ll_i2c.h ****   * @note   RESET: Clear default value.
1665:../../dependencies/STM32CubeL0/Drivers/STM32L0xx_HAL_Driver/Inc/stm32l0xx_ll_i2c.h ****   *         SET: When arbitration lost.
1666:../../dependencies/STM32CubeL0/Drivers/STM32L0xx_HAL_Driver/Inc/stm32l0xx_ll_i2c.h ****   * @rmtoll ISR          ARLO          LL_I2C_IsActiveFlag_ARLO
1667:../../dependencies/STM32CubeL0/Drivers/STM32L0xx_HAL_Driver/Inc/stm32l0xx_ll_i2c.h ****   * @param  I2Cx I2C Instance.
1668:../../dependencies/STM32CubeL0/Drivers/STM32L0xx_HAL_Driver/Inc/stm32l0xx_ll_i2c.h ****   * @retval State of bit (1 or 0).
ARM GAS  /var/folders/fs/dxwfnrqj18z860lwl3d6f5t00000gn/T//ccXcLPlJ.s 			page 36


1669:../../dependencies/STM32CubeL0/Drivers/STM32L0xx_HAL_Driver/Inc/stm32l0xx_ll_i2c.h ****   */
1670:../../dependencies/STM32CubeL0/Drivers/STM32L0xx_HAL_Driver/Inc/stm32l0xx_ll_i2c.h **** __STATIC_INLINE uint32_t LL_I2C_IsActiveFlag_ARLO(I2C_TypeDef *I2Cx)
1671:../../dependencies/STM32CubeL0/Drivers/STM32L0xx_HAL_Driver/Inc/stm32l0xx_ll_i2c.h **** {
1672:../../dependencies/STM32CubeL0/Drivers/STM32L0xx_HAL_Driver/Inc/stm32l0xx_ll_i2c.h ****   return ((READ_BIT(I2Cx->ISR, I2C_ISR_ARLO) == (I2C_ISR_ARLO)) ? 1UL : 0UL);
1673:../../dependencies/STM32CubeL0/Drivers/STM32L0xx_HAL_Driver/Inc/stm32l0xx_ll_i2c.h **** }
1674:../../dependencies/STM32CubeL0/Drivers/STM32L0xx_HAL_Driver/Inc/stm32l0xx_ll_i2c.h **** 
1675:../../dependencies/STM32CubeL0/Drivers/STM32L0xx_HAL_Driver/Inc/stm32l0xx_ll_i2c.h **** /**
1676:../../dependencies/STM32CubeL0/Drivers/STM32L0xx_HAL_Driver/Inc/stm32l0xx_ll_i2c.h ****   * @brief  Indicate the status of Overrun/Underrun flag (slave mode).
1677:../../dependencies/STM32CubeL0/Drivers/STM32L0xx_HAL_Driver/Inc/stm32l0xx_ll_i2c.h ****   * @note   RESET: Clear default value.
1678:../../dependencies/STM32CubeL0/Drivers/STM32L0xx_HAL_Driver/Inc/stm32l0xx_ll_i2c.h ****   *         SET: When an overrun/underrun error occurs (Clock Stretching Disabled).
1679:../../dependencies/STM32CubeL0/Drivers/STM32L0xx_HAL_Driver/Inc/stm32l0xx_ll_i2c.h ****   * @rmtoll ISR          OVR           LL_I2C_IsActiveFlag_OVR
1680:../../dependencies/STM32CubeL0/Drivers/STM32L0xx_HAL_Driver/Inc/stm32l0xx_ll_i2c.h ****   * @param  I2Cx I2C Instance.
1681:../../dependencies/STM32CubeL0/Drivers/STM32L0xx_HAL_Driver/Inc/stm32l0xx_ll_i2c.h ****   * @retval State of bit (1 or 0).
1682:../../dependencies/STM32CubeL0/Drivers/STM32L0xx_HAL_Driver/Inc/stm32l0xx_ll_i2c.h ****   */
1683:../../dependencies/STM32CubeL0/Drivers/STM32L0xx_HAL_Driver/Inc/stm32l0xx_ll_i2c.h **** __STATIC_INLINE uint32_t LL_I2C_IsActiveFlag_OVR(I2C_TypeDef *I2Cx)
1684:../../dependencies/STM32CubeL0/Drivers/STM32L0xx_HAL_Driver/Inc/stm32l0xx_ll_i2c.h **** {
1685:../../dependencies/STM32CubeL0/Drivers/STM32L0xx_HAL_Driver/Inc/stm32l0xx_ll_i2c.h ****   return ((READ_BIT(I2Cx->ISR, I2C_ISR_OVR) == (I2C_ISR_OVR)) ? 1UL : 0UL);
1686:../../dependencies/STM32CubeL0/Drivers/STM32L0xx_HAL_Driver/Inc/stm32l0xx_ll_i2c.h **** }
1687:../../dependencies/STM32CubeL0/Drivers/STM32L0xx_HAL_Driver/Inc/stm32l0xx_ll_i2c.h **** 
1688:../../dependencies/STM32CubeL0/Drivers/STM32L0xx_HAL_Driver/Inc/stm32l0xx_ll_i2c.h **** /**
1689:../../dependencies/STM32CubeL0/Drivers/STM32L0xx_HAL_Driver/Inc/stm32l0xx_ll_i2c.h ****   * @brief  Indicate the status of SMBus PEC error flag in reception.
1690:../../dependencies/STM32CubeL0/Drivers/STM32L0xx_HAL_Driver/Inc/stm32l0xx_ll_i2c.h ****   * @note   The macro IS_SMBUS_INSTANCE(I2Cx) can be used to check whether or not
1691:../../dependencies/STM32CubeL0/Drivers/STM32L0xx_HAL_Driver/Inc/stm32l0xx_ll_i2c.h ****   *         SMBus feature is supported by the I2Cx Instance.
1692:../../dependencies/STM32CubeL0/Drivers/STM32L0xx_HAL_Driver/Inc/stm32l0xx_ll_i2c.h ****   * @note   RESET: Clear default value.
1693:../../dependencies/STM32CubeL0/Drivers/STM32L0xx_HAL_Driver/Inc/stm32l0xx_ll_i2c.h ****   *         SET: When the received PEC does not match with the PEC register content.
1694:../../dependencies/STM32CubeL0/Drivers/STM32L0xx_HAL_Driver/Inc/stm32l0xx_ll_i2c.h ****   * @rmtoll ISR          PECERR        LL_I2C_IsActiveSMBusFlag_PECERR
1695:../../dependencies/STM32CubeL0/Drivers/STM32L0xx_HAL_Driver/Inc/stm32l0xx_ll_i2c.h ****   * @param  I2Cx I2C Instance.
1696:../../dependencies/STM32CubeL0/Drivers/STM32L0xx_HAL_Driver/Inc/stm32l0xx_ll_i2c.h ****   * @retval State of bit (1 or 0).
1697:../../dependencies/STM32CubeL0/Drivers/STM32L0xx_HAL_Driver/Inc/stm32l0xx_ll_i2c.h ****   */
1698:../../dependencies/STM32CubeL0/Drivers/STM32L0xx_HAL_Driver/Inc/stm32l0xx_ll_i2c.h **** __STATIC_INLINE uint32_t LL_I2C_IsActiveSMBusFlag_PECERR(I2C_TypeDef *I2Cx)
1699:../../dependencies/STM32CubeL0/Drivers/STM32L0xx_HAL_Driver/Inc/stm32l0xx_ll_i2c.h **** {
1700:../../dependencies/STM32CubeL0/Drivers/STM32L0xx_HAL_Driver/Inc/stm32l0xx_ll_i2c.h ****   return ((READ_BIT(I2Cx->ISR, I2C_ISR_PECERR) == (I2C_ISR_PECERR)) ? 1UL : 0UL);
1701:../../dependencies/STM32CubeL0/Drivers/STM32L0xx_HAL_Driver/Inc/stm32l0xx_ll_i2c.h **** }
1702:../../dependencies/STM32CubeL0/Drivers/STM32L0xx_HAL_Driver/Inc/stm32l0xx_ll_i2c.h **** 
1703:../../dependencies/STM32CubeL0/Drivers/STM32L0xx_HAL_Driver/Inc/stm32l0xx_ll_i2c.h **** /**
1704:../../dependencies/STM32CubeL0/Drivers/STM32L0xx_HAL_Driver/Inc/stm32l0xx_ll_i2c.h ****   * @brief  Indicate the status of SMBus Timeout detection flag.
1705:../../dependencies/STM32CubeL0/Drivers/STM32L0xx_HAL_Driver/Inc/stm32l0xx_ll_i2c.h ****   * @note   The macro IS_SMBUS_INSTANCE(I2Cx) can be used to check whether or not
1706:../../dependencies/STM32CubeL0/Drivers/STM32L0xx_HAL_Driver/Inc/stm32l0xx_ll_i2c.h ****   *         SMBus feature is supported by the I2Cx Instance.
1707:../../dependencies/STM32CubeL0/Drivers/STM32L0xx_HAL_Driver/Inc/stm32l0xx_ll_i2c.h ****   * @note   RESET: Clear default value.
1708:../../dependencies/STM32CubeL0/Drivers/STM32L0xx_HAL_Driver/Inc/stm32l0xx_ll_i2c.h ****   *         SET: When a timeout or extended clock timeout occurs.
1709:../../dependencies/STM32CubeL0/Drivers/STM32L0xx_HAL_Driver/Inc/stm32l0xx_ll_i2c.h ****   * @rmtoll ISR          TIMEOUT       LL_I2C_IsActiveSMBusFlag_TIMEOUT
1710:../../dependencies/STM32CubeL0/Drivers/STM32L0xx_HAL_Driver/Inc/stm32l0xx_ll_i2c.h ****   * @param  I2Cx I2C Instance.
1711:../../dependencies/STM32CubeL0/Drivers/STM32L0xx_HAL_Driver/Inc/stm32l0xx_ll_i2c.h ****   * @retval State of bit (1 or 0).
1712:../../dependencies/STM32CubeL0/Drivers/STM32L0xx_HAL_Driver/Inc/stm32l0xx_ll_i2c.h ****   */
1713:../../dependencies/STM32CubeL0/Drivers/STM32L0xx_HAL_Driver/Inc/stm32l0xx_ll_i2c.h **** __STATIC_INLINE uint32_t LL_I2C_IsActiveSMBusFlag_TIMEOUT(I2C_TypeDef *I2Cx)
1714:../../dependencies/STM32CubeL0/Drivers/STM32L0xx_HAL_Driver/Inc/stm32l0xx_ll_i2c.h **** {
1715:../../dependencies/STM32CubeL0/Drivers/STM32L0xx_HAL_Driver/Inc/stm32l0xx_ll_i2c.h ****   return ((READ_BIT(I2Cx->ISR, I2C_ISR_TIMEOUT) == (I2C_ISR_TIMEOUT)) ? 1UL : 0UL);
1716:../../dependencies/STM32CubeL0/Drivers/STM32L0xx_HAL_Driver/Inc/stm32l0xx_ll_i2c.h **** }
1717:../../dependencies/STM32CubeL0/Drivers/STM32L0xx_HAL_Driver/Inc/stm32l0xx_ll_i2c.h **** 
1718:../../dependencies/STM32CubeL0/Drivers/STM32L0xx_HAL_Driver/Inc/stm32l0xx_ll_i2c.h **** /**
1719:../../dependencies/STM32CubeL0/Drivers/STM32L0xx_HAL_Driver/Inc/stm32l0xx_ll_i2c.h ****   * @brief  Indicate the status of SMBus alert flag.
1720:../../dependencies/STM32CubeL0/Drivers/STM32L0xx_HAL_Driver/Inc/stm32l0xx_ll_i2c.h ****   * @note   The macro IS_SMBUS_INSTANCE(I2Cx) can be used to check whether or not
1721:../../dependencies/STM32CubeL0/Drivers/STM32L0xx_HAL_Driver/Inc/stm32l0xx_ll_i2c.h ****   *         SMBus feature is supported by the I2Cx Instance.
1722:../../dependencies/STM32CubeL0/Drivers/STM32L0xx_HAL_Driver/Inc/stm32l0xx_ll_i2c.h ****   * @note   RESET: Clear default value.
1723:../../dependencies/STM32CubeL0/Drivers/STM32L0xx_HAL_Driver/Inc/stm32l0xx_ll_i2c.h ****   *         SET: When SMBus host configuration, SMBus alert enabled and
1724:../../dependencies/STM32CubeL0/Drivers/STM32L0xx_HAL_Driver/Inc/stm32l0xx_ll_i2c.h ****   *              a falling edge event occurs on SMBA pin.
1725:../../dependencies/STM32CubeL0/Drivers/STM32L0xx_HAL_Driver/Inc/stm32l0xx_ll_i2c.h ****   * @rmtoll ISR          ALERT         LL_I2C_IsActiveSMBusFlag_ALERT
ARM GAS  /var/folders/fs/dxwfnrqj18z860lwl3d6f5t00000gn/T//ccXcLPlJ.s 			page 37


1726:../../dependencies/STM32CubeL0/Drivers/STM32L0xx_HAL_Driver/Inc/stm32l0xx_ll_i2c.h ****   * @param  I2Cx I2C Instance.
1727:../../dependencies/STM32CubeL0/Drivers/STM32L0xx_HAL_Driver/Inc/stm32l0xx_ll_i2c.h ****   * @retval State of bit (1 or 0).
1728:../../dependencies/STM32CubeL0/Drivers/STM32L0xx_HAL_Driver/Inc/stm32l0xx_ll_i2c.h ****   */
1729:../../dependencies/STM32CubeL0/Drivers/STM32L0xx_HAL_Driver/Inc/stm32l0xx_ll_i2c.h **** __STATIC_INLINE uint32_t LL_I2C_IsActiveSMBusFlag_ALERT(I2C_TypeDef *I2Cx)
1730:../../dependencies/STM32CubeL0/Drivers/STM32L0xx_HAL_Driver/Inc/stm32l0xx_ll_i2c.h **** {
1731:../../dependencies/STM32CubeL0/Drivers/STM32L0xx_HAL_Driver/Inc/stm32l0xx_ll_i2c.h ****   return ((READ_BIT(I2Cx->ISR, I2C_ISR_ALERT) == (I2C_ISR_ALERT)) ? 1UL : 0UL);
1732:../../dependencies/STM32CubeL0/Drivers/STM32L0xx_HAL_Driver/Inc/stm32l0xx_ll_i2c.h **** }
1733:../../dependencies/STM32CubeL0/Drivers/STM32L0xx_HAL_Driver/Inc/stm32l0xx_ll_i2c.h **** 
1734:../../dependencies/STM32CubeL0/Drivers/STM32L0xx_HAL_Driver/Inc/stm32l0xx_ll_i2c.h **** /**
1735:../../dependencies/STM32CubeL0/Drivers/STM32L0xx_HAL_Driver/Inc/stm32l0xx_ll_i2c.h ****   * @brief  Indicate the status of Bus Busy flag.
1736:../../dependencies/STM32CubeL0/Drivers/STM32L0xx_HAL_Driver/Inc/stm32l0xx_ll_i2c.h ****   * @note   RESET: Clear default value.
1737:../../dependencies/STM32CubeL0/Drivers/STM32L0xx_HAL_Driver/Inc/stm32l0xx_ll_i2c.h ****   *         SET: When a Start condition is detected.
1738:../../dependencies/STM32CubeL0/Drivers/STM32L0xx_HAL_Driver/Inc/stm32l0xx_ll_i2c.h ****   * @rmtoll ISR          BUSY          LL_I2C_IsActiveFlag_BUSY
1739:../../dependencies/STM32CubeL0/Drivers/STM32L0xx_HAL_Driver/Inc/stm32l0xx_ll_i2c.h ****   * @param  I2Cx I2C Instance.
1740:../../dependencies/STM32CubeL0/Drivers/STM32L0xx_HAL_Driver/Inc/stm32l0xx_ll_i2c.h ****   * @retval State of bit (1 or 0).
1741:../../dependencies/STM32CubeL0/Drivers/STM32L0xx_HAL_Driver/Inc/stm32l0xx_ll_i2c.h ****   */
1742:../../dependencies/STM32CubeL0/Drivers/STM32L0xx_HAL_Driver/Inc/stm32l0xx_ll_i2c.h **** __STATIC_INLINE uint32_t LL_I2C_IsActiveFlag_BUSY(I2C_TypeDef *I2Cx)
1743:../../dependencies/STM32CubeL0/Drivers/STM32L0xx_HAL_Driver/Inc/stm32l0xx_ll_i2c.h **** {
1744:../../dependencies/STM32CubeL0/Drivers/STM32L0xx_HAL_Driver/Inc/stm32l0xx_ll_i2c.h ****   return ((READ_BIT(I2Cx->ISR, I2C_ISR_BUSY) == (I2C_ISR_BUSY)) ? 1UL : 0UL);
1745:../../dependencies/STM32CubeL0/Drivers/STM32L0xx_HAL_Driver/Inc/stm32l0xx_ll_i2c.h **** }
1746:../../dependencies/STM32CubeL0/Drivers/STM32L0xx_HAL_Driver/Inc/stm32l0xx_ll_i2c.h **** 
1747:../../dependencies/STM32CubeL0/Drivers/STM32L0xx_HAL_Driver/Inc/stm32l0xx_ll_i2c.h **** /**
1748:../../dependencies/STM32CubeL0/Drivers/STM32L0xx_HAL_Driver/Inc/stm32l0xx_ll_i2c.h ****   * @brief  Clear Address Matched flag.
1749:../../dependencies/STM32CubeL0/Drivers/STM32L0xx_HAL_Driver/Inc/stm32l0xx_ll_i2c.h ****   * @rmtoll ICR          ADDRCF        LL_I2C_ClearFlag_ADDR
1750:../../dependencies/STM32CubeL0/Drivers/STM32L0xx_HAL_Driver/Inc/stm32l0xx_ll_i2c.h ****   * @param  I2Cx I2C Instance.
1751:../../dependencies/STM32CubeL0/Drivers/STM32L0xx_HAL_Driver/Inc/stm32l0xx_ll_i2c.h ****   * @retval None
1752:../../dependencies/STM32CubeL0/Drivers/STM32L0xx_HAL_Driver/Inc/stm32l0xx_ll_i2c.h ****   */
1753:../../dependencies/STM32CubeL0/Drivers/STM32L0xx_HAL_Driver/Inc/stm32l0xx_ll_i2c.h **** __STATIC_INLINE void LL_I2C_ClearFlag_ADDR(I2C_TypeDef *I2Cx)
1754:../../dependencies/STM32CubeL0/Drivers/STM32L0xx_HAL_Driver/Inc/stm32l0xx_ll_i2c.h **** {
1755:../../dependencies/STM32CubeL0/Drivers/STM32L0xx_HAL_Driver/Inc/stm32l0xx_ll_i2c.h ****   SET_BIT(I2Cx->ICR, I2C_ICR_ADDRCF);
1756:../../dependencies/STM32CubeL0/Drivers/STM32L0xx_HAL_Driver/Inc/stm32l0xx_ll_i2c.h **** }
1757:../../dependencies/STM32CubeL0/Drivers/STM32L0xx_HAL_Driver/Inc/stm32l0xx_ll_i2c.h **** 
1758:../../dependencies/STM32CubeL0/Drivers/STM32L0xx_HAL_Driver/Inc/stm32l0xx_ll_i2c.h **** /**
1759:../../dependencies/STM32CubeL0/Drivers/STM32L0xx_HAL_Driver/Inc/stm32l0xx_ll_i2c.h ****   * @brief  Clear Not Acknowledge flag.
1760:../../dependencies/STM32CubeL0/Drivers/STM32L0xx_HAL_Driver/Inc/stm32l0xx_ll_i2c.h ****   * @rmtoll ICR          NACKCF        LL_I2C_ClearFlag_NACK
1761:../../dependencies/STM32CubeL0/Drivers/STM32L0xx_HAL_Driver/Inc/stm32l0xx_ll_i2c.h ****   * @param  I2Cx I2C Instance.
1762:../../dependencies/STM32CubeL0/Drivers/STM32L0xx_HAL_Driver/Inc/stm32l0xx_ll_i2c.h ****   * @retval None
1763:../../dependencies/STM32CubeL0/Drivers/STM32L0xx_HAL_Driver/Inc/stm32l0xx_ll_i2c.h ****   */
1764:../../dependencies/STM32CubeL0/Drivers/STM32L0xx_HAL_Driver/Inc/stm32l0xx_ll_i2c.h **** __STATIC_INLINE void LL_I2C_ClearFlag_NACK(I2C_TypeDef *I2Cx)
1765:../../dependencies/STM32CubeL0/Drivers/STM32L0xx_HAL_Driver/Inc/stm32l0xx_ll_i2c.h **** {
1766:../../dependencies/STM32CubeL0/Drivers/STM32L0xx_HAL_Driver/Inc/stm32l0xx_ll_i2c.h ****   SET_BIT(I2Cx->ICR, I2C_ICR_NACKCF);
1767:../../dependencies/STM32CubeL0/Drivers/STM32L0xx_HAL_Driver/Inc/stm32l0xx_ll_i2c.h **** }
1768:../../dependencies/STM32CubeL0/Drivers/STM32L0xx_HAL_Driver/Inc/stm32l0xx_ll_i2c.h **** 
1769:../../dependencies/STM32CubeL0/Drivers/STM32L0xx_HAL_Driver/Inc/stm32l0xx_ll_i2c.h **** /**
1770:../../dependencies/STM32CubeL0/Drivers/STM32L0xx_HAL_Driver/Inc/stm32l0xx_ll_i2c.h ****   * @brief  Clear Stop detection flag.
1771:../../dependencies/STM32CubeL0/Drivers/STM32L0xx_HAL_Driver/Inc/stm32l0xx_ll_i2c.h ****   * @rmtoll ICR          STOPCF        LL_I2C_ClearFlag_STOP
1772:../../dependencies/STM32CubeL0/Drivers/STM32L0xx_HAL_Driver/Inc/stm32l0xx_ll_i2c.h ****   * @param  I2Cx I2C Instance.
1773:../../dependencies/STM32CubeL0/Drivers/STM32L0xx_HAL_Driver/Inc/stm32l0xx_ll_i2c.h ****   * @retval None
1774:../../dependencies/STM32CubeL0/Drivers/STM32L0xx_HAL_Driver/Inc/stm32l0xx_ll_i2c.h ****   */
1775:../../dependencies/STM32CubeL0/Drivers/STM32L0xx_HAL_Driver/Inc/stm32l0xx_ll_i2c.h **** __STATIC_INLINE void LL_I2C_ClearFlag_STOP(I2C_TypeDef *I2Cx)
1776:../../dependencies/STM32CubeL0/Drivers/STM32L0xx_HAL_Driver/Inc/stm32l0xx_ll_i2c.h **** {
 344              		.loc 1 1776 1
 345              		.cfi_startproc
 346              		@ args = 0, pretend = 0, frame = 8
 347              		@ frame_needed = 1, uses_anonymous_args = 0
 348 0000 80B5     		push	{r7, lr}
 349              		.cfi_def_cfa_offset 8
ARM GAS  /var/folders/fs/dxwfnrqj18z860lwl3d6f5t00000gn/T//ccXcLPlJ.s 			page 38


 350              		.cfi_offset 7, -8
 351              		.cfi_offset 14, -4
 352 0002 82B0     		sub	sp, sp, #8
 353              		.cfi_def_cfa_offset 16
 354 0004 00AF     		add	r7, sp, #0
 355              		.cfi_def_cfa_register 7
 356 0006 7860     		str	r0, [r7, #4]
1777:../../dependencies/STM32CubeL0/Drivers/STM32L0xx_HAL_Driver/Inc/stm32l0xx_ll_i2c.h ****   SET_BIT(I2Cx->ICR, I2C_ICR_STOPCF);
 357              		.loc 1 1777 3
 358 0008 7B68     		ldr	r3, [r7, #4]
 359 000a DB69     		ldr	r3, [r3, #28]
 360 000c 2022     		movs	r2, #32
 361 000e 1A43     		orrs	r2, r3
 362 0010 7B68     		ldr	r3, [r7, #4]
 363 0012 DA61     		str	r2, [r3, #28]
1778:../../dependencies/STM32CubeL0/Drivers/STM32L0xx_HAL_Driver/Inc/stm32l0xx_ll_i2c.h **** }
 364              		.loc 1 1778 1
 365 0014 C046     		nop
 366 0016 BD46     		mov	sp, r7
 367 0018 02B0     		add	sp, sp, #8
 368              		@ sp needed
 369 001a 80BD     		pop	{r7, pc}
 370              		.cfi_endproc
 371              	.LFE436:
 373              		.section	.text.LL_I2C_EnableAutoEndMode,"ax",%progbits
 374              		.align	1
 375              		.syntax unified
 376              		.code	16
 377              		.thumb_func
 378              		.fpu softvfp
 380              	LL_I2C_EnableAutoEndMode:
 381              	.LFB444:
1779:../../dependencies/STM32CubeL0/Drivers/STM32L0xx_HAL_Driver/Inc/stm32l0xx_ll_i2c.h **** 
1780:../../dependencies/STM32CubeL0/Drivers/STM32L0xx_HAL_Driver/Inc/stm32l0xx_ll_i2c.h **** /**
1781:../../dependencies/STM32CubeL0/Drivers/STM32L0xx_HAL_Driver/Inc/stm32l0xx_ll_i2c.h ****   * @brief  Clear Transmit data register empty flag (TXE).
1782:../../dependencies/STM32CubeL0/Drivers/STM32L0xx_HAL_Driver/Inc/stm32l0xx_ll_i2c.h ****   * @note   This bit can be clear by software in order to flush the transmit data register (TXDR).
1783:../../dependencies/STM32CubeL0/Drivers/STM32L0xx_HAL_Driver/Inc/stm32l0xx_ll_i2c.h ****   * @rmtoll ISR          TXE           LL_I2C_ClearFlag_TXE
1784:../../dependencies/STM32CubeL0/Drivers/STM32L0xx_HAL_Driver/Inc/stm32l0xx_ll_i2c.h ****   * @param  I2Cx I2C Instance.
1785:../../dependencies/STM32CubeL0/Drivers/STM32L0xx_HAL_Driver/Inc/stm32l0xx_ll_i2c.h ****   * @retval None
1786:../../dependencies/STM32CubeL0/Drivers/STM32L0xx_HAL_Driver/Inc/stm32l0xx_ll_i2c.h ****   */
1787:../../dependencies/STM32CubeL0/Drivers/STM32L0xx_HAL_Driver/Inc/stm32l0xx_ll_i2c.h **** __STATIC_INLINE void LL_I2C_ClearFlag_TXE(I2C_TypeDef *I2Cx)
1788:../../dependencies/STM32CubeL0/Drivers/STM32L0xx_HAL_Driver/Inc/stm32l0xx_ll_i2c.h **** {
1789:../../dependencies/STM32CubeL0/Drivers/STM32L0xx_HAL_Driver/Inc/stm32l0xx_ll_i2c.h ****   WRITE_REG(I2Cx->ISR, I2C_ISR_TXE);
1790:../../dependencies/STM32CubeL0/Drivers/STM32L0xx_HAL_Driver/Inc/stm32l0xx_ll_i2c.h **** }
1791:../../dependencies/STM32CubeL0/Drivers/STM32L0xx_HAL_Driver/Inc/stm32l0xx_ll_i2c.h **** 
1792:../../dependencies/STM32CubeL0/Drivers/STM32L0xx_HAL_Driver/Inc/stm32l0xx_ll_i2c.h **** /**
1793:../../dependencies/STM32CubeL0/Drivers/STM32L0xx_HAL_Driver/Inc/stm32l0xx_ll_i2c.h ****   * @brief  Clear Bus error flag.
1794:../../dependencies/STM32CubeL0/Drivers/STM32L0xx_HAL_Driver/Inc/stm32l0xx_ll_i2c.h ****   * @rmtoll ICR          BERRCF        LL_I2C_ClearFlag_BERR
