ARM GAS  /var/folders/fs/dxwfnrqj18z860lwl3d6f5t00000gn/T//cc8pDVhm.s 			page 1


   1              		.cpu cortex-m0plus
   2              		.eabi_attribute 20, 1
   3              		.eabi_attribute 21, 1
   4              		.eabi_attribute 23, 3
   5              		.eabi_attribute 24, 1
   6              		.eabi_attribute 25, 1
   7              		.eabi_attribute 26, 1
   8              		.eabi_attribute 30, 6
   9              		.eabi_attribute 34, 0
  10              		.eabi_attribute 18, 4
  11              		.file	"logger.c"
  12              		.text
  13              	.Ltext0:
  14              		.cfi_sections	.debug_frame
  15              		.section	.text.logger_write,"ax",%progbits
  16              		.align	1
  17              		.global	logger_write
  18              		.arch armv6s-m
  19              		.syntax unified
  20              		.code	16
  21              		.thumb_func
  22              		.fpu softvfp
  24              	logger_write:
  25              	.LFB3:
  26              		.file 1 "logger.c"
   1:logger.c      **** #include "logger.h"
   2:logger.c      **** #include "log_uart.h"
   3:logger.c      **** 
   4:logger.c      **** #include <string.h>
   5:logger.c      **** 
   6:logger.c      **** void logger_write(char *string)
   7:logger.c      **** {
  27              		.loc 1 7 1
  28              		.cfi_startproc
  29              		@ args = 0, pretend = 0, frame = 16
  30              		@ frame_needed = 1, uses_anonymous_args = 0
  31 0000 80B5     		push	{r7, lr}
  32              		.cfi_def_cfa_offset 8
  33              		.cfi_offset 7, -8
  34              		.cfi_offset 14, -4
  35 0002 84B0     		sub	sp, sp, #16
  36              		.cfi_def_cfa_offset 24
  37 0004 00AF     		add	r7, sp, #0
  38              		.cfi_def_cfa_register 7
  39 0006 7860     		str	r0, [r7, #4]
   8:logger.c      ****   size_t length = strlen(string);
  40              		.loc 1 8 19
  41 0008 7B68     		ldr	r3, [r7, #4]
  42 000a 1800     		movs	r0, r3
  43 000c FFF7FEFF 		bl	strlen
  44 0010 0300     		movs	r3, r0
  45 0012 FB60     		str	r3, [r7, #12]
   9:logger.c      **** 
  10:logger.c      ****   if (length > LOG_UART_TX_BUFFER_SIZE) {
  46              		.loc 1 10 6
  47 0014 FA68     		ldr	r2, [r7, #12]
  48 0016 8023     		movs	r3, #128
ARM GAS  /var/folders/fs/dxwfnrqj18z860lwl3d6f5t00000gn/T//cc8pDVhm.s 			page 2


  49 0018 9B00     		lsls	r3, r3, #2
  50 001a 9A42     		cmp	r2, r3
  51 001c 05D9     		bls	.L2
  11:logger.c      ****     string[length - 1] = '\0';
  52              		.loc 1 11 11
  53 001e FB68     		ldr	r3, [r7, #12]
  54 0020 013B     		subs	r3, r3, #1
  55 0022 7A68     		ldr	r2, [r7, #4]
  56 0024 D318     		adds	r3, r2, r3
  57              		.loc 1 11 24
  58 0026 0022     		movs	r2, #0
  59 0028 1A70     		strb	r2, [r3]
  60              	.L2:
  12:logger.c      ****   }
  13:logger.c      **** 
  14:logger.c      ****   log_uart_write((uint8_t *) string, (uint32_t) length);
  61              		.loc 1 14 3
  62 002a FA68     		ldr	r2, [r7, #12]
  63 002c 7B68     		ldr	r3, [r7, #4]
  64 002e 1100     		movs	r1, r2
  65 0030 1800     		movs	r0, r3
  66 0032 FFF7FEFF 		bl	log_uart_write
  15:logger.c      **** 
  16:logger.c      **** #if LOG_MODE_BLOCKING
  17:logger.c      ****   while (log_uart_is_writing());
  67              		.loc 1 17 9
  68 0036 C046     		nop
  69              	.L3:
  70              		.loc 1 17 10 discriminator 1
  71 0038 FFF7FEFF 		bl	log_uart_is_writing
  72 003c 031E     		subs	r3, r0, #0
  73              		.loc 1 17 9 discriminator 1
  74 003e FBD1     		bne	.L3
  18:logger.c      **** #endif // LOG_MODE_BLOCKING
  19:logger.c      **** }
  75              		.loc 1 19 1
  76 0040 C046     		nop
  77 0042 C046     		nop
  78 0044 BD46     		mov	sp, r7
  79 0046 04B0     		add	sp, sp, #16
  80              		@ sp needed
  81 0048 80BD     		pop	{r7, pc}
  82              		.cfi_endproc
  83              	.LFE3:
  85              		.text
  86              	.Letext0:
  87              		.file 2 "/Applications/ARM/arm-none-eabi/include/machine/_default_types.h"
  88              		.file 3 "/Applications/ARM/lib/gcc/arm-none-eabi/10.2.1/include/stddef.h"
  89              		.file 4 "/Applications/ARM/arm-none-eabi/include/sys/_stdint.h"
ARM GAS  /var/folders/fs/dxwfnrqj18z860lwl3d6f5t00000gn/T//cc8pDVhm.s 			page 3


DEFINED SYMBOLS
                            *ABS*:0000000000000000 logger.c
/var/folders/fs/dxwfnrqj18z860lwl3d6f5t00000gn/T//cc8pDVhm.s:16     .text.logger_write:0000000000000000 $t
/var/folders/fs/dxwfnrqj18z860lwl3d6f5t00000gn/T//cc8pDVhm.s:24     .text.logger_write:0000000000000000 logger_write
                           .group:0000000000000000 wm4.0.a3d41f74abc56016cdc4c153f9dbdba1
                           .group:0000000000000000 wm4._newlib_version.h.4.1ef4e12f167f8b69d7c30054be56050d
                           .group:0000000000000000 wm4.newlib.h.18.1c9fedb6b3cd797cff253cc0fd593ef2
                           .group:0000000000000000 wm4.ieeefp.h.77.f33a4dce62116f6f5175ff8bae57a54c
                           .group:0000000000000000 wm4.features.h.22.fad1cec3bc7ff06488171438dbdcfd02
                           .group:0000000000000000 wm4.config.h.224.c701144a7b0518c6ee9b9b5465b79f81
                           .group:0000000000000000 wm4._ansi.h.31.de524f58584151836e90d8620a16f8e8
                           .group:0000000000000000 wm4.stdio.h.31.7c0e28c411445f3f9c5b11accf882760
                           .group:0000000000000000 wm4._default_types.h.6.959254cf5f09734ea7516c89e8bb21bd
                           .group:0000000000000000 wm4.stddef.h.181.c3f52a3b0f4c288bddb5dda1562858e2
                           .group:0000000000000000 wm4.cdefs.h.49.75c8cf0da02add7669d4e6b77e254feb
                           .group:0000000000000000 wm4.stddef.h.39.b727a6c3269d9d6ef9fc646b721a8287
                           .group:0000000000000000 wm4.stdarg.h.34.3a23a216c0c293b3d2ea2e89281481e6
                           .group:0000000000000000 wm4._types.h.20.dd0d04dca3800a0d2a6129b87f3adbb2
                           .group:0000000000000000 wm4.stddef.h.155.3588ebfdd1e8c7ede80509bb9c3b8009
                           .group:0000000000000000 wm4._types.h.127.34941de1b2539d59d5cac00e0dd27a45
                           .group:0000000000000000 wm4.reent.h.17.e292bf8b0bec6c96e131a54347145a30
                           .group:0000000000000000 wm4.lock.h.2.1461d1fff82dffe8bfddc23307f6484f
                           .group:0000000000000000 wm4.reent.h.77.dcd6129ff07fe81bd5636db29abe53b2
                           .group:0000000000000000 wm4.types.h.40.8b6acba56cefbb11746718204edc8f5e
                           .group:0000000000000000 wm4._stdint.h.10.c24fa3af3bc1706662bb5593a907e841
                           .group:0000000000000000 wm4._endian.h.31.65a10590763c3dde1ac4a7f66d7d4891
                           .group:0000000000000000 wm4.endian.h.9.49f3a4695c1b61e8a0808de3c4a106cb
                           .group:0000000000000000 wm4._timeval.h.32.bec3221fa7a9bb0bdde696c9c57e47d2
                           .group:0000000000000000 wm4.timespec.h.41.d855182eb0e690443ab8651bcedca6e1
                           .group:0000000000000000 wm4.select.h.19.97ca6fd0c752a0f3b6719fd314d361e6
                           .group:0000000000000000 wm4.types.h.51.5571ec98f267d17d3c670b7a3ba33afa
                           .group:0000000000000000 wm4.sched.h.22.c60982713a5c428609783c78f9c78d95
                           .group:0000000000000000 wm4._pthreadtypes.h.36.fcee9961c35163dde6267ef772ad1972
                           .group:0000000000000000 wm4.stdio.h.2.4aa87247282eca6c8f36f9de33d8df1a
                           .group:0000000000000000 wm4.stdio.h.81.932d0c162786b883f622b8d05c120c78
                           .group:0000000000000000 wm4.logger.h.8.8a6564f2814be69da4236f440d33cbee
                           .group:0000000000000000 wm4._intsup.h.10.48bafbb683905c4daa4565a85aeeb264
                           .group:0000000000000000 wm4.stdint.h.23.d53047a68f4a85177f80b422d52785ed
                           .group:0000000000000000 wm4.stdbool.h.29.07dce69c3b78884144b7f7bd19483461
                           .group:0000000000000000 wm4.log_uart.h.7.66d446d64feacee5b32ce31b9df1e791
                           .group:0000000000000000 wm4.string.h.8.c4b8571ce60dff2817f43fec8b86aecd
                           .group:0000000000000000 wm4.stddef.h.155.ba788add86a0e365f264484f110c3c29

UNDEFINED SYMBOLS
strlen
log_uart_write
log_uart_is_writing
