ARM GAS  /var/folders/fs/dxwfnrqj18z860lwl3d6f5t00000gn/T//cc8pDVhm.s 			page 1


   1              		.cpu cortex-m0plus
   2              		.eabi_attribute 20, 1
   3              		.eabi_attribute 21, 1
   4              		.eabi_attribute 23, 3
   5              		.eabi_attribute 24, 1
   6              		.eabi_attribute 25, 1
   7              		.eabi_attribute 26, 1
   8              		.eabi_attribute 30, 6
   9              		.eabi_attribute 34, 0
  10              		.eabi_attribute 18, 4
  11              		.file	"logger.c"
  12              		.text
  13              	.Ltext0:
  14              		.cfi_sections	.debug_frame
  15              		.section	.text.logger_write,"ax",%progbits
  16              		.align	1
  17              		.global	logger_write
  18              		.arch armv6s-m
  19              		.syntax unified
  20              		.code	16
  21              		.thumb_func
  22              		.fpu softvfp
  24              	logger_write:
  25              	.LFB3:
  26              		.file 1 "logger.c"
   1:logger.c      **** #include "logger.h"
   2:logger.c      **** #include "log_uart.h"
   3:logger.c      **** 
   4:logger.c      **** #include <string.h>
   5:logger.c      **** 
   6:logger.c      **** void logger_write(char *string)
   7:logger.c      **** {
  27              		.loc 1 7 1
  28              		.cfi_startproc
  29              		@ args = 0, pretend = 0, frame = 16
  30              		@ frame_needed = 1, uses_anonymous_args = 0
  31 0000 80B5     		push	{r7, lr}
  32              		.cfi_def_cfa_offset 8
  33              		.cfi_offset 7, -8
  34              		.cfi_offset 14, -4
  35 0002 84B0     		sub	sp, sp, #16
  36              		.cfi_def_cfa_offset 24
  37 0004 00AF     		add	r7, sp, #0
  38              		.cfi_def_cfa_register 7
  39 0006 7860     		str	r0, [r7, #4]
   8:logger.c      ****   size_t length = strlen(string);
  40              		.loc 1 8 19
  41 0008 7B68     		ldr	r3, [r7, #4]
  42 000a 1800     		movs	r0, r3
  43 000c FFF7FEFF 		bl	strlen
  44 0010 0300     		movs	r3, r0
  45 0012 FB60     		str	r3, [r7, #12]
   9:logger.c      **** 
  10:logger.c      ****   if (length > LOG_UART_TX_BUFFER_SIZE) {
  46              		.loc 1 10 6
  47 0014 FA68     		ldr	r2, [r7, #12]
  48 0016 8023     		movs	r3, #128
ARM GAS  /var/folders/fs/dxwfnrqj18z860lwl3d6f5t00000gn/T//cc8pDVhm.s 			page 2


  49 0018 9B00     		lsls	r3, r3, #2
  50 001a 9A42     		cmp	r2, r3
  51 001c 05D9     		bls	.L2
  11:logger.c      ****     string[length - 1] = '\0';
  52              		.loc 1 11 11
  53 001e FB68     		ldr	r3, [r7, #12]
  54 0020 013B     		subs	r3, r3, #1
  55 0022 7A68     		ldr	r2, [r7, #4]
  56 0024 D318     		adds	r3, r2, r3
  57              		.loc 1 11 24
  58 0026 0022     		movs	r2, #0
  59 0028 1A70     		strb	r2, [r3]
  60              	.L2:
  12:logger.c      ****   }
  13:logger.c      **** 
  14:logger.c      ****   log_uart_write((uint8_t *) string, (uint32_t) length);
  61              		.loc 1 14 3
  62 002a FA68     		ldr	r2, [r7, #12]
  63 002c 7B68     		ldr	r3, [r7, #4]
  64 002e 1100     		movs	r1, r2
  65 0030 1800     		movs	r0, r3
  66 0032 FFF7FEFF 		bl	log_uart_write
  15:logger.c      **** 
  16:logger.c      **** #if LOG_MODE_BLOCKING
  17:logger.c      ****   while (log_uart_is_writing());
  67              		.loc 1 17 9
  68 0036 C046     		nop
  69              	.L3:
  70              		.loc 1 17 10 discriminator 1
  71 0038 FFF7FEFF 		bl	log_uart_is_writing
  72 003c 031E     		subs	r3, r0, #0
  73              		.loc 1 17 9 discriminator 1
  74 003e FBD1     		bne	.L3
  18:logger.c      **** #endif // LOG_MODE_BLOCKING
  19:logger.c      **** }
  75              		.loc 1 19 1
  76 0040 C046     		nop
  77 0042 C046     		nop
  78 0044 BD46     		mov	sp, r7
  79 0046 04B0     		add	sp, sp, #16
  80              		@ sp needed
  81 0048 80BD     		pop	{r7, pc}
  82              		.cfi_endproc
  83              	.LFE3:
  85              		.text
  86              	.Letext0:
  87              		.file 2 "/Applications/ARM/arm-none-eabi/include/machine/_default_types.h"
  88              		.file 3 "/Applications/ARM/lib/gcc/arm-none-eabi/10.2.1/include/stddef.h"
  89              		.file 4 "/Applications/ARM/arm-none-eabi/include/sys/_stdint.h"
ARM GAS  /var/folders/fs/dxwfnrqj18z860lwl3d6f5t00000gn/T//cc8pDVhm.s 			page 3

