ARM GAS  /var/folders/fs/dxwfnrqj18z860lwl3d6f5t00000gn/T//ccABuIkd.s 			page 1


   1              		.cpu cortex-m0plus
   2              		.eabi_attribute 20, 1
   3              		.eabi_attribute 21, 1
   4              		.eabi_attribute 23, 3
   5              		.eabi_attribute 24, 1
   6              		.eabi_attribute 25, 1
   7              		.eabi_attribute 26, 1
   8              		.eabi_attribute 30, 6
   9              		.eabi_attribute 34, 0
  10              		.eabi_attribute 18, 4
  11              		.file	"stm32l0xx_ll_usart.c"
  12              		.text
  13              	.Ltext0:
  14              		.cfi_sections	.debug_frame
  15              		.section	.text.LL_USART_IsEnabled,"ax",%progbits
  16              		.align	1
  17              		.arch armv6s-m
  18              		.syntax unified
  19              		.code	16
  20              		.thumb_func
  21              		.fpu softvfp
  23              	LL_USART_IsEnabled:
  24              	.LFB49:
  25              		.file 1 "../../dependencies/STM32CubeL0/Drivers/STM32L0xx_HAL_Driver/Inc/stm32l0xx_ll_usart.h"
   1:../../dependencies/STM32CubeL0/Drivers/STM32L0xx_HAL_Driver/Inc/stm32l0xx_ll_usart.h **** /**
   2:../../dependencies/STM32CubeL0/Drivers/STM32L0xx_HAL_Driver/Inc/stm32l0xx_ll_usart.h ****   ******************************************************************************
   3:../../dependencies/STM32CubeL0/Drivers/STM32L0xx_HAL_Driver/Inc/stm32l0xx_ll_usart.h ****   * @file    stm32l0xx_ll_usart.h
   4:../../dependencies/STM32CubeL0/Drivers/STM32L0xx_HAL_Driver/Inc/stm32l0xx_ll_usart.h ****   * @author  MCD Application Team
   5:../../dependencies/STM32CubeL0/Drivers/STM32L0xx_HAL_Driver/Inc/stm32l0xx_ll_usart.h ****   * @brief   Header file of USART LL module.
   6:../../dependencies/STM32CubeL0/Drivers/STM32L0xx_HAL_Driver/Inc/stm32l0xx_ll_usart.h ****   ******************************************************************************
   7:../../dependencies/STM32CubeL0/Drivers/STM32L0xx_HAL_Driver/Inc/stm32l0xx_ll_usart.h ****   * @attention
   8:../../dependencies/STM32CubeL0/Drivers/STM32L0xx_HAL_Driver/Inc/stm32l0xx_ll_usart.h ****   *
   9:../../dependencies/STM32CubeL0/Drivers/STM32L0xx_HAL_Driver/Inc/stm32l0xx_ll_usart.h ****   * <h2><center>&copy; Copyright (c) 2016 STMicroelectronics.
  10:../../dependencies/STM32CubeL0/Drivers/STM32L0xx_HAL_Driver/Inc/stm32l0xx_ll_usart.h ****   * All rights reserved.</center></h2>
  11:../../dependencies/STM32CubeL0/Drivers/STM32L0xx_HAL_Driver/Inc/stm32l0xx_ll_usart.h ****   *
  12:../../dependencies/STM32CubeL0/Drivers/STM32L0xx_HAL_Driver/Inc/stm32l0xx_ll_usart.h ****   * This software component is licensed by ST under BSD 3-Clause license,
  13:../../dependencies/STM32CubeL0/Drivers/STM32L0xx_HAL_Driver/Inc/stm32l0xx_ll_usart.h ****   * the "License"; You may not use this file except in compliance with the
  14:../../dependencies/STM32CubeL0/Drivers/STM32L0xx_HAL_Driver/Inc/stm32l0xx_ll_usart.h ****   * License. You may obtain a copy of the License at:
  15:../../dependencies/STM32CubeL0/Drivers/STM32L0xx_HAL_Driver/Inc/stm32l0xx_ll_usart.h ****   *                        opensource.org/licenses/BSD-3-Clause
  16:../../dependencies/STM32CubeL0/Drivers/STM32L0xx_HAL_Driver/Inc/stm32l0xx_ll_usart.h ****   *
  17:../../dependencies/STM32CubeL0/Drivers/STM32L0xx_HAL_Driver/Inc/stm32l0xx_ll_usart.h ****   ******************************************************************************
  18:../../dependencies/STM32CubeL0/Drivers/STM32L0xx_HAL_Driver/Inc/stm32l0xx_ll_usart.h ****   */
  19:../../dependencies/STM32CubeL0/Drivers/STM32L0xx_HAL_Driver/Inc/stm32l0xx_ll_usart.h **** 
  20:../../dependencies/STM32CubeL0/Drivers/STM32L0xx_HAL_Driver/Inc/stm32l0xx_ll_usart.h **** /* Define to prevent recursive inclusion -------------------------------------*/
  21:../../dependencies/STM32CubeL0/Drivers/STM32L0xx_HAL_Driver/Inc/stm32l0xx_ll_usart.h **** #ifndef STM32L0xx_LL_USART_H
  22:../../dependencies/STM32CubeL0/Drivers/STM32L0xx_HAL_Driver/Inc/stm32l0xx_ll_usart.h **** #define STM32L0xx_LL_USART_H
  23:../../dependencies/STM32CubeL0/Drivers/STM32L0xx_HAL_Driver/Inc/stm32l0xx_ll_usart.h **** 
  24:../../dependencies/STM32CubeL0/Drivers/STM32L0xx_HAL_Driver/Inc/stm32l0xx_ll_usart.h **** #ifdef __cplusplus
  25:../../dependencies/STM32CubeL0/Drivers/STM32L0xx_HAL_Driver/Inc/stm32l0xx_ll_usart.h **** extern "C" {
  26:../../dependencies/STM32CubeL0/Drivers/STM32L0xx_HAL_Driver/Inc/stm32l0xx_ll_usart.h **** #endif
  27:../../dependencies/STM32CubeL0/Drivers/STM32L0xx_HAL_Driver/Inc/stm32l0xx_ll_usart.h **** 
  28:../../dependencies/STM32CubeL0/Drivers/STM32L0xx_HAL_Driver/Inc/stm32l0xx_ll_usart.h **** /* Includes ------------------------------------------------------------------*/
  29:../../dependencies/STM32CubeL0/Drivers/STM32L0xx_HAL_Driver/Inc/stm32l0xx_ll_usart.h **** #include "stm32l0xx.h"
  30:../../dependencies/STM32CubeL0/Drivers/STM32L0xx_HAL_Driver/Inc/stm32l0xx_ll_usart.h **** 
  31:../../dependencies/STM32CubeL0/Drivers/STM32L0xx_HAL_Driver/Inc/stm32l0xx_ll_usart.h **** /** @addtogroup STM32L0xx_LL_Driver
  32:../../dependencies/STM32CubeL0/Drivers/STM32L0xx_HAL_Driver/Inc/stm32l0xx_ll_usart.h ****   * @{
  33:../../dependencies/STM32CubeL0/Drivers/STM32L0xx_HAL_Driver/Inc/stm32l0xx_ll_usart.h ****   */
ARM GAS  /var/folders/fs/dxwfnrqj18z860lwl3d6f5t00000gn/T//ccABuIkd.s 			page 2


  34:../../dependencies/STM32CubeL0/Drivers/STM32L0xx_HAL_Driver/Inc/stm32l0xx_ll_usart.h **** 
  35:../../dependencies/STM32CubeL0/Drivers/STM32L0xx_HAL_Driver/Inc/stm32l0xx_ll_usart.h **** #if defined (USART1) || defined (USART2) || defined (USART4) || defined (USART5)
  36:../../dependencies/STM32CubeL0/Drivers/STM32L0xx_HAL_Driver/Inc/stm32l0xx_ll_usart.h **** 
  37:../../dependencies/STM32CubeL0/Drivers/STM32L0xx_HAL_Driver/Inc/stm32l0xx_ll_usart.h **** /** @defgroup USART_LL USART
  38:../../dependencies/STM32CubeL0/Drivers/STM32L0xx_HAL_Driver/Inc/stm32l0xx_ll_usart.h ****   * @{
  39:../../dependencies/STM32CubeL0/Drivers/STM32L0xx_HAL_Driver/Inc/stm32l0xx_ll_usart.h ****   */
  40:../../dependencies/STM32CubeL0/Drivers/STM32L0xx_HAL_Driver/Inc/stm32l0xx_ll_usart.h **** 
  41:../../dependencies/STM32CubeL0/Drivers/STM32L0xx_HAL_Driver/Inc/stm32l0xx_ll_usart.h **** /* Private types -------------------------------------------------------------*/
  42:../../dependencies/STM32CubeL0/Drivers/STM32L0xx_HAL_Driver/Inc/stm32l0xx_ll_usart.h **** /* Private variables ---------------------------------------------------------*/
  43:../../dependencies/STM32CubeL0/Drivers/STM32L0xx_HAL_Driver/Inc/stm32l0xx_ll_usart.h **** 
  44:../../dependencies/STM32CubeL0/Drivers/STM32L0xx_HAL_Driver/Inc/stm32l0xx_ll_usart.h **** /* Private constants ---------------------------------------------------------*/
  45:../../dependencies/STM32CubeL0/Drivers/STM32L0xx_HAL_Driver/Inc/stm32l0xx_ll_usart.h **** /* Private macros ------------------------------------------------------------*/
  46:../../dependencies/STM32CubeL0/Drivers/STM32L0xx_HAL_Driver/Inc/stm32l0xx_ll_usart.h **** #if defined(USE_FULL_LL_DRIVER)
  47:../../dependencies/STM32CubeL0/Drivers/STM32L0xx_HAL_Driver/Inc/stm32l0xx_ll_usart.h **** /** @defgroup USART_LL_Private_Macros USART Private Macros
  48:../../dependencies/STM32CubeL0/Drivers/STM32L0xx_HAL_Driver/Inc/stm32l0xx_ll_usart.h ****   * @{
  49:../../dependencies/STM32CubeL0/Drivers/STM32L0xx_HAL_Driver/Inc/stm32l0xx_ll_usart.h ****   */
  50:../../dependencies/STM32CubeL0/Drivers/STM32L0xx_HAL_Driver/Inc/stm32l0xx_ll_usart.h **** /**
  51:../../dependencies/STM32CubeL0/Drivers/STM32L0xx_HAL_Driver/Inc/stm32l0xx_ll_usart.h ****   * @}
  52:../../dependencies/STM32CubeL0/Drivers/STM32L0xx_HAL_Driver/Inc/stm32l0xx_ll_usart.h ****   */
  53:../../dependencies/STM32CubeL0/Drivers/STM32L0xx_HAL_Driver/Inc/stm32l0xx_ll_usart.h **** #endif /*USE_FULL_LL_DRIVER*/
  54:../../dependencies/STM32CubeL0/Drivers/STM32L0xx_HAL_Driver/Inc/stm32l0xx_ll_usart.h **** 
  55:../../dependencies/STM32CubeL0/Drivers/STM32L0xx_HAL_Driver/Inc/stm32l0xx_ll_usart.h **** /* Exported types ------------------------------------------------------------*/
  56:../../dependencies/STM32CubeL0/Drivers/STM32L0xx_HAL_Driver/Inc/stm32l0xx_ll_usart.h **** #if defined(USE_FULL_LL_DRIVER)
  57:../../dependencies/STM32CubeL0/Drivers/STM32L0xx_HAL_Driver/Inc/stm32l0xx_ll_usart.h **** /** @defgroup USART_LL_ES_INIT USART Exported Init structures
  58:../../dependencies/STM32CubeL0/Drivers/STM32L0xx_HAL_Driver/Inc/stm32l0xx_ll_usart.h ****   * @{
  59:../../dependencies/STM32CubeL0/Drivers/STM32L0xx_HAL_Driver/Inc/stm32l0xx_ll_usart.h ****   */
  60:../../dependencies/STM32CubeL0/Drivers/STM32L0xx_HAL_Driver/Inc/stm32l0xx_ll_usart.h **** 
  61:../../dependencies/STM32CubeL0/Drivers/STM32L0xx_HAL_Driver/Inc/stm32l0xx_ll_usart.h **** /**
  62:../../dependencies/STM32CubeL0/Drivers/STM32L0xx_HAL_Driver/Inc/stm32l0xx_ll_usart.h ****   * @brief LL USART Init Structure definition
  63:../../dependencies/STM32CubeL0/Drivers/STM32L0xx_HAL_Driver/Inc/stm32l0xx_ll_usart.h ****   */
  64:../../dependencies/STM32CubeL0/Drivers/STM32L0xx_HAL_Driver/Inc/stm32l0xx_ll_usart.h **** typedef struct
  65:../../dependencies/STM32CubeL0/Drivers/STM32L0xx_HAL_Driver/Inc/stm32l0xx_ll_usart.h **** {
  66:../../dependencies/STM32CubeL0/Drivers/STM32L0xx_HAL_Driver/Inc/stm32l0xx_ll_usart.h **** 
  67:../../dependencies/STM32CubeL0/Drivers/STM32L0xx_HAL_Driver/Inc/stm32l0xx_ll_usart.h ****   uint32_t BaudRate;                  /*!< This field defines expected Usart communication baud rat
  68:../../dependencies/STM32CubeL0/Drivers/STM32L0xx_HAL_Driver/Inc/stm32l0xx_ll_usart.h **** 
  69:../../dependencies/STM32CubeL0/Drivers/STM32L0xx_HAL_Driver/Inc/stm32l0xx_ll_usart.h ****                                            This feature can be modified afterwards using unitary
  70:../../dependencies/STM32CubeL0/Drivers/STM32L0xx_HAL_Driver/Inc/stm32l0xx_ll_usart.h ****                                            function @ref LL_USART_SetBaudRate().*/
  71:../../dependencies/STM32CubeL0/Drivers/STM32L0xx_HAL_Driver/Inc/stm32l0xx_ll_usart.h **** 
  72:../../dependencies/STM32CubeL0/Drivers/STM32L0xx_HAL_Driver/Inc/stm32l0xx_ll_usart.h ****   uint32_t DataWidth;                 /*!< Specifies the number of data bits transmitted or receive
  73:../../dependencies/STM32CubeL0/Drivers/STM32L0xx_HAL_Driver/Inc/stm32l0xx_ll_usart.h ****                                            This parameter can be a value of @ref USART_LL_EC_DATAWI
  74:../../dependencies/STM32CubeL0/Drivers/STM32L0xx_HAL_Driver/Inc/stm32l0xx_ll_usart.h **** 
  75:../../dependencies/STM32CubeL0/Drivers/STM32L0xx_HAL_Driver/Inc/stm32l0xx_ll_usart.h ****                                            This feature can be modified afterwards using unitary
  76:../../dependencies/STM32CubeL0/Drivers/STM32L0xx_HAL_Driver/Inc/stm32l0xx_ll_usart.h ****                                            function @ref LL_USART_SetDataWidth().*/
  77:../../dependencies/STM32CubeL0/Drivers/STM32L0xx_HAL_Driver/Inc/stm32l0xx_ll_usart.h **** 
  78:../../dependencies/STM32CubeL0/Drivers/STM32L0xx_HAL_Driver/Inc/stm32l0xx_ll_usart.h ****   uint32_t StopBits;                  /*!< Specifies the number of stop bits transmitted.
  79:../../dependencies/STM32CubeL0/Drivers/STM32L0xx_HAL_Driver/Inc/stm32l0xx_ll_usart.h ****                                            This parameter can be a value of @ref USART_LL_EC_STOPBI
  80:../../dependencies/STM32CubeL0/Drivers/STM32L0xx_HAL_Driver/Inc/stm32l0xx_ll_usart.h **** 
  81:../../dependencies/STM32CubeL0/Drivers/STM32L0xx_HAL_Driver/Inc/stm32l0xx_ll_usart.h ****                                            This feature can be modified afterwards using unitary
  82:../../dependencies/STM32CubeL0/Drivers/STM32L0xx_HAL_Driver/Inc/stm32l0xx_ll_usart.h ****                                            function @ref LL_USART_SetStopBitsLength().*/
  83:../../dependencies/STM32CubeL0/Drivers/STM32L0xx_HAL_Driver/Inc/stm32l0xx_ll_usart.h **** 
  84:../../dependencies/STM32CubeL0/Drivers/STM32L0xx_HAL_Driver/Inc/stm32l0xx_ll_usart.h ****   uint32_t Parity;                    /*!< Specifies the parity mode.
  85:../../dependencies/STM32CubeL0/Drivers/STM32L0xx_HAL_Driver/Inc/stm32l0xx_ll_usart.h ****                                            This parameter can be a value of @ref USART_LL_EC_PARITY
  86:../../dependencies/STM32CubeL0/Drivers/STM32L0xx_HAL_Driver/Inc/stm32l0xx_ll_usart.h **** 
  87:../../dependencies/STM32CubeL0/Drivers/STM32L0xx_HAL_Driver/Inc/stm32l0xx_ll_usart.h ****                                            This feature can be modified afterwards using unitary
  88:../../dependencies/STM32CubeL0/Drivers/STM32L0xx_HAL_Driver/Inc/stm32l0xx_ll_usart.h ****                                            function @ref LL_USART_SetParity().*/
  89:../../dependencies/STM32CubeL0/Drivers/STM32L0xx_HAL_Driver/Inc/stm32l0xx_ll_usart.h **** 
  90:../../dependencies/STM32CubeL0/Drivers/STM32L0xx_HAL_Driver/Inc/stm32l0xx_ll_usart.h ****   uint32_t TransferDirection;         /*!< Specifies whether the Receive and/or Transmit mode is en
ARM GAS  /var/folders/fs/dxwfnrqj18z860lwl3d6f5t00000gn/T//ccABuIkd.s 			page 3


  91:../../dependencies/STM32CubeL0/Drivers/STM32L0xx_HAL_Driver/Inc/stm32l0xx_ll_usart.h ****                                            This parameter can be a value of @ref USART_LL_EC_DIRECT
  92:../../dependencies/STM32CubeL0/Drivers/STM32L0xx_HAL_Driver/Inc/stm32l0xx_ll_usart.h **** 
  93:../../dependencies/STM32CubeL0/Drivers/STM32L0xx_HAL_Driver/Inc/stm32l0xx_ll_usart.h ****                                            This feature can be modified afterwards using unitary
  94:../../dependencies/STM32CubeL0/Drivers/STM32L0xx_HAL_Driver/Inc/stm32l0xx_ll_usart.h ****                                            function @ref LL_USART_SetTransferDirection().*/
  95:../../dependencies/STM32CubeL0/Drivers/STM32L0xx_HAL_Driver/Inc/stm32l0xx_ll_usart.h **** 
  96:../../dependencies/STM32CubeL0/Drivers/STM32L0xx_HAL_Driver/Inc/stm32l0xx_ll_usart.h ****   uint32_t HardwareFlowControl;       /*!< Specifies whether the hardware flow control mode is enab
  97:../../dependencies/STM32CubeL0/Drivers/STM32L0xx_HAL_Driver/Inc/stm32l0xx_ll_usart.h ****                                            This parameter can be a value of @ref USART_LL_EC_HWCONT
  98:../../dependencies/STM32CubeL0/Drivers/STM32L0xx_HAL_Driver/Inc/stm32l0xx_ll_usart.h **** 
  99:../../dependencies/STM32CubeL0/Drivers/STM32L0xx_HAL_Driver/Inc/stm32l0xx_ll_usart.h ****                                            This feature can be modified afterwards using unitary
 100:../../dependencies/STM32CubeL0/Drivers/STM32L0xx_HAL_Driver/Inc/stm32l0xx_ll_usart.h ****                                            function @ref LL_USART_SetHWFlowCtrl().*/
 101:../../dependencies/STM32CubeL0/Drivers/STM32L0xx_HAL_Driver/Inc/stm32l0xx_ll_usart.h **** 
 102:../../dependencies/STM32CubeL0/Drivers/STM32L0xx_HAL_Driver/Inc/stm32l0xx_ll_usart.h ****   uint32_t OverSampling;              /*!< Specifies whether USART oversampling mode is 16 or 8.
 103:../../dependencies/STM32CubeL0/Drivers/STM32L0xx_HAL_Driver/Inc/stm32l0xx_ll_usart.h ****                                            This parameter can be a value of @ref USART_LL_EC_OVERSA
 104:../../dependencies/STM32CubeL0/Drivers/STM32L0xx_HAL_Driver/Inc/stm32l0xx_ll_usart.h **** 
 105:../../dependencies/STM32CubeL0/Drivers/STM32L0xx_HAL_Driver/Inc/stm32l0xx_ll_usart.h ****                                            This feature can be modified afterwards using unitary
 106:../../dependencies/STM32CubeL0/Drivers/STM32L0xx_HAL_Driver/Inc/stm32l0xx_ll_usart.h ****                                            function @ref LL_USART_SetOverSampling().*/
 107:../../dependencies/STM32CubeL0/Drivers/STM32L0xx_HAL_Driver/Inc/stm32l0xx_ll_usart.h **** 
 108:../../dependencies/STM32CubeL0/Drivers/STM32L0xx_HAL_Driver/Inc/stm32l0xx_ll_usart.h **** } LL_USART_InitTypeDef;
 109:../../dependencies/STM32CubeL0/Drivers/STM32L0xx_HAL_Driver/Inc/stm32l0xx_ll_usart.h **** 
 110:../../dependencies/STM32CubeL0/Drivers/STM32L0xx_HAL_Driver/Inc/stm32l0xx_ll_usart.h **** /**
 111:../../dependencies/STM32CubeL0/Drivers/STM32L0xx_HAL_Driver/Inc/stm32l0xx_ll_usart.h ****   * @brief LL USART Clock Init Structure definition
 112:../../dependencies/STM32CubeL0/Drivers/STM32L0xx_HAL_Driver/Inc/stm32l0xx_ll_usart.h ****   */
 113:../../dependencies/STM32CubeL0/Drivers/STM32L0xx_HAL_Driver/Inc/stm32l0xx_ll_usart.h **** typedef struct
 114:../../dependencies/STM32CubeL0/Drivers/STM32L0xx_HAL_Driver/Inc/stm32l0xx_ll_usart.h **** {
 115:../../dependencies/STM32CubeL0/Drivers/STM32L0xx_HAL_Driver/Inc/stm32l0xx_ll_usart.h ****   uint32_t ClockOutput;               /*!< Specifies whether the USART clock is enabled or disabled
 116:../../dependencies/STM32CubeL0/Drivers/STM32L0xx_HAL_Driver/Inc/stm32l0xx_ll_usart.h ****                                            This parameter can be a value of @ref USART_LL_EC_CLOCK.
 117:../../dependencies/STM32CubeL0/Drivers/STM32L0xx_HAL_Driver/Inc/stm32l0xx_ll_usart.h **** 
 118:../../dependencies/STM32CubeL0/Drivers/STM32L0xx_HAL_Driver/Inc/stm32l0xx_ll_usart.h ****                                            USART HW configuration can be modified afterwards using 
 119:../../dependencies/STM32CubeL0/Drivers/STM32L0xx_HAL_Driver/Inc/stm32l0xx_ll_usart.h ****                                            @ref LL_USART_EnableSCLKOutput() or @ref LL_USART_Disabl
 120:../../dependencies/STM32CubeL0/Drivers/STM32L0xx_HAL_Driver/Inc/stm32l0xx_ll_usart.h ****                                            For more details, refer to description of this function.
 121:../../dependencies/STM32CubeL0/Drivers/STM32L0xx_HAL_Driver/Inc/stm32l0xx_ll_usart.h **** 
 122:../../dependencies/STM32CubeL0/Drivers/STM32L0xx_HAL_Driver/Inc/stm32l0xx_ll_usart.h ****   uint32_t ClockPolarity;             /*!< Specifies the steady state of the serial clock.
 123:../../dependencies/STM32CubeL0/Drivers/STM32L0xx_HAL_Driver/Inc/stm32l0xx_ll_usart.h ****                                            This parameter can be a value of @ref USART_LL_EC_POLARI
 124:../../dependencies/STM32CubeL0/Drivers/STM32L0xx_HAL_Driver/Inc/stm32l0xx_ll_usart.h **** 
 125:../../dependencies/STM32CubeL0/Drivers/STM32L0xx_HAL_Driver/Inc/stm32l0xx_ll_usart.h ****                                            USART HW configuration can be modified afterwards using 
 126:../../dependencies/STM32CubeL0/Drivers/STM32L0xx_HAL_Driver/Inc/stm32l0xx_ll_usart.h ****                                            functions @ref LL_USART_SetClockPolarity().
 127:../../dependencies/STM32CubeL0/Drivers/STM32L0xx_HAL_Driver/Inc/stm32l0xx_ll_usart.h ****                                            For more details, refer to description of this function.
 128:../../dependencies/STM32CubeL0/Drivers/STM32L0xx_HAL_Driver/Inc/stm32l0xx_ll_usart.h **** 
 129:../../dependencies/STM32CubeL0/Drivers/STM32L0xx_HAL_Driver/Inc/stm32l0xx_ll_usart.h ****   uint32_t ClockPhase;                /*!< Specifies the clock transition on which the bit capture 
 130:../../dependencies/STM32CubeL0/Drivers/STM32L0xx_HAL_Driver/Inc/stm32l0xx_ll_usart.h ****                                            This parameter can be a value of @ref USART_LL_EC_PHASE.
 131:../../dependencies/STM32CubeL0/Drivers/STM32L0xx_HAL_Driver/Inc/stm32l0xx_ll_usart.h **** 
 132:../../dependencies/STM32CubeL0/Drivers/STM32L0xx_HAL_Driver/Inc/stm32l0xx_ll_usart.h ****                                            USART HW configuration can be modified afterwards using 
 133:../../dependencies/STM32CubeL0/Drivers/STM32L0xx_HAL_Driver/Inc/stm32l0xx_ll_usart.h ****                                            functions @ref LL_USART_SetClockPhase().
 134:../../dependencies/STM32CubeL0/Drivers/STM32L0xx_HAL_Driver/Inc/stm32l0xx_ll_usart.h ****                                            For more details, refer to description of this function.
 135:../../dependencies/STM32CubeL0/Drivers/STM32L0xx_HAL_Driver/Inc/stm32l0xx_ll_usart.h **** 
 136:../../dependencies/STM32CubeL0/Drivers/STM32L0xx_HAL_Driver/Inc/stm32l0xx_ll_usart.h ****   uint32_t LastBitClockPulse;         /*!< Specifies whether the clock pulse corresponding to the l
 137:../../dependencies/STM32CubeL0/Drivers/STM32L0xx_HAL_Driver/Inc/stm32l0xx_ll_usart.h ****                                            data bit (MSB) has to be output on the SCLK pin in synch
 138:../../dependencies/STM32CubeL0/Drivers/STM32L0xx_HAL_Driver/Inc/stm32l0xx_ll_usart.h ****                                            This parameter can be a value of @ref USART_LL_EC_LASTCL
 139:../../dependencies/STM32CubeL0/Drivers/STM32L0xx_HAL_Driver/Inc/stm32l0xx_ll_usart.h **** 
 140:../../dependencies/STM32CubeL0/Drivers/STM32L0xx_HAL_Driver/Inc/stm32l0xx_ll_usart.h ****                                            USART HW configuration can be modified afterwards using 
 141:../../dependencies/STM32CubeL0/Drivers/STM32L0xx_HAL_Driver/Inc/stm32l0xx_ll_usart.h ****                                            functions @ref LL_USART_SetLastClkPulseOutput().
 142:../../dependencies/STM32CubeL0/Drivers/STM32L0xx_HAL_Driver/Inc/stm32l0xx_ll_usart.h ****                                            For more details, refer to description of this function.
 143:../../dependencies/STM32CubeL0/Drivers/STM32L0xx_HAL_Driver/Inc/stm32l0xx_ll_usart.h **** 
 144:../../dependencies/STM32CubeL0/Drivers/STM32L0xx_HAL_Driver/Inc/stm32l0xx_ll_usart.h **** } LL_USART_ClockInitTypeDef;
 145:../../dependencies/STM32CubeL0/Drivers/STM32L0xx_HAL_Driver/Inc/stm32l0xx_ll_usart.h **** 
 146:../../dependencies/STM32CubeL0/Drivers/STM32L0xx_HAL_Driver/Inc/stm32l0xx_ll_usart.h **** /**
 147:../../dependencies/STM32CubeL0/Drivers/STM32L0xx_HAL_Driver/Inc/stm32l0xx_ll_usart.h ****   * @}
ARM GAS  /var/folders/fs/dxwfnrqj18z860lwl3d6f5t00000gn/T//ccABuIkd.s 			page 4


 148:../../dependencies/STM32CubeL0/Drivers/STM32L0xx_HAL_Driver/Inc/stm32l0xx_ll_usart.h ****   */
 149:../../dependencies/STM32CubeL0/Drivers/STM32L0xx_HAL_Driver/Inc/stm32l0xx_ll_usart.h **** #endif /* USE_FULL_LL_DRIVER */
 150:../../dependencies/STM32CubeL0/Drivers/STM32L0xx_HAL_Driver/Inc/stm32l0xx_ll_usart.h **** 
 151:../../dependencies/STM32CubeL0/Drivers/STM32L0xx_HAL_Driver/Inc/stm32l0xx_ll_usart.h **** /* Exported constants --------------------------------------------------------*/
 152:../../dependencies/STM32CubeL0/Drivers/STM32L0xx_HAL_Driver/Inc/stm32l0xx_ll_usart.h **** /** @defgroup USART_LL_Exported_Constants USART Exported Constants
 153:../../dependencies/STM32CubeL0/Drivers/STM32L0xx_HAL_Driver/Inc/stm32l0xx_ll_usart.h ****   * @{
 154:../../dependencies/STM32CubeL0/Drivers/STM32L0xx_HAL_Driver/Inc/stm32l0xx_ll_usart.h ****   */
 155:../../dependencies/STM32CubeL0/Drivers/STM32L0xx_HAL_Driver/Inc/stm32l0xx_ll_usart.h **** 
 156:../../dependencies/STM32CubeL0/Drivers/STM32L0xx_HAL_Driver/Inc/stm32l0xx_ll_usart.h **** /** @defgroup USART_LL_EC_CLEAR_FLAG Clear Flags Defines
 157:../../dependencies/STM32CubeL0/Drivers/STM32L0xx_HAL_Driver/Inc/stm32l0xx_ll_usart.h ****   * @brief    Flags defines which can be used with LL_USART_WriteReg function
 158:../../dependencies/STM32CubeL0/Drivers/STM32L0xx_HAL_Driver/Inc/stm32l0xx_ll_usart.h ****   * @{
 159:../../dependencies/STM32CubeL0/Drivers/STM32L0xx_HAL_Driver/Inc/stm32l0xx_ll_usart.h ****   */
 160:../../dependencies/STM32CubeL0/Drivers/STM32L0xx_HAL_Driver/Inc/stm32l0xx_ll_usart.h **** #define LL_USART_ICR_PECF                       USART_ICR_PECF                /*!< Parity error cle
 161:../../dependencies/STM32CubeL0/Drivers/STM32L0xx_HAL_Driver/Inc/stm32l0xx_ll_usart.h **** #define LL_USART_ICR_FECF                       USART_ICR_FECF                /*!< Framing error cl
 162:../../dependencies/STM32CubeL0/Drivers/STM32L0xx_HAL_Driver/Inc/stm32l0xx_ll_usart.h **** #define LL_USART_ICR_NCF                        USART_ICR_NCF                 /*!< Noise error dete
 163:../../dependencies/STM32CubeL0/Drivers/STM32L0xx_HAL_Driver/Inc/stm32l0xx_ll_usart.h **** #define LL_USART_ICR_ORECF                      USART_ICR_ORECF               /*!< Overrun error cl
 164:../../dependencies/STM32CubeL0/Drivers/STM32L0xx_HAL_Driver/Inc/stm32l0xx_ll_usart.h **** #define LL_USART_ICR_IDLECF                     USART_ICR_IDLECF              /*!< Idle line detect
 165:../../dependencies/STM32CubeL0/Drivers/STM32L0xx_HAL_Driver/Inc/stm32l0xx_ll_usart.h **** #define LL_USART_ICR_TCCF                       USART_ICR_TCCF                /*!< Transmission com
 166:../../dependencies/STM32CubeL0/Drivers/STM32L0xx_HAL_Driver/Inc/stm32l0xx_ll_usart.h **** #if defined(USART_TCBGT_SUPPORT)
 167:../../dependencies/STM32CubeL0/Drivers/STM32L0xx_HAL_Driver/Inc/stm32l0xx_ll_usart.h **** #define LL_USART_ICR_TCBGTCF                    USART_ICR_TCBGTCF             /*!< Transmission com
 168:../../dependencies/STM32CubeL0/Drivers/STM32L0xx_HAL_Driver/Inc/stm32l0xx_ll_usart.h **** #endif /* USART_TCBGT_SUPPORT */
 169:../../dependencies/STM32CubeL0/Drivers/STM32L0xx_HAL_Driver/Inc/stm32l0xx_ll_usart.h **** #define LL_USART_ICR_LBDCF                      USART_ICR_LBDCF               /*!< LIN break detect
 170:../../dependencies/STM32CubeL0/Drivers/STM32L0xx_HAL_Driver/Inc/stm32l0xx_ll_usart.h **** #define LL_USART_ICR_CTSCF                      USART_ICR_CTSCF               /*!< CTS clear flag *
 171:../../dependencies/STM32CubeL0/Drivers/STM32L0xx_HAL_Driver/Inc/stm32l0xx_ll_usart.h **** #define LL_USART_ICR_RTOCF                      USART_ICR_RTOCF               /*!< Receiver timeout
 172:../../dependencies/STM32CubeL0/Drivers/STM32L0xx_HAL_Driver/Inc/stm32l0xx_ll_usart.h **** #define LL_USART_ICR_EOBCF                      USART_ICR_EOBCF               /*!< End of block cle
 173:../../dependencies/STM32CubeL0/Drivers/STM32L0xx_HAL_Driver/Inc/stm32l0xx_ll_usart.h **** #define LL_USART_ICR_CMCF                       USART_ICR_CMCF                /*!< Character match 
 174:../../dependencies/STM32CubeL0/Drivers/STM32L0xx_HAL_Driver/Inc/stm32l0xx_ll_usart.h **** #define LL_USART_ICR_WUCF                       USART_ICR_WUCF                /*!< Wakeup from Stop
 175:../../dependencies/STM32CubeL0/Drivers/STM32L0xx_HAL_Driver/Inc/stm32l0xx_ll_usart.h **** /**
 176:../../dependencies/STM32CubeL0/Drivers/STM32L0xx_HAL_Driver/Inc/stm32l0xx_ll_usart.h ****   * @}
 177:../../dependencies/STM32CubeL0/Drivers/STM32L0xx_HAL_Driver/Inc/stm32l0xx_ll_usart.h ****   */
 178:../../dependencies/STM32CubeL0/Drivers/STM32L0xx_HAL_Driver/Inc/stm32l0xx_ll_usart.h **** 
 179:../../dependencies/STM32CubeL0/Drivers/STM32L0xx_HAL_Driver/Inc/stm32l0xx_ll_usart.h **** /** @defgroup USART_LL_EC_GET_FLAG Get Flags Defines
 180:../../dependencies/STM32CubeL0/Drivers/STM32L0xx_HAL_Driver/Inc/stm32l0xx_ll_usart.h ****   * @brief    Flags defines which can be used with LL_USART_ReadReg function
 181:../../dependencies/STM32CubeL0/Drivers/STM32L0xx_HAL_Driver/Inc/stm32l0xx_ll_usart.h ****   * @{
 182:../../dependencies/STM32CubeL0/Drivers/STM32L0xx_HAL_Driver/Inc/stm32l0xx_ll_usart.h ****   */
 183:../../dependencies/STM32CubeL0/Drivers/STM32L0xx_HAL_Driver/Inc/stm32l0xx_ll_usart.h **** #define LL_USART_ISR_PE                         USART_ISR_PE                  /*!< Parity error fla
 184:../../dependencies/STM32CubeL0/Drivers/STM32L0xx_HAL_Driver/Inc/stm32l0xx_ll_usart.h **** #define LL_USART_ISR_FE                         USART_ISR_FE                  /*!< Framing error fl
 185:../../dependencies/STM32CubeL0/Drivers/STM32L0xx_HAL_Driver/Inc/stm32l0xx_ll_usart.h **** #define LL_USART_ISR_NE                         USART_ISR_NE                  /*!< Noise detected f
 186:../../dependencies/STM32CubeL0/Drivers/STM32L0xx_HAL_Driver/Inc/stm32l0xx_ll_usart.h **** #define LL_USART_ISR_ORE                        USART_ISR_ORE                 /*!< Overrun error fl
 187:../../dependencies/STM32CubeL0/Drivers/STM32L0xx_HAL_Driver/Inc/stm32l0xx_ll_usart.h **** #define LL_USART_ISR_IDLE                       USART_ISR_IDLE                /*!< Idle line detect
 188:../../dependencies/STM32CubeL0/Drivers/STM32L0xx_HAL_Driver/Inc/stm32l0xx_ll_usart.h **** #define LL_USART_ISR_RXNE                       USART_ISR_RXNE                /*!< Read data regist
 189:../../dependencies/STM32CubeL0/Drivers/STM32L0xx_HAL_Driver/Inc/stm32l0xx_ll_usart.h **** #define LL_USART_ISR_TC                         USART_ISR_TC                  /*!< Transmission com
 190:../../dependencies/STM32CubeL0/Drivers/STM32L0xx_HAL_Driver/Inc/stm32l0xx_ll_usart.h **** #define LL_USART_ISR_TXE                        USART_ISR_TXE                 /*!< Transmit data re
 191:../../dependencies/STM32CubeL0/Drivers/STM32L0xx_HAL_Driver/Inc/stm32l0xx_ll_usart.h **** #define LL_USART_ISR_LBDF                       USART_ISR_LBDF                /*!< LIN break detect
 192:../../dependencies/STM32CubeL0/Drivers/STM32L0xx_HAL_Driver/Inc/stm32l0xx_ll_usart.h **** #define LL_USART_ISR_CTSIF                      USART_ISR_CTSIF               /*!< CTS interrupt fl
 193:../../dependencies/STM32CubeL0/Drivers/STM32L0xx_HAL_Driver/Inc/stm32l0xx_ll_usart.h **** #define LL_USART_ISR_CTS                        USART_ISR_CTS                 /*!< CTS flag */
 194:../../dependencies/STM32CubeL0/Drivers/STM32L0xx_HAL_Driver/Inc/stm32l0xx_ll_usart.h **** #define LL_USART_ISR_RTOF                       USART_ISR_RTOF                /*!< Receiver timeout
 195:../../dependencies/STM32CubeL0/Drivers/STM32L0xx_HAL_Driver/Inc/stm32l0xx_ll_usart.h **** #define LL_USART_ISR_EOBF                       USART_ISR_EOBF                /*!< End of block fla
 196:../../dependencies/STM32CubeL0/Drivers/STM32L0xx_HAL_Driver/Inc/stm32l0xx_ll_usart.h **** #define LL_USART_ISR_ABRE                       USART_ISR_ABRE                /*!< Auto baud rate e
 197:../../dependencies/STM32CubeL0/Drivers/STM32L0xx_HAL_Driver/Inc/stm32l0xx_ll_usart.h **** #define LL_USART_ISR_ABRF                       USART_ISR_ABRF                /*!< Auto baud rate f
 198:../../dependencies/STM32CubeL0/Drivers/STM32L0xx_HAL_Driver/Inc/stm32l0xx_ll_usart.h **** #define LL_USART_ISR_BUSY                       USART_ISR_BUSY                /*!< Busy flag */
 199:../../dependencies/STM32CubeL0/Drivers/STM32L0xx_HAL_Driver/Inc/stm32l0xx_ll_usart.h **** #define LL_USART_ISR_CMF                        USART_ISR_CMF                 /*!< Character match 
 200:../../dependencies/STM32CubeL0/Drivers/STM32L0xx_HAL_Driver/Inc/stm32l0xx_ll_usart.h **** #define LL_USART_ISR_SBKF                       USART_ISR_SBKF                /*!< Send break flag 
 201:../../dependencies/STM32CubeL0/Drivers/STM32L0xx_HAL_Driver/Inc/stm32l0xx_ll_usart.h **** #define LL_USART_ISR_RWU                        USART_ISR_RWU                 /*!< Receiver wakeup 
 202:../../dependencies/STM32CubeL0/Drivers/STM32L0xx_HAL_Driver/Inc/stm32l0xx_ll_usart.h **** #define LL_USART_ISR_WUF                        USART_ISR_WUF                 /*!< Wakeup from Stop
 203:../../dependencies/STM32CubeL0/Drivers/STM32L0xx_HAL_Driver/Inc/stm32l0xx_ll_usart.h **** #define LL_USART_ISR_TEACK                      USART_ISR_TEACK               /*!< Transmit enable 
 204:../../dependencies/STM32CubeL0/Drivers/STM32L0xx_HAL_Driver/Inc/stm32l0xx_ll_usart.h **** #define LL_USART_ISR_REACK                      USART_ISR_REACK               /*!< Receive enable a
ARM GAS  /var/folders/fs/dxwfnrqj18z860lwl3d6f5t00000gn/T//ccABuIkd.s 			page 5


 205:../../dependencies/STM32CubeL0/Drivers/STM32L0xx_HAL_Driver/Inc/stm32l0xx_ll_usart.h **** #if defined(USART_TCBGT_SUPPORT)
 206:../../dependencies/STM32CubeL0/Drivers/STM32L0xx_HAL_Driver/Inc/stm32l0xx_ll_usart.h **** #define LL_USART_ISR_TCBGT                      USART_ISR_TCBGT               /*!< Transmission com
 207:../../dependencies/STM32CubeL0/Drivers/STM32L0xx_HAL_Driver/Inc/stm32l0xx_ll_usart.h **** #endif /* USART_TCBGT_SUPPORT */
 208:../../dependencies/STM32CubeL0/Drivers/STM32L0xx_HAL_Driver/Inc/stm32l0xx_ll_usart.h **** /**
 209:../../dependencies/STM32CubeL0/Drivers/STM32L0xx_HAL_Driver/Inc/stm32l0xx_ll_usart.h ****   * @}
 210:../../dependencies/STM32CubeL0/Drivers/STM32L0xx_HAL_Driver/Inc/stm32l0xx_ll_usart.h ****   */
 211:../../dependencies/STM32CubeL0/Drivers/STM32L0xx_HAL_Driver/Inc/stm32l0xx_ll_usart.h **** 
 212:../../dependencies/STM32CubeL0/Drivers/STM32L0xx_HAL_Driver/Inc/stm32l0xx_ll_usart.h **** /** @defgroup USART_LL_EC_IT IT Defines
 213:../../dependencies/STM32CubeL0/Drivers/STM32L0xx_HAL_Driver/Inc/stm32l0xx_ll_usart.h ****   * @brief    IT defines which can be used with LL_USART_ReadReg and  LL_USART_WriteReg functions
 214:../../dependencies/STM32CubeL0/Drivers/STM32L0xx_HAL_Driver/Inc/stm32l0xx_ll_usart.h ****   * @{
 215:../../dependencies/STM32CubeL0/Drivers/STM32L0xx_HAL_Driver/Inc/stm32l0xx_ll_usart.h ****   */
 216:../../dependencies/STM32CubeL0/Drivers/STM32L0xx_HAL_Driver/Inc/stm32l0xx_ll_usart.h **** #define LL_USART_CR1_IDLEIE                     USART_CR1_IDLEIE              /*!< IDLE interrupt e
 217:../../dependencies/STM32CubeL0/Drivers/STM32L0xx_HAL_Driver/Inc/stm32l0xx_ll_usart.h **** #define LL_USART_CR1_RXNEIE                     USART_CR1_RXNEIE              /*!< Read data regist
 218:../../dependencies/STM32CubeL0/Drivers/STM32L0xx_HAL_Driver/Inc/stm32l0xx_ll_usart.h **** #define LL_USART_CR1_TCIE                       USART_CR1_TCIE                /*!< Transmission com
 219:../../dependencies/STM32CubeL0/Drivers/STM32L0xx_HAL_Driver/Inc/stm32l0xx_ll_usart.h **** #define LL_USART_CR1_TXEIE                      USART_CR1_TXEIE               /*!< Transmit data re
 220:../../dependencies/STM32CubeL0/Drivers/STM32L0xx_HAL_Driver/Inc/stm32l0xx_ll_usart.h **** #define LL_USART_CR1_PEIE                       USART_CR1_PEIE                /*!< Parity error */
 221:../../dependencies/STM32CubeL0/Drivers/STM32L0xx_HAL_Driver/Inc/stm32l0xx_ll_usart.h **** #define LL_USART_CR1_CMIE                       USART_CR1_CMIE                /*!< Character match 
 222:../../dependencies/STM32CubeL0/Drivers/STM32L0xx_HAL_Driver/Inc/stm32l0xx_ll_usart.h **** #define LL_USART_CR1_RTOIE                      USART_CR1_RTOIE               /*!< Receiver timeout
 223:../../dependencies/STM32CubeL0/Drivers/STM32L0xx_HAL_Driver/Inc/stm32l0xx_ll_usart.h **** #define LL_USART_CR1_EOBIE                      USART_CR1_EOBIE               /*!< End of Block int
 224:../../dependencies/STM32CubeL0/Drivers/STM32L0xx_HAL_Driver/Inc/stm32l0xx_ll_usart.h **** #define LL_USART_CR2_LBDIE                      USART_CR2_LBDIE               /*!< LIN break detect
 225:../../dependencies/STM32CubeL0/Drivers/STM32L0xx_HAL_Driver/Inc/stm32l0xx_ll_usart.h **** #define LL_USART_CR3_EIE                        USART_CR3_EIE                 /*!< Error interrupt 
 226:../../dependencies/STM32CubeL0/Drivers/STM32L0xx_HAL_Driver/Inc/stm32l0xx_ll_usart.h **** #define LL_USART_CR3_CTSIE                      USART_CR3_CTSIE               /*!< CTS interrupt en
 227:../../dependencies/STM32CubeL0/Drivers/STM32L0xx_HAL_Driver/Inc/stm32l0xx_ll_usart.h **** #define LL_USART_CR3_WUFIE                      USART_CR3_WUFIE               /*!< Wakeup from Stop
 228:../../dependencies/STM32CubeL0/Drivers/STM32L0xx_HAL_Driver/Inc/stm32l0xx_ll_usart.h **** #if defined(USART_TCBGT_SUPPORT)
 229:../../dependencies/STM32CubeL0/Drivers/STM32L0xx_HAL_Driver/Inc/stm32l0xx_ll_usart.h **** #define LL_USART_CR3_TCBGTIE                    USART_CR3_TCBGTIE             /*!< Transmission com
 230:../../dependencies/STM32CubeL0/Drivers/STM32L0xx_HAL_Driver/Inc/stm32l0xx_ll_usart.h **** #endif /* USART_TCBGT_SUPPORT */
 231:../../dependencies/STM32CubeL0/Drivers/STM32L0xx_HAL_Driver/Inc/stm32l0xx_ll_usart.h **** /**
 232:../../dependencies/STM32CubeL0/Drivers/STM32L0xx_HAL_Driver/Inc/stm32l0xx_ll_usart.h ****   * @}
 233:../../dependencies/STM32CubeL0/Drivers/STM32L0xx_HAL_Driver/Inc/stm32l0xx_ll_usart.h ****   */
 234:../../dependencies/STM32CubeL0/Drivers/STM32L0xx_HAL_Driver/Inc/stm32l0xx_ll_usart.h **** 
 235:../../dependencies/STM32CubeL0/Drivers/STM32L0xx_HAL_Driver/Inc/stm32l0xx_ll_usart.h **** /** @defgroup USART_LL_EC_DIRECTION Communication Direction
 236:../../dependencies/STM32CubeL0/Drivers/STM32L0xx_HAL_Driver/Inc/stm32l0xx_ll_usart.h ****   * @{
 237:../../dependencies/STM32CubeL0/Drivers/STM32L0xx_HAL_Driver/Inc/stm32l0xx_ll_usart.h ****   */
 238:../../dependencies/STM32CubeL0/Drivers/STM32L0xx_HAL_Driver/Inc/stm32l0xx_ll_usart.h **** #define LL_USART_DIRECTION_NONE                 0x00000000U                        /*!< Transmitter
 239:../../dependencies/STM32CubeL0/Drivers/STM32L0xx_HAL_Driver/Inc/stm32l0xx_ll_usart.h **** #define LL_USART_DIRECTION_RX                   USART_CR1_RE                       /*!< Transmitter
 240:../../dependencies/STM32CubeL0/Drivers/STM32L0xx_HAL_Driver/Inc/stm32l0xx_ll_usart.h **** #define LL_USART_DIRECTION_TX                   USART_CR1_TE                       /*!< Transmitter
 241:../../dependencies/STM32CubeL0/Drivers/STM32L0xx_HAL_Driver/Inc/stm32l0xx_ll_usart.h **** #define LL_USART_DIRECTION_TX_RX                (USART_CR1_TE |USART_CR1_RE)       /*!< Transmitter
 242:../../dependencies/STM32CubeL0/Drivers/STM32L0xx_HAL_Driver/Inc/stm32l0xx_ll_usart.h **** /**
 243:../../dependencies/STM32CubeL0/Drivers/STM32L0xx_HAL_Driver/Inc/stm32l0xx_ll_usart.h ****   * @}
 244:../../dependencies/STM32CubeL0/Drivers/STM32L0xx_HAL_Driver/Inc/stm32l0xx_ll_usart.h ****   */
 245:../../dependencies/STM32CubeL0/Drivers/STM32L0xx_HAL_Driver/Inc/stm32l0xx_ll_usart.h **** 
 246:../../dependencies/STM32CubeL0/Drivers/STM32L0xx_HAL_Driver/Inc/stm32l0xx_ll_usart.h **** /** @defgroup USART_LL_EC_PARITY Parity Control
 247:../../dependencies/STM32CubeL0/Drivers/STM32L0xx_HAL_Driver/Inc/stm32l0xx_ll_usart.h ****   * @{
 248:../../dependencies/STM32CubeL0/Drivers/STM32L0xx_HAL_Driver/Inc/stm32l0xx_ll_usart.h ****   */
 249:../../dependencies/STM32CubeL0/Drivers/STM32L0xx_HAL_Driver/Inc/stm32l0xx_ll_usart.h **** #define LL_USART_PARITY_NONE                    0x00000000U                          /*!< Parity co
 250:../../dependencies/STM32CubeL0/Drivers/STM32L0xx_HAL_Driver/Inc/stm32l0xx_ll_usart.h **** #define LL_USART_PARITY_EVEN                    USART_CR1_PCE                        /*!< Parity co
 251:../../dependencies/STM32CubeL0/Drivers/STM32L0xx_HAL_Driver/Inc/stm32l0xx_ll_usart.h **** #define LL_USART_PARITY_ODD                     (USART_CR1_PCE | USART_CR1_PS)       /*!< Parity co
 252:../../dependencies/STM32CubeL0/Drivers/STM32L0xx_HAL_Driver/Inc/stm32l0xx_ll_usart.h **** /**
 253:../../dependencies/STM32CubeL0/Drivers/STM32L0xx_HAL_Driver/Inc/stm32l0xx_ll_usart.h ****   * @}
 254:../../dependencies/STM32CubeL0/Drivers/STM32L0xx_HAL_Driver/Inc/stm32l0xx_ll_usart.h ****   */
 255:../../dependencies/STM32CubeL0/Drivers/STM32L0xx_HAL_Driver/Inc/stm32l0xx_ll_usart.h **** 
 256:../../dependencies/STM32CubeL0/Drivers/STM32L0xx_HAL_Driver/Inc/stm32l0xx_ll_usart.h **** /** @defgroup USART_LL_EC_WAKEUP Wakeup
 257:../../dependencies/STM32CubeL0/Drivers/STM32L0xx_HAL_Driver/Inc/stm32l0xx_ll_usart.h ****   * @{
 258:../../dependencies/STM32CubeL0/Drivers/STM32L0xx_HAL_Driver/Inc/stm32l0xx_ll_usart.h ****   */
 259:../../dependencies/STM32CubeL0/Drivers/STM32L0xx_HAL_Driver/Inc/stm32l0xx_ll_usart.h **** #define LL_USART_WAKEUP_IDLELINE                0x00000000U           /*!<  USART wake up from Mute
 260:../../dependencies/STM32CubeL0/Drivers/STM32L0xx_HAL_Driver/Inc/stm32l0xx_ll_usart.h **** #define LL_USART_WAKEUP_ADDRESSMARK             USART_CR1_WAKE        /*!<  USART wake up from Mute
 261:../../dependencies/STM32CubeL0/Drivers/STM32L0xx_HAL_Driver/Inc/stm32l0xx_ll_usart.h **** /**
ARM GAS  /var/folders/fs/dxwfnrqj18z860lwl3d6f5t00000gn/T//ccABuIkd.s 			page 6


 262:../../dependencies/STM32CubeL0/Drivers/STM32L0xx_HAL_Driver/Inc/stm32l0xx_ll_usart.h ****   * @}
 263:../../dependencies/STM32CubeL0/Drivers/STM32L0xx_HAL_Driver/Inc/stm32l0xx_ll_usart.h ****   */
 264:../../dependencies/STM32CubeL0/Drivers/STM32L0xx_HAL_Driver/Inc/stm32l0xx_ll_usart.h **** 
 265:../../dependencies/STM32CubeL0/Drivers/STM32L0xx_HAL_Driver/Inc/stm32l0xx_ll_usart.h **** /** @defgroup USART_LL_EC_DATAWIDTH Datawidth
 266:../../dependencies/STM32CubeL0/Drivers/STM32L0xx_HAL_Driver/Inc/stm32l0xx_ll_usart.h ****   * @{
 267:../../dependencies/STM32CubeL0/Drivers/STM32L0xx_HAL_Driver/Inc/stm32l0xx_ll_usart.h ****   */
 268:../../dependencies/STM32CubeL0/Drivers/STM32L0xx_HAL_Driver/Inc/stm32l0xx_ll_usart.h **** #define LL_USART_DATAWIDTH_7B                   USART_CR1_M1            /*!< 7 bits word length : S
 269:../../dependencies/STM32CubeL0/Drivers/STM32L0xx_HAL_Driver/Inc/stm32l0xx_ll_usart.h **** #define LL_USART_DATAWIDTH_8B                   0x00000000U             /*!< 8 bits word length : S
 270:../../dependencies/STM32CubeL0/Drivers/STM32L0xx_HAL_Driver/Inc/stm32l0xx_ll_usart.h **** #define LL_USART_DATAWIDTH_9B                   USART_CR1_M0            /*!< 9 bits word length : S
 271:../../dependencies/STM32CubeL0/Drivers/STM32L0xx_HAL_Driver/Inc/stm32l0xx_ll_usart.h **** /**
 272:../../dependencies/STM32CubeL0/Drivers/STM32L0xx_HAL_Driver/Inc/stm32l0xx_ll_usart.h ****   * @}
 273:../../dependencies/STM32CubeL0/Drivers/STM32L0xx_HAL_Driver/Inc/stm32l0xx_ll_usart.h ****   */
 274:../../dependencies/STM32CubeL0/Drivers/STM32L0xx_HAL_Driver/Inc/stm32l0xx_ll_usart.h **** 
 275:../../dependencies/STM32CubeL0/Drivers/STM32L0xx_HAL_Driver/Inc/stm32l0xx_ll_usart.h **** /** @defgroup USART_LL_EC_OVERSAMPLING Oversampling
 276:../../dependencies/STM32CubeL0/Drivers/STM32L0xx_HAL_Driver/Inc/stm32l0xx_ll_usart.h ****   * @{
 277:../../dependencies/STM32CubeL0/Drivers/STM32L0xx_HAL_Driver/Inc/stm32l0xx_ll_usart.h ****   */
 278:../../dependencies/STM32CubeL0/Drivers/STM32L0xx_HAL_Driver/Inc/stm32l0xx_ll_usart.h **** #define LL_USART_OVERSAMPLING_16                0x00000000U            /*!< Oversampling by 16 */
 279:../../dependencies/STM32CubeL0/Drivers/STM32L0xx_HAL_Driver/Inc/stm32l0xx_ll_usart.h **** #define LL_USART_OVERSAMPLING_8                 USART_CR1_OVER8        /*!< Oversampling by 8 */
 280:../../dependencies/STM32CubeL0/Drivers/STM32L0xx_HAL_Driver/Inc/stm32l0xx_ll_usart.h **** /**
 281:../../dependencies/STM32CubeL0/Drivers/STM32L0xx_HAL_Driver/Inc/stm32l0xx_ll_usart.h ****   * @}
 282:../../dependencies/STM32CubeL0/Drivers/STM32L0xx_HAL_Driver/Inc/stm32l0xx_ll_usart.h ****   */
 283:../../dependencies/STM32CubeL0/Drivers/STM32L0xx_HAL_Driver/Inc/stm32l0xx_ll_usart.h **** 
 284:../../dependencies/STM32CubeL0/Drivers/STM32L0xx_HAL_Driver/Inc/stm32l0xx_ll_usart.h **** #if defined(USE_FULL_LL_DRIVER)
 285:../../dependencies/STM32CubeL0/Drivers/STM32L0xx_HAL_Driver/Inc/stm32l0xx_ll_usart.h **** /** @defgroup USART_LL_EC_CLOCK Clock Signal
 286:../../dependencies/STM32CubeL0/Drivers/STM32L0xx_HAL_Driver/Inc/stm32l0xx_ll_usart.h ****   * @{
 287:../../dependencies/STM32CubeL0/Drivers/STM32L0xx_HAL_Driver/Inc/stm32l0xx_ll_usart.h ****   */
 288:../../dependencies/STM32CubeL0/Drivers/STM32L0xx_HAL_Driver/Inc/stm32l0xx_ll_usart.h **** 
 289:../../dependencies/STM32CubeL0/Drivers/STM32L0xx_HAL_Driver/Inc/stm32l0xx_ll_usart.h **** #define LL_USART_CLOCK_DISABLE                  0x00000000U            /*!< Clock signal not provid
 290:../../dependencies/STM32CubeL0/Drivers/STM32L0xx_HAL_Driver/Inc/stm32l0xx_ll_usart.h **** #define LL_USART_CLOCK_ENABLE                   USART_CR2_CLKEN        /*!< Clock signal provided *
 291:../../dependencies/STM32CubeL0/Drivers/STM32L0xx_HAL_Driver/Inc/stm32l0xx_ll_usart.h **** /**
 292:../../dependencies/STM32CubeL0/Drivers/STM32L0xx_HAL_Driver/Inc/stm32l0xx_ll_usart.h ****   * @}
 293:../../dependencies/STM32CubeL0/Drivers/STM32L0xx_HAL_Driver/Inc/stm32l0xx_ll_usart.h ****   */
 294:../../dependencies/STM32CubeL0/Drivers/STM32L0xx_HAL_Driver/Inc/stm32l0xx_ll_usart.h **** #endif /*USE_FULL_LL_DRIVER*/
 295:../../dependencies/STM32CubeL0/Drivers/STM32L0xx_HAL_Driver/Inc/stm32l0xx_ll_usart.h **** 
 296:../../dependencies/STM32CubeL0/Drivers/STM32L0xx_HAL_Driver/Inc/stm32l0xx_ll_usart.h **** /** @defgroup USART_LL_EC_LASTCLKPULSE Last Clock Pulse
 297:../../dependencies/STM32CubeL0/Drivers/STM32L0xx_HAL_Driver/Inc/stm32l0xx_ll_usart.h ****   * @{
 298:../../dependencies/STM32CubeL0/Drivers/STM32L0xx_HAL_Driver/Inc/stm32l0xx_ll_usart.h ****   */
 299:../../dependencies/STM32CubeL0/Drivers/STM32L0xx_HAL_Driver/Inc/stm32l0xx_ll_usart.h **** #define LL_USART_LASTCLKPULSE_NO_OUTPUT         0x00000000U           /*!< The clock pulse of the l
 300:../../dependencies/STM32CubeL0/Drivers/STM32L0xx_HAL_Driver/Inc/stm32l0xx_ll_usart.h **** #define LL_USART_LASTCLKPULSE_OUTPUT            USART_CR2_LBCL        /*!< The clock pulse of the l
 301:../../dependencies/STM32CubeL0/Drivers/STM32L0xx_HAL_Driver/Inc/stm32l0xx_ll_usart.h **** /**
 302:../../dependencies/STM32CubeL0/Drivers/STM32L0xx_HAL_Driver/Inc/stm32l0xx_ll_usart.h ****   * @}
 303:../../dependencies/STM32CubeL0/Drivers/STM32L0xx_HAL_Driver/Inc/stm32l0xx_ll_usart.h ****   */
 304:../../dependencies/STM32CubeL0/Drivers/STM32L0xx_HAL_Driver/Inc/stm32l0xx_ll_usart.h **** 
 305:../../dependencies/STM32CubeL0/Drivers/STM32L0xx_HAL_Driver/Inc/stm32l0xx_ll_usart.h **** /** @defgroup USART_LL_EC_PHASE Clock Phase
 306:../../dependencies/STM32CubeL0/Drivers/STM32L0xx_HAL_Driver/Inc/stm32l0xx_ll_usart.h ****   * @{
 307:../../dependencies/STM32CubeL0/Drivers/STM32L0xx_HAL_Driver/Inc/stm32l0xx_ll_usart.h ****   */
 308:../../dependencies/STM32CubeL0/Drivers/STM32L0xx_HAL_Driver/Inc/stm32l0xx_ll_usart.h **** #define LL_USART_PHASE_1EDGE                    0x00000000U           /*!< The first clock transiti
 309:../../dependencies/STM32CubeL0/Drivers/STM32L0xx_HAL_Driver/Inc/stm32l0xx_ll_usart.h **** #define LL_USART_PHASE_2EDGE                    USART_CR2_CPHA        /*!< The second clock transit
 310:../../dependencies/STM32CubeL0/Drivers/STM32L0xx_HAL_Driver/Inc/stm32l0xx_ll_usart.h **** /**
 311:../../dependencies/STM32CubeL0/Drivers/STM32L0xx_HAL_Driver/Inc/stm32l0xx_ll_usart.h ****   * @}
 312:../../dependencies/STM32CubeL0/Drivers/STM32L0xx_HAL_Driver/Inc/stm32l0xx_ll_usart.h ****   */
 313:../../dependencies/STM32CubeL0/Drivers/STM32L0xx_HAL_Driver/Inc/stm32l0xx_ll_usart.h **** 
 314:../../dependencies/STM32CubeL0/Drivers/STM32L0xx_HAL_Driver/Inc/stm32l0xx_ll_usart.h **** /** @defgroup USART_LL_EC_POLARITY Clock Polarity
 315:../../dependencies/STM32CubeL0/Drivers/STM32L0xx_HAL_Driver/Inc/stm32l0xx_ll_usart.h ****   * @{
 316:../../dependencies/STM32CubeL0/Drivers/STM32L0xx_HAL_Driver/Inc/stm32l0xx_ll_usart.h ****   */
 317:../../dependencies/STM32CubeL0/Drivers/STM32L0xx_HAL_Driver/Inc/stm32l0xx_ll_usart.h **** #define LL_USART_POLARITY_LOW                   0x00000000U           /*!< Steady low value on SCLK
 318:../../dependencies/STM32CubeL0/Drivers/STM32L0xx_HAL_Driver/Inc/stm32l0xx_ll_usart.h **** #define LL_USART_POLARITY_HIGH                  USART_CR2_CPOL        /*!< Steady high value on SCL
ARM GAS  /var/folders/fs/dxwfnrqj18z860lwl3d6f5t00000gn/T//ccABuIkd.s 			page 7


 319:../../dependencies/STM32CubeL0/Drivers/STM32L0xx_HAL_Driver/Inc/stm32l0xx_ll_usart.h **** /**
 320:../../dependencies/STM32CubeL0/Drivers/STM32L0xx_HAL_Driver/Inc/stm32l0xx_ll_usart.h ****   * @}
 321:../../dependencies/STM32CubeL0/Drivers/STM32L0xx_HAL_Driver/Inc/stm32l0xx_ll_usart.h ****   */
 322:../../dependencies/STM32CubeL0/Drivers/STM32L0xx_HAL_Driver/Inc/stm32l0xx_ll_usart.h **** 
 323:../../dependencies/STM32CubeL0/Drivers/STM32L0xx_HAL_Driver/Inc/stm32l0xx_ll_usart.h **** /** @defgroup USART_LL_EC_STOPBITS Stop Bits
 324:../../dependencies/STM32CubeL0/Drivers/STM32L0xx_HAL_Driver/Inc/stm32l0xx_ll_usart.h ****   * @{
 325:../../dependencies/STM32CubeL0/Drivers/STM32L0xx_HAL_Driver/Inc/stm32l0xx_ll_usart.h ****   */
 326:../../dependencies/STM32CubeL0/Drivers/STM32L0xx_HAL_Driver/Inc/stm32l0xx_ll_usart.h **** #define LL_USART_STOPBITS_0_5                   USART_CR2_STOP_0                           /*!< 0.5
 327:../../dependencies/STM32CubeL0/Drivers/STM32L0xx_HAL_Driver/Inc/stm32l0xx_ll_usart.h **** #define LL_USART_STOPBITS_1                     0x00000000U                                /*!< 1 s
 328:../../dependencies/STM32CubeL0/Drivers/STM32L0xx_HAL_Driver/Inc/stm32l0xx_ll_usart.h **** #define LL_USART_STOPBITS_1_5                   (USART_CR2_STOP_0 | USART_CR2_STOP_1)      /*!< 1.5
 329:../../dependencies/STM32CubeL0/Drivers/STM32L0xx_HAL_Driver/Inc/stm32l0xx_ll_usart.h **** #define LL_USART_STOPBITS_2                     USART_CR2_STOP_1                           /*!< 2 s
 330:../../dependencies/STM32CubeL0/Drivers/STM32L0xx_HAL_Driver/Inc/stm32l0xx_ll_usart.h **** /**
 331:../../dependencies/STM32CubeL0/Drivers/STM32L0xx_HAL_Driver/Inc/stm32l0xx_ll_usart.h ****   * @}
 332:../../dependencies/STM32CubeL0/Drivers/STM32L0xx_HAL_Driver/Inc/stm32l0xx_ll_usart.h ****   */
 333:../../dependencies/STM32CubeL0/Drivers/STM32L0xx_HAL_Driver/Inc/stm32l0xx_ll_usart.h **** 
 334:../../dependencies/STM32CubeL0/Drivers/STM32L0xx_HAL_Driver/Inc/stm32l0xx_ll_usart.h **** /** @defgroup USART_LL_EC_TXRX TX RX Pins Swap
 335:../../dependencies/STM32CubeL0/Drivers/STM32L0xx_HAL_Driver/Inc/stm32l0xx_ll_usart.h ****   * @{
 336:../../dependencies/STM32CubeL0/Drivers/STM32L0xx_HAL_Driver/Inc/stm32l0xx_ll_usart.h ****   */
 337:../../dependencies/STM32CubeL0/Drivers/STM32L0xx_HAL_Driver/Inc/stm32l0xx_ll_usart.h **** #define LL_USART_TXRX_STANDARD                  0x00000000U           /*!< TX/RX pins are used as d
 338:../../dependencies/STM32CubeL0/Drivers/STM32L0xx_HAL_Driver/Inc/stm32l0xx_ll_usart.h **** #define LL_USART_TXRX_SWAPPED                   (USART_CR2_SWAP)      /*!< TX and RX pins functions
 339:../../dependencies/STM32CubeL0/Drivers/STM32L0xx_HAL_Driver/Inc/stm32l0xx_ll_usart.h **** /**
 340:../../dependencies/STM32CubeL0/Drivers/STM32L0xx_HAL_Driver/Inc/stm32l0xx_ll_usart.h ****   * @}
 341:../../dependencies/STM32CubeL0/Drivers/STM32L0xx_HAL_Driver/Inc/stm32l0xx_ll_usart.h ****   */
 342:../../dependencies/STM32CubeL0/Drivers/STM32L0xx_HAL_Driver/Inc/stm32l0xx_ll_usart.h **** 
 343:../../dependencies/STM32CubeL0/Drivers/STM32L0xx_HAL_Driver/Inc/stm32l0xx_ll_usart.h **** /** @defgroup USART_LL_EC_RXPIN_LEVEL RX Pin Active Level Inversion
 344:../../dependencies/STM32CubeL0/Drivers/STM32L0xx_HAL_Driver/Inc/stm32l0xx_ll_usart.h ****   * @{
 345:../../dependencies/STM32CubeL0/Drivers/STM32L0xx_HAL_Driver/Inc/stm32l0xx_ll_usart.h ****   */
 346:../../dependencies/STM32CubeL0/Drivers/STM32L0xx_HAL_Driver/Inc/stm32l0xx_ll_usart.h **** #define LL_USART_RXPIN_LEVEL_STANDARD           0x00000000U           /*!< RX pin signal works usin
 347:../../dependencies/STM32CubeL0/Drivers/STM32L0xx_HAL_Driver/Inc/stm32l0xx_ll_usart.h **** #define LL_USART_RXPIN_LEVEL_INVERTED           (USART_CR2_RXINV)     /*!< RX pin signal values are
 348:../../dependencies/STM32CubeL0/Drivers/STM32L0xx_HAL_Driver/Inc/stm32l0xx_ll_usart.h **** /**
 349:../../dependencies/STM32CubeL0/Drivers/STM32L0xx_HAL_Driver/Inc/stm32l0xx_ll_usart.h ****   * @}
 350:../../dependencies/STM32CubeL0/Drivers/STM32L0xx_HAL_Driver/Inc/stm32l0xx_ll_usart.h ****   */
 351:../../dependencies/STM32CubeL0/Drivers/STM32L0xx_HAL_Driver/Inc/stm32l0xx_ll_usart.h **** 
 352:../../dependencies/STM32CubeL0/Drivers/STM32L0xx_HAL_Driver/Inc/stm32l0xx_ll_usart.h **** /** @defgroup USART_LL_EC_TXPIN_LEVEL TX Pin Active Level Inversion
 353:../../dependencies/STM32CubeL0/Drivers/STM32L0xx_HAL_Driver/Inc/stm32l0xx_ll_usart.h ****   * @{
 354:../../dependencies/STM32CubeL0/Drivers/STM32L0xx_HAL_Driver/Inc/stm32l0xx_ll_usart.h ****   */
 355:../../dependencies/STM32CubeL0/Drivers/STM32L0xx_HAL_Driver/Inc/stm32l0xx_ll_usart.h **** #define LL_USART_TXPIN_LEVEL_STANDARD           0x00000000U           /*!< TX pin signal works usin
 356:../../dependencies/STM32CubeL0/Drivers/STM32L0xx_HAL_Driver/Inc/stm32l0xx_ll_usart.h **** #define LL_USART_TXPIN_LEVEL_INVERTED           (USART_CR2_TXINV)     /*!< TX pin signal values are
 357:../../dependencies/STM32CubeL0/Drivers/STM32L0xx_HAL_Driver/Inc/stm32l0xx_ll_usart.h **** /**
 358:../../dependencies/STM32CubeL0/Drivers/STM32L0xx_HAL_Driver/Inc/stm32l0xx_ll_usart.h ****   * @}
 359:../../dependencies/STM32CubeL0/Drivers/STM32L0xx_HAL_Driver/Inc/stm32l0xx_ll_usart.h ****   */
 360:../../dependencies/STM32CubeL0/Drivers/STM32L0xx_HAL_Driver/Inc/stm32l0xx_ll_usart.h **** 
 361:../../dependencies/STM32CubeL0/Drivers/STM32L0xx_HAL_Driver/Inc/stm32l0xx_ll_usart.h **** /** @defgroup USART_LL_EC_BINARY_LOGIC Binary Data Inversion
 362:../../dependencies/STM32CubeL0/Drivers/STM32L0xx_HAL_Driver/Inc/stm32l0xx_ll_usart.h ****   * @{
 363:../../dependencies/STM32CubeL0/Drivers/STM32L0xx_HAL_Driver/Inc/stm32l0xx_ll_usart.h ****   */
 364:../../dependencies/STM32CubeL0/Drivers/STM32L0xx_HAL_Driver/Inc/stm32l0xx_ll_usart.h **** #define LL_USART_BINARY_LOGIC_POSITIVE          0x00000000U           /*!< Logical data from the da
 365:../../dependencies/STM32CubeL0/Drivers/STM32L0xx_HAL_Driver/Inc/stm32l0xx_ll_usart.h **** #define LL_USART_BINARY_LOGIC_NEGATIVE          USART_CR2_DATAINV     /*!< Logical data from the da
 366:../../dependencies/STM32CubeL0/Drivers/STM32L0xx_HAL_Driver/Inc/stm32l0xx_ll_usart.h **** /**
 367:../../dependencies/STM32CubeL0/Drivers/STM32L0xx_HAL_Driver/Inc/stm32l0xx_ll_usart.h ****   * @}
 368:../../dependencies/STM32CubeL0/Drivers/STM32L0xx_HAL_Driver/Inc/stm32l0xx_ll_usart.h ****   */
 369:../../dependencies/STM32CubeL0/Drivers/STM32L0xx_HAL_Driver/Inc/stm32l0xx_ll_usart.h **** 
 370:../../dependencies/STM32CubeL0/Drivers/STM32L0xx_HAL_Driver/Inc/stm32l0xx_ll_usart.h **** /** @defgroup USART_LL_EC_BITORDER Bit Order
 371:../../dependencies/STM32CubeL0/Drivers/STM32L0xx_HAL_Driver/Inc/stm32l0xx_ll_usart.h ****   * @{
 372:../../dependencies/STM32CubeL0/Drivers/STM32L0xx_HAL_Driver/Inc/stm32l0xx_ll_usart.h ****   */
 373:../../dependencies/STM32CubeL0/Drivers/STM32L0xx_HAL_Driver/Inc/stm32l0xx_ll_usart.h **** #define LL_USART_BITORDER_LSBFIRST              0x00000000U           /*!< data is transmitted/rece
 374:../../dependencies/STM32CubeL0/Drivers/STM32L0xx_HAL_Driver/Inc/stm32l0xx_ll_usart.h **** #define LL_USART_BITORDER_MSBFIRST              USART_CR2_MSBFIRST    /*!< data is transmitted/rece
 375:../../dependencies/STM32CubeL0/Drivers/STM32L0xx_HAL_Driver/Inc/stm32l0xx_ll_usart.h **** /**
ARM GAS  /var/folders/fs/dxwfnrqj18z860lwl3d6f5t00000gn/T//ccABuIkd.s 			page 8


 376:../../dependencies/STM32CubeL0/Drivers/STM32L0xx_HAL_Driver/Inc/stm32l0xx_ll_usart.h ****   * @}
 377:../../dependencies/STM32CubeL0/Drivers/STM32L0xx_HAL_Driver/Inc/stm32l0xx_ll_usart.h ****   */
 378:../../dependencies/STM32CubeL0/Drivers/STM32L0xx_HAL_Driver/Inc/stm32l0xx_ll_usart.h **** 
 379:../../dependencies/STM32CubeL0/Drivers/STM32L0xx_HAL_Driver/Inc/stm32l0xx_ll_usart.h **** /** @defgroup USART_LL_EC_AUTOBAUD_DETECT_ON Autobaud Detection
 380:../../dependencies/STM32CubeL0/Drivers/STM32L0xx_HAL_Driver/Inc/stm32l0xx_ll_usart.h ****   * @{
 381:../../dependencies/STM32CubeL0/Drivers/STM32L0xx_HAL_Driver/Inc/stm32l0xx_ll_usart.h ****   */
 382:../../dependencies/STM32CubeL0/Drivers/STM32L0xx_HAL_Driver/Inc/stm32l0xx_ll_usart.h **** #define LL_USART_AUTOBAUD_DETECT_ON_STARTBIT    0x00000000U                                 /*!< Me
 383:../../dependencies/STM32CubeL0/Drivers/STM32L0xx_HAL_Driver/Inc/stm32l0xx_ll_usart.h **** #define LL_USART_AUTOBAUD_DETECT_ON_FALLINGEDGE USART_CR2_ABRMODE_0                         /*!< Fa
 384:../../dependencies/STM32CubeL0/Drivers/STM32L0xx_HAL_Driver/Inc/stm32l0xx_ll_usart.h **** #define LL_USART_AUTOBAUD_DETECT_ON_7F_FRAME    USART_CR2_ABRMODE_1                         /*!< 0x
 385:../../dependencies/STM32CubeL0/Drivers/STM32L0xx_HAL_Driver/Inc/stm32l0xx_ll_usart.h **** #define LL_USART_AUTOBAUD_DETECT_ON_55_FRAME    (USART_CR2_ABRMODE_1 | USART_CR2_ABRMODE_0) /*!< 0x
 386:../../dependencies/STM32CubeL0/Drivers/STM32L0xx_HAL_Driver/Inc/stm32l0xx_ll_usart.h **** /**
 387:../../dependencies/STM32CubeL0/Drivers/STM32L0xx_HAL_Driver/Inc/stm32l0xx_ll_usart.h ****   * @}
 388:../../dependencies/STM32CubeL0/Drivers/STM32L0xx_HAL_Driver/Inc/stm32l0xx_ll_usart.h ****   */
 389:../../dependencies/STM32CubeL0/Drivers/STM32L0xx_HAL_Driver/Inc/stm32l0xx_ll_usart.h **** 
 390:../../dependencies/STM32CubeL0/Drivers/STM32L0xx_HAL_Driver/Inc/stm32l0xx_ll_usart.h **** /** @defgroup USART_LL_EC_ADDRESS_DETECT Address Length Detection
 391:../../dependencies/STM32CubeL0/Drivers/STM32L0xx_HAL_Driver/Inc/stm32l0xx_ll_usart.h ****   * @{
 392:../../dependencies/STM32CubeL0/Drivers/STM32L0xx_HAL_Driver/Inc/stm32l0xx_ll_usart.h ****   */
 393:../../dependencies/STM32CubeL0/Drivers/STM32L0xx_HAL_Driver/Inc/stm32l0xx_ll_usart.h **** #define LL_USART_ADDRESS_DETECT_4B              0x00000000U           /*!< 4-bit address detection 
 394:../../dependencies/STM32CubeL0/Drivers/STM32L0xx_HAL_Driver/Inc/stm32l0xx_ll_usart.h **** #define LL_USART_ADDRESS_DETECT_7B              USART_CR2_ADDM7       /*!< 7-bit address detection 
 395:../../dependencies/STM32CubeL0/Drivers/STM32L0xx_HAL_Driver/Inc/stm32l0xx_ll_usart.h **** /**
 396:../../dependencies/STM32CubeL0/Drivers/STM32L0xx_HAL_Driver/Inc/stm32l0xx_ll_usart.h ****   * @}
 397:../../dependencies/STM32CubeL0/Drivers/STM32L0xx_HAL_Driver/Inc/stm32l0xx_ll_usart.h ****   */
 398:../../dependencies/STM32CubeL0/Drivers/STM32L0xx_HAL_Driver/Inc/stm32l0xx_ll_usart.h **** 
 399:../../dependencies/STM32CubeL0/Drivers/STM32L0xx_HAL_Driver/Inc/stm32l0xx_ll_usart.h **** /** @defgroup USART_LL_EC_HWCONTROL Hardware Control
 400:../../dependencies/STM32CubeL0/Drivers/STM32L0xx_HAL_Driver/Inc/stm32l0xx_ll_usart.h ****   * @{
 401:../../dependencies/STM32CubeL0/Drivers/STM32L0xx_HAL_Driver/Inc/stm32l0xx_ll_usart.h ****   */
 402:../../dependencies/STM32CubeL0/Drivers/STM32L0xx_HAL_Driver/Inc/stm32l0xx_ll_usart.h **** #define LL_USART_HWCONTROL_NONE                 0x00000000U                          /*!< CTS and R
 403:../../dependencies/STM32CubeL0/Drivers/STM32L0xx_HAL_Driver/Inc/stm32l0xx_ll_usart.h **** #define LL_USART_HWCONTROL_RTS                  USART_CR3_RTSE                       /*!< RTS outpu
 404:../../dependencies/STM32CubeL0/Drivers/STM32L0xx_HAL_Driver/Inc/stm32l0xx_ll_usart.h **** #define LL_USART_HWCONTROL_CTS                  USART_CR3_CTSE                       /*!< CTS mode 
 405:../../dependencies/STM32CubeL0/Drivers/STM32L0xx_HAL_Driver/Inc/stm32l0xx_ll_usart.h **** #define LL_USART_HWCONTROL_RTS_CTS              (USART_CR3_RTSE | USART_CR3_CTSE)    /*!< CTS and R
 406:../../dependencies/STM32CubeL0/Drivers/STM32L0xx_HAL_Driver/Inc/stm32l0xx_ll_usart.h **** /**
 407:../../dependencies/STM32CubeL0/Drivers/STM32L0xx_HAL_Driver/Inc/stm32l0xx_ll_usart.h ****   * @}
 408:../../dependencies/STM32CubeL0/Drivers/STM32L0xx_HAL_Driver/Inc/stm32l0xx_ll_usart.h ****   */
 409:../../dependencies/STM32CubeL0/Drivers/STM32L0xx_HAL_Driver/Inc/stm32l0xx_ll_usart.h **** 
 410:../../dependencies/STM32CubeL0/Drivers/STM32L0xx_HAL_Driver/Inc/stm32l0xx_ll_usart.h **** /** @defgroup USART_LL_EC_WAKEUP_ON Wakeup Activation
 411:../../dependencies/STM32CubeL0/Drivers/STM32L0xx_HAL_Driver/Inc/stm32l0xx_ll_usart.h ****   * @{
 412:../../dependencies/STM32CubeL0/Drivers/STM32L0xx_HAL_Driver/Inc/stm32l0xx_ll_usart.h ****   */
 413:../../dependencies/STM32CubeL0/Drivers/STM32L0xx_HAL_Driver/Inc/stm32l0xx_ll_usart.h **** #define LL_USART_WAKEUP_ON_ADDRESS              0x00000000U                             /*!< Wake u
 414:../../dependencies/STM32CubeL0/Drivers/STM32L0xx_HAL_Driver/Inc/stm32l0xx_ll_usart.h **** #define LL_USART_WAKEUP_ON_STARTBIT             USART_CR3_WUS_1                         /*!< Wake u
 415:../../dependencies/STM32CubeL0/Drivers/STM32L0xx_HAL_Driver/Inc/stm32l0xx_ll_usart.h **** #define LL_USART_WAKEUP_ON_RXNE                 (USART_CR3_WUS_0 | USART_CR3_WUS_1)     /*!< Wake u
 416:../../dependencies/STM32CubeL0/Drivers/STM32L0xx_HAL_Driver/Inc/stm32l0xx_ll_usart.h **** /**
 417:../../dependencies/STM32CubeL0/Drivers/STM32L0xx_HAL_Driver/Inc/stm32l0xx_ll_usart.h ****   * @}
 418:../../dependencies/STM32CubeL0/Drivers/STM32L0xx_HAL_Driver/Inc/stm32l0xx_ll_usart.h ****   */
 419:../../dependencies/STM32CubeL0/Drivers/STM32L0xx_HAL_Driver/Inc/stm32l0xx_ll_usart.h **** 
 420:../../dependencies/STM32CubeL0/Drivers/STM32L0xx_HAL_Driver/Inc/stm32l0xx_ll_usart.h **** /** @defgroup USART_LL_EC_IRDA_POWER IrDA Power
 421:../../dependencies/STM32CubeL0/Drivers/STM32L0xx_HAL_Driver/Inc/stm32l0xx_ll_usart.h ****   * @{
 422:../../dependencies/STM32CubeL0/Drivers/STM32L0xx_HAL_Driver/Inc/stm32l0xx_ll_usart.h ****   */
 423:../../dependencies/STM32CubeL0/Drivers/STM32L0xx_HAL_Driver/Inc/stm32l0xx_ll_usart.h **** #define LL_USART_IRDA_POWER_NORMAL              0x00000000U           /*!< IrDA normal power mode *
 424:../../dependencies/STM32CubeL0/Drivers/STM32L0xx_HAL_Driver/Inc/stm32l0xx_ll_usart.h **** #define LL_USART_IRDA_POWER_LOW                 USART_CR3_IRLP        /*!< IrDA low power mode */
 425:../../dependencies/STM32CubeL0/Drivers/STM32L0xx_HAL_Driver/Inc/stm32l0xx_ll_usart.h **** /**
 426:../../dependencies/STM32CubeL0/Drivers/STM32L0xx_HAL_Driver/Inc/stm32l0xx_ll_usart.h ****   * @}
 427:../../dependencies/STM32CubeL0/Drivers/STM32L0xx_HAL_Driver/Inc/stm32l0xx_ll_usart.h ****   */
 428:../../dependencies/STM32CubeL0/Drivers/STM32L0xx_HAL_Driver/Inc/stm32l0xx_ll_usart.h **** 
 429:../../dependencies/STM32CubeL0/Drivers/STM32L0xx_HAL_Driver/Inc/stm32l0xx_ll_usart.h **** /** @defgroup USART_LL_EC_LINBREAK_DETECT LIN Break Detection Length
 430:../../dependencies/STM32CubeL0/Drivers/STM32L0xx_HAL_Driver/Inc/stm32l0xx_ll_usart.h ****   * @{
 431:../../dependencies/STM32CubeL0/Drivers/STM32L0xx_HAL_Driver/Inc/stm32l0xx_ll_usart.h ****   */
 432:../../dependencies/STM32CubeL0/Drivers/STM32L0xx_HAL_Driver/Inc/stm32l0xx_ll_usart.h **** #define LL_USART_LINBREAK_DETECT_10B            0x00000000U           /*!< 10-bit break detection m
ARM GAS  /var/folders/fs/dxwfnrqj18z860lwl3d6f5t00000gn/T//ccABuIkd.s 			page 9


 433:../../dependencies/STM32CubeL0/Drivers/STM32L0xx_HAL_Driver/Inc/stm32l0xx_ll_usart.h **** #define LL_USART_LINBREAK_DETECT_11B            USART_CR2_LBDL        /*!< 11-bit break detection m
 434:../../dependencies/STM32CubeL0/Drivers/STM32L0xx_HAL_Driver/Inc/stm32l0xx_ll_usart.h **** /**
 435:../../dependencies/STM32CubeL0/Drivers/STM32L0xx_HAL_Driver/Inc/stm32l0xx_ll_usart.h ****   * @}
 436:../../dependencies/STM32CubeL0/Drivers/STM32L0xx_HAL_Driver/Inc/stm32l0xx_ll_usart.h ****   */
 437:../../dependencies/STM32CubeL0/Drivers/STM32L0xx_HAL_Driver/Inc/stm32l0xx_ll_usart.h **** 
 438:../../dependencies/STM32CubeL0/Drivers/STM32L0xx_HAL_Driver/Inc/stm32l0xx_ll_usart.h **** /** @defgroup USART_LL_EC_DE_POLARITY Driver Enable Polarity
 439:../../dependencies/STM32CubeL0/Drivers/STM32L0xx_HAL_Driver/Inc/stm32l0xx_ll_usart.h ****   * @{
 440:../../dependencies/STM32CubeL0/Drivers/STM32L0xx_HAL_Driver/Inc/stm32l0xx_ll_usart.h ****   */
 441:../../dependencies/STM32CubeL0/Drivers/STM32L0xx_HAL_Driver/Inc/stm32l0xx_ll_usart.h **** #define LL_USART_DE_POLARITY_HIGH               0x00000000U           /*!< DE signal is active high
 442:../../dependencies/STM32CubeL0/Drivers/STM32L0xx_HAL_Driver/Inc/stm32l0xx_ll_usart.h **** #define LL_USART_DE_POLARITY_LOW                USART_CR3_DEP         /*!< DE signal is active low 
 443:../../dependencies/STM32CubeL0/Drivers/STM32L0xx_HAL_Driver/Inc/stm32l0xx_ll_usart.h **** /**
 444:../../dependencies/STM32CubeL0/Drivers/STM32L0xx_HAL_Driver/Inc/stm32l0xx_ll_usart.h ****   * @}
 445:../../dependencies/STM32CubeL0/Drivers/STM32L0xx_HAL_Driver/Inc/stm32l0xx_ll_usart.h ****   */
 446:../../dependencies/STM32CubeL0/Drivers/STM32L0xx_HAL_Driver/Inc/stm32l0xx_ll_usart.h **** 
 447:../../dependencies/STM32CubeL0/Drivers/STM32L0xx_HAL_Driver/Inc/stm32l0xx_ll_usart.h **** /** @defgroup USART_LL_EC_DMA_REG_DATA DMA Register Data
 448:../../dependencies/STM32CubeL0/Drivers/STM32L0xx_HAL_Driver/Inc/stm32l0xx_ll_usart.h ****   * @{
 449:../../dependencies/STM32CubeL0/Drivers/STM32L0xx_HAL_Driver/Inc/stm32l0xx_ll_usart.h ****   */
 450:../../dependencies/STM32CubeL0/Drivers/STM32L0xx_HAL_Driver/Inc/stm32l0xx_ll_usart.h **** #define LL_USART_DMA_REG_DATA_TRANSMIT          0x00000000U          /*!< Get address of data regis
 451:../../dependencies/STM32CubeL0/Drivers/STM32L0xx_HAL_Driver/Inc/stm32l0xx_ll_usart.h **** #define LL_USART_DMA_REG_DATA_RECEIVE           0x00000001U          /*!< Get address of data regis
 452:../../dependencies/STM32CubeL0/Drivers/STM32L0xx_HAL_Driver/Inc/stm32l0xx_ll_usart.h **** /**
 453:../../dependencies/STM32CubeL0/Drivers/STM32L0xx_HAL_Driver/Inc/stm32l0xx_ll_usart.h ****   * @}
 454:../../dependencies/STM32CubeL0/Drivers/STM32L0xx_HAL_Driver/Inc/stm32l0xx_ll_usart.h ****   */
 455:../../dependencies/STM32CubeL0/Drivers/STM32L0xx_HAL_Driver/Inc/stm32l0xx_ll_usart.h **** 
 456:../../dependencies/STM32CubeL0/Drivers/STM32L0xx_HAL_Driver/Inc/stm32l0xx_ll_usart.h **** /**
 457:../../dependencies/STM32CubeL0/Drivers/STM32L0xx_HAL_Driver/Inc/stm32l0xx_ll_usart.h ****   * @}
 458:../../dependencies/STM32CubeL0/Drivers/STM32L0xx_HAL_Driver/Inc/stm32l0xx_ll_usart.h ****   */
 459:../../dependencies/STM32CubeL0/Drivers/STM32L0xx_HAL_Driver/Inc/stm32l0xx_ll_usart.h **** 
 460:../../dependencies/STM32CubeL0/Drivers/STM32L0xx_HAL_Driver/Inc/stm32l0xx_ll_usart.h **** /* Exported macro ------------------------------------------------------------*/
 461:../../dependencies/STM32CubeL0/Drivers/STM32L0xx_HAL_Driver/Inc/stm32l0xx_ll_usart.h **** /** @defgroup USART_LL_Exported_Macros USART Exported Macros
 462:../../dependencies/STM32CubeL0/Drivers/STM32L0xx_HAL_Driver/Inc/stm32l0xx_ll_usart.h ****   * @{
 463:../../dependencies/STM32CubeL0/Drivers/STM32L0xx_HAL_Driver/Inc/stm32l0xx_ll_usart.h ****   */
 464:../../dependencies/STM32CubeL0/Drivers/STM32L0xx_HAL_Driver/Inc/stm32l0xx_ll_usart.h **** 
 465:../../dependencies/STM32CubeL0/Drivers/STM32L0xx_HAL_Driver/Inc/stm32l0xx_ll_usart.h **** /** @defgroup USART_LL_EM_WRITE_READ Common Write and read registers Macros
 466:../../dependencies/STM32CubeL0/Drivers/STM32L0xx_HAL_Driver/Inc/stm32l0xx_ll_usart.h ****   * @{
 467:../../dependencies/STM32CubeL0/Drivers/STM32L0xx_HAL_Driver/Inc/stm32l0xx_ll_usart.h ****   */
 468:../../dependencies/STM32CubeL0/Drivers/STM32L0xx_HAL_Driver/Inc/stm32l0xx_ll_usart.h **** 
 469:../../dependencies/STM32CubeL0/Drivers/STM32L0xx_HAL_Driver/Inc/stm32l0xx_ll_usart.h **** /**
 470:../../dependencies/STM32CubeL0/Drivers/STM32L0xx_HAL_Driver/Inc/stm32l0xx_ll_usart.h ****   * @brief  Write a value in USART register
 471:../../dependencies/STM32CubeL0/Drivers/STM32L0xx_HAL_Driver/Inc/stm32l0xx_ll_usart.h ****   * @param  __INSTANCE__ USART Instance
 472:../../dependencies/STM32CubeL0/Drivers/STM32L0xx_HAL_Driver/Inc/stm32l0xx_ll_usart.h ****   * @param  __REG__ Register to be written
 473:../../dependencies/STM32CubeL0/Drivers/STM32L0xx_HAL_Driver/Inc/stm32l0xx_ll_usart.h ****   * @param  __VALUE__ Value to be written in the register
 474:../../dependencies/STM32CubeL0/Drivers/STM32L0xx_HAL_Driver/Inc/stm32l0xx_ll_usart.h ****   * @retval None
 475:../../dependencies/STM32CubeL0/Drivers/STM32L0xx_HAL_Driver/Inc/stm32l0xx_ll_usart.h ****   */
 476:../../dependencies/STM32CubeL0/Drivers/STM32L0xx_HAL_Driver/Inc/stm32l0xx_ll_usart.h **** #define LL_USART_WriteReg(__INSTANCE__, __REG__, __VALUE__) WRITE_REG(__INSTANCE__->__REG__, (__VAL
 477:../../dependencies/STM32CubeL0/Drivers/STM32L0xx_HAL_Driver/Inc/stm32l0xx_ll_usart.h **** 
 478:../../dependencies/STM32CubeL0/Drivers/STM32L0xx_HAL_Driver/Inc/stm32l0xx_ll_usart.h **** /**
 479:../../dependencies/STM32CubeL0/Drivers/STM32L0xx_HAL_Driver/Inc/stm32l0xx_ll_usart.h ****   * @brief  Read a value in USART register
 480:../../dependencies/STM32CubeL0/Drivers/STM32L0xx_HAL_Driver/Inc/stm32l0xx_ll_usart.h ****   * @param  __INSTANCE__ USART Instance
 481:../../dependencies/STM32CubeL0/Drivers/STM32L0xx_HAL_Driver/Inc/stm32l0xx_ll_usart.h ****   * @param  __REG__ Register to be read
 482:../../dependencies/STM32CubeL0/Drivers/STM32L0xx_HAL_Driver/Inc/stm32l0xx_ll_usart.h ****   * @retval Register value
 483:../../dependencies/STM32CubeL0/Drivers/STM32L0xx_HAL_Driver/Inc/stm32l0xx_ll_usart.h ****   */
 484:../../dependencies/STM32CubeL0/Drivers/STM32L0xx_HAL_Driver/Inc/stm32l0xx_ll_usart.h **** #define LL_USART_ReadReg(__INSTANCE__, __REG__) READ_REG(__INSTANCE__->__REG__)
 485:../../dependencies/STM32CubeL0/Drivers/STM32L0xx_HAL_Driver/Inc/stm32l0xx_ll_usart.h **** /**
 486:../../dependencies/STM32CubeL0/Drivers/STM32L0xx_HAL_Driver/Inc/stm32l0xx_ll_usart.h ****   * @}
 487:../../dependencies/STM32CubeL0/Drivers/STM32L0xx_HAL_Driver/Inc/stm32l0xx_ll_usart.h ****   */
 488:../../dependencies/STM32CubeL0/Drivers/STM32L0xx_HAL_Driver/Inc/stm32l0xx_ll_usart.h **** 
 489:../../dependencies/STM32CubeL0/Drivers/STM32L0xx_HAL_Driver/Inc/stm32l0xx_ll_usart.h **** /** @defgroup USART_LL_EM_Exported_Macros_Helper Exported_Macros_Helper
ARM GAS  /var/folders/fs/dxwfnrqj18z860lwl3d6f5t00000gn/T//ccABuIkd.s 			page 10


 490:../../dependencies/STM32CubeL0/Drivers/STM32L0xx_HAL_Driver/Inc/stm32l0xx_ll_usart.h ****   * @{
 491:../../dependencies/STM32CubeL0/Drivers/STM32L0xx_HAL_Driver/Inc/stm32l0xx_ll_usart.h ****   */
 492:../../dependencies/STM32CubeL0/Drivers/STM32L0xx_HAL_Driver/Inc/stm32l0xx_ll_usart.h **** 
 493:../../dependencies/STM32CubeL0/Drivers/STM32L0xx_HAL_Driver/Inc/stm32l0xx_ll_usart.h **** /**
 494:../../dependencies/STM32CubeL0/Drivers/STM32L0xx_HAL_Driver/Inc/stm32l0xx_ll_usart.h ****   * @brief  Compute USARTDIV value according to Peripheral Clock and
 495:../../dependencies/STM32CubeL0/Drivers/STM32L0xx_HAL_Driver/Inc/stm32l0xx_ll_usart.h ****   *         expected Baud Rate in 8 bits sampling mode (32 bits value of USARTDIV is returned)
 496:../../dependencies/STM32CubeL0/Drivers/STM32L0xx_HAL_Driver/Inc/stm32l0xx_ll_usart.h ****   * @param  __PERIPHCLK__ Peripheral Clock frequency used for USART instance
 497:../../dependencies/STM32CubeL0/Drivers/STM32L0xx_HAL_Driver/Inc/stm32l0xx_ll_usart.h ****   * @param  __BAUDRATE__ Baud rate value to achieve
 498:../../dependencies/STM32CubeL0/Drivers/STM32L0xx_HAL_Driver/Inc/stm32l0xx_ll_usart.h ****   * @retval USARTDIV value to be used for BRR register filling in OverSampling_8 case
 499:../../dependencies/STM32CubeL0/Drivers/STM32L0xx_HAL_Driver/Inc/stm32l0xx_ll_usart.h ****   */
 500:../../dependencies/STM32CubeL0/Drivers/STM32L0xx_HAL_Driver/Inc/stm32l0xx_ll_usart.h **** #define __LL_USART_DIV_SAMPLING8(__PERIPHCLK__, __BAUDRATE__) ((((__PERIPHCLK__)*2U)\
 501:../../dependencies/STM32CubeL0/Drivers/STM32L0xx_HAL_Driver/Inc/stm32l0xx_ll_usart.h ****                                                                 + ((__BAUDRATE__)/2U))/(__BAUDRATE_
 502:../../dependencies/STM32CubeL0/Drivers/STM32L0xx_HAL_Driver/Inc/stm32l0xx_ll_usart.h **** 
 503:../../dependencies/STM32CubeL0/Drivers/STM32L0xx_HAL_Driver/Inc/stm32l0xx_ll_usart.h **** /**
 504:../../dependencies/STM32CubeL0/Drivers/STM32L0xx_HAL_Driver/Inc/stm32l0xx_ll_usart.h ****   * @brief  Compute USARTDIV value according to Peripheral Clock and
 505:../../dependencies/STM32CubeL0/Drivers/STM32L0xx_HAL_Driver/Inc/stm32l0xx_ll_usart.h ****   *         expected Baud Rate in 16 bits sampling mode (32 bits value of USARTDIV is returned)
 506:../../dependencies/STM32CubeL0/Drivers/STM32L0xx_HAL_Driver/Inc/stm32l0xx_ll_usart.h ****   * @param  __PERIPHCLK__ Peripheral Clock frequency used for USART instance
 507:../../dependencies/STM32CubeL0/Drivers/STM32L0xx_HAL_Driver/Inc/stm32l0xx_ll_usart.h ****   * @param  __BAUDRATE__ Baud rate value to achieve
 508:../../dependencies/STM32CubeL0/Drivers/STM32L0xx_HAL_Driver/Inc/stm32l0xx_ll_usart.h ****   * @retval USARTDIV value to be used for BRR register filling in OverSampling_16 case
 509:../../dependencies/STM32CubeL0/Drivers/STM32L0xx_HAL_Driver/Inc/stm32l0xx_ll_usart.h ****   */
 510:../../dependencies/STM32CubeL0/Drivers/STM32L0xx_HAL_Driver/Inc/stm32l0xx_ll_usart.h **** #define __LL_USART_DIV_SAMPLING16(__PERIPHCLK__, __BAUDRATE__) (((__PERIPHCLK__) + ((__BAUDRATE__)/
 511:../../dependencies/STM32CubeL0/Drivers/STM32L0xx_HAL_Driver/Inc/stm32l0xx_ll_usart.h **** 
 512:../../dependencies/STM32CubeL0/Drivers/STM32L0xx_HAL_Driver/Inc/stm32l0xx_ll_usart.h **** /**
 513:../../dependencies/STM32CubeL0/Drivers/STM32L0xx_HAL_Driver/Inc/stm32l0xx_ll_usart.h ****   * @}
 514:../../dependencies/STM32CubeL0/Drivers/STM32L0xx_HAL_Driver/Inc/stm32l0xx_ll_usart.h ****   */
 515:../../dependencies/STM32CubeL0/Drivers/STM32L0xx_HAL_Driver/Inc/stm32l0xx_ll_usart.h **** 
 516:../../dependencies/STM32CubeL0/Drivers/STM32L0xx_HAL_Driver/Inc/stm32l0xx_ll_usart.h **** /**
 517:../../dependencies/STM32CubeL0/Drivers/STM32L0xx_HAL_Driver/Inc/stm32l0xx_ll_usart.h ****   * @}
 518:../../dependencies/STM32CubeL0/Drivers/STM32L0xx_HAL_Driver/Inc/stm32l0xx_ll_usart.h ****   */
 519:../../dependencies/STM32CubeL0/Drivers/STM32L0xx_HAL_Driver/Inc/stm32l0xx_ll_usart.h **** 
 520:../../dependencies/STM32CubeL0/Drivers/STM32L0xx_HAL_Driver/Inc/stm32l0xx_ll_usart.h **** /* Exported functions --------------------------------------------------------*/
 521:../../dependencies/STM32CubeL0/Drivers/STM32L0xx_HAL_Driver/Inc/stm32l0xx_ll_usart.h **** 
 522:../../dependencies/STM32CubeL0/Drivers/STM32L0xx_HAL_Driver/Inc/stm32l0xx_ll_usart.h **** /** @defgroup USART_LL_Exported_Functions USART Exported Functions
 523:../../dependencies/STM32CubeL0/Drivers/STM32L0xx_HAL_Driver/Inc/stm32l0xx_ll_usart.h ****   * @{
 524:../../dependencies/STM32CubeL0/Drivers/STM32L0xx_HAL_Driver/Inc/stm32l0xx_ll_usart.h ****   */
 525:../../dependencies/STM32CubeL0/Drivers/STM32L0xx_HAL_Driver/Inc/stm32l0xx_ll_usart.h **** 
 526:../../dependencies/STM32CubeL0/Drivers/STM32L0xx_HAL_Driver/Inc/stm32l0xx_ll_usart.h **** /** @defgroup USART_LL_EF_Configuration Configuration functions
 527:../../dependencies/STM32CubeL0/Drivers/STM32L0xx_HAL_Driver/Inc/stm32l0xx_ll_usart.h ****   * @{
 528:../../dependencies/STM32CubeL0/Drivers/STM32L0xx_HAL_Driver/Inc/stm32l0xx_ll_usart.h ****   */
 529:../../dependencies/STM32CubeL0/Drivers/STM32L0xx_HAL_Driver/Inc/stm32l0xx_ll_usart.h **** 
 530:../../dependencies/STM32CubeL0/Drivers/STM32L0xx_HAL_Driver/Inc/stm32l0xx_ll_usart.h **** /**
 531:../../dependencies/STM32CubeL0/Drivers/STM32L0xx_HAL_Driver/Inc/stm32l0xx_ll_usart.h ****   * @brief  USART Enable
 532:../../dependencies/STM32CubeL0/Drivers/STM32L0xx_HAL_Driver/Inc/stm32l0xx_ll_usart.h ****   * @rmtoll CR1          UE            LL_USART_Enable
 533:../../dependencies/STM32CubeL0/Drivers/STM32L0xx_HAL_Driver/Inc/stm32l0xx_ll_usart.h ****   * @param  USARTx USART Instance
 534:../../dependencies/STM32CubeL0/Drivers/STM32L0xx_HAL_Driver/Inc/stm32l0xx_ll_usart.h ****   * @retval None
 535:../../dependencies/STM32CubeL0/Drivers/STM32L0xx_HAL_Driver/Inc/stm32l0xx_ll_usart.h ****   */
 536:../../dependencies/STM32CubeL0/Drivers/STM32L0xx_HAL_Driver/Inc/stm32l0xx_ll_usart.h **** __STATIC_INLINE void LL_USART_Enable(USART_TypeDef *USARTx)
 537:../../dependencies/STM32CubeL0/Drivers/STM32L0xx_HAL_Driver/Inc/stm32l0xx_ll_usart.h **** {
 538:../../dependencies/STM32CubeL0/Drivers/STM32L0xx_HAL_Driver/Inc/stm32l0xx_ll_usart.h ****   SET_BIT(USARTx->CR1, USART_CR1_UE);
 539:../../dependencies/STM32CubeL0/Drivers/STM32L0xx_HAL_Driver/Inc/stm32l0xx_ll_usart.h **** }
 540:../../dependencies/STM32CubeL0/Drivers/STM32L0xx_HAL_Driver/Inc/stm32l0xx_ll_usart.h **** 
 541:../../dependencies/STM32CubeL0/Drivers/STM32L0xx_HAL_Driver/Inc/stm32l0xx_ll_usart.h **** /**
 542:../../dependencies/STM32CubeL0/Drivers/STM32L0xx_HAL_Driver/Inc/stm32l0xx_ll_usart.h ****   * @brief  USART Disable (all USART prescalers and outputs are disabled)
 543:../../dependencies/STM32CubeL0/Drivers/STM32L0xx_HAL_Driver/Inc/stm32l0xx_ll_usart.h ****   * @note   When USART is disabled, USART prescalers and outputs are stopped immediately,
 544:../../dependencies/STM32CubeL0/Drivers/STM32L0xx_HAL_Driver/Inc/stm32l0xx_ll_usart.h ****   *         and current operations are discarded. The configuration of the USART is kept, but all t
 545:../../dependencies/STM32CubeL0/Drivers/STM32L0xx_HAL_Driver/Inc/stm32l0xx_ll_usart.h ****   *         flags, in the USARTx_ISR are set to their default values.
 546:../../dependencies/STM32CubeL0/Drivers/STM32L0xx_HAL_Driver/Inc/stm32l0xx_ll_usart.h ****   * @rmtoll CR1          UE            LL_USART_Disable
ARM GAS  /var/folders/fs/dxwfnrqj18z860lwl3d6f5t00000gn/T//ccABuIkd.s 			page 11


 547:../../dependencies/STM32CubeL0/Drivers/STM32L0xx_HAL_Driver/Inc/stm32l0xx_ll_usart.h ****   * @param  USARTx USART Instance
 548:../../dependencies/STM32CubeL0/Drivers/STM32L0xx_HAL_Driver/Inc/stm32l0xx_ll_usart.h ****   * @retval None
 549:../../dependencies/STM32CubeL0/Drivers/STM32L0xx_HAL_Driver/Inc/stm32l0xx_ll_usart.h ****   */
 550:../../dependencies/STM32CubeL0/Drivers/STM32L0xx_HAL_Driver/Inc/stm32l0xx_ll_usart.h **** __STATIC_INLINE void LL_USART_Disable(USART_TypeDef *USARTx)
 551:../../dependencies/STM32CubeL0/Drivers/STM32L0xx_HAL_Driver/Inc/stm32l0xx_ll_usart.h **** {
 552:../../dependencies/STM32CubeL0/Drivers/STM32L0xx_HAL_Driver/Inc/stm32l0xx_ll_usart.h ****   CLEAR_BIT(USARTx->CR1, USART_CR1_UE);
 553:../../dependencies/STM32CubeL0/Drivers/STM32L0xx_HAL_Driver/Inc/stm32l0xx_ll_usart.h **** }
 554:../../dependencies/STM32CubeL0/Drivers/STM32L0xx_HAL_Driver/Inc/stm32l0xx_ll_usart.h **** 
 555:../../dependencies/STM32CubeL0/Drivers/STM32L0xx_HAL_Driver/Inc/stm32l0xx_ll_usart.h **** /**
 556:../../dependencies/STM32CubeL0/Drivers/STM32L0xx_HAL_Driver/Inc/stm32l0xx_ll_usart.h ****   * @brief  Indicate if USART is enabled
 557:../../dependencies/STM32CubeL0/Drivers/STM32L0xx_HAL_Driver/Inc/stm32l0xx_ll_usart.h ****   * @rmtoll CR1          UE            LL_USART_IsEnabled
 558:../../dependencies/STM32CubeL0/Drivers/STM32L0xx_HAL_Driver/Inc/stm32l0xx_ll_usart.h ****   * @param  USARTx USART Instance
 559:../../dependencies/STM32CubeL0/Drivers/STM32L0xx_HAL_Driver/Inc/stm32l0xx_ll_usart.h ****   * @retval State of bit (1 or 0).
 560:../../dependencies/STM32CubeL0/Drivers/STM32L0xx_HAL_Driver/Inc/stm32l0xx_ll_usart.h ****   */
 561:../../dependencies/STM32CubeL0/Drivers/STM32L0xx_HAL_Driver/Inc/stm32l0xx_ll_usart.h **** __STATIC_INLINE uint32_t LL_USART_IsEnabled(USART_TypeDef *USARTx)
 562:../../dependencies/STM32CubeL0/Drivers/STM32L0xx_HAL_Driver/Inc/stm32l0xx_ll_usart.h **** {
  26              		.loc 1 562 1
  27              		.cfi_startproc
  28              		@ args = 0, pretend = 0, frame = 8
  29              		@ frame_needed = 1, uses_anonymous_args = 0
  30 0000 80B5     		push	{r7, lr}
  31              		.cfi_def_cfa_offset 8
  32              		.cfi_offset 7, -8
  33              		.cfi_offset 14, -4
  34 0002 82B0     		sub	sp, sp, #8
  35              		.cfi_def_cfa_offset 16
  36 0004 00AF     		add	r7, sp, #0
  37              		.cfi_def_cfa_register 7
  38 0006 7860     		str	r0, [r7, #4]
 563:../../dependencies/STM32CubeL0/Drivers/STM32L0xx_HAL_Driver/Inc/stm32l0xx_ll_usart.h ****   return ((READ_BIT(USARTx->CR1, USART_CR1_UE) == (USART_CR1_UE)) ? 1UL : 0UL);
  39              		.loc 1 563 12
  40 0008 7B68     		ldr	r3, [r7, #4]
  41 000a 1B68     		ldr	r3, [r3]
  42 000c 0122     		movs	r2, #1
  43 000e 1340     		ands	r3, r2
  44              		.loc 1 563 73
  45 0010 012B     		cmp	r3, #1
  46 0012 01D1     		bne	.L2
  47              		.loc 1 563 73 is_stmt 0 discriminator 1
  48 0014 0123     		movs	r3, #1
  49 0016 00E0     		b	.L4
  50              	.L2:
  51              		.loc 1 563 73 discriminator 2
  52 0018 0023     		movs	r3, #0
  53              	.L4:
 564:../../dependencies/STM32CubeL0/Drivers/STM32L0xx_HAL_Driver/Inc/stm32l0xx_ll_usart.h **** }
  54              		.loc 1 564 1 is_stmt 1 discriminator 5
  55 001a 1800     		movs	r0, r3
  56 001c BD46     		mov	sp, r7
  57 001e 02B0     		add	sp, sp, #8
  58              		@ sp needed
  59 0020 80BD     		pop	{r7, pc}
  60              		.cfi_endproc
  61              	.LFE49:
  63              		.section	.text.LL_USART_DisableSCLKOutput,"ax",%progbits
  64              		.align	1
  65              		.syntax unified
ARM GAS  /var/folders/fs/dxwfnrqj18z860lwl3d6f5t00000gn/T//ccABuIkd.s 			page 12


  66              		.code	16
  67              		.thumb_func
  68              		.fpu softvfp
  70              	LL_USART_DisableSCLKOutput:
  71              	.LFB81:
 565:../../dependencies/STM32CubeL0/Drivers/STM32L0xx_HAL_Driver/Inc/stm32l0xx_ll_usart.h **** 
 566:../../dependencies/STM32CubeL0/Drivers/STM32L0xx_HAL_Driver/Inc/stm32l0xx_ll_usart.h **** /**
 567:../../dependencies/STM32CubeL0/Drivers/STM32L0xx_HAL_Driver/Inc/stm32l0xx_ll_usart.h ****   * @brief  USART enabled in STOP Mode.
 568:../../dependencies/STM32CubeL0/Drivers/STM32L0xx_HAL_Driver/Inc/stm32l0xx_ll_usart.h ****   * @note   When this function is enabled, USART is able to wake up the MCU from Stop mode, provide
 569:../../dependencies/STM32CubeL0/Drivers/STM32L0xx_HAL_Driver/Inc/stm32l0xx_ll_usart.h ****   *         USART clock selection is HSI or LSE in RCC.
 570:../../dependencies/STM32CubeL0/Drivers/STM32L0xx_HAL_Driver/Inc/stm32l0xx_ll_usart.h ****   * @note   Macro IS_UART_WAKEUP_FROMSTOP_INSTANCE(USARTx) can be used to check whether or not
 571:../../dependencies/STM32CubeL0/Drivers/STM32L0xx_HAL_Driver/Inc/stm32l0xx_ll_usart.h ****   *         Wake-up from Stop mode feature is supported by the USARTx instance.
 572:../../dependencies/STM32CubeL0/Drivers/STM32L0xx_HAL_Driver/Inc/stm32l0xx_ll_usart.h ****   * @rmtoll CR1          UESM          LL_USART_EnableInStopMode
 573:../../dependencies/STM32CubeL0/Drivers/STM32L0xx_HAL_Driver/Inc/stm32l0xx_ll_usart.h ****   * @param  USARTx USART Instance
 574:../../dependencies/STM32CubeL0/Drivers/STM32L0xx_HAL_Driver/Inc/stm32l0xx_ll_usart.h ****   * @retval None
 575:../../dependencies/STM32CubeL0/Drivers/STM32L0xx_HAL_Driver/Inc/stm32l0xx_ll_usart.h ****   */
 576:../../dependencies/STM32CubeL0/Drivers/STM32L0xx_HAL_Driver/Inc/stm32l0xx_ll_usart.h **** __STATIC_INLINE void LL_USART_EnableInStopMode(USART_TypeDef *USARTx)
 577:../../dependencies/STM32CubeL0/Drivers/STM32L0xx_HAL_Driver/Inc/stm32l0xx_ll_usart.h **** {
 578:../../dependencies/STM32CubeL0/Drivers/STM32L0xx_HAL_Driver/Inc/stm32l0xx_ll_usart.h ****   ATOMIC_SET_BIT(USARTx->CR1, USART_CR1_UESM);
 579:../../dependencies/STM32CubeL0/Drivers/STM32L0xx_HAL_Driver/Inc/stm32l0xx_ll_usart.h **** }
 580:../../dependencies/STM32CubeL0/Drivers/STM32L0xx_HAL_Driver/Inc/stm32l0xx_ll_usart.h **** 
 581:../../dependencies/STM32CubeL0/Drivers/STM32L0xx_HAL_Driver/Inc/stm32l0xx_ll_usart.h **** /**
 582:../../dependencies/STM32CubeL0/Drivers/STM32L0xx_HAL_Driver/Inc/stm32l0xx_ll_usart.h ****   * @brief  USART disabled in STOP Mode.
 583:../../dependencies/STM32CubeL0/Drivers/STM32L0xx_HAL_Driver/Inc/stm32l0xx_ll_usart.h ****   * @note   When this function is disabled, USART is not able to wake up the MCU from Stop mode
 584:../../dependencies/STM32CubeL0/Drivers/STM32L0xx_HAL_Driver/Inc/stm32l0xx_ll_usart.h ****   * @note   Macro IS_UART_WAKEUP_FROMSTOP_INSTANCE(USARTx) can be used to check whether or not
 585:../../dependencies/STM32CubeL0/Drivers/STM32L0xx_HAL_Driver/Inc/stm32l0xx_ll_usart.h ****   *         Wake-up from Stop mode feature is supported by the USARTx instance.
 586:../../dependencies/STM32CubeL0/Drivers/STM32L0xx_HAL_Driver/Inc/stm32l0xx_ll_usart.h ****   * @rmtoll CR1          UESM          LL_USART_DisableInStopMode
 587:../../dependencies/STM32CubeL0/Drivers/STM32L0xx_HAL_Driver/Inc/stm32l0xx_ll_usart.h ****   * @param  USARTx USART Instance
 588:../../dependencies/STM32CubeL0/Drivers/STM32L0xx_HAL_Driver/Inc/stm32l0xx_ll_usart.h ****   * @retval None
 589:../../dependencies/STM32CubeL0/Drivers/STM32L0xx_HAL_Driver/Inc/stm32l0xx_ll_usart.h ****   */
 590:../../dependencies/STM32CubeL0/Drivers/STM32L0xx_HAL_Driver/Inc/stm32l0xx_ll_usart.h **** __STATIC_INLINE void LL_USART_DisableInStopMode(USART_TypeDef *USARTx)
 591:../../dependencies/STM32CubeL0/Drivers/STM32L0xx_HAL_Driver/Inc/stm32l0xx_ll_usart.h **** {
 592:../../dependencies/STM32CubeL0/Drivers/STM32L0xx_HAL_Driver/Inc/stm32l0xx_ll_usart.h ****   ATOMIC_CLEAR_BIT(USARTx->CR1, USART_CR1_UESM);
 593:../../dependencies/STM32CubeL0/Drivers/STM32L0xx_HAL_Driver/Inc/stm32l0xx_ll_usart.h **** }
 594:../../dependencies/STM32CubeL0/Drivers/STM32L0xx_HAL_Driver/Inc/stm32l0xx_ll_usart.h **** 
 595:../../dependencies/STM32CubeL0/Drivers/STM32L0xx_HAL_Driver/Inc/stm32l0xx_ll_usart.h **** /**
 596:../../dependencies/STM32CubeL0/Drivers/STM32L0xx_HAL_Driver/Inc/stm32l0xx_ll_usart.h ****   * @brief  Indicate if USART is enabled in STOP Mode (able to wake up MCU from Stop mode or not)
 597:../../dependencies/STM32CubeL0/Drivers/STM32L0xx_HAL_Driver/Inc/stm32l0xx_ll_usart.h ****   * @note   Macro IS_UART_WAKEUP_FROMSTOP_INSTANCE(USARTx) can be used to check whether or not
 598:../../dependencies/STM32CubeL0/Drivers/STM32L0xx_HAL_Driver/Inc/stm32l0xx_ll_usart.h ****   *         Wake-up from Stop mode feature is supported by the USARTx instance.
 599:../../dependencies/STM32CubeL0/Drivers/STM32L0xx_HAL_Driver/Inc/stm32l0xx_ll_usart.h ****   * @rmtoll CR1          UESM          LL_USART_IsEnabledInStopMode
 600:../../dependencies/STM32CubeL0/Drivers/STM32L0xx_HAL_Driver/Inc/stm32l0xx_ll_usart.h ****   * @param  USARTx USART Instance
 601:../../dependencies/STM32CubeL0/Drivers/STM32L0xx_HAL_Driver/Inc/stm32l0xx_ll_usart.h ****   * @retval State of bit (1 or 0).
 602:../../dependencies/STM32CubeL0/Drivers/STM32L0xx_HAL_Driver/Inc/stm32l0xx_ll_usart.h ****   */
 603:../../dependencies/STM32CubeL0/Drivers/STM32L0xx_HAL_Driver/Inc/stm32l0xx_ll_usart.h **** __STATIC_INLINE uint32_t LL_USART_IsEnabledInStopMode(USART_TypeDef *USARTx)
 604:../../dependencies/STM32CubeL0/Drivers/STM32L0xx_HAL_Driver/Inc/stm32l0xx_ll_usart.h **** {
 605:../../dependencies/STM32CubeL0/Drivers/STM32L0xx_HAL_Driver/Inc/stm32l0xx_ll_usart.h ****   return ((READ_BIT(USARTx->CR1, USART_CR1_UESM) == (USART_CR1_UESM)) ? 1UL : 0UL);
 606:../../dependencies/STM32CubeL0/Drivers/STM32L0xx_HAL_Driver/Inc/stm32l0xx_ll_usart.h **** }
 607:../../dependencies/STM32CubeL0/Drivers/STM32L0xx_HAL_Driver/Inc/stm32l0xx_ll_usart.h **** 
 608:../../dependencies/STM32CubeL0/Drivers/STM32L0xx_HAL_Driver/Inc/stm32l0xx_ll_usart.h **** /**
 609:../../dependencies/STM32CubeL0/Drivers/STM32L0xx_HAL_Driver/Inc/stm32l0xx_ll_usart.h ****   * @brief  USART Clock enabled in STOP Mode
 610:../../dependencies/STM32CubeL0/Drivers/STM32L0xx_HAL_Driver/Inc/stm32l0xx_ll_usart.h ****   * @note   When this function is called, USART Clock is enabled while in STOP mode
 611:../../dependencies/STM32CubeL0/Drivers/STM32L0xx_HAL_Driver/Inc/stm32l0xx_ll_usart.h ****   * @rmtoll CR3          UCESM         LL_USART_EnableClockInStopMode
 612:../../dependencies/STM32CubeL0/Drivers/STM32L0xx_HAL_Driver/Inc/stm32l0xx_ll_usart.h ****   * @param  USARTx USART Instance
 613:../../dependencies/STM32CubeL0/Drivers/STM32L0xx_HAL_Driver/Inc/stm32l0xx_ll_usart.h ****   * @retval None
 614:../../dependencies/STM32CubeL0/Drivers/STM32L0xx_HAL_Driver/Inc/stm32l0xx_ll_usart.h ****   */
 615:../../dependencies/STM32CubeL0/Drivers/STM32L0xx_HAL_Driver/Inc/stm32l0xx_ll_usart.h **** __STATIC_INLINE void LL_USART_EnableClockInStopMode(USART_TypeDef *USARTx)
 616:../../dependencies/STM32CubeL0/Drivers/STM32L0xx_HAL_Driver/Inc/stm32l0xx_ll_usart.h **** {
ARM GAS  /var/folders/fs/dxwfnrqj18z860lwl3d6f5t00000gn/T//ccABuIkd.s 			page 13


 617:../../dependencies/STM32CubeL0/Drivers/STM32L0xx_HAL_Driver/Inc/stm32l0xx_ll_usart.h ****   ATOMIC_SET_BIT(USARTx->CR3, USART_CR3_UCESM);
 618:../../dependencies/STM32CubeL0/Drivers/STM32L0xx_HAL_Driver/Inc/stm32l0xx_ll_usart.h **** }
 619:../../dependencies/STM32CubeL0/Drivers/STM32L0xx_HAL_Driver/Inc/stm32l0xx_ll_usart.h **** 
 620:../../dependencies/STM32CubeL0/Drivers/STM32L0xx_HAL_Driver/Inc/stm32l0xx_ll_usart.h **** /**
 621:../../dependencies/STM32CubeL0/Drivers/STM32L0xx_HAL_Driver/Inc/stm32l0xx_ll_usart.h ****   * @brief  USART clock disabled in STOP Mode
 622:../../dependencies/STM32CubeL0/Drivers/STM32L0xx_HAL_Driver/Inc/stm32l0xx_ll_usart.h ****   * @note   When this function is called, USART Clock is disabled while in STOP mode
 623:../../dependencies/STM32CubeL0/Drivers/STM32L0xx_HAL_Driver/Inc/stm32l0xx_ll_usart.h ****   * @rmtoll CR3          UCESM         LL_USART_DisableClockInStopMode
 624:../../dependencies/STM32CubeL0/Drivers/STM32L0xx_HAL_Driver/Inc/stm32l0xx_ll_usart.h ****   * @param  USARTx USART Instance
 625:../../dependencies/STM32CubeL0/Drivers/STM32L0xx_HAL_Driver/Inc/stm32l0xx_ll_usart.h ****   * @retval None
 626:../../dependencies/STM32CubeL0/Drivers/STM32L0xx_HAL_Driver/Inc/stm32l0xx_ll_usart.h ****   */
 627:../../dependencies/STM32CubeL0/Drivers/STM32L0xx_HAL_Driver/Inc/stm32l0xx_ll_usart.h **** __STATIC_INLINE void LL_USART_DisableClockInStopMode(USART_TypeDef *USARTx)
 628:../../dependencies/STM32CubeL0/Drivers/STM32L0xx_HAL_Driver/Inc/stm32l0xx_ll_usart.h **** {
 629:../../dependencies/STM32CubeL0/Drivers/STM32L0xx_HAL_Driver/Inc/stm32l0xx_ll_usart.h ****   ATOMIC_CLEAR_BIT(USARTx->CR3, USART_CR3_UCESM);
 630:../../dependencies/STM32CubeL0/Drivers/STM32L0xx_HAL_Driver/Inc/stm32l0xx_ll_usart.h **** }
 631:../../dependencies/STM32CubeL0/Drivers/STM32L0xx_HAL_Driver/Inc/stm32l0xx_ll_usart.h **** 
 632:../../dependencies/STM32CubeL0/Drivers/STM32L0xx_HAL_Driver/Inc/stm32l0xx_ll_usart.h **** /**
 633:../../dependencies/STM32CubeL0/Drivers/STM32L0xx_HAL_Driver/Inc/stm32l0xx_ll_usart.h ****   * @brief  Indicate if USART clock is enabled in STOP Mode
 634:../../dependencies/STM32CubeL0/Drivers/STM32L0xx_HAL_Driver/Inc/stm32l0xx_ll_usart.h ****   * @rmtoll CR3          UCESM         LL_USART_IsClockEnabledInStopMode
 635:../../dependencies/STM32CubeL0/Drivers/STM32L0xx_HAL_Driver/Inc/stm32l0xx_ll_usart.h ****   * @param  USARTx USART Instance
 636:../../dependencies/STM32CubeL0/Drivers/STM32L0xx_HAL_Driver/Inc/stm32l0xx_ll_usart.h ****   * @retval State of bit (1 or 0).
 637:../../dependencies/STM32CubeL0/Drivers/STM32L0xx_HAL_Driver/Inc/stm32l0xx_ll_usart.h ****   */
 638:../../dependencies/STM32CubeL0/Drivers/STM32L0xx_HAL_Driver/Inc/stm32l0xx_ll_usart.h **** __STATIC_INLINE uint32_t LL_USART_IsClockEnabledInStopMode(USART_TypeDef *USARTx)
 639:../../dependencies/STM32CubeL0/Drivers/STM32L0xx_HAL_Driver/Inc/stm32l0xx_ll_usart.h **** {
 640:../../dependencies/STM32CubeL0/Drivers/STM32L0xx_HAL_Driver/Inc/stm32l0xx_ll_usart.h ****   return (READ_BIT(USARTx->CR3, USART_CR3_UCESM) == (USART_CR3_UCESM));
 641:../../dependencies/STM32CubeL0/Drivers/STM32L0xx_HAL_Driver/Inc/stm32l0xx_ll_usart.h **** }
 642:../../dependencies/STM32CubeL0/Drivers/STM32L0xx_HAL_Driver/Inc/stm32l0xx_ll_usart.h **** 
 643:../../dependencies/STM32CubeL0/Drivers/STM32L0xx_HAL_Driver/Inc/stm32l0xx_ll_usart.h **** /**
 644:../../dependencies/STM32CubeL0/Drivers/STM32L0xx_HAL_Driver/Inc/stm32l0xx_ll_usart.h ****   * @brief  Receiver Enable (Receiver is enabled and begins searching for a start bit)
 645:../../dependencies/STM32CubeL0/Drivers/STM32L0xx_HAL_Driver/Inc/stm32l0xx_ll_usart.h ****   * @rmtoll CR1          RE            LL_USART_EnableDirectionRx
 646:../../dependencies/STM32CubeL0/Drivers/STM32L0xx_HAL_Driver/Inc/stm32l0xx_ll_usart.h ****   * @param  USARTx USART Instance
 647:../../dependencies/STM32CubeL0/Drivers/STM32L0xx_HAL_Driver/Inc/stm32l0xx_ll_usart.h ****   * @retval None
 648:../../dependencies/STM32CubeL0/Drivers/STM32L0xx_HAL_Driver/Inc/stm32l0xx_ll_usart.h ****   */
 649:../../dependencies/STM32CubeL0/Drivers/STM32L0xx_HAL_Driver/Inc/stm32l0xx_ll_usart.h **** __STATIC_INLINE void LL_USART_EnableDirectionRx(USART_TypeDef *USARTx)
 650:../../dependencies/STM32CubeL0/Drivers/STM32L0xx_HAL_Driver/Inc/stm32l0xx_ll_usart.h **** {
 651:../../dependencies/STM32CubeL0/Drivers/STM32L0xx_HAL_Driver/Inc/stm32l0xx_ll_usart.h ****   ATOMIC_SET_BIT(USARTx->CR1, USART_CR1_RE);
 652:../../dependencies/STM32CubeL0/Drivers/STM32L0xx_HAL_Driver/Inc/stm32l0xx_ll_usart.h **** }
 653:../../dependencies/STM32CubeL0/Drivers/STM32L0xx_HAL_Driver/Inc/stm32l0xx_ll_usart.h **** 
 654:../../dependencies/STM32CubeL0/Drivers/STM32L0xx_HAL_Driver/Inc/stm32l0xx_ll_usart.h **** /**
 655:../../dependencies/STM32CubeL0/Drivers/STM32L0xx_HAL_Driver/Inc/stm32l0xx_ll_usart.h ****   * @brief  Receiver Disable
 656:../../dependencies/STM32CubeL0/Drivers/STM32L0xx_HAL_Driver/Inc/stm32l0xx_ll_usart.h ****   * @rmtoll CR1          RE            LL_USART_DisableDirectionRx
 657:../../dependencies/STM32CubeL0/Drivers/STM32L0xx_HAL_Driver/Inc/stm32l0xx_ll_usart.h ****   * @param  USARTx USART Instance
 658:../../dependencies/STM32CubeL0/Drivers/STM32L0xx_HAL_Driver/Inc/stm32l0xx_ll_usart.h ****   * @retval None
 659:../../dependencies/STM32CubeL0/Drivers/STM32L0xx_HAL_Driver/Inc/stm32l0xx_ll_usart.h ****   */
 660:../../dependencies/STM32CubeL0/Drivers/STM32L0xx_HAL_Driver/Inc/stm32l0xx_ll_usart.h **** __STATIC_INLINE void LL_USART_DisableDirectionRx(USART_TypeDef *USARTx)
 661:../../dependencies/STM32CubeL0/Drivers/STM32L0xx_HAL_Driver/Inc/stm32l0xx_ll_usart.h **** {
 662:../../dependencies/STM32CubeL0/Drivers/STM32L0xx_HAL_Driver/Inc/stm32l0xx_ll_usart.h ****   ATOMIC_CLEAR_BIT(USARTx->CR1, USART_CR1_RE);
 663:../../dependencies/STM32CubeL0/Drivers/STM32L0xx_HAL_Driver/Inc/stm32l0xx_ll_usart.h **** }
 664:../../dependencies/STM32CubeL0/Drivers/STM32L0xx_HAL_Driver/Inc/stm32l0xx_ll_usart.h **** 
 665:../../dependencies/STM32CubeL0/Drivers/STM32L0xx_HAL_Driver/Inc/stm32l0xx_ll_usart.h **** /**
 666:../../dependencies/STM32CubeL0/Drivers/STM32L0xx_HAL_Driver/Inc/stm32l0xx_ll_usart.h ****   * @brief  Transmitter Enable
 667:../../dependencies/STM32CubeL0/Drivers/STM32L0xx_HAL_Driver/Inc/stm32l0xx_ll_usart.h ****   * @rmtoll CR1          TE            LL_USART_EnableDirectionTx
 668:../../dependencies/STM32CubeL0/Drivers/STM32L0xx_HAL_Driver/Inc/stm32l0xx_ll_usart.h ****   * @param  USARTx USART Instance
 669:../../dependencies/STM32CubeL0/Drivers/STM32L0xx_HAL_Driver/Inc/stm32l0xx_ll_usart.h ****   * @retval None
 670:../../dependencies/STM32CubeL0/Drivers/STM32L0xx_HAL_Driver/Inc/stm32l0xx_ll_usart.h ****   */
 671:../../dependencies/STM32CubeL0/Drivers/STM32L0xx_HAL_Driver/Inc/stm32l0xx_ll_usart.h **** __STATIC_INLINE void LL_USART_EnableDirectionTx(USART_TypeDef *USARTx)
 672:../../dependencies/STM32CubeL0/Drivers/STM32L0xx_HAL_Driver/Inc/stm32l0xx_ll_usart.h **** {
 673:../../dependencies/STM32CubeL0/Drivers/STM32L0xx_HAL_Driver/Inc/stm32l0xx_ll_usart.h ****   ATOMIC_SET_BIT(USARTx->CR1, USART_CR1_TE);
ARM GAS  /var/folders/fs/dxwfnrqj18z860lwl3d6f5t00000gn/T//ccABuIkd.s 			page 14


 674:../../dependencies/STM32CubeL0/Drivers/STM32L0xx_HAL_Driver/Inc/stm32l0xx_ll_usart.h **** }
 675:../../dependencies/STM32CubeL0/Drivers/STM32L0xx_HAL_Driver/Inc/stm32l0xx_ll_usart.h **** 
 676:../../dependencies/STM32CubeL0/Drivers/STM32L0xx_HAL_Driver/Inc/stm32l0xx_ll_usart.h **** /**
 677:../../dependencies/STM32CubeL0/Drivers/STM32L0xx_HAL_Driver/Inc/stm32l0xx_ll_usart.h ****   * @brief  Transmitter Disable
 678:../../dependencies/STM32CubeL0/Drivers/STM32L0xx_HAL_Driver/Inc/stm32l0xx_ll_usart.h ****   * @rmtoll CR1          TE            LL_USART_DisableDirectionTx
 679:../../dependencies/STM32CubeL0/Drivers/STM32L0xx_HAL_Driver/Inc/stm32l0xx_ll_usart.h ****   * @param  USARTx USART Instance
 680:../../dependencies/STM32CubeL0/Drivers/STM32L0xx_HAL_Driver/Inc/stm32l0xx_ll_usart.h ****   * @retval None
 681:../../dependencies/STM32CubeL0/Drivers/STM32L0xx_HAL_Driver/Inc/stm32l0xx_ll_usart.h ****   */
 682:../../dependencies/STM32CubeL0/Drivers/STM32L0xx_HAL_Driver/Inc/stm32l0xx_ll_usart.h **** __STATIC_INLINE void LL_USART_DisableDirectionTx(USART_TypeDef *USARTx)
 683:../../dependencies/STM32CubeL0/Drivers/STM32L0xx_HAL_Driver/Inc/stm32l0xx_ll_usart.h **** {
 684:../../dependencies/STM32CubeL0/Drivers/STM32L0xx_HAL_Driver/Inc/stm32l0xx_ll_usart.h ****   ATOMIC_CLEAR_BIT(USARTx->CR1, USART_CR1_TE);
 685:../../dependencies/STM32CubeL0/Drivers/STM32L0xx_HAL_Driver/Inc/stm32l0xx_ll_usart.h **** }
 686:../../dependencies/STM32CubeL0/Drivers/STM32L0xx_HAL_Driver/Inc/stm32l0xx_ll_usart.h **** 
 687:../../dependencies/STM32CubeL0/Drivers/STM32L0xx_HAL_Driver/Inc/stm32l0xx_ll_usart.h **** /**
 688:../../dependencies/STM32CubeL0/Drivers/STM32L0xx_HAL_Driver/Inc/stm32l0xx_ll_usart.h ****   * @brief  Configure simultaneously enabled/disabled states
 689:../../dependencies/STM32CubeL0/Drivers/STM32L0xx_HAL_Driver/Inc/stm32l0xx_ll_usart.h ****   *         of Transmitter and Receiver
 690:../../dependencies/STM32CubeL0/Drivers/STM32L0xx_HAL_Driver/Inc/stm32l0xx_ll_usart.h ****   * @rmtoll CR1          RE            LL_USART_SetTransferDirection\n
 691:../../dependencies/STM32CubeL0/Drivers/STM32L0xx_HAL_Driver/Inc/stm32l0xx_ll_usart.h ****   *         CR1          TE            LL_USART_SetTransferDirection
 692:../../dependencies/STM32CubeL0/Drivers/STM32L0xx_HAL_Driver/Inc/stm32l0xx_ll_usart.h ****   * @param  USARTx USART Instance
 693:../../dependencies/STM32CubeL0/Drivers/STM32L0xx_HAL_Driver/Inc/stm32l0xx_ll_usart.h ****   * @param  TransferDirection This parameter can be one of the following values:
 694:../../dependencies/STM32CubeL0/Drivers/STM32L0xx_HAL_Driver/Inc/stm32l0xx_ll_usart.h ****   *         @arg @ref LL_USART_DIRECTION_NONE
 695:../../dependencies/STM32CubeL0/Drivers/STM32L0xx_HAL_Driver/Inc/stm32l0xx_ll_usart.h ****   *         @arg @ref LL_USART_DIRECTION_RX
 696:../../dependencies/STM32CubeL0/Drivers/STM32L0xx_HAL_Driver/Inc/stm32l0xx_ll_usart.h ****   *         @arg @ref LL_USART_DIRECTION_TX
 697:../../dependencies/STM32CubeL0/Drivers/STM32L0xx_HAL_Driver/Inc/stm32l0xx_ll_usart.h ****   *         @arg @ref LL_USART_DIRECTION_TX_RX
 698:../../dependencies/STM32CubeL0/Drivers/STM32L0xx_HAL_Driver/Inc/stm32l0xx_ll_usart.h ****   * @retval None
 699:../../dependencies/STM32CubeL0/Drivers/STM32L0xx_HAL_Driver/Inc/stm32l0xx_ll_usart.h ****   */
 700:../../dependencies/STM32CubeL0/Drivers/STM32L0xx_HAL_Driver/Inc/stm32l0xx_ll_usart.h **** __STATIC_INLINE void LL_USART_SetTransferDirection(USART_TypeDef *USARTx, uint32_t TransferDirectio
 701:../../dependencies/STM32CubeL0/Drivers/STM32L0xx_HAL_Driver/Inc/stm32l0xx_ll_usart.h **** {
 702:../../dependencies/STM32CubeL0/Drivers/STM32L0xx_HAL_Driver/Inc/stm32l0xx_ll_usart.h ****   ATOMIC_MODIFY_REG(USARTx->CR1, USART_CR1_RE | USART_CR1_TE, TransferDirection);
 703:../../dependencies/STM32CubeL0/Drivers/STM32L0xx_HAL_Driver/Inc/stm32l0xx_ll_usart.h **** }
 704:../../dependencies/STM32CubeL0/Drivers/STM32L0xx_HAL_Driver/Inc/stm32l0xx_ll_usart.h **** 
 705:../../dependencies/STM32CubeL0/Drivers/STM32L0xx_HAL_Driver/Inc/stm32l0xx_ll_usart.h **** /**
 706:../../dependencies/STM32CubeL0/Drivers/STM32L0xx_HAL_Driver/Inc/stm32l0xx_ll_usart.h ****   * @brief  Return enabled/disabled states of Transmitter and Receiver
 707:../../dependencies/STM32CubeL0/Drivers/STM32L0xx_HAL_Driver/Inc/stm32l0xx_ll_usart.h ****   * @rmtoll CR1          RE            LL_USART_GetTransferDirection\n
 708:../../dependencies/STM32CubeL0/Drivers/STM32L0xx_HAL_Driver/Inc/stm32l0xx_ll_usart.h ****   *         CR1          TE            LL_USART_GetTransferDirection
 709:../../dependencies/STM32CubeL0/Drivers/STM32L0xx_HAL_Driver/Inc/stm32l0xx_ll_usart.h ****   * @param  USARTx USART Instance
 710:../../dependencies/STM32CubeL0/Drivers/STM32L0xx_HAL_Driver/Inc/stm32l0xx_ll_usart.h ****   * @retval Returned value can be one of the following values:
 711:../../dependencies/STM32CubeL0/Drivers/STM32L0xx_HAL_Driver/Inc/stm32l0xx_ll_usart.h ****   *         @arg @ref LL_USART_DIRECTION_NONE
 712:../../dependencies/STM32CubeL0/Drivers/STM32L0xx_HAL_Driver/Inc/stm32l0xx_ll_usart.h ****   *         @arg @ref LL_USART_DIRECTION_RX
 713:../../dependencies/STM32CubeL0/Drivers/STM32L0xx_HAL_Driver/Inc/stm32l0xx_ll_usart.h ****   *         @arg @ref LL_USART_DIRECTION_TX
 714:../../dependencies/STM32CubeL0/Drivers/STM32L0xx_HAL_Driver/Inc/stm32l0xx_ll_usart.h ****   *         @arg @ref LL_USART_DIRECTION_TX_RX
 715:../../dependencies/STM32CubeL0/Drivers/STM32L0xx_HAL_Driver/Inc/stm32l0xx_ll_usart.h ****   */
 716:../../dependencies/STM32CubeL0/Drivers/STM32L0xx_HAL_Driver/Inc/stm32l0xx_ll_usart.h **** __STATIC_INLINE uint32_t LL_USART_GetTransferDirection(USART_TypeDef *USARTx)
 717:../../dependencies/STM32CubeL0/Drivers/STM32L0xx_HAL_Driver/Inc/stm32l0xx_ll_usart.h **** {
 718:../../dependencies/STM32CubeL0/Drivers/STM32L0xx_HAL_Driver/Inc/stm32l0xx_ll_usart.h ****   return (uint32_t)(READ_BIT(USARTx->CR1, USART_CR1_RE | USART_CR1_TE));
 719:../../dependencies/STM32CubeL0/Drivers/STM32L0xx_HAL_Driver/Inc/stm32l0xx_ll_usart.h **** }
 720:../../dependencies/STM32CubeL0/Drivers/STM32L0xx_HAL_Driver/Inc/stm32l0xx_ll_usart.h **** 
 721:../../dependencies/STM32CubeL0/Drivers/STM32L0xx_HAL_Driver/Inc/stm32l0xx_ll_usart.h **** /**
 722:../../dependencies/STM32CubeL0/Drivers/STM32L0xx_HAL_Driver/Inc/stm32l0xx_ll_usart.h ****   * @brief  Configure Parity (enabled/disabled and parity mode if enabled).
 723:../../dependencies/STM32CubeL0/Drivers/STM32L0xx_HAL_Driver/Inc/stm32l0xx_ll_usart.h ****   * @note   This function selects if hardware parity control (generation and detection) is enabled 
 724:../../dependencies/STM32CubeL0/Drivers/STM32L0xx_HAL_Driver/Inc/stm32l0xx_ll_usart.h ****   *         When the parity control is enabled (Odd or Even), computed parity bit is inserted at th
 725:../../dependencies/STM32CubeL0/Drivers/STM32L0xx_HAL_Driver/Inc/stm32l0xx_ll_usart.h ****   *         (9th or 8th bit depending on data width) and parity is checked on the received data.
 726:../../dependencies/STM32CubeL0/Drivers/STM32L0xx_HAL_Driver/Inc/stm32l0xx_ll_usart.h ****   * @rmtoll CR1          PS            LL_USART_SetParity\n
 727:../../dependencies/STM32CubeL0/Drivers/STM32L0xx_HAL_Driver/Inc/stm32l0xx_ll_usart.h ****   *         CR1          PCE           LL_USART_SetParity
 728:../../dependencies/STM32CubeL0/Drivers/STM32L0xx_HAL_Driver/Inc/stm32l0xx_ll_usart.h ****   * @param  USARTx USART Instance
 729:../../dependencies/STM32CubeL0/Drivers/STM32L0xx_HAL_Driver/Inc/stm32l0xx_ll_usart.h ****   * @param  Parity This parameter can be one of the following values:
 730:../../dependencies/STM32CubeL0/Drivers/STM32L0xx_HAL_Driver/Inc/stm32l0xx_ll_usart.h ****   *         @arg @ref LL_USART_PARITY_NONE
ARM GAS  /var/folders/fs/dxwfnrqj18z860lwl3d6f5t00000gn/T//ccABuIkd.s 			page 15


 731:../../dependencies/STM32CubeL0/Drivers/STM32L0xx_HAL_Driver/Inc/stm32l0xx_ll_usart.h ****   *         @arg @ref LL_USART_PARITY_EVEN
 732:../../dependencies/STM32CubeL0/Drivers/STM32L0xx_HAL_Driver/Inc/stm32l0xx_ll_usart.h ****   *         @arg @ref LL_USART_PARITY_ODD
 733:../../dependencies/STM32CubeL0/Drivers/STM32L0xx_HAL_Driver/Inc/stm32l0xx_ll_usart.h ****   * @retval None
 734:../../dependencies/STM32CubeL0/Drivers/STM32L0xx_HAL_Driver/Inc/stm32l0xx_ll_usart.h ****   */
 735:../../dependencies/STM32CubeL0/Drivers/STM32L0xx_HAL_Driver/Inc/stm32l0xx_ll_usart.h **** __STATIC_INLINE void LL_USART_SetParity(USART_TypeDef *USARTx, uint32_t Parity)
 736:../../dependencies/STM32CubeL0/Drivers/STM32L0xx_HAL_Driver/Inc/stm32l0xx_ll_usart.h **** {
 737:../../dependencies/STM32CubeL0/Drivers/STM32L0xx_HAL_Driver/Inc/stm32l0xx_ll_usart.h ****   MODIFY_REG(USARTx->CR1, USART_CR1_PS | USART_CR1_PCE, Parity);
 738:../../dependencies/STM32CubeL0/Drivers/STM32L0xx_HAL_Driver/Inc/stm32l0xx_ll_usart.h **** }
 739:../../dependencies/STM32CubeL0/Drivers/STM32L0xx_HAL_Driver/Inc/stm32l0xx_ll_usart.h **** 
 740:../../dependencies/STM32CubeL0/Drivers/STM32L0xx_HAL_Driver/Inc/stm32l0xx_ll_usart.h **** /**
 741:../../dependencies/STM32CubeL0/Drivers/STM32L0xx_HAL_Driver/Inc/stm32l0xx_ll_usart.h ****   * @brief  Return Parity configuration (enabled/disabled and parity mode if enabled)
 742:../../dependencies/STM32CubeL0/Drivers/STM32L0xx_HAL_Driver/Inc/stm32l0xx_ll_usart.h ****   * @rmtoll CR1          PS            LL_USART_GetParity\n
 743:../../dependencies/STM32CubeL0/Drivers/STM32L0xx_HAL_Driver/Inc/stm32l0xx_ll_usart.h ****   *         CR1          PCE           LL_USART_GetParity
 744:../../dependencies/STM32CubeL0/Drivers/STM32L0xx_HAL_Driver/Inc/stm32l0xx_ll_usart.h ****   * @param  USARTx USART Instance
 745:../../dependencies/STM32CubeL0/Drivers/STM32L0xx_HAL_Driver/Inc/stm32l0xx_ll_usart.h ****   * @retval Returned value can be one of the following values:
 746:../../dependencies/STM32CubeL0/Drivers/STM32L0xx_HAL_Driver/Inc/stm32l0xx_ll_usart.h ****   *         @arg @ref LL_USART_PARITY_NONE
 747:../../dependencies/STM32CubeL0/Drivers/STM32L0xx_HAL_Driver/Inc/stm32l0xx_ll_usart.h ****   *         @arg @ref LL_USART_PARITY_EVEN
 748:../../dependencies/STM32CubeL0/Drivers/STM32L0xx_HAL_Driver/Inc/stm32l0xx_ll_usart.h ****   *         @arg @ref LL_USART_PARITY_ODD
 749:../../dependencies/STM32CubeL0/Drivers/STM32L0xx_HAL_Driver/Inc/stm32l0xx_ll_usart.h ****   */
 750:../../dependencies/STM32CubeL0/Drivers/STM32L0xx_HAL_Driver/Inc/stm32l0xx_ll_usart.h **** __STATIC_INLINE uint32_t LL_USART_GetParity(USART_TypeDef *USARTx)
 751:../../dependencies/STM32CubeL0/Drivers/STM32L0xx_HAL_Driver/Inc/stm32l0xx_ll_usart.h **** {
 752:../../dependencies/STM32CubeL0/Drivers/STM32L0xx_HAL_Driver/Inc/stm32l0xx_ll_usart.h ****   return (uint32_t)(READ_BIT(USARTx->CR1, USART_CR1_PS | USART_CR1_PCE));
 753:../../dependencies/STM32CubeL0/Drivers/STM32L0xx_HAL_Driver/Inc/stm32l0xx_ll_usart.h **** }
 754:../../dependencies/STM32CubeL0/Drivers/STM32L0xx_HAL_Driver/Inc/stm32l0xx_ll_usart.h **** 
 755:../../dependencies/STM32CubeL0/Drivers/STM32L0xx_HAL_Driver/Inc/stm32l0xx_ll_usart.h **** /**
 756:../../dependencies/STM32CubeL0/Drivers/STM32L0xx_HAL_Driver/Inc/stm32l0xx_ll_usart.h ****   * @brief  Set Receiver Wake Up method from Mute mode.
 757:../../dependencies/STM32CubeL0/Drivers/STM32L0xx_HAL_Driver/Inc/stm32l0xx_ll_usart.h ****   * @rmtoll CR1          WAKE          LL_USART_SetWakeUpMethod
 758:../../dependencies/STM32CubeL0/Drivers/STM32L0xx_HAL_Driver/Inc/stm32l0xx_ll_usart.h ****   * @param  USARTx USART Instance
 759:../../dependencies/STM32CubeL0/Drivers/STM32L0xx_HAL_Driver/Inc/stm32l0xx_ll_usart.h ****   * @param  Method This parameter can be one of the following values:
 760:../../dependencies/STM32CubeL0/Drivers/STM32L0xx_HAL_Driver/Inc/stm32l0xx_ll_usart.h ****   *         @arg @ref LL_USART_WAKEUP_IDLELINE
 761:../../dependencies/STM32CubeL0/Drivers/STM32L0xx_HAL_Driver/Inc/stm32l0xx_ll_usart.h ****   *         @arg @ref LL_USART_WAKEUP_ADDRESSMARK
 762:../../dependencies/STM32CubeL0/Drivers/STM32L0xx_HAL_Driver/Inc/stm32l0xx_ll_usart.h ****   * @retval None
 763:../../dependencies/STM32CubeL0/Drivers/STM32L0xx_HAL_Driver/Inc/stm32l0xx_ll_usart.h ****   */
 764:../../dependencies/STM32CubeL0/Drivers/STM32L0xx_HAL_Driver/Inc/stm32l0xx_ll_usart.h **** __STATIC_INLINE void LL_USART_SetWakeUpMethod(USART_TypeDef *USARTx, uint32_t Method)
 765:../../dependencies/STM32CubeL0/Drivers/STM32L0xx_HAL_Driver/Inc/stm32l0xx_ll_usart.h **** {
 766:../../dependencies/STM32CubeL0/Drivers/STM32L0xx_HAL_Driver/Inc/stm32l0xx_ll_usart.h ****   MODIFY_REG(USARTx->CR1, USART_CR1_WAKE, Method);
 767:../../dependencies/STM32CubeL0/Drivers/STM32L0xx_HAL_Driver/Inc/stm32l0xx_ll_usart.h **** }
 768:../../dependencies/STM32CubeL0/Drivers/STM32L0xx_HAL_Driver/Inc/stm32l0xx_ll_usart.h **** 
 769:../../dependencies/STM32CubeL0/Drivers/STM32L0xx_HAL_Driver/Inc/stm32l0xx_ll_usart.h **** /**
 770:../../dependencies/STM32CubeL0/Drivers/STM32L0xx_HAL_Driver/Inc/stm32l0xx_ll_usart.h ****   * @brief  Return Receiver Wake Up method from Mute mode
 771:../../dependencies/STM32CubeL0/Drivers/STM32L0xx_HAL_Driver/Inc/stm32l0xx_ll_usart.h ****   * @rmtoll CR1          WAKE          LL_USART_GetWakeUpMethod
 772:../../dependencies/STM32CubeL0/Drivers/STM32L0xx_HAL_Driver/Inc/stm32l0xx_ll_usart.h ****   * @param  USARTx USART Instance
 773:../../dependencies/STM32CubeL0/Drivers/STM32L0xx_HAL_Driver/Inc/stm32l0xx_ll_usart.h ****   * @retval Returned value can be one of the following values:
 774:../../dependencies/STM32CubeL0/Drivers/STM32L0xx_HAL_Driver/Inc/stm32l0xx_ll_usart.h ****   *         @arg @ref LL_USART_WAKEUP_IDLELINE
 775:../../dependencies/STM32CubeL0/Drivers/STM32L0xx_HAL_Driver/Inc/stm32l0xx_ll_usart.h ****   *         @arg @ref LL_USART_WAKEUP_ADDRESSMARK
 776:../../dependencies/STM32CubeL0/Drivers/STM32L0xx_HAL_Driver/Inc/stm32l0xx_ll_usart.h ****   */
 777:../../dependencies/STM32CubeL0/Drivers/STM32L0xx_HAL_Driver/Inc/stm32l0xx_ll_usart.h **** __STATIC_INLINE uint32_t LL_USART_GetWakeUpMethod(USART_TypeDef *USARTx)
 778:../../dependencies/STM32CubeL0/Drivers/STM32L0xx_HAL_Driver/Inc/stm32l0xx_ll_usart.h **** {
 779:../../dependencies/STM32CubeL0/Drivers/STM32L0xx_HAL_Driver/Inc/stm32l0xx_ll_usart.h ****   return (uint32_t)(READ_BIT(USARTx->CR1, USART_CR1_WAKE));
 780:../../dependencies/STM32CubeL0/Drivers/STM32L0xx_HAL_Driver/Inc/stm32l0xx_ll_usart.h **** }
 781:../../dependencies/STM32CubeL0/Drivers/STM32L0xx_HAL_Driver/Inc/stm32l0xx_ll_usart.h **** 
 782:../../dependencies/STM32CubeL0/Drivers/STM32L0xx_HAL_Driver/Inc/stm32l0xx_ll_usart.h **** /**
 783:../../dependencies/STM32CubeL0/Drivers/STM32L0xx_HAL_Driver/Inc/stm32l0xx_ll_usart.h ****   * @brief  Set Word length (i.e. nb of data bits, excluding start and stop bits)
 784:../../dependencies/STM32CubeL0/Drivers/STM32L0xx_HAL_Driver/Inc/stm32l0xx_ll_usart.h ****   * @rmtoll CR1          M0            LL_USART_SetDataWidth\n
 785:../../dependencies/STM32CubeL0/Drivers/STM32L0xx_HAL_Driver/Inc/stm32l0xx_ll_usart.h ****   *         CR1          M1            LL_USART_SetDataWidth
 786:../../dependencies/STM32CubeL0/Drivers/STM32L0xx_HAL_Driver/Inc/stm32l0xx_ll_usart.h ****   * @param  USARTx USART Instance
 787:../../dependencies/STM32CubeL0/Drivers/STM32L0xx_HAL_Driver/Inc/stm32l0xx_ll_usart.h ****   * @param  DataWidth This parameter can be one of the following values:
ARM GAS  /var/folders/fs/dxwfnrqj18z860lwl3d6f5t00000gn/T//ccABuIkd.s 			page 16


 788:../../dependencies/STM32CubeL0/Drivers/STM32L0xx_HAL_Driver/Inc/stm32l0xx_ll_usart.h ****   *         @arg @ref LL_USART_DATAWIDTH_7B
 789:../../dependencies/STM32CubeL0/Drivers/STM32L0xx_HAL_Driver/Inc/stm32l0xx_ll_usart.h ****   *         @arg @ref LL_USART_DATAWIDTH_8B
 790:../../dependencies/STM32CubeL0/Drivers/STM32L0xx_HAL_Driver/Inc/stm32l0xx_ll_usart.h ****   *         @arg @ref LL_USART_DATAWIDTH_9B
 791:../../dependencies/STM32CubeL0/Drivers/STM32L0xx_HAL_Driver/Inc/stm32l0xx_ll_usart.h ****   * @retval None
 792:../../dependencies/STM32CubeL0/Drivers/STM32L0xx_HAL_Driver/Inc/stm32l0xx_ll_usart.h ****   */
 793:../../dependencies/STM32CubeL0/Drivers/STM32L0xx_HAL_Driver/Inc/stm32l0xx_ll_usart.h **** __STATIC_INLINE void LL_USART_SetDataWidth(USART_TypeDef *USARTx, uint32_t DataWidth)
 794:../../dependencies/STM32CubeL0/Drivers/STM32L0xx_HAL_Driver/Inc/stm32l0xx_ll_usart.h **** {
 795:../../dependencies/STM32CubeL0/Drivers/STM32L0xx_HAL_Driver/Inc/stm32l0xx_ll_usart.h ****   MODIFY_REG(USARTx->CR1, USART_CR1_M, DataWidth);
 796:../../dependencies/STM32CubeL0/Drivers/STM32L0xx_HAL_Driver/Inc/stm32l0xx_ll_usart.h **** }
 797:../../dependencies/STM32CubeL0/Drivers/STM32L0xx_HAL_Driver/Inc/stm32l0xx_ll_usart.h **** 
 798:../../dependencies/STM32CubeL0/Drivers/STM32L0xx_HAL_Driver/Inc/stm32l0xx_ll_usart.h **** /**
 799:../../dependencies/STM32CubeL0/Drivers/STM32L0xx_HAL_Driver/Inc/stm32l0xx_ll_usart.h ****   * @brief  Return Word length (i.e. nb of data bits, excluding start and stop bits)
 800:../../dependencies/STM32CubeL0/Drivers/STM32L0xx_HAL_Driver/Inc/stm32l0xx_ll_usart.h ****   * @rmtoll CR1          M0            LL_USART_GetDataWidth\n
 801:../../dependencies/STM32CubeL0/Drivers/STM32L0xx_HAL_Driver/Inc/stm32l0xx_ll_usart.h ****   *         CR1          M1            LL_USART_GetDataWidth
 802:../../dependencies/STM32CubeL0/Drivers/STM32L0xx_HAL_Driver/Inc/stm32l0xx_ll_usart.h ****   * @param  USARTx USART Instance
 803:../../dependencies/STM32CubeL0/Drivers/STM32L0xx_HAL_Driver/Inc/stm32l0xx_ll_usart.h ****   * @retval Returned value can be one of the following values:
 804:../../dependencies/STM32CubeL0/Drivers/STM32L0xx_HAL_Driver/Inc/stm32l0xx_ll_usart.h ****   *         @arg @ref LL_USART_DATAWIDTH_7B
 805:../../dependencies/STM32CubeL0/Drivers/STM32L0xx_HAL_Driver/Inc/stm32l0xx_ll_usart.h ****   *         @arg @ref LL_USART_DATAWIDTH_8B
 806:../../dependencies/STM32CubeL0/Drivers/STM32L0xx_HAL_Driver/Inc/stm32l0xx_ll_usart.h ****   *         @arg @ref LL_USART_DATAWIDTH_9B
 807:../../dependencies/STM32CubeL0/Drivers/STM32L0xx_HAL_Driver/Inc/stm32l0xx_ll_usart.h ****   */
 808:../../dependencies/STM32CubeL0/Drivers/STM32L0xx_HAL_Driver/Inc/stm32l0xx_ll_usart.h **** __STATIC_INLINE uint32_t LL_USART_GetDataWidth(USART_TypeDef *USARTx)
 809:../../dependencies/STM32CubeL0/Drivers/STM32L0xx_HAL_Driver/Inc/stm32l0xx_ll_usart.h **** {
 810:../../dependencies/STM32CubeL0/Drivers/STM32L0xx_HAL_Driver/Inc/stm32l0xx_ll_usart.h ****   return (uint32_t)(READ_BIT(USARTx->CR1, USART_CR1_M));
 811:../../dependencies/STM32CubeL0/Drivers/STM32L0xx_HAL_Driver/Inc/stm32l0xx_ll_usart.h **** }
 812:../../dependencies/STM32CubeL0/Drivers/STM32L0xx_HAL_Driver/Inc/stm32l0xx_ll_usart.h **** 
 813:../../dependencies/STM32CubeL0/Drivers/STM32L0xx_HAL_Driver/Inc/stm32l0xx_ll_usart.h **** /**
 814:../../dependencies/STM32CubeL0/Drivers/STM32L0xx_HAL_Driver/Inc/stm32l0xx_ll_usart.h ****   * @brief  Allow switch between Mute Mode and Active mode
 815:../../dependencies/STM32CubeL0/Drivers/STM32L0xx_HAL_Driver/Inc/stm32l0xx_ll_usart.h ****   * @rmtoll CR1          MME           LL_USART_EnableMuteMode
 816:../../dependencies/STM32CubeL0/Drivers/STM32L0xx_HAL_Driver/Inc/stm32l0xx_ll_usart.h ****   * @param  USARTx USART Instance
 817:../../dependencies/STM32CubeL0/Drivers/STM32L0xx_HAL_Driver/Inc/stm32l0xx_ll_usart.h ****   * @retval None
 818:../../dependencies/STM32CubeL0/Drivers/STM32L0xx_HAL_Driver/Inc/stm32l0xx_ll_usart.h ****   */
 819:../../dependencies/STM32CubeL0/Drivers/STM32L0xx_HAL_Driver/Inc/stm32l0xx_ll_usart.h **** __STATIC_INLINE void LL_USART_EnableMuteMode(USART_TypeDef *USARTx)
 820:../../dependencies/STM32CubeL0/Drivers/STM32L0xx_HAL_Driver/Inc/stm32l0xx_ll_usart.h **** {
 821:../../dependencies/STM32CubeL0/Drivers/STM32L0xx_HAL_Driver/Inc/stm32l0xx_ll_usart.h ****   ATOMIC_SET_BIT(USARTx->CR1, USART_CR1_MME);
 822:../../dependencies/STM32CubeL0/Drivers/STM32L0xx_HAL_Driver/Inc/stm32l0xx_ll_usart.h **** }
 823:../../dependencies/STM32CubeL0/Drivers/STM32L0xx_HAL_Driver/Inc/stm32l0xx_ll_usart.h **** 
 824:../../dependencies/STM32CubeL0/Drivers/STM32L0xx_HAL_Driver/Inc/stm32l0xx_ll_usart.h **** /**
 825:../../dependencies/STM32CubeL0/Drivers/STM32L0xx_HAL_Driver/Inc/stm32l0xx_ll_usart.h ****   * @brief  Prevent Mute Mode use. Set Receiver in active mode permanently.
 826:../../dependencies/STM32CubeL0/Drivers/STM32L0xx_HAL_Driver/Inc/stm32l0xx_ll_usart.h ****   * @rmtoll CR1          MME           LL_USART_DisableMuteMode
 827:../../dependencies/STM32CubeL0/Drivers/STM32L0xx_HAL_Driver/Inc/stm32l0xx_ll_usart.h ****   * @param  USARTx USART Instance
 828:../../dependencies/STM32CubeL0/Drivers/STM32L0xx_HAL_Driver/Inc/stm32l0xx_ll_usart.h ****   * @retval None
 829:../../dependencies/STM32CubeL0/Drivers/STM32L0xx_HAL_Driver/Inc/stm32l0xx_ll_usart.h ****   */
 830:../../dependencies/STM32CubeL0/Drivers/STM32L0xx_HAL_Driver/Inc/stm32l0xx_ll_usart.h **** __STATIC_INLINE void LL_USART_DisableMuteMode(USART_TypeDef *USARTx)
 831:../../dependencies/STM32CubeL0/Drivers/STM32L0xx_HAL_Driver/Inc/stm32l0xx_ll_usart.h **** {
 832:../../dependencies/STM32CubeL0/Drivers/STM32L0xx_HAL_Driver/Inc/stm32l0xx_ll_usart.h ****   ATOMIC_CLEAR_BIT(USARTx->CR1, USART_CR1_MME);
 833:../../dependencies/STM32CubeL0/Drivers/STM32L0xx_HAL_Driver/Inc/stm32l0xx_ll_usart.h **** }
 834:../../dependencies/STM32CubeL0/Drivers/STM32L0xx_HAL_Driver/Inc/stm32l0xx_ll_usart.h **** 
 835:../../dependencies/STM32CubeL0/Drivers/STM32L0xx_HAL_Driver/Inc/stm32l0xx_ll_usart.h **** /**
 836:../../dependencies/STM32CubeL0/Drivers/STM32L0xx_HAL_Driver/Inc/stm32l0xx_ll_usart.h ****   * @brief  Indicate if switch between Mute Mode and Active mode is allowed
 837:../../dependencies/STM32CubeL0/Drivers/STM32L0xx_HAL_Driver/Inc/stm32l0xx_ll_usart.h ****   * @rmtoll CR1          MME           LL_USART_IsEnabledMuteMode
 838:../../dependencies/STM32CubeL0/Drivers/STM32L0xx_HAL_Driver/Inc/stm32l0xx_ll_usart.h ****   * @param  USARTx USART Instance
 839:../../dependencies/STM32CubeL0/Drivers/STM32L0xx_HAL_Driver/Inc/stm32l0xx_ll_usart.h ****   * @retval State of bit (1 or 0).
 840:../../dependencies/STM32CubeL0/Drivers/STM32L0xx_HAL_Driver/Inc/stm32l0xx_ll_usart.h ****   */
 841:../../dependencies/STM32CubeL0/Drivers/STM32L0xx_HAL_Driver/Inc/stm32l0xx_ll_usart.h **** __STATIC_INLINE uint32_t LL_USART_IsEnabledMuteMode(USART_TypeDef *USARTx)
 842:../../dependencies/STM32CubeL0/Drivers/STM32L0xx_HAL_Driver/Inc/stm32l0xx_ll_usart.h **** {
 843:../../dependencies/STM32CubeL0/Drivers/STM32L0xx_HAL_Driver/Inc/stm32l0xx_ll_usart.h ****   return ((READ_BIT(USARTx->CR1, USART_CR1_MME) == (USART_CR1_MME)) ? 1UL : 0UL);
 844:../../dependencies/STM32CubeL0/Drivers/STM32L0xx_HAL_Driver/Inc/stm32l0xx_ll_usart.h **** }
ARM GAS  /var/folders/fs/dxwfnrqj18z860lwl3d6f5t00000gn/T//ccABuIkd.s 			page 17


 845:../../dependencies/STM32CubeL0/Drivers/STM32L0xx_HAL_Driver/Inc/stm32l0xx_ll_usart.h **** 
 846:../../dependencies/STM32CubeL0/Drivers/STM32L0xx_HAL_Driver/Inc/stm32l0xx_ll_usart.h **** /**
 847:../../dependencies/STM32CubeL0/Drivers/STM32L0xx_HAL_Driver/Inc/stm32l0xx_ll_usart.h ****   * @brief  Set Oversampling to 8-bit or 16-bit mode
 848:../../dependencies/STM32CubeL0/Drivers/STM32L0xx_HAL_Driver/Inc/stm32l0xx_ll_usart.h ****   * @rmtoll CR1          OVER8         LL_USART_SetOverSampling
 849:../../dependencies/STM32CubeL0/Drivers/STM32L0xx_HAL_Driver/Inc/stm32l0xx_ll_usart.h ****   * @param  USARTx USART Instance
 850:../../dependencies/STM32CubeL0/Drivers/STM32L0xx_HAL_Driver/Inc/stm32l0xx_ll_usart.h ****   * @param  OverSampling This parameter can be one of the following values:
 851:../../dependencies/STM32CubeL0/Drivers/STM32L0xx_HAL_Driver/Inc/stm32l0xx_ll_usart.h ****   *         @arg @ref LL_USART_OVERSAMPLING_16
 852:../../dependencies/STM32CubeL0/Drivers/STM32L0xx_HAL_Driver/Inc/stm32l0xx_ll_usart.h ****   *         @arg @ref LL_USART_OVERSAMPLING_8
 853:../../dependencies/STM32CubeL0/Drivers/STM32L0xx_HAL_Driver/Inc/stm32l0xx_ll_usart.h ****   * @retval None
 854:../../dependencies/STM32CubeL0/Drivers/STM32L0xx_HAL_Driver/Inc/stm32l0xx_ll_usart.h ****   */
 855:../../dependencies/STM32CubeL0/Drivers/STM32L0xx_HAL_Driver/Inc/stm32l0xx_ll_usart.h **** __STATIC_INLINE void LL_USART_SetOverSampling(USART_TypeDef *USARTx, uint32_t OverSampling)
 856:../../dependencies/STM32CubeL0/Drivers/STM32L0xx_HAL_Driver/Inc/stm32l0xx_ll_usart.h **** {
 857:../../dependencies/STM32CubeL0/Drivers/STM32L0xx_HAL_Driver/Inc/stm32l0xx_ll_usart.h ****   MODIFY_REG(USARTx->CR1, USART_CR1_OVER8, OverSampling);
 858:../../dependencies/STM32CubeL0/Drivers/STM32L0xx_HAL_Driver/Inc/stm32l0xx_ll_usart.h **** }
 859:../../dependencies/STM32CubeL0/Drivers/STM32L0xx_HAL_Driver/Inc/stm32l0xx_ll_usart.h **** 
 860:../../dependencies/STM32CubeL0/Drivers/STM32L0xx_HAL_Driver/Inc/stm32l0xx_ll_usart.h **** /**
 861:../../dependencies/STM32CubeL0/Drivers/STM32L0xx_HAL_Driver/Inc/stm32l0xx_ll_usart.h ****   * @brief  Return Oversampling mode
 862:../../dependencies/STM32CubeL0/Drivers/STM32L0xx_HAL_Driver/Inc/stm32l0xx_ll_usart.h ****   * @rmtoll CR1          OVER8         LL_USART_GetOverSampling
 863:../../dependencies/STM32CubeL0/Drivers/STM32L0xx_HAL_Driver/Inc/stm32l0xx_ll_usart.h ****   * @param  USARTx USART Instance
 864:../../dependencies/STM32CubeL0/Drivers/STM32L0xx_HAL_Driver/Inc/stm32l0xx_ll_usart.h ****   * @retval Returned value can be one of the following values:
 865:../../dependencies/STM32CubeL0/Drivers/STM32L0xx_HAL_Driver/Inc/stm32l0xx_ll_usart.h ****   *         @arg @ref LL_USART_OVERSAMPLING_16
 866:../../dependencies/STM32CubeL0/Drivers/STM32L0xx_HAL_Driver/Inc/stm32l0xx_ll_usart.h ****   *         @arg @ref LL_USART_OVERSAMPLING_8
 867:../../dependencies/STM32CubeL0/Drivers/STM32L0xx_HAL_Driver/Inc/stm32l0xx_ll_usart.h ****   */
 868:../../dependencies/STM32CubeL0/Drivers/STM32L0xx_HAL_Driver/Inc/stm32l0xx_ll_usart.h **** __STATIC_INLINE uint32_t LL_USART_GetOverSampling(USART_TypeDef *USARTx)
 869:../../dependencies/STM32CubeL0/Drivers/STM32L0xx_HAL_Driver/Inc/stm32l0xx_ll_usart.h **** {
 870:../../dependencies/STM32CubeL0/Drivers/STM32L0xx_HAL_Driver/Inc/stm32l0xx_ll_usart.h ****   return (uint32_t)(READ_BIT(USARTx->CR1, USART_CR1_OVER8));
 871:../../dependencies/STM32CubeL0/Drivers/STM32L0xx_HAL_Driver/Inc/stm32l0xx_ll_usart.h **** }
 872:../../dependencies/STM32CubeL0/Drivers/STM32L0xx_HAL_Driver/Inc/stm32l0xx_ll_usart.h **** 
 873:../../dependencies/STM32CubeL0/Drivers/STM32L0xx_HAL_Driver/Inc/stm32l0xx_ll_usart.h **** /**
 874:../../dependencies/STM32CubeL0/Drivers/STM32L0xx_HAL_Driver/Inc/stm32l0xx_ll_usart.h ****   * @brief  Configure if Clock pulse of the last data bit is output to the SCLK pin or not
 875:../../dependencies/STM32CubeL0/Drivers/STM32L0xx_HAL_Driver/Inc/stm32l0xx_ll_usart.h ****   * @note   Macro IS_USART_INSTANCE(USARTx) can be used to check whether or not
 876:../../dependencies/STM32CubeL0/Drivers/STM32L0xx_HAL_Driver/Inc/stm32l0xx_ll_usart.h ****   *         Synchronous mode is supported by the USARTx instance.
 877:../../dependencies/STM32CubeL0/Drivers/STM32L0xx_HAL_Driver/Inc/stm32l0xx_ll_usart.h ****   * @rmtoll CR2          LBCL          LL_USART_SetLastClkPulseOutput
 878:../../dependencies/STM32CubeL0/Drivers/STM32L0xx_HAL_Driver/Inc/stm32l0xx_ll_usart.h ****   * @param  USARTx USART Instance
 879:../../dependencies/STM32CubeL0/Drivers/STM32L0xx_HAL_Driver/Inc/stm32l0xx_ll_usart.h ****   * @param  LastBitClockPulse This parameter can be one of the following values:
 880:../../dependencies/STM32CubeL0/Drivers/STM32L0xx_HAL_Driver/Inc/stm32l0xx_ll_usart.h ****   *         @arg @ref LL_USART_LASTCLKPULSE_NO_OUTPUT
 881:../../dependencies/STM32CubeL0/Drivers/STM32L0xx_HAL_Driver/Inc/stm32l0xx_ll_usart.h ****   *         @arg @ref LL_USART_LASTCLKPULSE_OUTPUT
 882:../../dependencies/STM32CubeL0/Drivers/STM32L0xx_HAL_Driver/Inc/stm32l0xx_ll_usart.h ****   * @retval None
 883:../../dependencies/STM32CubeL0/Drivers/STM32L0xx_HAL_Driver/Inc/stm32l0xx_ll_usart.h ****   */
 884:../../dependencies/STM32CubeL0/Drivers/STM32L0xx_HAL_Driver/Inc/stm32l0xx_ll_usart.h **** __STATIC_INLINE void LL_USART_SetLastClkPulseOutput(USART_TypeDef *USARTx, uint32_t LastBitClockPul
 885:../../dependencies/STM32CubeL0/Drivers/STM32L0xx_HAL_Driver/Inc/stm32l0xx_ll_usart.h **** {
 886:../../dependencies/STM32CubeL0/Drivers/STM32L0xx_HAL_Driver/Inc/stm32l0xx_ll_usart.h ****   MODIFY_REG(USARTx->CR2, USART_CR2_LBCL, LastBitClockPulse);
 887:../../dependencies/STM32CubeL0/Drivers/STM32L0xx_HAL_Driver/Inc/stm32l0xx_ll_usart.h **** }
 888:../../dependencies/STM32CubeL0/Drivers/STM32L0xx_HAL_Driver/Inc/stm32l0xx_ll_usart.h **** 
 889:../../dependencies/STM32CubeL0/Drivers/STM32L0xx_HAL_Driver/Inc/stm32l0xx_ll_usart.h **** /**
 890:../../dependencies/STM32CubeL0/Drivers/STM32L0xx_HAL_Driver/Inc/stm32l0xx_ll_usart.h ****   * @brief  Retrieve Clock pulse of the last data bit output configuration
 891:../../dependencies/STM32CubeL0/Drivers/STM32L0xx_HAL_Driver/Inc/stm32l0xx_ll_usart.h ****   *         (Last bit Clock pulse output to the SCLK pin or not)
 892:../../dependencies/STM32CubeL0/Drivers/STM32L0xx_HAL_Driver/Inc/stm32l0xx_ll_usart.h ****   * @note   Macro IS_USART_INSTANCE(USARTx) can be used to check whether or not
 893:../../dependencies/STM32CubeL0/Drivers/STM32L0xx_HAL_Driver/Inc/stm32l0xx_ll_usart.h ****   *         Synchronous mode is supported by the USARTx instance.
 894:../../dependencies/STM32CubeL0/Drivers/STM32L0xx_HAL_Driver/Inc/stm32l0xx_ll_usart.h ****   * @rmtoll CR2          LBCL          LL_USART_GetLastClkPulseOutput
 895:../../dependencies/STM32CubeL0/Drivers/STM32L0xx_HAL_Driver/Inc/stm32l0xx_ll_usart.h ****   * @param  USARTx USART Instance
 896:../../dependencies/STM32CubeL0/Drivers/STM32L0xx_HAL_Driver/Inc/stm32l0xx_ll_usart.h ****   * @retval Returned value can be one of the following values:
 897:../../dependencies/STM32CubeL0/Drivers/STM32L0xx_HAL_Driver/Inc/stm32l0xx_ll_usart.h ****   *         @arg @ref LL_USART_LASTCLKPULSE_NO_OUTPUT
 898:../../dependencies/STM32CubeL0/Drivers/STM32L0xx_HAL_Driver/Inc/stm32l0xx_ll_usart.h ****   *         @arg @ref LL_USART_LASTCLKPULSE_OUTPUT
 899:../../dependencies/STM32CubeL0/Drivers/STM32L0xx_HAL_Driver/Inc/stm32l0xx_ll_usart.h ****   */
 900:../../dependencies/STM32CubeL0/Drivers/STM32L0xx_HAL_Driver/Inc/stm32l0xx_ll_usart.h **** __STATIC_INLINE uint32_t LL_USART_GetLastClkPulseOutput(USART_TypeDef *USARTx)
 901:../../dependencies/STM32CubeL0/Drivers/STM32L0xx_HAL_Driver/Inc/stm32l0xx_ll_usart.h **** {
ARM GAS  /var/folders/fs/dxwfnrqj18z860lwl3d6f5t00000gn/T//ccABuIkd.s 			page 18


 902:../../dependencies/STM32CubeL0/Drivers/STM32L0xx_HAL_Driver/Inc/stm32l0xx_ll_usart.h ****   return (uint32_t)(READ_BIT(USARTx->CR2, USART_CR2_LBCL));
 903:../../dependencies/STM32CubeL0/Drivers/STM32L0xx_HAL_Driver/Inc/stm32l0xx_ll_usart.h **** }
 904:../../dependencies/STM32CubeL0/Drivers/STM32L0xx_HAL_Driver/Inc/stm32l0xx_ll_usart.h **** 
 905:../../dependencies/STM32CubeL0/Drivers/STM32L0xx_HAL_Driver/Inc/stm32l0xx_ll_usart.h **** /**
 906:../../dependencies/STM32CubeL0/Drivers/STM32L0xx_HAL_Driver/Inc/stm32l0xx_ll_usart.h ****   * @brief  Select the phase of the clock output on the SCLK pin in synchronous mode
 907:../../dependencies/STM32CubeL0/Drivers/STM32L0xx_HAL_Driver/Inc/stm32l0xx_ll_usart.h ****   * @note   Macro IS_USART_INSTANCE(USARTx) can be used to check whether or not
 908:../../dependencies/STM32CubeL0/Drivers/STM32L0xx_HAL_Driver/Inc/stm32l0xx_ll_usart.h ****   *         Synchronous mode is supported by the USARTx instance.
 909:../../dependencies/STM32CubeL0/Drivers/STM32L0xx_HAL_Driver/Inc/stm32l0xx_ll_usart.h ****   * @rmtoll CR2          CPHA          LL_USART_SetClockPhase
 910:../../dependencies/STM32CubeL0/Drivers/STM32L0xx_HAL_Driver/Inc/stm32l0xx_ll_usart.h ****   * @param  USARTx USART Instance
 911:../../dependencies/STM32CubeL0/Drivers/STM32L0xx_HAL_Driver/Inc/stm32l0xx_ll_usart.h ****   * @param  ClockPhase This parameter can be one of the following values:
 912:../../dependencies/STM32CubeL0/Drivers/STM32L0xx_HAL_Driver/Inc/stm32l0xx_ll_usart.h ****   *         @arg @ref LL_USART_PHASE_1EDGE
 913:../../dependencies/STM32CubeL0/Drivers/STM32L0xx_HAL_Driver/Inc/stm32l0xx_ll_usart.h ****   *         @arg @ref LL_USART_PHASE_2EDGE
 914:../../dependencies/STM32CubeL0/Drivers/STM32L0xx_HAL_Driver/Inc/stm32l0xx_ll_usart.h ****   * @retval None
 915:../../dependencies/STM32CubeL0/Drivers/STM32L0xx_HAL_Driver/Inc/stm32l0xx_ll_usart.h ****   */
 916:../../dependencies/STM32CubeL0/Drivers/STM32L0xx_HAL_Driver/Inc/stm32l0xx_ll_usart.h **** __STATIC_INLINE void LL_USART_SetClockPhase(USART_TypeDef *USARTx, uint32_t ClockPhase)
 917:../../dependencies/STM32CubeL0/Drivers/STM32L0xx_HAL_Driver/Inc/stm32l0xx_ll_usart.h **** {
 918:../../dependencies/STM32CubeL0/Drivers/STM32L0xx_HAL_Driver/Inc/stm32l0xx_ll_usart.h ****   MODIFY_REG(USARTx->CR2, USART_CR2_CPHA, ClockPhase);
 919:../../dependencies/STM32CubeL0/Drivers/STM32L0xx_HAL_Driver/Inc/stm32l0xx_ll_usart.h **** }
 920:../../dependencies/STM32CubeL0/Drivers/STM32L0xx_HAL_Driver/Inc/stm32l0xx_ll_usart.h **** 
 921:../../dependencies/STM32CubeL0/Drivers/STM32L0xx_HAL_Driver/Inc/stm32l0xx_ll_usart.h **** /**
 922:../../dependencies/STM32CubeL0/Drivers/STM32L0xx_HAL_Driver/Inc/stm32l0xx_ll_usart.h ****   * @brief  Return phase of the clock output on the SCLK pin in synchronous mode
 923:../../dependencies/STM32CubeL0/Drivers/STM32L0xx_HAL_Driver/Inc/stm32l0xx_ll_usart.h ****   * @note   Macro IS_USART_INSTANCE(USARTx) can be used to check whether or not
 924:../../dependencies/STM32CubeL0/Drivers/STM32L0xx_HAL_Driver/Inc/stm32l0xx_ll_usart.h ****   *         Synchronous mode is supported by the USARTx instance.
 925:../../dependencies/STM32CubeL0/Drivers/STM32L0xx_HAL_Driver/Inc/stm32l0xx_ll_usart.h ****   * @rmtoll CR2          CPHA          LL_USART_GetClockPhase
 926:../../dependencies/STM32CubeL0/Drivers/STM32L0xx_HAL_Driver/Inc/stm32l0xx_ll_usart.h ****   * @param  USARTx USART Instance
 927:../../dependencies/STM32CubeL0/Drivers/STM32L0xx_HAL_Driver/Inc/stm32l0xx_ll_usart.h ****   * @retval Returned value can be one of the following values:
 928:../../dependencies/STM32CubeL0/Drivers/STM32L0xx_HAL_Driver/Inc/stm32l0xx_ll_usart.h ****   *         @arg @ref LL_USART_PHASE_1EDGE
 929:../../dependencies/STM32CubeL0/Drivers/STM32L0xx_HAL_Driver/Inc/stm32l0xx_ll_usart.h ****   *         @arg @ref LL_USART_PHASE_2EDGE
 930:../../dependencies/STM32CubeL0/Drivers/STM32L0xx_HAL_Driver/Inc/stm32l0xx_ll_usart.h ****   */
 931:../../dependencies/STM32CubeL0/Drivers/STM32L0xx_HAL_Driver/Inc/stm32l0xx_ll_usart.h **** __STATIC_INLINE uint32_t LL_USART_GetClockPhase(USART_TypeDef *USARTx)
 932:../../dependencies/STM32CubeL0/Drivers/STM32L0xx_HAL_Driver/Inc/stm32l0xx_ll_usart.h **** {
 933:../../dependencies/STM32CubeL0/Drivers/STM32L0xx_HAL_Driver/Inc/stm32l0xx_ll_usart.h ****   return (uint32_t)(READ_BIT(USARTx->CR2, USART_CR2_CPHA));
 934:../../dependencies/STM32CubeL0/Drivers/STM32L0xx_HAL_Driver/Inc/stm32l0xx_ll_usart.h **** }
 935:../../dependencies/STM32CubeL0/Drivers/STM32L0xx_HAL_Driver/Inc/stm32l0xx_ll_usart.h **** 
 936:../../dependencies/STM32CubeL0/Drivers/STM32L0xx_HAL_Driver/Inc/stm32l0xx_ll_usart.h **** /**
 937:../../dependencies/STM32CubeL0/Drivers/STM32L0xx_HAL_Driver/Inc/stm32l0xx_ll_usart.h ****   * @brief  Select the polarity of the clock output on the SCLK pin in synchronous mode
 938:../../dependencies/STM32CubeL0/Drivers/STM32L0xx_HAL_Driver/Inc/stm32l0xx_ll_usart.h ****   * @note   Macro IS_USART_INSTANCE(USARTx) can be used to check whether or not
 939:../../dependencies/STM32CubeL0/Drivers/STM32L0xx_HAL_Driver/Inc/stm32l0xx_ll_usart.h ****   *         Synchronous mode is supported by the USARTx instance.
 940:../../dependencies/STM32CubeL0/Drivers/STM32L0xx_HAL_Driver/Inc/stm32l0xx_ll_usart.h ****   * @rmtoll CR2          CPOL          LL_USART_SetClockPolarity
 941:../../dependencies/STM32CubeL0/Drivers/STM32L0xx_HAL_Driver/Inc/stm32l0xx_ll_usart.h ****   * @param  USARTx USART Instance
 942:../../dependencies/STM32CubeL0/Drivers/STM32L0xx_HAL_Driver/Inc/stm32l0xx_ll_usart.h ****   * @param  ClockPolarity This parameter can be one of the following values:
 943:../../dependencies/STM32CubeL0/Drivers/STM32L0xx_HAL_Driver/Inc/stm32l0xx_ll_usart.h ****   *         @arg @ref LL_USART_POLARITY_LOW
 944:../../dependencies/STM32CubeL0/Drivers/STM32L0xx_HAL_Driver/Inc/stm32l0xx_ll_usart.h ****   *         @arg @ref LL_USART_POLARITY_HIGH
 945:../../dependencies/STM32CubeL0/Drivers/STM32L0xx_HAL_Driver/Inc/stm32l0xx_ll_usart.h ****   * @retval None
 946:../../dependencies/STM32CubeL0/Drivers/STM32L0xx_HAL_Driver/Inc/stm32l0xx_ll_usart.h ****   */
 947:../../dependencies/STM32CubeL0/Drivers/STM32L0xx_HAL_Driver/Inc/stm32l0xx_ll_usart.h **** __STATIC_INLINE void LL_USART_SetClockPolarity(USART_TypeDef *USARTx, uint32_t ClockPolarity)
 948:../../dependencies/STM32CubeL0/Drivers/STM32L0xx_HAL_Driver/Inc/stm32l0xx_ll_usart.h **** {
 949:../../dependencies/STM32CubeL0/Drivers/STM32L0xx_HAL_Driver/Inc/stm32l0xx_ll_usart.h ****   MODIFY_REG(USARTx->CR2, USART_CR2_CPOL, ClockPolarity);
 950:../../dependencies/STM32CubeL0/Drivers/STM32L0xx_HAL_Driver/Inc/stm32l0xx_ll_usart.h **** }
 951:../../dependencies/STM32CubeL0/Drivers/STM32L0xx_HAL_Driver/Inc/stm32l0xx_ll_usart.h **** 
 952:../../dependencies/STM32CubeL0/Drivers/STM32L0xx_HAL_Driver/Inc/stm32l0xx_ll_usart.h **** /**
 953:../../dependencies/STM32CubeL0/Drivers/STM32L0xx_HAL_Driver/Inc/stm32l0xx_ll_usart.h ****   * @brief  Return polarity of the clock output on the SCLK pin in synchronous mode
 954:../../dependencies/STM32CubeL0/Drivers/STM32L0xx_HAL_Driver/Inc/stm32l0xx_ll_usart.h ****   * @note   Macro IS_USART_INSTANCE(USARTx) can be used to check whether or not
 955:../../dependencies/STM32CubeL0/Drivers/STM32L0xx_HAL_Driver/Inc/stm32l0xx_ll_usart.h ****   *         Synchronous mode is supported by the USARTx instance.
 956:../../dependencies/STM32CubeL0/Drivers/STM32L0xx_HAL_Driver/Inc/stm32l0xx_ll_usart.h ****   * @rmtoll CR2          CPOL          LL_USART_GetClockPolarity
 957:../../dependencies/STM32CubeL0/Drivers/STM32L0xx_HAL_Driver/Inc/stm32l0xx_ll_usart.h ****   * @param  USARTx USART Instance
 958:../../dependencies/STM32CubeL0/Drivers/STM32L0xx_HAL_Driver/Inc/stm32l0xx_ll_usart.h ****   * @retval Returned value can be one of the following values:
ARM GAS  /var/folders/fs/dxwfnrqj18z860lwl3d6f5t00000gn/T//ccABuIkd.s 			page 19


 959:../../dependencies/STM32CubeL0/Drivers/STM32L0xx_HAL_Driver/Inc/stm32l0xx_ll_usart.h ****   *         @arg @ref LL_USART_POLARITY_LOW
 960:../../dependencies/STM32CubeL0/Drivers/STM32L0xx_HAL_Driver/Inc/stm32l0xx_ll_usart.h ****   *         @arg @ref LL_USART_POLARITY_HIGH
 961:../../dependencies/STM32CubeL0/Drivers/STM32L0xx_HAL_Driver/Inc/stm32l0xx_ll_usart.h ****   */
 962:../../dependencies/STM32CubeL0/Drivers/STM32L0xx_HAL_Driver/Inc/stm32l0xx_ll_usart.h **** __STATIC_INLINE uint32_t LL_USART_GetClockPolarity(USART_TypeDef *USARTx)
 963:../../dependencies/STM32CubeL0/Drivers/STM32L0xx_HAL_Driver/Inc/stm32l0xx_ll_usart.h **** {
 964:../../dependencies/STM32CubeL0/Drivers/STM32L0xx_HAL_Driver/Inc/stm32l0xx_ll_usart.h ****   return (uint32_t)(READ_BIT(USARTx->CR2, USART_CR2_CPOL));
 965:../../dependencies/STM32CubeL0/Drivers/STM32L0xx_HAL_Driver/Inc/stm32l0xx_ll_usart.h **** }
 966:../../dependencies/STM32CubeL0/Drivers/STM32L0xx_HAL_Driver/Inc/stm32l0xx_ll_usart.h **** 
 967:../../dependencies/STM32CubeL0/Drivers/STM32L0xx_HAL_Driver/Inc/stm32l0xx_ll_usart.h **** /**
 968:../../dependencies/STM32CubeL0/Drivers/STM32L0xx_HAL_Driver/Inc/stm32l0xx_ll_usart.h ****   * @brief  Configure Clock signal format (Phase Polarity and choice about output of last bit clock
 969:../../dependencies/STM32CubeL0/Drivers/STM32L0xx_HAL_Driver/Inc/stm32l0xx_ll_usart.h ****   * @note   Macro IS_USART_INSTANCE(USARTx) can be used to check whether or not
 970:../../dependencies/STM32CubeL0/Drivers/STM32L0xx_HAL_Driver/Inc/stm32l0xx_ll_usart.h ****   *         Synchronous mode is supported by the USARTx instance.
 971:../../dependencies/STM32CubeL0/Drivers/STM32L0xx_HAL_Driver/Inc/stm32l0xx_ll_usart.h ****   * @note   Call of this function is equivalent to following function call sequence :
 972:../../dependencies/STM32CubeL0/Drivers/STM32L0xx_HAL_Driver/Inc/stm32l0xx_ll_usart.h ****   *         - Clock Phase configuration using @ref LL_USART_SetClockPhase() function
 973:../../dependencies/STM32CubeL0/Drivers/STM32L0xx_HAL_Driver/Inc/stm32l0xx_ll_usart.h ****   *         - Clock Polarity configuration using @ref LL_USART_SetClockPolarity() function
 974:../../dependencies/STM32CubeL0/Drivers/STM32L0xx_HAL_Driver/Inc/stm32l0xx_ll_usart.h ****   *         - Output of Last bit Clock pulse configuration using @ref LL_USART_SetLastClkPulseOutpu
 975:../../dependencies/STM32CubeL0/Drivers/STM32L0xx_HAL_Driver/Inc/stm32l0xx_ll_usart.h ****   * @rmtoll CR2          CPHA          LL_USART_ConfigClock\n
 976:../../dependencies/STM32CubeL0/Drivers/STM32L0xx_HAL_Driver/Inc/stm32l0xx_ll_usart.h ****   *         CR2          CPOL          LL_USART_ConfigClock\n
 977:../../dependencies/STM32CubeL0/Drivers/STM32L0xx_HAL_Driver/Inc/stm32l0xx_ll_usart.h ****   *         CR2          LBCL          LL_USART_ConfigClock
 978:../../dependencies/STM32CubeL0/Drivers/STM32L0xx_HAL_Driver/Inc/stm32l0xx_ll_usart.h ****   * @param  USARTx USART Instance
 979:../../dependencies/STM32CubeL0/Drivers/STM32L0xx_HAL_Driver/Inc/stm32l0xx_ll_usart.h ****   * @param  Phase This parameter can be one of the following values:
 980:../../dependencies/STM32CubeL0/Drivers/STM32L0xx_HAL_Driver/Inc/stm32l0xx_ll_usart.h ****   *         @arg @ref LL_USART_PHASE_1EDGE
 981:../../dependencies/STM32CubeL0/Drivers/STM32L0xx_HAL_Driver/Inc/stm32l0xx_ll_usart.h ****   *         @arg @ref LL_USART_PHASE_2EDGE
 982:../../dependencies/STM32CubeL0/Drivers/STM32L0xx_HAL_Driver/Inc/stm32l0xx_ll_usart.h ****   * @param  Polarity This parameter can be one of the following values:
 983:../../dependencies/STM32CubeL0/Drivers/STM32L0xx_HAL_Driver/Inc/stm32l0xx_ll_usart.h ****   *         @arg @ref LL_USART_POLARITY_LOW
 984:../../dependencies/STM32CubeL0/Drivers/STM32L0xx_HAL_Driver/Inc/stm32l0xx_ll_usart.h ****   *         @arg @ref LL_USART_POLARITY_HIGH
 985:../../dependencies/STM32CubeL0/Drivers/STM32L0xx_HAL_Driver/Inc/stm32l0xx_ll_usart.h ****   * @param  LBCPOutput This parameter can be one of the following values:
 986:../../dependencies/STM32CubeL0/Drivers/STM32L0xx_HAL_Driver/Inc/stm32l0xx_ll_usart.h ****   *         @arg @ref LL_USART_LASTCLKPULSE_NO_OUTPUT
 987:../../dependencies/STM32CubeL0/Drivers/STM32L0xx_HAL_Driver/Inc/stm32l0xx_ll_usart.h ****   *         @arg @ref LL_USART_LASTCLKPULSE_OUTPUT
 988:../../dependencies/STM32CubeL0/Drivers/STM32L0xx_HAL_Driver/Inc/stm32l0xx_ll_usart.h ****   * @retval None
 989:../../dependencies/STM32CubeL0/Drivers/STM32L0xx_HAL_Driver/Inc/stm32l0xx_ll_usart.h ****   */
 990:../../dependencies/STM32CubeL0/Drivers/STM32L0xx_HAL_Driver/Inc/stm32l0xx_ll_usart.h **** __STATIC_INLINE void LL_USART_ConfigClock(USART_TypeDef *USARTx, uint32_t Phase, uint32_t Polarity,
 991:../../dependencies/STM32CubeL0/Drivers/STM32L0xx_HAL_Driver/Inc/stm32l0xx_ll_usart.h **** {
 992:../../dependencies/STM32CubeL0/Drivers/STM32L0xx_HAL_Driver/Inc/stm32l0xx_ll_usart.h ****   MODIFY_REG(USARTx->CR2, USART_CR2_CPHA | USART_CR2_CPOL | USART_CR2_LBCL, Phase | Polarity | LBCP
 993:../../dependencies/STM32CubeL0/Drivers/STM32L0xx_HAL_Driver/Inc/stm32l0xx_ll_usart.h **** }
 994:../../dependencies/STM32CubeL0/Drivers/STM32L0xx_HAL_Driver/Inc/stm32l0xx_ll_usart.h **** 
 995:../../dependencies/STM32CubeL0/Drivers/STM32L0xx_HAL_Driver/Inc/stm32l0xx_ll_usart.h **** /**
 996:../../dependencies/STM32CubeL0/Drivers/STM32L0xx_HAL_Driver/Inc/stm32l0xx_ll_usart.h ****   * @brief  Enable Clock output on SCLK pin
 997:../../dependencies/STM32CubeL0/Drivers/STM32L0xx_HAL_Driver/Inc/stm32l0xx_ll_usart.h ****   * @note   Macro IS_USART_INSTANCE(USARTx) can be used to check whether or not
 998:../../dependencies/STM32CubeL0/Drivers/STM32L0xx_HAL_Driver/Inc/stm32l0xx_ll_usart.h ****   *         Synchronous mode is supported by the USARTx instance.
 999:../../dependencies/STM32CubeL0/Drivers/STM32L0xx_HAL_Driver/Inc/stm32l0xx_ll_usart.h ****   * @rmtoll CR2          CLKEN         LL_USART_EnableSCLKOutput
1000:../../dependencies/STM32CubeL0/Drivers/STM32L0xx_HAL_Driver/Inc/stm32l0xx_ll_usart.h ****   * @param  USARTx USART Instance
1001:../../dependencies/STM32CubeL0/Drivers/STM32L0xx_HAL_Driver/Inc/stm32l0xx_ll_usart.h ****   * @retval None
1002:../../dependencies/STM32CubeL0/Drivers/STM32L0xx_HAL_Driver/Inc/stm32l0xx_ll_usart.h ****   */
1003:../../dependencies/STM32CubeL0/Drivers/STM32L0xx_HAL_Driver/Inc/stm32l0xx_ll_usart.h **** __STATIC_INLINE void LL_USART_EnableSCLKOutput(USART_TypeDef *USARTx)
1004:../../dependencies/STM32CubeL0/Drivers/STM32L0xx_HAL_Driver/Inc/stm32l0xx_ll_usart.h **** {
1005:../../dependencies/STM32CubeL0/Drivers/STM32L0xx_HAL_Driver/Inc/stm32l0xx_ll_usart.h ****   SET_BIT(USARTx->CR2, USART_CR2_CLKEN);
1006:../../dependencies/STM32CubeL0/Drivers/STM32L0xx_HAL_Driver/Inc/stm32l0xx_ll_usart.h **** }
1007:../../dependencies/STM32CubeL0/Drivers/STM32L0xx_HAL_Driver/Inc/stm32l0xx_ll_usart.h **** 
1008:../../dependencies/STM32CubeL0/Drivers/STM32L0xx_HAL_Driver/Inc/stm32l0xx_ll_usart.h **** /**
1009:../../dependencies/STM32CubeL0/Drivers/STM32L0xx_HAL_Driver/Inc/stm32l0xx_ll_usart.h ****   * @brief  Disable Clock output on SCLK pin
1010:../../dependencies/STM32CubeL0/Drivers/STM32L0xx_HAL_Driver/Inc/stm32l0xx_ll_usart.h ****   * @note   Macro IS_USART_INSTANCE(USARTx) can be used to check whether or not
1011:../../dependencies/STM32CubeL0/Drivers/STM32L0xx_HAL_Driver/Inc/stm32l0xx_ll_usart.h ****   *         Synchronous mode is supported by the USARTx instance.
1012:../../dependencies/STM32CubeL0/Drivers/STM32L0xx_HAL_Driver/Inc/stm32l0xx_ll_usart.h ****   * @rmtoll CR2          CLKEN         LL_USART_DisableSCLKOutput
1013:../../dependencies/STM32CubeL0/Drivers/STM32L0xx_HAL_Driver/Inc/stm32l0xx_ll_usart.h ****   * @param  USARTx USART Instance
1014:../../dependencies/STM32CubeL0/Drivers/STM32L0xx_HAL_Driver/Inc/stm32l0xx_ll_usart.h ****   * @retval None
1015:../../dependencies/STM32CubeL0/Drivers/STM32L0xx_HAL_Driver/Inc/stm32l0xx_ll_usart.h ****   */
ARM GAS  /var/folders/fs/dxwfnrqj18z860lwl3d6f5t00000gn/T//ccABuIkd.s 			page 20


1016:../../dependencies/STM32CubeL0/Drivers/STM32L0xx_HAL_Driver/Inc/stm32l0xx_ll_usart.h **** __STATIC_INLINE void LL_USART_DisableSCLKOutput(USART_TypeDef *USARTx)
1017:../../dependencies/STM32CubeL0/Drivers/STM32L0xx_HAL_Driver/Inc/stm32l0xx_ll_usart.h **** {
  72              		.loc 1 1017 1
  73              		.cfi_startproc
  74              		@ args = 0, pretend = 0, frame = 8
  75              		@ frame_needed = 1, uses_anonymous_args = 0
  76 0000 80B5     		push	{r7, lr}
  77              		.cfi_def_cfa_offset 8
  78              		.cfi_offset 7, -8
  79              		.cfi_offset 14, -4
  80 0002 82B0     		sub	sp, sp, #8
  81              		.cfi_def_cfa_offset 16
  82 0004 00AF     		add	r7, sp, #0
  83              		.cfi_def_cfa_register 7
  84 0006 7860     		str	r0, [r7, #4]
1018:../../dependencies/STM32CubeL0/Drivers/STM32L0xx_HAL_Driver/Inc/stm32l0xx_ll_usart.h ****   CLEAR_BIT(USARTx->CR2, USART_CR2_CLKEN);
  85              		.loc 1 1018 3
  86 0008 7B68     		ldr	r3, [r7, #4]
  87 000a 5B68     		ldr	r3, [r3, #4]
  88 000c 034A     		ldr	r2, .L6
  89 000e 1A40     		ands	r2, r3
  90 0010 7B68     		ldr	r3, [r7, #4]
  91 0012 5A60     		str	r2, [r3, #4]
1019:../../dependencies/STM32CubeL0/Drivers/STM32L0xx_HAL_Driver/Inc/stm32l0xx_ll_usart.h **** }
  92              		.loc 1 1019 1
  93 0014 C046     		nop
  94 0016 BD46     		mov	sp, r7
  95 0018 02B0     		add	sp, sp, #8
  96              		@ sp needed
  97 001a 80BD     		pop	{r7, pc}
  98              	.L7:
  99              		.align	2
 100              	.L6:
 101 001c FFF7FFFF 		.word	-2049
 102              		.cfi_endproc
 103              	.LFE81:
 105              		.section	.text.LL_USART_SetStopBitsLength,"ax",%progbits
 106              		.align	1
 107              		.syntax unified
 108              		.code	16
 109              		.thumb_func
 110              		.fpu softvfp
 112              	LL_USART_SetStopBitsLength:
 113              	.LFB83:
1020:../../dependencies/STM32CubeL0/Drivers/STM32L0xx_HAL_Driver/Inc/stm32l0xx_ll_usart.h **** 
1021:../../dependencies/STM32CubeL0/Drivers/STM32L0xx_HAL_Driver/Inc/stm32l0xx_ll_usart.h **** /**
1022:../../dependencies/STM32CubeL0/Drivers/STM32L0xx_HAL_Driver/Inc/stm32l0xx_ll_usart.h ****   * @brief  Indicate if Clock output on SCLK pin is enabled
1023:../../dependencies/STM32CubeL0/Drivers/STM32L0xx_HAL_Driver/Inc/stm32l0xx_ll_usart.h ****   * @note   Macro IS_USART_INSTANCE(USARTx) can be used to check whether or not
1024:../../dependencies/STM32CubeL0/Drivers/STM32L0xx_HAL_Driver/Inc/stm32l0xx_ll_usart.h ****   *         Synchronous mode is supported by the USARTx instance.
1025:../../dependencies/STM32CubeL0/Drivers/STM32L0xx_HAL_Driver/Inc/stm32l0xx_ll_usart.h ****   * @rmtoll CR2          CLKEN         LL_USART_IsEnabledSCLKOutput
1026:../../dependencies/STM32CubeL0/Drivers/STM32L0xx_HAL_Driver/Inc/stm32l0xx_ll_usart.h ****   * @param  USARTx USART Instance
1027:../../dependencies/STM32CubeL0/Drivers/STM32L0xx_HAL_Driver/Inc/stm32l0xx_ll_usart.h ****   * @retval State of bit (1 or 0).
1028:../../dependencies/STM32CubeL0/Drivers/STM32L0xx_HAL_Driver/Inc/stm32l0xx_ll_usart.h ****   */
1029:../../dependencies/STM32CubeL0/Drivers/STM32L0xx_HAL_Driver/Inc/stm32l0xx_ll_usart.h **** __STATIC_INLINE uint32_t LL_USART_IsEnabledSCLKOutput(USART_TypeDef *USARTx)
1030:../../dependencies/STM32CubeL0/Drivers/STM32L0xx_HAL_Driver/Inc/stm32l0xx_ll_usart.h **** {
1031:../../dependencies/STM32CubeL0/Drivers/STM32L0xx_HAL_Driver/Inc/stm32l0xx_ll_usart.h ****   return ((READ_BIT(USARTx->CR2, USART_CR2_CLKEN) == (USART_CR2_CLKEN)) ? 1UL : 0UL);
1032:../../dependencies/STM32CubeL0/Drivers/STM32L0xx_HAL_Driver/Inc/stm32l0xx_ll_usart.h **** }
ARM GAS  /var/folders/fs/dxwfnrqj18z860lwl3d6f5t00000gn/T//ccABuIkd.s 			page 21


1033:../../dependencies/STM32CubeL0/Drivers/STM32L0xx_HAL_Driver/Inc/stm32l0xx_ll_usart.h **** 
1034:../../dependencies/STM32CubeL0/Drivers/STM32L0xx_HAL_Driver/Inc/stm32l0xx_ll_usart.h **** /**
1035:../../dependencies/STM32CubeL0/Drivers/STM32L0xx_HAL_Driver/Inc/stm32l0xx_ll_usart.h ****   * @brief  Set the length of the stop bits
1036:../../dependencies/STM32CubeL0/Drivers/STM32L0xx_HAL_Driver/Inc/stm32l0xx_ll_usart.h ****   * @rmtoll CR2          STOP          LL_USART_SetStopBitsLength
1037:../../dependencies/STM32CubeL0/Drivers/STM32L0xx_HAL_Driver/Inc/stm32l0xx_ll_usart.h ****   * @param  USARTx USART Instance
1038:../../dependencies/STM32CubeL0/Drivers/STM32L0xx_HAL_Driver/Inc/stm32l0xx_ll_usart.h ****   * @param  StopBits This parameter can be one of the following values:
1039:../../dependencies/STM32CubeL0/Drivers/STM32L0xx_HAL_Driver/Inc/stm32l0xx_ll_usart.h ****   *         @arg @ref LL_USART_STOPBITS_0_5
1040:../../dependencies/STM32CubeL0/Drivers/STM32L0xx_HAL_Driver/Inc/stm32l0xx_ll_usart.h ****   *         @arg @ref LL_USART_STOPBITS_1
1041:../../dependencies/STM32CubeL0/Drivers/STM32L0xx_HAL_Driver/Inc/stm32l0xx_ll_usart.h ****   *         @arg @ref LL_USART_STOPBITS_1_5
1042:../../dependencies/STM32CubeL0/Drivers/STM32L0xx_HAL_Driver/Inc/stm32l0xx_ll_usart.h ****   *         @arg @ref LL_USART_STOPBITS_2
1043:../../dependencies/STM32CubeL0/Drivers/STM32L0xx_HAL_Driver/Inc/stm32l0xx_ll_usart.h ****   * @retval None
1044:../../dependencies/STM32CubeL0/Drivers/STM32L0xx_HAL_Driver/Inc/stm32l0xx_ll_usart.h ****   */
1045:../../dependencies/STM32CubeL0/Drivers/STM32L0xx_HAL_Driver/Inc/stm32l0xx_ll_usart.h **** __STATIC_INLINE void LL_USART_SetStopBitsLength(USART_TypeDef *USARTx, uint32_t StopBits)
1046:../../dependencies/STM32CubeL0/Drivers/STM32L0xx_HAL_Driver/Inc/stm32l0xx_ll_usart.h **** {
 114              		.loc 1 1046 1
 115              		.cfi_startproc
 116              		@ args = 0, pretend = 0, frame = 8
 117              		@ frame_needed = 1, uses_anonymous_args = 0
 118 0000 80B5     		push	{r7, lr}
 119              		.cfi_def_cfa_offset 8
 120              		.cfi_offset 7, -8
 121              		.cfi_offset 14, -4
 122 0002 82B0     		sub	sp, sp, #8
 123              		.cfi_def_cfa_offset 16
 124 0004 00AF     		add	r7, sp, #0
 125              		.cfi_def_cfa_register 7
 126 0006 7860     		str	r0, [r7, #4]
 127 0008 3960     		str	r1, [r7]
1047:../../dependencies/STM32CubeL0/Drivers/STM32L0xx_HAL_Driver/Inc/stm32l0xx_ll_usart.h ****   MODIFY_REG(USARTx->CR2, USART_CR2_STOP, StopBits);
 128              		.loc 1 1047 3
 129 000a 7B68     		ldr	r3, [r7, #4]
 130 000c 5B68     		ldr	r3, [r3, #4]
 131 000e 054A     		ldr	r2, .L9
 132 0010 1A40     		ands	r2, r3
 133 0012 3B68     		ldr	r3, [r7]
 134 0014 1A43     		orrs	r2, r3
 135 0016 7B68     		ldr	r3, [r7, #4]
 136 0018 5A60     		str	r2, [r3, #4]
1048:../../dependencies/STM32CubeL0/Drivers/STM32L0xx_HAL_Driver/Inc/stm32l0xx_ll_usart.h **** }
 137              		.loc 1 1048 1
 138 001a C046     		nop
 139 001c BD46     		mov	sp, r7
 140 001e 02B0     		add	sp, sp, #8
 141              		@ sp needed
 142 0020 80BD     		pop	{r7, pc}
 143              	.L10:
 144 0022 C046     		.align	2
 145              	.L9:
 146 0024 FFCFFFFF 		.word	-12289
 147              		.cfi_endproc
 148              	.LFE83:
 150              		.section	.text.LL_USART_SetHWFlowCtrl,"ax",%progbits
 151              		.align	1
 152              		.syntax unified
 153              		.code	16
 154              		.thumb_func
 155              		.fpu softvfp
ARM GAS  /var/folders/fs/dxwfnrqj18z860lwl3d6f5t00000gn/T//ccABuIkd.s 			page 22


 157              	LL_USART_SetHWFlowCtrl:
 158              	.LFB111:
1049:../../dependencies/STM32CubeL0/Drivers/STM32L0xx_HAL_Driver/Inc/stm32l0xx_ll_usart.h **** 
1050:../../dependencies/STM32CubeL0/Drivers/STM32L0xx_HAL_Driver/Inc/stm32l0xx_ll_usart.h **** /**
1051:../../dependencies/STM32CubeL0/Drivers/STM32L0xx_HAL_Driver/Inc/stm32l0xx_ll_usart.h ****   * @brief  Retrieve the length of the stop bits
1052:../../dependencies/STM32CubeL0/Drivers/STM32L0xx_HAL_Driver/Inc/stm32l0xx_ll_usart.h ****   * @rmtoll CR2          STOP          LL_USART_GetStopBitsLength
1053:../../dependencies/STM32CubeL0/Drivers/STM32L0xx_HAL_Driver/Inc/stm32l0xx_ll_usart.h ****   * @param  USARTx USART Instance
1054:../../dependencies/STM32CubeL0/Drivers/STM32L0xx_HAL_Driver/Inc/stm32l0xx_ll_usart.h ****   * @retval Returned value can be one of the following values:
1055:../../dependencies/STM32CubeL0/Drivers/STM32L0xx_HAL_Driver/Inc/stm32l0xx_ll_usart.h ****   *         @arg @ref LL_USART_STOPBITS_0_5
1056:../../dependencies/STM32CubeL0/Drivers/STM32L0xx_HAL_Driver/Inc/stm32l0xx_ll_usart.h ****   *         @arg @ref LL_USART_STOPBITS_1
1057:../../dependencies/STM32CubeL0/Drivers/STM32L0xx_HAL_Driver/Inc/stm32l0xx_ll_usart.h ****   *         @arg @ref LL_USART_STOPBITS_1_5
1058:../../dependencies/STM32CubeL0/Drivers/STM32L0xx_HAL_Driver/Inc/stm32l0xx_ll_usart.h ****   *         @arg @ref LL_USART_STOPBITS_2
1059:../../dependencies/STM32CubeL0/Drivers/STM32L0xx_HAL_Driver/Inc/stm32l0xx_ll_usart.h ****   */
1060:../../dependencies/STM32CubeL0/Drivers/STM32L0xx_HAL_Driver/Inc/stm32l0xx_ll_usart.h **** __STATIC_INLINE uint32_t LL_USART_GetStopBitsLength(USART_TypeDef *USARTx)
1061:../../dependencies/STM32CubeL0/Drivers/STM32L0xx_HAL_Driver/Inc/stm32l0xx_ll_usart.h **** {
1062:../../dependencies/STM32CubeL0/Drivers/STM32L0xx_HAL_Driver/Inc/stm32l0xx_ll_usart.h ****   return (uint32_t)(READ_BIT(USARTx->CR2, USART_CR2_STOP));
1063:../../dependencies/STM32CubeL0/Drivers/STM32L0xx_HAL_Driver/Inc/stm32l0xx_ll_usart.h **** }
1064:../../dependencies/STM32CubeL0/Drivers/STM32L0xx_HAL_Driver/Inc/stm32l0xx_ll_usart.h **** 
1065:../../dependencies/STM32CubeL0/Drivers/STM32L0xx_HAL_Driver/Inc/stm32l0xx_ll_usart.h **** /**
1066:../../dependencies/STM32CubeL0/Drivers/STM32L0xx_HAL_Driver/Inc/stm32l0xx_ll_usart.h ****   * @brief  Configure Character frame format (Datawidth, Parity control, Stop Bits)
1067:../../dependencies/STM32CubeL0/Drivers/STM32L0xx_HAL_Driver/Inc/stm32l0xx_ll_usart.h ****   * @note   Call of this function is equivalent to following function call sequence :
1068:../../dependencies/STM32CubeL0/Drivers/STM32L0xx_HAL_Driver/Inc/stm32l0xx_ll_usart.h ****   *         - Data Width configuration using @ref LL_USART_SetDataWidth() function
1069:../../dependencies/STM32CubeL0/Drivers/STM32L0xx_HAL_Driver/Inc/stm32l0xx_ll_usart.h ****   *         - Parity Control and mode configuration using @ref LL_USART_SetParity() function
1070:../../dependencies/STM32CubeL0/Drivers/STM32L0xx_HAL_Driver/Inc/stm32l0xx_ll_usart.h ****   *         - Stop bits configuration using @ref LL_USART_SetStopBitsLength() function
1071:../../dependencies/STM32CubeL0/Drivers/STM32L0xx_HAL_Driver/Inc/stm32l0xx_ll_usart.h ****   * @rmtoll CR1          PS            LL_USART_ConfigCharacter\n
1072:../../dependencies/STM32CubeL0/Drivers/STM32L0xx_HAL_Driver/Inc/stm32l0xx_ll_usart.h ****   *         CR1          PCE           LL_USART_ConfigCharacter\n
1073:../../dependencies/STM32CubeL0/Drivers/STM32L0xx_HAL_Driver/Inc/stm32l0xx_ll_usart.h ****   *         CR1          M0            LL_USART_ConfigCharacter\n
1074:../../dependencies/STM32CubeL0/Drivers/STM32L0xx_HAL_Driver/Inc/stm32l0xx_ll_usart.h ****   *         CR1          M1            LL_USART_ConfigCharacter\n
1075:../../dependencies/STM32CubeL0/Drivers/STM32L0xx_HAL_Driver/Inc/stm32l0xx_ll_usart.h ****   *         CR2          STOP          LL_USART_ConfigCharacter
1076:../../dependencies/STM32CubeL0/Drivers/STM32L0xx_HAL_Driver/Inc/stm32l0xx_ll_usart.h ****   * @param  USARTx USART Instance
1077:../../dependencies/STM32CubeL0/Drivers/STM32L0xx_HAL_Driver/Inc/stm32l0xx_ll_usart.h ****   * @param  DataWidth This parameter can be one of the following values:
1078:../../dependencies/STM32CubeL0/Drivers/STM32L0xx_HAL_Driver/Inc/stm32l0xx_ll_usart.h ****   *         @arg @ref LL_USART_DATAWIDTH_7B
1079:../../dependencies/STM32CubeL0/Drivers/STM32L0xx_HAL_Driver/Inc/stm32l0xx_ll_usart.h ****   *         @arg @ref LL_USART_DATAWIDTH_8B
1080:../../dependencies/STM32CubeL0/Drivers/STM32L0xx_HAL_Driver/Inc/stm32l0xx_ll_usart.h ****   *         @arg @ref LL_USART_DATAWIDTH_9B
1081:../../dependencies/STM32CubeL0/Drivers/STM32L0xx_HAL_Driver/Inc/stm32l0xx_ll_usart.h ****   * @param  Parity This parameter can be one of the following values:
1082:../../dependencies/STM32CubeL0/Drivers/STM32L0xx_HAL_Driver/Inc/stm32l0xx_ll_usart.h ****   *         @arg @ref LL_USART_PARITY_NONE
1083:../../dependencies/STM32CubeL0/Drivers/STM32L0xx_HAL_Driver/Inc/stm32l0xx_ll_usart.h ****   *         @arg @ref LL_USART_PARITY_EVEN
1084:../../dependencies/STM32CubeL0/Drivers/STM32L0xx_HAL_Driver/Inc/stm32l0xx_ll_usart.h ****   *         @arg @ref LL_USART_PARITY_ODD
1085:../../dependencies/STM32CubeL0/Drivers/STM32L0xx_HAL_Driver/Inc/stm32l0xx_ll_usart.h ****   * @param  StopBits This parameter can be one of the following values:
1086:../../dependencies/STM32CubeL0/Drivers/STM32L0xx_HAL_Driver/Inc/stm32l0xx_ll_usart.h ****   *         @arg @ref LL_USART_STOPBITS_0_5
1087:../../dependencies/STM32CubeL0/Drivers/STM32L0xx_HAL_Driver/Inc/stm32l0xx_ll_usart.h ****   *         @arg @ref LL_USART_STOPBITS_1
1088:../../dependencies/STM32CubeL0/Drivers/STM32L0xx_HAL_Driver/Inc/stm32l0xx_ll_usart.h ****   *         @arg @ref LL_USART_STOPBITS_1_5
1089:../../dependencies/STM32CubeL0/Drivers/STM32L0xx_HAL_Driver/Inc/stm32l0xx_ll_usart.h ****   *         @arg @ref LL_USART_STOPBITS_2
1090:../../dependencies/STM32CubeL0/Drivers/STM32L0xx_HAL_Driver/Inc/stm32l0xx_ll_usart.h ****   * @retval None
1091:../../dependencies/STM32CubeL0/Drivers/STM32L0xx_HAL_Driver/Inc/stm32l0xx_ll_usart.h ****   */
1092:../../dependencies/STM32CubeL0/Drivers/STM32L0xx_HAL_Driver/Inc/stm32l0xx_ll_usart.h **** __STATIC_INLINE void LL_USART_ConfigCharacter(USART_TypeDef *USARTx, uint32_t DataWidth, uint32_t P
1093:../../dependencies/STM32CubeL0/Drivers/STM32L0xx_HAL_Driver/Inc/stm32l0xx_ll_usart.h ****                                               uint32_t StopBits)
1094:../../dependencies/STM32CubeL0/Drivers/STM32L0xx_HAL_Driver/Inc/stm32l0xx_ll_usart.h **** {
1095:../../dependencies/STM32CubeL0/Drivers/STM32L0xx_HAL_Driver/Inc/stm32l0xx_ll_usart.h ****   MODIFY_REG(USARTx->CR1, USART_CR1_PS | USART_CR1_PCE | USART_CR1_M, Parity | DataWidth);
1096:../../dependencies/STM32CubeL0/Drivers/STM32L0xx_HAL_Driver/Inc/stm32l0xx_ll_usart.h ****   MODIFY_REG(USARTx->CR2, USART_CR2_STOP, StopBits);
1097:../../dependencies/STM32CubeL0/Drivers/STM32L0xx_HAL_Driver/Inc/stm32l0xx_ll_usart.h **** }
1098:../../dependencies/STM32CubeL0/Drivers/STM32L0xx_HAL_Driver/Inc/stm32l0xx_ll_usart.h **** 
1099:../../dependencies/STM32CubeL0/Drivers/STM32L0xx_HAL_Driver/Inc/stm32l0xx_ll_usart.h **** /**
1100:../../dependencies/STM32CubeL0/Drivers/STM32L0xx_HAL_Driver/Inc/stm32l0xx_ll_usart.h ****   * @brief  Configure TX/RX pins swapping setting.
1101:../../dependencies/STM32CubeL0/Drivers/STM32L0xx_HAL_Driver/Inc/stm32l0xx_ll_usart.h ****   * @rmtoll CR2          SWAP          LL_USART_SetTXRXSwap
1102:../../dependencies/STM32CubeL0/Drivers/STM32L0xx_HAL_Driver/Inc/stm32l0xx_ll_usart.h ****   * @param  USARTx USART Instance
1103:../../dependencies/STM32CubeL0/Drivers/STM32L0xx_HAL_Driver/Inc/stm32l0xx_ll_usart.h ****   * @param  SwapConfig This parameter can be one of the following values:
ARM GAS  /var/folders/fs/dxwfnrqj18z860lwl3d6f5t00000gn/T//ccABuIkd.s 			page 23


1104:../../dependencies/STM32CubeL0/Drivers/STM32L0xx_HAL_Driver/Inc/stm32l0xx_ll_usart.h ****   *         @arg @ref LL_USART_TXRX_STANDARD
1105:../../dependencies/STM32CubeL0/Drivers/STM32L0xx_HAL_Driver/Inc/stm32l0xx_ll_usart.h ****   *         @arg @ref LL_USART_TXRX_SWAPPED
1106:../../dependencies/STM32CubeL0/Drivers/STM32L0xx_HAL_Driver/Inc/stm32l0xx_ll_usart.h ****   * @retval None
1107:../../dependencies/STM32CubeL0/Drivers/STM32L0xx_HAL_Driver/Inc/stm32l0xx_ll_usart.h ****   */
1108:../../dependencies/STM32CubeL0/Drivers/STM32L0xx_HAL_Driver/Inc/stm32l0xx_ll_usart.h **** __STATIC_INLINE void LL_USART_SetTXRXSwap(USART_TypeDef *USARTx, uint32_t SwapConfig)
1109:../../dependencies/STM32CubeL0/Drivers/STM32L0xx_HAL_Driver/Inc/stm32l0xx_ll_usart.h **** {
1110:../../dependencies/STM32CubeL0/Drivers/STM32L0xx_HAL_Driver/Inc/stm32l0xx_ll_usart.h ****   MODIFY_REG(USARTx->CR2, USART_CR2_SWAP, SwapConfig);
1111:../../dependencies/STM32CubeL0/Drivers/STM32L0xx_HAL_Driver/Inc/stm32l0xx_ll_usart.h **** }
1112:../../dependencies/STM32CubeL0/Drivers/STM32L0xx_HAL_Driver/Inc/stm32l0xx_ll_usart.h **** 
1113:../../dependencies/STM32CubeL0/Drivers/STM32L0xx_HAL_Driver/Inc/stm32l0xx_ll_usart.h **** /**
1114:../../dependencies/STM32CubeL0/Drivers/STM32L0xx_HAL_Driver/Inc/stm32l0xx_ll_usart.h ****   * @brief  Retrieve TX/RX pins swapping configuration.
1115:../../dependencies/STM32CubeL0/Drivers/STM32L0xx_HAL_Driver/Inc/stm32l0xx_ll_usart.h ****   * @rmtoll CR2          SWAP          LL_USART_GetTXRXSwap
1116:../../dependencies/STM32CubeL0/Drivers/STM32L0xx_HAL_Driver/Inc/stm32l0xx_ll_usart.h ****   * @param  USARTx USART Instance
1117:../../dependencies/STM32CubeL0/Drivers/STM32L0xx_HAL_Driver/Inc/stm32l0xx_ll_usart.h ****   * @retval Returned value can be one of the following values:
1118:../../dependencies/STM32CubeL0/Drivers/STM32L0xx_HAL_Driver/Inc/stm32l0xx_ll_usart.h ****   *         @arg @ref LL_USART_TXRX_STANDARD
1119:../../dependencies/STM32CubeL0/Drivers/STM32L0xx_HAL_Driver/Inc/stm32l0xx_ll_usart.h ****   *         @arg @ref LL_USART_TXRX_SWAPPED
1120:../../dependencies/STM32CubeL0/Drivers/STM32L0xx_HAL_Driver/Inc/stm32l0xx_ll_usart.h ****   */
1121:../../dependencies/STM32CubeL0/Drivers/STM32L0xx_HAL_Driver/Inc/stm32l0xx_ll_usart.h **** __STATIC_INLINE uint32_t LL_USART_GetTXRXSwap(USART_TypeDef *USARTx)
1122:../../dependencies/STM32CubeL0/Drivers/STM32L0xx_HAL_Driver/Inc/stm32l0xx_ll_usart.h **** {
1123:../../dependencies/STM32CubeL0/Drivers/STM32L0xx_HAL_Driver/Inc/stm32l0xx_ll_usart.h ****   return (uint32_t)(READ_BIT(USARTx->CR2, USART_CR2_SWAP));
1124:../../dependencies/STM32CubeL0/Drivers/STM32L0xx_HAL_Driver/Inc/stm32l0xx_ll_usart.h **** }
1125:../../dependencies/STM32CubeL0/Drivers/STM32L0xx_HAL_Driver/Inc/stm32l0xx_ll_usart.h **** 
1126:../../dependencies/STM32CubeL0/Drivers/STM32L0xx_HAL_Driver/Inc/stm32l0xx_ll_usart.h **** /**
1127:../../dependencies/STM32CubeL0/Drivers/STM32L0xx_HAL_Driver/Inc/stm32l0xx_ll_usart.h ****   * @brief  Configure RX pin active level logic
1128:../../dependencies/STM32CubeL0/Drivers/STM32L0xx_HAL_Driver/Inc/stm32l0xx_ll_usart.h ****   * @rmtoll CR2          RXINV         LL_USART_SetRXPinLevel
1129:../../dependencies/STM32CubeL0/Drivers/STM32L0xx_HAL_Driver/Inc/stm32l0xx_ll_usart.h ****   * @param  USARTx USART Instance
1130:../../dependencies/STM32CubeL0/Drivers/STM32L0xx_HAL_Driver/Inc/stm32l0xx_ll_usart.h ****   * @param  PinInvMethod This parameter can be one of the following values:
1131:../../dependencies/STM32CubeL0/Drivers/STM32L0xx_HAL_Driver/Inc/stm32l0xx_ll_usart.h ****   *         @arg @ref LL_USART_RXPIN_LEVEL_STANDARD
1132:../../dependencies/STM32CubeL0/Drivers/STM32L0xx_HAL_Driver/Inc/stm32l0xx_ll_usart.h ****   *         @arg @ref LL_USART_RXPIN_LEVEL_INVERTED
1133:../../dependencies/STM32CubeL0/Drivers/STM32L0xx_HAL_Driver/Inc/stm32l0xx_ll_usart.h ****   * @retval None
1134:../../dependencies/STM32CubeL0/Drivers/STM32L0xx_HAL_Driver/Inc/stm32l0xx_ll_usart.h ****   */
1135:../../dependencies/STM32CubeL0/Drivers/STM32L0xx_HAL_Driver/Inc/stm32l0xx_ll_usart.h **** __STATIC_INLINE void LL_USART_SetRXPinLevel(USART_TypeDef *USARTx, uint32_t PinInvMethod)
1136:../../dependencies/STM32CubeL0/Drivers/STM32L0xx_HAL_Driver/Inc/stm32l0xx_ll_usart.h **** {
1137:../../dependencies/STM32CubeL0/Drivers/STM32L0xx_HAL_Driver/Inc/stm32l0xx_ll_usart.h ****   MODIFY_REG(USARTx->CR2, USART_CR2_RXINV, PinInvMethod);
1138:../../dependencies/STM32CubeL0/Drivers/STM32L0xx_HAL_Driver/Inc/stm32l0xx_ll_usart.h **** }
1139:../../dependencies/STM32CubeL0/Drivers/STM32L0xx_HAL_Driver/Inc/stm32l0xx_ll_usart.h **** 
1140:../../dependencies/STM32CubeL0/Drivers/STM32L0xx_HAL_Driver/Inc/stm32l0xx_ll_usart.h **** /**
1141:../../dependencies/STM32CubeL0/Drivers/STM32L0xx_HAL_Driver/Inc/stm32l0xx_ll_usart.h ****   * @brief  Retrieve RX pin active level logic configuration
1142:../../dependencies/STM32CubeL0/Drivers/STM32L0xx_HAL_Driver/Inc/stm32l0xx_ll_usart.h ****   * @rmtoll CR2          RXINV         LL_USART_GetRXPinLevel
1143:../../dependencies/STM32CubeL0/Drivers/STM32L0xx_HAL_Driver/Inc/stm32l0xx_ll_usart.h ****   * @param  USARTx USART Instance
1144:../../dependencies/STM32CubeL0/Drivers/STM32L0xx_HAL_Driver/Inc/stm32l0xx_ll_usart.h ****   * @retval Returned value can be one of the following values:
1145:../../dependencies/STM32CubeL0/Drivers/STM32L0xx_HAL_Driver/Inc/stm32l0xx_ll_usart.h ****   *         @arg @ref LL_USART_RXPIN_LEVEL_STANDARD
1146:../../dependencies/STM32CubeL0/Drivers/STM32L0xx_HAL_Driver/Inc/stm32l0xx_ll_usart.h ****   *         @arg @ref LL_USART_RXPIN_LEVEL_INVERTED
1147:../../dependencies/STM32CubeL0/Drivers/STM32L0xx_HAL_Driver/Inc/stm32l0xx_ll_usart.h ****   */
1148:../../dependencies/STM32CubeL0/Drivers/STM32L0xx_HAL_Driver/Inc/stm32l0xx_ll_usart.h **** __STATIC_INLINE uint32_t LL_USART_GetRXPinLevel(USART_TypeDef *USARTx)
1149:../../dependencies/STM32CubeL0/Drivers/STM32L0xx_HAL_Driver/Inc/stm32l0xx_ll_usart.h **** {
1150:../../dependencies/STM32CubeL0/Drivers/STM32L0xx_HAL_Driver/Inc/stm32l0xx_ll_usart.h ****   return (uint32_t)(READ_BIT(USARTx->CR2, USART_CR2_RXINV));
1151:../../dependencies/STM32CubeL0/Drivers/STM32L0xx_HAL_Driver/Inc/stm32l0xx_ll_usart.h **** }
1152:../../dependencies/STM32CubeL0/Drivers/STM32L0xx_HAL_Driver/Inc/stm32l0xx_ll_usart.h **** 
1153:../../dependencies/STM32CubeL0/Drivers/STM32L0xx_HAL_Driver/Inc/stm32l0xx_ll_usart.h **** /**
1154:../../dependencies/STM32CubeL0/Drivers/STM32L0xx_HAL_Driver/Inc/stm32l0xx_ll_usart.h ****   * @brief  Configure TX pin active level logic
1155:../../dependencies/STM32CubeL0/Drivers/STM32L0xx_HAL_Driver/Inc/stm32l0xx_ll_usart.h ****   * @rmtoll CR2          TXINV         LL_USART_SetTXPinLevel
1156:../../dependencies/STM32CubeL0/Drivers/STM32L0xx_HAL_Driver/Inc/stm32l0xx_ll_usart.h ****   * @param  USARTx USART Instance
1157:../../dependencies/STM32CubeL0/Drivers/STM32L0xx_HAL_Driver/Inc/stm32l0xx_ll_usart.h ****   * @param  PinInvMethod This parameter can be one of the following values:
1158:../../dependencies/STM32CubeL0/Drivers/STM32L0xx_HAL_Driver/Inc/stm32l0xx_ll_usart.h ****   *         @arg @ref LL_USART_TXPIN_LEVEL_STANDARD
1159:../../dependencies/STM32CubeL0/Drivers/STM32L0xx_HAL_Driver/Inc/stm32l0xx_ll_usart.h ****   *         @arg @ref LL_USART_TXPIN_LEVEL_INVERTED
1160:../../dependencies/STM32CubeL0/Drivers/STM32L0xx_HAL_Driver/Inc/stm32l0xx_ll_usart.h ****   * @retval None
ARM GAS  /var/folders/fs/dxwfnrqj18z860lwl3d6f5t00000gn/T//ccABuIkd.s 			page 24


1161:../../dependencies/STM32CubeL0/Drivers/STM32L0xx_HAL_Driver/Inc/stm32l0xx_ll_usart.h ****   */
1162:../../dependencies/STM32CubeL0/Drivers/STM32L0xx_HAL_Driver/Inc/stm32l0xx_ll_usart.h **** __STATIC_INLINE void LL_USART_SetTXPinLevel(USART_TypeDef *USARTx, uint32_t PinInvMethod)
1163:../../dependencies/STM32CubeL0/Drivers/STM32L0xx_HAL_Driver/Inc/stm32l0xx_ll_usart.h **** {
1164:../../dependencies/STM32CubeL0/Drivers/STM32L0xx_HAL_Driver/Inc/stm32l0xx_ll_usart.h ****   MODIFY_REG(USARTx->CR2, USART_CR2_TXINV, PinInvMethod);
1165:../../dependencies/STM32CubeL0/Drivers/STM32L0xx_HAL_Driver/Inc/stm32l0xx_ll_usart.h **** }
1166:../../dependencies/STM32CubeL0/Drivers/STM32L0xx_HAL_Driver/Inc/stm32l0xx_ll_usart.h **** 
1167:../../dependencies/STM32CubeL0/Drivers/STM32L0xx_HAL_Driver/Inc/stm32l0xx_ll_usart.h **** /**
1168:../../dependencies/STM32CubeL0/Drivers/STM32L0xx_HAL_Driver/Inc/stm32l0xx_ll_usart.h ****   * @brief  Retrieve TX pin active level logic configuration
1169:../../dependencies/STM32CubeL0/Drivers/STM32L0xx_HAL_Driver/Inc/stm32l0xx_ll_usart.h ****   * @rmtoll CR2          TXINV         LL_USART_GetTXPinLevel
1170:../../dependencies/STM32CubeL0/Drivers/STM32L0xx_HAL_Driver/Inc/stm32l0xx_ll_usart.h ****   * @param  USARTx USART Instance
1171:../../dependencies/STM32CubeL0/Drivers/STM32L0xx_HAL_Driver/Inc/stm32l0xx_ll_usart.h ****   * @retval Returned value can be one of the following values:
1172:../../dependencies/STM32CubeL0/Drivers/STM32L0xx_HAL_Driver/Inc/stm32l0xx_ll_usart.h ****   *         @arg @ref LL_USART_TXPIN_LEVEL_STANDARD
1173:../../dependencies/STM32CubeL0/Drivers/STM32L0xx_HAL_Driver/Inc/stm32l0xx_ll_usart.h ****   *         @arg @ref LL_USART_TXPIN_LEVEL_INVERTED
1174:../../dependencies/STM32CubeL0/Drivers/STM32L0xx_HAL_Driver/Inc/stm32l0xx_ll_usart.h ****   */
1175:../../dependencies/STM32CubeL0/Drivers/STM32L0xx_HAL_Driver/Inc/stm32l0xx_ll_usart.h **** __STATIC_INLINE uint32_t LL_USART_GetTXPinLevel(USART_TypeDef *USARTx)
1176:../../dependencies/STM32CubeL0/Drivers/STM32L0xx_HAL_Driver/Inc/stm32l0xx_ll_usart.h **** {
1177:../../dependencies/STM32CubeL0/Drivers/STM32L0xx_HAL_Driver/Inc/stm32l0xx_ll_usart.h ****   return (uint32_t)(READ_BIT(USARTx->CR2, USART_CR2_TXINV));
1178:../../dependencies/STM32CubeL0/Drivers/STM32L0xx_HAL_Driver/Inc/stm32l0xx_ll_usart.h **** }
1179:../../dependencies/STM32CubeL0/Drivers/STM32L0xx_HAL_Driver/Inc/stm32l0xx_ll_usart.h **** 
1180:../../dependencies/STM32CubeL0/Drivers/STM32L0xx_HAL_Driver/Inc/stm32l0xx_ll_usart.h **** /**
1181:../../dependencies/STM32CubeL0/Drivers/STM32L0xx_HAL_Driver/Inc/stm32l0xx_ll_usart.h ****   * @brief  Configure Binary data logic.
1182:../../dependencies/STM32CubeL0/Drivers/STM32L0xx_HAL_Driver/Inc/stm32l0xx_ll_usart.h ****   * @note   Allow to define how Logical data from the data register are send/received :
1183:../../dependencies/STM32CubeL0/Drivers/STM32L0xx_HAL_Driver/Inc/stm32l0xx_ll_usart.h ****   *         either in positive/direct logic (1=H, 0=L) or in negative/inverse logic (1=L, 0=H)
1184:../../dependencies/STM32CubeL0/Drivers/STM32L0xx_HAL_Driver/Inc/stm32l0xx_ll_usart.h ****   * @rmtoll CR2          DATAINV       LL_USART_SetBinaryDataLogic
1185:../../dependencies/STM32CubeL0/Drivers/STM32L0xx_HAL_Driver/Inc/stm32l0xx_ll_usart.h ****   * @param  USARTx USART Instance
1186:../../dependencies/STM32CubeL0/Drivers/STM32L0xx_HAL_Driver/Inc/stm32l0xx_ll_usart.h ****   * @param  DataLogic This parameter can be one of the following values:
1187:../../dependencies/STM32CubeL0/Drivers/STM32L0xx_HAL_Driver/Inc/stm32l0xx_ll_usart.h ****   *         @arg @ref LL_USART_BINARY_LOGIC_POSITIVE
1188:../../dependencies/STM32CubeL0/Drivers/STM32L0xx_HAL_Driver/Inc/stm32l0xx_ll_usart.h ****   *         @arg @ref LL_USART_BINARY_LOGIC_NEGATIVE
1189:../../dependencies/STM32CubeL0/Drivers/STM32L0xx_HAL_Driver/Inc/stm32l0xx_ll_usart.h ****   * @retval None
1190:../../dependencies/STM32CubeL0/Drivers/STM32L0xx_HAL_Driver/Inc/stm32l0xx_ll_usart.h ****   */
1191:../../dependencies/STM32CubeL0/Drivers/STM32L0xx_HAL_Driver/Inc/stm32l0xx_ll_usart.h **** __STATIC_INLINE void LL_USART_SetBinaryDataLogic(USART_TypeDef *USARTx, uint32_t DataLogic)
1192:../../dependencies/STM32CubeL0/Drivers/STM32L0xx_HAL_Driver/Inc/stm32l0xx_ll_usart.h **** {
1193:../../dependencies/STM32CubeL0/Drivers/STM32L0xx_HAL_Driver/Inc/stm32l0xx_ll_usart.h ****   MODIFY_REG(USARTx->CR2, USART_CR2_DATAINV, DataLogic);
1194:../../dependencies/STM32CubeL0/Drivers/STM32L0xx_HAL_Driver/Inc/stm32l0xx_ll_usart.h **** }
1195:../../dependencies/STM32CubeL0/Drivers/STM32L0xx_HAL_Driver/Inc/stm32l0xx_ll_usart.h **** 
1196:../../dependencies/STM32CubeL0/Drivers/STM32L0xx_HAL_Driver/Inc/stm32l0xx_ll_usart.h **** /**
1197:../../dependencies/STM32CubeL0/Drivers/STM32L0xx_HAL_Driver/Inc/stm32l0xx_ll_usart.h ****   * @brief  Retrieve Binary data configuration
1198:../../dependencies/STM32CubeL0/Drivers/STM32L0xx_HAL_Driver/Inc/stm32l0xx_ll_usart.h ****   * @rmtoll CR2          DATAINV       LL_USART_GetBinaryDataLogic
1199:../../dependencies/STM32CubeL0/Drivers/STM32L0xx_HAL_Driver/Inc/stm32l0xx_ll_usart.h ****   * @param  USARTx USART Instance
1200:../../dependencies/STM32CubeL0/Drivers/STM32L0xx_HAL_Driver/Inc/stm32l0xx_ll_usart.h ****   * @retval Returned value can be one of the following values:
1201:../../dependencies/STM32CubeL0/Drivers/STM32L0xx_HAL_Driver/Inc/stm32l0xx_ll_usart.h ****   *         @arg @ref LL_USART_BINARY_LOGIC_POSITIVE
1202:../../dependencies/STM32CubeL0/Drivers/STM32L0xx_HAL_Driver/Inc/stm32l0xx_ll_usart.h ****   *         @arg @ref LL_USART_BINARY_LOGIC_NEGATIVE
1203:../../dependencies/STM32CubeL0/Drivers/STM32L0xx_HAL_Driver/Inc/stm32l0xx_ll_usart.h ****   */
1204:../../dependencies/STM32CubeL0/Drivers/STM32L0xx_HAL_Driver/Inc/stm32l0xx_ll_usart.h **** __STATIC_INLINE uint32_t LL_USART_GetBinaryDataLogic(USART_TypeDef *USARTx)
1205:../../dependencies/STM32CubeL0/Drivers/STM32L0xx_HAL_Driver/Inc/stm32l0xx_ll_usart.h **** {
1206:../../dependencies/STM32CubeL0/Drivers/STM32L0xx_HAL_Driver/Inc/stm32l0xx_ll_usart.h ****   return (uint32_t)(READ_BIT(USARTx->CR2, USART_CR2_DATAINV));
1207:../../dependencies/STM32CubeL0/Drivers/STM32L0xx_HAL_Driver/Inc/stm32l0xx_ll_usart.h **** }
1208:../../dependencies/STM32CubeL0/Drivers/STM32L0xx_HAL_Driver/Inc/stm32l0xx_ll_usart.h **** 
1209:../../dependencies/STM32CubeL0/Drivers/STM32L0xx_HAL_Driver/Inc/stm32l0xx_ll_usart.h **** /**
1210:../../dependencies/STM32CubeL0/Drivers/STM32L0xx_HAL_Driver/Inc/stm32l0xx_ll_usart.h ****   * @brief  Configure transfer bit order (either Less or Most Significant Bit First)
1211:../../dependencies/STM32CubeL0/Drivers/STM32L0xx_HAL_Driver/Inc/stm32l0xx_ll_usart.h ****   * @note   MSB First means data is transmitted/received with the MSB first, following the start bi
1212:../../dependencies/STM32CubeL0/Drivers/STM32L0xx_HAL_Driver/Inc/stm32l0xx_ll_usart.h ****   *         LSB First means data is transmitted/received with data bit 0 first, following the start
1213:../../dependencies/STM32CubeL0/Drivers/STM32L0xx_HAL_Driver/Inc/stm32l0xx_ll_usart.h ****   * @rmtoll CR2          MSBFIRST      LL_USART_SetTransferBitOrder
1214:../../dependencies/STM32CubeL0/Drivers/STM32L0xx_HAL_Driver/Inc/stm32l0xx_ll_usart.h ****   * @param  USARTx USART Instance
1215:../../dependencies/STM32CubeL0/Drivers/STM32L0xx_HAL_Driver/Inc/stm32l0xx_ll_usart.h ****   * @param  BitOrder This parameter can be one of the following values:
1216:../../dependencies/STM32CubeL0/Drivers/STM32L0xx_HAL_Driver/Inc/stm32l0xx_ll_usart.h ****   *         @arg @ref LL_USART_BITORDER_LSBFIRST
1217:../../dependencies/STM32CubeL0/Drivers/STM32L0xx_HAL_Driver/Inc/stm32l0xx_ll_usart.h ****   *         @arg @ref LL_USART_BITORDER_MSBFIRST
ARM GAS  /var/folders/fs/dxwfnrqj18z860lwl3d6f5t00000gn/T//ccABuIkd.s 			page 25


1218:../../dependencies/STM32CubeL0/Drivers/STM32L0xx_HAL_Driver/Inc/stm32l0xx_ll_usart.h ****   * @retval None
1219:../../dependencies/STM32CubeL0/Drivers/STM32L0xx_HAL_Driver/Inc/stm32l0xx_ll_usart.h ****   */
1220:../../dependencies/STM32CubeL0/Drivers/STM32L0xx_HAL_Driver/Inc/stm32l0xx_ll_usart.h **** __STATIC_INLINE void LL_USART_SetTransferBitOrder(USART_TypeDef *USARTx, uint32_t BitOrder)
1221:../../dependencies/STM32CubeL0/Drivers/STM32L0xx_HAL_Driver/Inc/stm32l0xx_ll_usart.h **** {
1222:../../dependencies/STM32CubeL0/Drivers/STM32L0xx_HAL_Driver/Inc/stm32l0xx_ll_usart.h ****   MODIFY_REG(USARTx->CR2, USART_CR2_MSBFIRST, BitOrder);
1223:../../dependencies/STM32CubeL0/Drivers/STM32L0xx_HAL_Driver/Inc/stm32l0xx_ll_usart.h **** }
1224:../../dependencies/STM32CubeL0/Drivers/STM32L0xx_HAL_Driver/Inc/stm32l0xx_ll_usart.h **** 
1225:../../dependencies/STM32CubeL0/Drivers/STM32L0xx_HAL_Driver/Inc/stm32l0xx_ll_usart.h **** /**
1226:../../dependencies/STM32CubeL0/Drivers/STM32L0xx_HAL_Driver/Inc/stm32l0xx_ll_usart.h ****   * @brief  Return transfer bit order (either Less or Most Significant Bit First)
1227:../../dependencies/STM32CubeL0/Drivers/STM32L0xx_HAL_Driver/Inc/stm32l0xx_ll_usart.h ****   * @note   MSB First means data is transmitted/received with the MSB first, following the start bi
1228:../../dependencies/STM32CubeL0/Drivers/STM32L0xx_HAL_Driver/Inc/stm32l0xx_ll_usart.h ****   *         LSB First means data is transmitted/received with data bit 0 first, following the start
1229:../../dependencies/STM32CubeL0/Drivers/STM32L0xx_HAL_Driver/Inc/stm32l0xx_ll_usart.h ****   * @rmtoll CR2          MSBFIRST      LL_USART_GetTransferBitOrder
1230:../../dependencies/STM32CubeL0/Drivers/STM32L0xx_HAL_Driver/Inc/stm32l0xx_ll_usart.h ****   * @param  USARTx USART Instance
1231:../../dependencies/STM32CubeL0/Drivers/STM32L0xx_HAL_Driver/Inc/stm32l0xx_ll_usart.h ****   * @retval Returned value can be one of the following values:
1232:../../dependencies/STM32CubeL0/Drivers/STM32L0xx_HAL_Driver/Inc/stm32l0xx_ll_usart.h ****   *         @arg @ref LL_USART_BITORDER_LSBFIRST
1233:../../dependencies/STM32CubeL0/Drivers/STM32L0xx_HAL_Driver/Inc/stm32l0xx_ll_usart.h ****   *         @arg @ref LL_USART_BITORDER_MSBFIRST
1234:../../dependencies/STM32CubeL0/Drivers/STM32L0xx_HAL_Driver/Inc/stm32l0xx_ll_usart.h ****   */
1235:../../dependencies/STM32CubeL0/Drivers/STM32L0xx_HAL_Driver/Inc/stm32l0xx_ll_usart.h **** __STATIC_INLINE uint32_t LL_USART_GetTransferBitOrder(USART_TypeDef *USARTx)
1236:../../dependencies/STM32CubeL0/Drivers/STM32L0xx_HAL_Driver/Inc/stm32l0xx_ll_usart.h **** {
1237:../../dependencies/STM32CubeL0/Drivers/STM32L0xx_HAL_Driver/Inc/stm32l0xx_ll_usart.h ****   return (uint32_t)(READ_BIT(USARTx->CR2, USART_CR2_MSBFIRST));
1238:../../dependencies/STM32CubeL0/Drivers/STM32L0xx_HAL_Driver/Inc/stm32l0xx_ll_usart.h **** }
1239:../../dependencies/STM32CubeL0/Drivers/STM32L0xx_HAL_Driver/Inc/stm32l0xx_ll_usart.h **** 
1240:../../dependencies/STM32CubeL0/Drivers/STM32L0xx_HAL_Driver/Inc/stm32l0xx_ll_usart.h **** /**
1241:../../dependencies/STM32CubeL0/Drivers/STM32L0xx_HAL_Driver/Inc/stm32l0xx_ll_usart.h ****   * @brief  Enable Auto Baud-Rate Detection
1242:../../dependencies/STM32CubeL0/Drivers/STM32L0xx_HAL_Driver/Inc/stm32l0xx_ll_usart.h ****   * @note   Macro IS_USART_AUTOBAUDRATE_DETECTION_INSTANCE(USARTx) can be used to check whether or 
1243:../../dependencies/STM32CubeL0/Drivers/STM32L0xx_HAL_Driver/Inc/stm32l0xx_ll_usart.h ****   *         Auto Baud Rate detection feature is supported by the USARTx instance.
1244:../../dependencies/STM32CubeL0/Drivers/STM32L0xx_HAL_Driver/Inc/stm32l0xx_ll_usart.h ****   * @rmtoll CR2          ABREN         LL_USART_EnableAutoBaudRate
1245:../../dependencies/STM32CubeL0/Drivers/STM32L0xx_HAL_Driver/Inc/stm32l0xx_ll_usart.h ****   * @param  USARTx USART Instance
1246:../../dependencies/STM32CubeL0/Drivers/STM32L0xx_HAL_Driver/Inc/stm32l0xx_ll_usart.h ****   * @retval None
1247:../../dependencies/STM32CubeL0/Drivers/STM32L0xx_HAL_Driver/Inc/stm32l0xx_ll_usart.h ****   */
1248:../../dependencies/STM32CubeL0/Drivers/STM32L0xx_HAL_Driver/Inc/stm32l0xx_ll_usart.h **** __STATIC_INLINE void LL_USART_EnableAutoBaudRate(USART_TypeDef *USARTx)
1249:../../dependencies/STM32CubeL0/Drivers/STM32L0xx_HAL_Driver/Inc/stm32l0xx_ll_usart.h **** {
1250:../../dependencies/STM32CubeL0/Drivers/STM32L0xx_HAL_Driver/Inc/stm32l0xx_ll_usart.h ****   SET_BIT(USARTx->CR2, USART_CR2_ABREN);
1251:../../dependencies/STM32CubeL0/Drivers/STM32L0xx_HAL_Driver/Inc/stm32l0xx_ll_usart.h **** }
1252:../../dependencies/STM32CubeL0/Drivers/STM32L0xx_HAL_Driver/Inc/stm32l0xx_ll_usart.h **** 
1253:../../dependencies/STM32CubeL0/Drivers/STM32L0xx_HAL_Driver/Inc/stm32l0xx_ll_usart.h **** /**
1254:../../dependencies/STM32CubeL0/Drivers/STM32L0xx_HAL_Driver/Inc/stm32l0xx_ll_usart.h ****   * @brief  Disable Auto Baud-Rate Detection
1255:../../dependencies/STM32CubeL0/Drivers/STM32L0xx_HAL_Driver/Inc/stm32l0xx_ll_usart.h ****   * @note   Macro IS_USART_AUTOBAUDRATE_DETECTION_INSTANCE(USARTx) can be used to check whether or 
1256:../../dependencies/STM32CubeL0/Drivers/STM32L0xx_HAL_Driver/Inc/stm32l0xx_ll_usart.h ****   *         Auto Baud Rate detection feature is supported by the USARTx instance.
1257:../../dependencies/STM32CubeL0/Drivers/STM32L0xx_HAL_Driver/Inc/stm32l0xx_ll_usart.h ****   * @rmtoll CR2          ABREN         LL_USART_DisableAutoBaudRate
1258:../../dependencies/STM32CubeL0/Drivers/STM32L0xx_HAL_Driver/Inc/stm32l0xx_ll_usart.h ****   * @param  USARTx USART Instance
1259:../../dependencies/STM32CubeL0/Drivers/STM32L0xx_HAL_Driver/Inc/stm32l0xx_ll_usart.h ****   * @retval None
1260:../../dependencies/STM32CubeL0/Drivers/STM32L0xx_HAL_Driver/Inc/stm32l0xx_ll_usart.h ****   */
1261:../../dependencies/STM32CubeL0/Drivers/STM32L0xx_HAL_Driver/Inc/stm32l0xx_ll_usart.h **** __STATIC_INLINE void LL_USART_DisableAutoBaudRate(USART_TypeDef *USARTx)
1262:../../dependencies/STM32CubeL0/Drivers/STM32L0xx_HAL_Driver/Inc/stm32l0xx_ll_usart.h **** {
1263:../../dependencies/STM32CubeL0/Drivers/STM32L0xx_HAL_Driver/Inc/stm32l0xx_ll_usart.h ****   CLEAR_BIT(USARTx->CR2, USART_CR2_ABREN);
1264:../../dependencies/STM32CubeL0/Drivers/STM32L0xx_HAL_Driver/Inc/stm32l0xx_ll_usart.h **** }
1265:../../dependencies/STM32CubeL0/Drivers/STM32L0xx_HAL_Driver/Inc/stm32l0xx_ll_usart.h **** 
1266:../../dependencies/STM32CubeL0/Drivers/STM32L0xx_HAL_Driver/Inc/stm32l0xx_ll_usart.h **** /**
1267:../../dependencies/STM32CubeL0/Drivers/STM32L0xx_HAL_Driver/Inc/stm32l0xx_ll_usart.h ****   * @brief  Indicate if Auto Baud-Rate Detection mechanism is enabled
1268:../../dependencies/STM32CubeL0/Drivers/STM32L0xx_HAL_Driver/Inc/stm32l0xx_ll_usart.h ****   * @note   Macro IS_USART_AUTOBAUDRATE_DETECTION_INSTANCE(USARTx) can be used to check whether or 
1269:../../dependencies/STM32CubeL0/Drivers/STM32L0xx_HAL_Driver/Inc/stm32l0xx_ll_usart.h ****   *         Auto Baud Rate detection feature is supported by the USARTx instance.
1270:../../dependencies/STM32CubeL0/Drivers/STM32L0xx_HAL_Driver/Inc/stm32l0xx_ll_usart.h ****   * @rmtoll CR2          ABREN         LL_USART_IsEnabledAutoBaud
1271:../../dependencies/STM32CubeL0/Drivers/STM32L0xx_HAL_Driver/Inc/stm32l0xx_ll_usart.h ****   * @param  USARTx USART Instance
1272:../../dependencies/STM32CubeL0/Drivers/STM32L0xx_HAL_Driver/Inc/stm32l0xx_ll_usart.h ****   * @retval State of bit (1 or 0).
1273:../../dependencies/STM32CubeL0/Drivers/STM32L0xx_HAL_Driver/Inc/stm32l0xx_ll_usart.h ****   */
1274:../../dependencies/STM32CubeL0/Drivers/STM32L0xx_HAL_Driver/Inc/stm32l0xx_ll_usart.h **** __STATIC_INLINE uint32_t LL_USART_IsEnabledAutoBaud(USART_TypeDef *USARTx)
ARM GAS  /var/folders/fs/dxwfnrqj18z860lwl3d6f5t00000gn/T//ccABuIkd.s 			page 26


1275:../../dependencies/STM32CubeL0/Drivers/STM32L0xx_HAL_Driver/Inc/stm32l0xx_ll_usart.h **** {
1276:../../dependencies/STM32CubeL0/Drivers/STM32L0xx_HAL_Driver/Inc/stm32l0xx_ll_usart.h ****   return ((READ_BIT(USARTx->CR2, USART_CR2_ABREN) == (USART_CR2_ABREN)) ? 1UL : 0UL);
1277:../../dependencies/STM32CubeL0/Drivers/STM32L0xx_HAL_Driver/Inc/stm32l0xx_ll_usart.h **** }
1278:../../dependencies/STM32CubeL0/Drivers/STM32L0xx_HAL_Driver/Inc/stm32l0xx_ll_usart.h **** 
1279:../../dependencies/STM32CubeL0/Drivers/STM32L0xx_HAL_Driver/Inc/stm32l0xx_ll_usart.h **** /**
1280:../../dependencies/STM32CubeL0/Drivers/STM32L0xx_HAL_Driver/Inc/stm32l0xx_ll_usart.h ****   * @brief  Set Auto Baud-Rate mode bits
1281:../../dependencies/STM32CubeL0/Drivers/STM32L0xx_HAL_Driver/Inc/stm32l0xx_ll_usart.h ****   * @note   Macro IS_USART_AUTOBAUDRATE_DETECTION_INSTANCE(USARTx) can be used to check whether or 
1282:../../dependencies/STM32CubeL0/Drivers/STM32L0xx_HAL_Driver/Inc/stm32l0xx_ll_usart.h ****   *         Auto Baud Rate detection feature is supported by the USARTx instance.
1283:../../dependencies/STM32CubeL0/Drivers/STM32L0xx_HAL_Driver/Inc/stm32l0xx_ll_usart.h ****   * @rmtoll CR2          ABRMODE       LL_USART_SetAutoBaudRateMode
1284:../../dependencies/STM32CubeL0/Drivers/STM32L0xx_HAL_Driver/Inc/stm32l0xx_ll_usart.h ****   * @param  USARTx USART Instance
1285:../../dependencies/STM32CubeL0/Drivers/STM32L0xx_HAL_Driver/Inc/stm32l0xx_ll_usart.h ****   * @param  AutoBaudRateMode This parameter can be one of the following values:
1286:../../dependencies/STM32CubeL0/Drivers/STM32L0xx_HAL_Driver/Inc/stm32l0xx_ll_usart.h ****   *         @arg @ref LL_USART_AUTOBAUD_DETECT_ON_STARTBIT
1287:../../dependencies/STM32CubeL0/Drivers/STM32L0xx_HAL_Driver/Inc/stm32l0xx_ll_usart.h ****   *         @arg @ref LL_USART_AUTOBAUD_DETECT_ON_FALLINGEDGE
1288:../../dependencies/STM32CubeL0/Drivers/STM32L0xx_HAL_Driver/Inc/stm32l0xx_ll_usart.h ****   *         @arg @ref LL_USART_AUTOBAUD_DETECT_ON_7F_FRAME
1289:../../dependencies/STM32CubeL0/Drivers/STM32L0xx_HAL_Driver/Inc/stm32l0xx_ll_usart.h ****   *         @arg @ref LL_USART_AUTOBAUD_DETECT_ON_55_FRAME
1290:../../dependencies/STM32CubeL0/Drivers/STM32L0xx_HAL_Driver/Inc/stm32l0xx_ll_usart.h ****   * @retval None
1291:../../dependencies/STM32CubeL0/Drivers/STM32L0xx_HAL_Driver/Inc/stm32l0xx_ll_usart.h ****   */
1292:../../dependencies/STM32CubeL0/Drivers/STM32L0xx_HAL_Driver/Inc/stm32l0xx_ll_usart.h **** __STATIC_INLINE void LL_USART_SetAutoBaudRateMode(USART_TypeDef *USARTx, uint32_t AutoBaudRateMode)
1293:../../dependencies/STM32CubeL0/Drivers/STM32L0xx_HAL_Driver/Inc/stm32l0xx_ll_usart.h **** {
1294:../../dependencies/STM32CubeL0/Drivers/STM32L0xx_HAL_Driver/Inc/stm32l0xx_ll_usart.h ****   MODIFY_REG(USARTx->CR2, USART_CR2_ABRMODE, AutoBaudRateMode);
1295:../../dependencies/STM32CubeL0/Drivers/STM32L0xx_HAL_Driver/Inc/stm32l0xx_ll_usart.h **** }
1296:../../dependencies/STM32CubeL0/Drivers/STM32L0xx_HAL_Driver/Inc/stm32l0xx_ll_usart.h **** 
1297:../../dependencies/STM32CubeL0/Drivers/STM32L0xx_HAL_Driver/Inc/stm32l0xx_ll_usart.h **** /**
1298:../../dependencies/STM32CubeL0/Drivers/STM32L0xx_HAL_Driver/Inc/stm32l0xx_ll_usart.h ****   * @brief  Return Auto Baud-Rate mode
1299:../../dependencies/STM32CubeL0/Drivers/STM32L0xx_HAL_Driver/Inc/stm32l0xx_ll_usart.h ****   * @note   Macro IS_USART_AUTOBAUDRATE_DETECTION_INSTANCE(USARTx) can be used to check whether or 
1300:../../dependencies/STM32CubeL0/Drivers/STM32L0xx_HAL_Driver/Inc/stm32l0xx_ll_usart.h ****   *         Auto Baud Rate detection feature is supported by the USARTx instance.
1301:../../dependencies/STM32CubeL0/Drivers/STM32L0xx_HAL_Driver/Inc/stm32l0xx_ll_usart.h ****   * @rmtoll CR2          ABRMODE       LL_USART_GetAutoBaudRateMode
1302:../../dependencies/STM32CubeL0/Drivers/STM32L0xx_HAL_Driver/Inc/stm32l0xx_ll_usart.h ****   * @param  USARTx USART Instance
1303:../../dependencies/STM32CubeL0/Drivers/STM32L0xx_HAL_Driver/Inc/stm32l0xx_ll_usart.h ****   * @retval Returned value can be one of the following values:
1304:../../dependencies/STM32CubeL0/Drivers/STM32L0xx_HAL_Driver/Inc/stm32l0xx_ll_usart.h ****   *         @arg @ref LL_USART_AUTOBAUD_DETECT_ON_STARTBIT
1305:../../dependencies/STM32CubeL0/Drivers/STM32L0xx_HAL_Driver/Inc/stm32l0xx_ll_usart.h ****   *         @arg @ref LL_USART_AUTOBAUD_DETECT_ON_FALLINGEDGE
1306:../../dependencies/STM32CubeL0/Drivers/STM32L0xx_HAL_Driver/Inc/stm32l0xx_ll_usart.h ****   *         @arg @ref LL_USART_AUTOBAUD_DETECT_ON_7F_FRAME
1307:../../dependencies/STM32CubeL0/Drivers/STM32L0xx_HAL_Driver/Inc/stm32l0xx_ll_usart.h ****   *         @arg @ref LL_USART_AUTOBAUD_DETECT_ON_55_FRAME
1308:../../dependencies/STM32CubeL0/Drivers/STM32L0xx_HAL_Driver/Inc/stm32l0xx_ll_usart.h ****   */
1309:../../dependencies/STM32CubeL0/Drivers/STM32L0xx_HAL_Driver/Inc/stm32l0xx_ll_usart.h **** __STATIC_INLINE uint32_t LL_USART_GetAutoBaudRateMode(USART_TypeDef *USARTx)
1310:../../dependencies/STM32CubeL0/Drivers/STM32L0xx_HAL_Driver/Inc/stm32l0xx_ll_usart.h **** {
1311:../../dependencies/STM32CubeL0/Drivers/STM32L0xx_HAL_Driver/Inc/stm32l0xx_ll_usart.h ****   return (uint32_t)(READ_BIT(USARTx->CR2, USART_CR2_ABRMODE));
1312:../../dependencies/STM32CubeL0/Drivers/STM32L0xx_HAL_Driver/Inc/stm32l0xx_ll_usart.h **** }
1313:../../dependencies/STM32CubeL0/Drivers/STM32L0xx_HAL_Driver/Inc/stm32l0xx_ll_usart.h **** 
1314:../../dependencies/STM32CubeL0/Drivers/STM32L0xx_HAL_Driver/Inc/stm32l0xx_ll_usart.h **** /**
1315:../../dependencies/STM32CubeL0/Drivers/STM32L0xx_HAL_Driver/Inc/stm32l0xx_ll_usart.h ****   * @brief  Enable Receiver Timeout
1316:../../dependencies/STM32CubeL0/Drivers/STM32L0xx_HAL_Driver/Inc/stm32l0xx_ll_usart.h ****   * @rmtoll CR2          RTOEN         LL_USART_EnableRxTimeout
1317:../../dependencies/STM32CubeL0/Drivers/STM32L0xx_HAL_Driver/Inc/stm32l0xx_ll_usart.h ****   * @param  USARTx USART Instance
1318:../../dependencies/STM32CubeL0/Drivers/STM32L0xx_HAL_Driver/Inc/stm32l0xx_ll_usart.h ****   * @retval None
1319:../../dependencies/STM32CubeL0/Drivers/STM32L0xx_HAL_Driver/Inc/stm32l0xx_ll_usart.h ****   */
1320:../../dependencies/STM32CubeL0/Drivers/STM32L0xx_HAL_Driver/Inc/stm32l0xx_ll_usart.h **** __STATIC_INLINE void LL_USART_EnableRxTimeout(USART_TypeDef *USARTx)
1321:../../dependencies/STM32CubeL0/Drivers/STM32L0xx_HAL_Driver/Inc/stm32l0xx_ll_usart.h **** {
1322:../../dependencies/STM32CubeL0/Drivers/STM32L0xx_HAL_Driver/Inc/stm32l0xx_ll_usart.h ****   SET_BIT(USARTx->CR2, USART_CR2_RTOEN);
1323:../../dependencies/STM32CubeL0/Drivers/STM32L0xx_HAL_Driver/Inc/stm32l0xx_ll_usart.h **** }
1324:../../dependencies/STM32CubeL0/Drivers/STM32L0xx_HAL_Driver/Inc/stm32l0xx_ll_usart.h **** 
1325:../../dependencies/STM32CubeL0/Drivers/STM32L0xx_HAL_Driver/Inc/stm32l0xx_ll_usart.h **** /**
1326:../../dependencies/STM32CubeL0/Drivers/STM32L0xx_HAL_Driver/Inc/stm32l0xx_ll_usart.h ****   * @brief  Disable Receiver Timeout
1327:../../dependencies/STM32CubeL0/Drivers/STM32L0xx_HAL_Driver/Inc/stm32l0xx_ll_usart.h ****   * @rmtoll CR2          RTOEN         LL_USART_DisableRxTimeout
1328:../../dependencies/STM32CubeL0/Drivers/STM32L0xx_HAL_Driver/Inc/stm32l0xx_ll_usart.h ****   * @param  USARTx USART Instance
1329:../../dependencies/STM32CubeL0/Drivers/STM32L0xx_HAL_Driver/Inc/stm32l0xx_ll_usart.h ****   * @retval None
1330:../../dependencies/STM32CubeL0/Drivers/STM32L0xx_HAL_Driver/Inc/stm32l0xx_ll_usart.h ****   */
1331:../../dependencies/STM32CubeL0/Drivers/STM32L0xx_HAL_Driver/Inc/stm32l0xx_ll_usart.h **** __STATIC_INLINE void LL_USART_DisableRxTimeout(USART_TypeDef *USARTx)
ARM GAS  /var/folders/fs/dxwfnrqj18z860lwl3d6f5t00000gn/T//ccABuIkd.s 			page 27


1332:../../dependencies/STM32CubeL0/Drivers/STM32L0xx_HAL_Driver/Inc/stm32l0xx_ll_usart.h **** {
1333:../../dependencies/STM32CubeL0/Drivers/STM32L0xx_HAL_Driver/Inc/stm32l0xx_ll_usart.h ****   CLEAR_BIT(USARTx->CR2, USART_CR2_RTOEN);
1334:../../dependencies/STM32CubeL0/Drivers/STM32L0xx_HAL_Driver/Inc/stm32l0xx_ll_usart.h **** }
1335:../../dependencies/STM32CubeL0/Drivers/STM32L0xx_HAL_Driver/Inc/stm32l0xx_ll_usart.h **** 
1336:../../dependencies/STM32CubeL0/Drivers/STM32L0xx_HAL_Driver/Inc/stm32l0xx_ll_usart.h **** /**
1337:../../dependencies/STM32CubeL0/Drivers/STM32L0xx_HAL_Driver/Inc/stm32l0xx_ll_usart.h ****   * @brief  Indicate if Receiver Timeout feature is enabled
1338:../../dependencies/STM32CubeL0/Drivers/STM32L0xx_HAL_Driver/Inc/stm32l0xx_ll_usart.h ****   * @rmtoll CR2          RTOEN         LL_USART_IsEnabledRxTimeout
1339:../../dependencies/STM32CubeL0/Drivers/STM32L0xx_HAL_Driver/Inc/stm32l0xx_ll_usart.h ****   * @param  USARTx USART Instance
1340:../../dependencies/STM32CubeL0/Drivers/STM32L0xx_HAL_Driver/Inc/stm32l0xx_ll_usart.h ****   * @retval State of bit (1 or 0).
1341:../../dependencies/STM32CubeL0/Drivers/STM32L0xx_HAL_Driver/Inc/stm32l0xx_ll_usart.h ****   */
1342:../../dependencies/STM32CubeL0/Drivers/STM32L0xx_HAL_Driver/Inc/stm32l0xx_ll_usart.h **** __STATIC_INLINE uint32_t LL_USART_IsEnabledRxTimeout(USART_TypeDef *USARTx)
1343:../../dependencies/STM32CubeL0/Drivers/STM32L0xx_HAL_Driver/Inc/stm32l0xx_ll_usart.h **** {
1344:../../dependencies/STM32CubeL0/Drivers/STM32L0xx_HAL_Driver/Inc/stm32l0xx_ll_usart.h ****   return ((READ_BIT(USARTx->CR2, USART_CR2_RTOEN) == (USART_CR2_RTOEN)) ? 1UL : 0UL);
1345:../../dependencies/STM32CubeL0/Drivers/STM32L0xx_HAL_Driver/Inc/stm32l0xx_ll_usart.h **** }
1346:../../dependencies/STM32CubeL0/Drivers/STM32L0xx_HAL_Driver/Inc/stm32l0xx_ll_usart.h **** 
1347:../../dependencies/STM32CubeL0/Drivers/STM32L0xx_HAL_Driver/Inc/stm32l0xx_ll_usart.h **** /**
1348:../../dependencies/STM32CubeL0/Drivers/STM32L0xx_HAL_Driver/Inc/stm32l0xx_ll_usart.h ****   * @brief  Set Address of the USART node.
1349:../../dependencies/STM32CubeL0/Drivers/STM32L0xx_HAL_Driver/Inc/stm32l0xx_ll_usart.h ****   * @note   This is used in multiprocessor communication during Mute mode or Stop mode,
1350:../../dependencies/STM32CubeL0/Drivers/STM32L0xx_HAL_Driver/Inc/stm32l0xx_ll_usart.h ****   *         for wake up with address mark detection.
1351:../../dependencies/STM32CubeL0/Drivers/STM32L0xx_HAL_Driver/Inc/stm32l0xx_ll_usart.h ****   * @note   4bits address node is used when 4-bit Address Detection is selected in ADDM7.
1352:../../dependencies/STM32CubeL0/Drivers/STM32L0xx_HAL_Driver/Inc/stm32l0xx_ll_usart.h ****   *         (b7-b4 should be set to 0)
1353:../../dependencies/STM32CubeL0/Drivers/STM32L0xx_HAL_Driver/Inc/stm32l0xx_ll_usart.h ****   *         8bits address node is used when 7-bit Address Detection is selected in ADDM7.
1354:../../dependencies/STM32CubeL0/Drivers/STM32L0xx_HAL_Driver/Inc/stm32l0xx_ll_usart.h ****   *         (This is used in multiprocessor communication during Mute mode or Stop mode,
1355:../../dependencies/STM32CubeL0/Drivers/STM32L0xx_HAL_Driver/Inc/stm32l0xx_ll_usart.h ****   *         for wake up with 7-bit address mark detection.
1356:../../dependencies/STM32CubeL0/Drivers/STM32L0xx_HAL_Driver/Inc/stm32l0xx_ll_usart.h ****   *         The MSB of the character sent by the transmitter should be equal to 1.
1357:../../dependencies/STM32CubeL0/Drivers/STM32L0xx_HAL_Driver/Inc/stm32l0xx_ll_usart.h ****   *         It may also be used for character detection during normal reception,
1358:../../dependencies/STM32CubeL0/Drivers/STM32L0xx_HAL_Driver/Inc/stm32l0xx_ll_usart.h ****   *         Mute mode inactive (for example, end of block detection in ModBus protocol).
1359:../../dependencies/STM32CubeL0/Drivers/STM32L0xx_HAL_Driver/Inc/stm32l0xx_ll_usart.h ****   *         In this case, the whole received character (8-bit) is compared to the ADD[7:0]
1360:../../dependencies/STM32CubeL0/Drivers/STM32L0xx_HAL_Driver/Inc/stm32l0xx_ll_usart.h ****   *         value and CMF flag is set on match)
1361:../../dependencies/STM32CubeL0/Drivers/STM32L0xx_HAL_Driver/Inc/stm32l0xx_ll_usart.h ****   * @rmtoll CR2          ADD           LL_USART_ConfigNodeAddress\n
1362:../../dependencies/STM32CubeL0/Drivers/STM32L0xx_HAL_Driver/Inc/stm32l0xx_ll_usart.h ****   *         CR2          ADDM7         LL_USART_ConfigNodeAddress
1363:../../dependencies/STM32CubeL0/Drivers/STM32L0xx_HAL_Driver/Inc/stm32l0xx_ll_usart.h ****   * @param  USARTx USART Instance
1364:../../dependencies/STM32CubeL0/Drivers/STM32L0xx_HAL_Driver/Inc/stm32l0xx_ll_usart.h ****   * @param  AddressLen This parameter can be one of the following values:
1365:../../dependencies/STM32CubeL0/Drivers/STM32L0xx_HAL_Driver/Inc/stm32l0xx_ll_usart.h ****   *         @arg @ref LL_USART_ADDRESS_DETECT_4B
1366:../../dependencies/STM32CubeL0/Drivers/STM32L0xx_HAL_Driver/Inc/stm32l0xx_ll_usart.h ****   *         @arg @ref LL_USART_ADDRESS_DETECT_7B
1367:../../dependencies/STM32CubeL0/Drivers/STM32L0xx_HAL_Driver/Inc/stm32l0xx_ll_usart.h ****   * @param  NodeAddress 4 or 7 bit Address of the USART node.
1368:../../dependencies/STM32CubeL0/Drivers/STM32L0xx_HAL_Driver/Inc/stm32l0xx_ll_usart.h ****   * @retval None
1369:../../dependencies/STM32CubeL0/Drivers/STM32L0xx_HAL_Driver/Inc/stm32l0xx_ll_usart.h ****   */
1370:../../dependencies/STM32CubeL0/Drivers/STM32L0xx_HAL_Driver/Inc/stm32l0xx_ll_usart.h **** __STATIC_INLINE void LL_USART_ConfigNodeAddress(USART_TypeDef *USARTx, uint32_t AddressLen, uint32_
1371:../../dependencies/STM32CubeL0/Drivers/STM32L0xx_HAL_Driver/Inc/stm32l0xx_ll_usart.h **** {
1372:../../dependencies/STM32CubeL0/Drivers/STM32L0xx_HAL_Driver/Inc/stm32l0xx_ll_usart.h ****   MODIFY_REG(USARTx->CR2, USART_CR2_ADD | USART_CR2_ADDM7,
1373:../../dependencies/STM32CubeL0/Drivers/STM32L0xx_HAL_Driver/Inc/stm32l0xx_ll_usart.h ****              (uint32_t)(AddressLen | (NodeAddress << USART_CR2_ADD_Pos)));
1374:../../dependencies/STM32CubeL0/Drivers/STM32L0xx_HAL_Driver/Inc/stm32l0xx_ll_usart.h **** }
1375:../../dependencies/STM32CubeL0/Drivers/STM32L0xx_HAL_Driver/Inc/stm32l0xx_ll_usart.h **** 
1376:../../dependencies/STM32CubeL0/Drivers/STM32L0xx_HAL_Driver/Inc/stm32l0xx_ll_usart.h **** /**
1377:../../dependencies/STM32CubeL0/Drivers/STM32L0xx_HAL_Driver/Inc/stm32l0xx_ll_usart.h ****   * @brief  Return 8 bit Address of the USART node as set in ADD field of CR2.
1378:../../dependencies/STM32CubeL0/Drivers/STM32L0xx_HAL_Driver/Inc/stm32l0xx_ll_usart.h ****   * @note   If 4-bit Address Detection is selected in ADDM7,
1379:../../dependencies/STM32CubeL0/Drivers/STM32L0xx_HAL_Driver/Inc/stm32l0xx_ll_usart.h ****   *         only 4bits (b3-b0) of returned value are relevant (b31-b4 are not relevant)
1380:../../dependencies/STM32CubeL0/Drivers/STM32L0xx_HAL_Driver/Inc/stm32l0xx_ll_usart.h ****   *         If 7-bit Address Detection is selected in ADDM7,
1381:../../dependencies/STM32CubeL0/Drivers/STM32L0xx_HAL_Driver/Inc/stm32l0xx_ll_usart.h ****   *         only 8bits (b7-b0) of returned value are relevant (b31-b8 are not relevant)
1382:../../dependencies/STM32CubeL0/Drivers/STM32L0xx_HAL_Driver/Inc/stm32l0xx_ll_usart.h ****   * @rmtoll CR2          ADD           LL_USART_GetNodeAddress
1383:../../dependencies/STM32CubeL0/Drivers/STM32L0xx_HAL_Driver/Inc/stm32l0xx_ll_usart.h ****   * @param  USARTx USART Instance
1384:../../dependencies/STM32CubeL0/Drivers/STM32L0xx_HAL_Driver/Inc/stm32l0xx_ll_usart.h ****   * @retval Address of the USART node (Value between Min_Data=0 and Max_Data=255)
1385:../../dependencies/STM32CubeL0/Drivers/STM32L0xx_HAL_Driver/Inc/stm32l0xx_ll_usart.h ****   */
1386:../../dependencies/STM32CubeL0/Drivers/STM32L0xx_HAL_Driver/Inc/stm32l0xx_ll_usart.h **** __STATIC_INLINE uint32_t LL_USART_GetNodeAddress(USART_TypeDef *USARTx)
1387:../../dependencies/STM32CubeL0/Drivers/STM32L0xx_HAL_Driver/Inc/stm32l0xx_ll_usart.h **** {
1388:../../dependencies/STM32CubeL0/Drivers/STM32L0xx_HAL_Driver/Inc/stm32l0xx_ll_usart.h ****   return (uint32_t)(READ_BIT(USARTx->CR2, USART_CR2_ADD) >> USART_CR2_ADD_Pos);
ARM GAS  /var/folders/fs/dxwfnrqj18z860lwl3d6f5t00000gn/T//ccABuIkd.s 			page 28


1389:../../dependencies/STM32CubeL0/Drivers/STM32L0xx_HAL_Driver/Inc/stm32l0xx_ll_usart.h **** }
1390:../../dependencies/STM32CubeL0/Drivers/STM32L0xx_HAL_Driver/Inc/stm32l0xx_ll_usart.h **** 
1391:../../dependencies/STM32CubeL0/Drivers/STM32L0xx_HAL_Driver/Inc/stm32l0xx_ll_usart.h **** /**
1392:../../dependencies/STM32CubeL0/Drivers/STM32L0xx_HAL_Driver/Inc/stm32l0xx_ll_usart.h ****   * @brief  Return Length of Node Address used in Address Detection mode (7-bit or 4-bit)
1393:../../dependencies/STM32CubeL0/Drivers/STM32L0xx_HAL_Driver/Inc/stm32l0xx_ll_usart.h ****   * @rmtoll CR2          ADDM7         LL_USART_GetNodeAddressLen
1394:../../dependencies/STM32CubeL0/Drivers/STM32L0xx_HAL_Driver/Inc/stm32l0xx_ll_usart.h ****   * @param  USARTx USART Instance
1395:../../dependencies/STM32CubeL0/Drivers/STM32L0xx_HAL_Driver/Inc/stm32l0xx_ll_usart.h ****   * @retval Returned value can be one of the following values:
1396:../../dependencies/STM32CubeL0/Drivers/STM32L0xx_HAL_Driver/Inc/stm32l0xx_ll_usart.h ****   *         @arg @ref LL_USART_ADDRESS_DETECT_4B
1397:../../dependencies/STM32CubeL0/Drivers/STM32L0xx_HAL_Driver/Inc/stm32l0xx_ll_usart.h ****   *         @arg @ref LL_USART_ADDRESS_DETECT_7B
1398:../../dependencies/STM32CubeL0/Drivers/STM32L0xx_HAL_Driver/Inc/stm32l0xx_ll_usart.h ****   */
1399:../../dependencies/STM32CubeL0/Drivers/STM32L0xx_HAL_Driver/Inc/stm32l0xx_ll_usart.h **** __STATIC_INLINE uint32_t LL_USART_GetNodeAddressLen(USART_TypeDef *USARTx)
1400:../../dependencies/STM32CubeL0/Drivers/STM32L0xx_HAL_Driver/Inc/stm32l0xx_ll_usart.h **** {
1401:../../dependencies/STM32CubeL0/Drivers/STM32L0xx_HAL_Driver/Inc/stm32l0xx_ll_usart.h ****   return (uint32_t)(READ_BIT(USARTx->CR2, USART_CR2_ADDM7));
1402:../../dependencies/STM32CubeL0/Drivers/STM32L0xx_HAL_Driver/Inc/stm32l0xx_ll_usart.h **** }
1403:../../dependencies/STM32CubeL0/Drivers/STM32L0xx_HAL_Driver/Inc/stm32l0xx_ll_usart.h **** 
1404:../../dependencies/STM32CubeL0/Drivers/STM32L0xx_HAL_Driver/Inc/stm32l0xx_ll_usart.h **** /**
1405:../../dependencies/STM32CubeL0/Drivers/STM32L0xx_HAL_Driver/Inc/stm32l0xx_ll_usart.h ****   * @brief  Enable RTS HW Flow Control
1406:../../dependencies/STM32CubeL0/Drivers/STM32L0xx_HAL_Driver/Inc/stm32l0xx_ll_usart.h ****   * @note   Macro IS_UART_HWFLOW_INSTANCE(USARTx) can be used to check whether or not
1407:../../dependencies/STM32CubeL0/Drivers/STM32L0xx_HAL_Driver/Inc/stm32l0xx_ll_usart.h ****   *         Hardware Flow control feature is supported by the USARTx instance.
1408:../../dependencies/STM32CubeL0/Drivers/STM32L0xx_HAL_Driver/Inc/stm32l0xx_ll_usart.h ****   * @rmtoll CR3          RTSE          LL_USART_EnableRTSHWFlowCtrl
1409:../../dependencies/STM32CubeL0/Drivers/STM32L0xx_HAL_Driver/Inc/stm32l0xx_ll_usart.h ****   * @param  USARTx USART Instance
1410:../../dependencies/STM32CubeL0/Drivers/STM32L0xx_HAL_Driver/Inc/stm32l0xx_ll_usart.h ****   * @retval None
1411:../../dependencies/STM32CubeL0/Drivers/STM32L0xx_HAL_Driver/Inc/stm32l0xx_ll_usart.h ****   */
1412:../../dependencies/STM32CubeL0/Drivers/STM32L0xx_HAL_Driver/Inc/stm32l0xx_ll_usart.h **** __STATIC_INLINE void LL_USART_EnableRTSHWFlowCtrl(USART_TypeDef *USARTx)
1413:../../dependencies/STM32CubeL0/Drivers/STM32L0xx_HAL_Driver/Inc/stm32l0xx_ll_usart.h **** {
1414:../../dependencies/STM32CubeL0/Drivers/STM32L0xx_HAL_Driver/Inc/stm32l0xx_ll_usart.h ****   SET_BIT(USARTx->CR3, USART_CR3_RTSE);
1415:../../dependencies/STM32CubeL0/Drivers/STM32L0xx_HAL_Driver/Inc/stm32l0xx_ll_usart.h **** }
1416:../../dependencies/STM32CubeL0/Drivers/STM32L0xx_HAL_Driver/Inc/stm32l0xx_ll_usart.h **** 
1417:../../dependencies/STM32CubeL0/Drivers/STM32L0xx_HAL_Driver/Inc/stm32l0xx_ll_usart.h **** /**
1418:../../dependencies/STM32CubeL0/Drivers/STM32L0xx_HAL_Driver/Inc/stm32l0xx_ll_usart.h ****   * @brief  Disable RTS HW Flow Control
1419:../../dependencies/STM32CubeL0/Drivers/STM32L0xx_HAL_Driver/Inc/stm32l0xx_ll_usart.h ****   * @note   Macro IS_UART_HWFLOW_INSTANCE(USARTx) can be used to check whether or not
1420:../../dependencies/STM32CubeL0/Drivers/STM32L0xx_HAL_Driver/Inc/stm32l0xx_ll_usart.h ****   *         Hardware Flow control feature is supported by the USARTx instance.
1421:../../dependencies/STM32CubeL0/Drivers/STM32L0xx_HAL_Driver/Inc/stm32l0xx_ll_usart.h ****   * @rmtoll CR3          RTSE          LL_USART_DisableRTSHWFlowCtrl
1422:../../dependencies/STM32CubeL0/Drivers/STM32L0xx_HAL_Driver/Inc/stm32l0xx_ll_usart.h ****   * @param  USARTx USART Instance
1423:../../dependencies/STM32CubeL0/Drivers/STM32L0xx_HAL_Driver/Inc/stm32l0xx_ll_usart.h ****   * @retval None
1424:../../dependencies/STM32CubeL0/Drivers/STM32L0xx_HAL_Driver/Inc/stm32l0xx_ll_usart.h ****   */
1425:../../dependencies/STM32CubeL0/Drivers/STM32L0xx_HAL_Driver/Inc/stm32l0xx_ll_usart.h **** __STATIC_INLINE void LL_USART_DisableRTSHWFlowCtrl(USART_TypeDef *USARTx)
1426:../../dependencies/STM32CubeL0/Drivers/STM32L0xx_HAL_Driver/Inc/stm32l0xx_ll_usart.h **** {
1427:../../dependencies/STM32CubeL0/Drivers/STM32L0xx_HAL_Driver/Inc/stm32l0xx_ll_usart.h ****   CLEAR_BIT(USARTx->CR3, USART_CR3_RTSE);
1428:../../dependencies/STM32CubeL0/Drivers/STM32L0xx_HAL_Driver/Inc/stm32l0xx_ll_usart.h **** }
1429:../../dependencies/STM32CubeL0/Drivers/STM32L0xx_HAL_Driver/Inc/stm32l0xx_ll_usart.h **** 
1430:../../dependencies/STM32CubeL0/Drivers/STM32L0xx_HAL_Driver/Inc/stm32l0xx_ll_usart.h **** /**
1431:../../dependencies/STM32CubeL0/Drivers/STM32L0xx_HAL_Driver/Inc/stm32l0xx_ll_usart.h ****   * @brief  Enable CTS HW Flow Control
1432:../../dependencies/STM32CubeL0/Drivers/STM32L0xx_HAL_Driver/Inc/stm32l0xx_ll_usart.h ****   * @note   Macro IS_UART_HWFLOW_INSTANCE(USARTx) can be used to check whether or not
1433:../../dependencies/STM32CubeL0/Drivers/STM32L0xx_HAL_Driver/Inc/stm32l0xx_ll_usart.h ****   *         Hardware Flow control feature is supported by the USARTx instance.
1434:../../dependencies/STM32CubeL0/Drivers/STM32L0xx_HAL_Driver/Inc/stm32l0xx_ll_usart.h ****   * @rmtoll CR3          CTSE          LL_USART_EnableCTSHWFlowCtrl
1435:../../dependencies/STM32CubeL0/Drivers/STM32L0xx_HAL_Driver/Inc/stm32l0xx_ll_usart.h ****   * @param  USARTx USART Instance
1436:../../dependencies/STM32CubeL0/Drivers/STM32L0xx_HAL_Driver/Inc/stm32l0xx_ll_usart.h ****   * @retval None
1437:../../dependencies/STM32CubeL0/Drivers/STM32L0xx_HAL_Driver/Inc/stm32l0xx_ll_usart.h ****   */
1438:../../dependencies/STM32CubeL0/Drivers/STM32L0xx_HAL_Driver/Inc/stm32l0xx_ll_usart.h **** __STATIC_INLINE void LL_USART_EnableCTSHWFlowCtrl(USART_TypeDef *USARTx)
1439:../../dependencies/STM32CubeL0/Drivers/STM32L0xx_HAL_Driver/Inc/stm32l0xx_ll_usart.h **** {
1440:../../dependencies/STM32CubeL0/Drivers/STM32L0xx_HAL_Driver/Inc/stm32l0xx_ll_usart.h ****   SET_BIT(USARTx->CR3, USART_CR3_CTSE);
1441:../../dependencies/STM32CubeL0/Drivers/STM32L0xx_HAL_Driver/Inc/stm32l0xx_ll_usart.h **** }
1442:../../dependencies/STM32CubeL0/Drivers/STM32L0xx_HAL_Driver/Inc/stm32l0xx_ll_usart.h **** 
1443:../../dependencies/STM32CubeL0/Drivers/STM32L0xx_HAL_Driver/Inc/stm32l0xx_ll_usart.h **** /**
1444:../../dependencies/STM32CubeL0/Drivers/STM32L0xx_HAL_Driver/Inc/stm32l0xx_ll_usart.h ****   * @brief  Disable CTS HW Flow Control
1445:../../dependencies/STM32CubeL0/Drivers/STM32L0xx_HAL_Driver/Inc/stm32l0xx_ll_usart.h ****   * @note   Macro IS_UART_HWFLOW_INSTANCE(USARTx) can be used to check whether or not
ARM GAS  /var/folders/fs/dxwfnrqj18z860lwl3d6f5t00000gn/T//ccABuIkd.s 			page 29


1446:../../dependencies/STM32CubeL0/Drivers/STM32L0xx_HAL_Driver/Inc/stm32l0xx_ll_usart.h ****   *         Hardware Flow control feature is supported by the USARTx instance.
1447:../../dependencies/STM32CubeL0/Drivers/STM32L0xx_HAL_Driver/Inc/stm32l0xx_ll_usart.h ****   * @rmtoll CR3          CTSE          LL_USART_DisableCTSHWFlowCtrl
1448:../../dependencies/STM32CubeL0/Drivers/STM32L0xx_HAL_Driver/Inc/stm32l0xx_ll_usart.h ****   * @param  USARTx USART Instance
1449:../../dependencies/STM32CubeL0/Drivers/STM32L0xx_HAL_Driver/Inc/stm32l0xx_ll_usart.h ****   * @retval None
1450:../../dependencies/STM32CubeL0/Drivers/STM32L0xx_HAL_Driver/Inc/stm32l0xx_ll_usart.h ****   */
1451:../../dependencies/STM32CubeL0/Drivers/STM32L0xx_HAL_Driver/Inc/stm32l0xx_ll_usart.h **** __STATIC_INLINE void LL_USART_DisableCTSHWFlowCtrl(USART_TypeDef *USARTx)
1452:../../dependencies/STM32CubeL0/Drivers/STM32L0xx_HAL_Driver/Inc/stm32l0xx_ll_usart.h **** {
1453:../../dependencies/STM32CubeL0/Drivers/STM32L0xx_HAL_Driver/Inc/stm32l0xx_ll_usart.h ****   CLEAR_BIT(USARTx->CR3, USART_CR3_CTSE);
1454:../../dependencies/STM32CubeL0/Drivers/STM32L0xx_HAL_Driver/Inc/stm32l0xx_ll_usart.h **** }
1455:../../dependencies/STM32CubeL0/Drivers/STM32L0xx_HAL_Driver/Inc/stm32l0xx_ll_usart.h **** 
1456:../../dependencies/STM32CubeL0/Drivers/STM32L0xx_HAL_Driver/Inc/stm32l0xx_ll_usart.h **** /**
1457:../../dependencies/STM32CubeL0/Drivers/STM32L0xx_HAL_Driver/Inc/stm32l0xx_ll_usart.h ****   * @brief  Configure HW Flow Control mode (both CTS and RTS)
1458:../../dependencies/STM32CubeL0/Drivers/STM32L0xx_HAL_Driver/Inc/stm32l0xx_ll_usart.h ****   * @note   Macro IS_UART_HWFLOW_INSTANCE(USARTx) can be used to check whether or not
1459:../../dependencies/STM32CubeL0/Drivers/STM32L0xx_HAL_Driver/Inc/stm32l0xx_ll_usart.h ****   *         Hardware Flow control feature is supported by the USARTx instance.
1460:../../dependencies/STM32CubeL0/Drivers/STM32L0xx_HAL_Driver/Inc/stm32l0xx_ll_usart.h ****   * @rmtoll CR3          RTSE          LL_USART_SetHWFlowCtrl\n
1461:../../dependencies/STM32CubeL0/Drivers/STM32L0xx_HAL_Driver/Inc/stm32l0xx_ll_usart.h ****   *         CR3          CTSE          LL_USART_SetHWFlowCtrl
1462:../../dependencies/STM32CubeL0/Drivers/STM32L0xx_HAL_Driver/Inc/stm32l0xx_ll_usart.h ****   * @param  USARTx USART Instance
1463:../../dependencies/STM32CubeL0/Drivers/STM32L0xx_HAL_Driver/Inc/stm32l0xx_ll_usart.h ****   * @param  HardwareFlowControl This parameter can be one of the following values:
1464:../../dependencies/STM32CubeL0/Drivers/STM32L0xx_HAL_Driver/Inc/stm32l0xx_ll_usart.h ****   *         @arg @ref LL_USART_HWCONTROL_NONE
1465:../../dependencies/STM32CubeL0/Drivers/STM32L0xx_HAL_Driver/Inc/stm32l0xx_ll_usart.h ****   *         @arg @ref LL_USART_HWCONTROL_RTS
1466:../../dependencies/STM32CubeL0/Drivers/STM32L0xx_HAL_Driver/Inc/stm32l0xx_ll_usart.h ****   *         @arg @ref LL_USART_HWCONTROL_CTS
1467:../../dependencies/STM32CubeL0/Drivers/STM32L0xx_HAL_Driver/Inc/stm32l0xx_ll_usart.h ****   *         @arg @ref LL_USART_HWCONTROL_RTS_CTS
1468:../../dependencies/STM32CubeL0/Drivers/STM32L0xx_HAL_Driver/Inc/stm32l0xx_ll_usart.h ****   * @retval None
1469:../../dependencies/STM32CubeL0/Drivers/STM32L0xx_HAL_Driver/Inc/stm32l0xx_ll_usart.h ****   */
1470:../../dependencies/STM32CubeL0/Drivers/STM32L0xx_HAL_Driver/Inc/stm32l0xx_ll_usart.h **** __STATIC_INLINE void LL_USART_SetHWFlowCtrl(USART_TypeDef *USARTx, uint32_t HardwareFlowControl)
1471:../../dependencies/STM32CubeL0/Drivers/STM32L0xx_HAL_Driver/Inc/stm32l0xx_ll_usart.h **** {
 159              		.loc 1 1471 1
 160              		.cfi_startproc
 161              		@ args = 0, pretend = 0, frame = 8
 162              		@ frame_needed = 1, uses_anonymous_args = 0
 163 0000 80B5     		push	{r7, lr}
 164              		.cfi_def_cfa_offset 8
 165              		.cfi_offset 7, -8
 166              		.cfi_offset 14, -4
 167 0002 82B0     		sub	sp, sp, #8
 168              		.cfi_def_cfa_offset 16
 169 0004 00AF     		add	r7, sp, #0
 170              		.cfi_def_cfa_register 7
 171 0006 7860     		str	r0, [r7, #4]
 172 0008 3960     		str	r1, [r7]
1472:../../dependencies/STM32CubeL0/Drivers/STM32L0xx_HAL_Driver/Inc/stm32l0xx_ll_usart.h ****   MODIFY_REG(USARTx->CR3, USART_CR3_RTSE | USART_CR3_CTSE, HardwareFlowControl);
 173              		.loc 1 1472 3
 174 000a 7B68     		ldr	r3, [r7, #4]
 175 000c 9B68     		ldr	r3, [r3, #8]
 176 000e 054A     		ldr	r2, .L12
 177 0010 1A40     		ands	r2, r3
 178 0012 3B68     		ldr	r3, [r7]
 179 0014 1A43     		orrs	r2, r3
 180 0016 7B68     		ldr	r3, [r7, #4]
 181 0018 9A60     		str	r2, [r3, #8]
1473:../../dependencies/STM32CubeL0/Drivers/STM32L0xx_HAL_Driver/Inc/stm32l0xx_ll_usart.h **** }
 182              		.loc 1 1473 1
 183 001a C046     		nop
 184 001c BD46     		mov	sp, r7
 185 001e 02B0     		add	sp, sp, #8
 186              		@ sp needed
 187 0020 80BD     		pop	{r7, pc}
ARM GAS  /var/folders/fs/dxwfnrqj18z860lwl3d6f5t00000gn/T//ccABuIkd.s 			page 30


 188              	.L13:
 189 0022 C046     		.align	2
 190              	.L12:
 191 0024 FFFCFFFF 		.word	-769
 192              		.cfi_endproc
 193              	.LFE111:
 195              		.global	__aeabi_uidiv
 196              		.section	.text.LL_USART_SetBaudRate,"ax",%progbits
 197              		.align	1
 198              		.syntax unified
 199              		.code	16
 200              		.thumb_func
 201              		.fpu softvfp
 203              	LL_USART_SetBaudRate:
 204              	.LFB121:
1474:../../dependencies/STM32CubeL0/Drivers/STM32L0xx_HAL_Driver/Inc/stm32l0xx_ll_usart.h **** 
1475:../../dependencies/STM32CubeL0/Drivers/STM32L0xx_HAL_Driver/Inc/stm32l0xx_ll_usart.h **** /**
1476:../../dependencies/STM32CubeL0/Drivers/STM32L0xx_HAL_Driver/Inc/stm32l0xx_ll_usart.h ****   * @brief  Return HW Flow Control configuration (both CTS and RTS)
1477:../../dependencies/STM32CubeL0/Drivers/STM32L0xx_HAL_Driver/Inc/stm32l0xx_ll_usart.h ****   * @note   Macro IS_UART_HWFLOW_INSTANCE(USARTx) can be used to check whether or not
1478:../../dependencies/STM32CubeL0/Drivers/STM32L0xx_HAL_Driver/Inc/stm32l0xx_ll_usart.h ****   *         Hardware Flow control feature is supported by the USARTx instance.
1479:../../dependencies/STM32CubeL0/Drivers/STM32L0xx_HAL_Driver/Inc/stm32l0xx_ll_usart.h ****   * @rmtoll CR3          RTSE          LL_USART_GetHWFlowCtrl\n
1480:../../dependencies/STM32CubeL0/Drivers/STM32L0xx_HAL_Driver/Inc/stm32l0xx_ll_usart.h ****   *         CR3          CTSE          LL_USART_GetHWFlowCtrl
1481:../../dependencies/STM32CubeL0/Drivers/STM32L0xx_HAL_Driver/Inc/stm32l0xx_ll_usart.h ****   * @param  USARTx USART Instance
1482:../../dependencies/STM32CubeL0/Drivers/STM32L0xx_HAL_Driver/Inc/stm32l0xx_ll_usart.h ****   * @retval Returned value can be one of the following values:
1483:../../dependencies/STM32CubeL0/Drivers/STM32L0xx_HAL_Driver/Inc/stm32l0xx_ll_usart.h ****   *         @arg @ref LL_USART_HWCONTROL_NONE
1484:../../dependencies/STM32CubeL0/Drivers/STM32L0xx_HAL_Driver/Inc/stm32l0xx_ll_usart.h ****   *         @arg @ref LL_USART_HWCONTROL_RTS
1485:../../dependencies/STM32CubeL0/Drivers/STM32L0xx_HAL_Driver/Inc/stm32l0xx_ll_usart.h ****   *         @arg @ref LL_USART_HWCONTROL_CTS
1486:../../dependencies/STM32CubeL0/Drivers/STM32L0xx_HAL_Driver/Inc/stm32l0xx_ll_usart.h ****   *         @arg @ref LL_USART_HWCONTROL_RTS_CTS
1487:../../dependencies/STM32CubeL0/Drivers/STM32L0xx_HAL_Driver/Inc/stm32l0xx_ll_usart.h ****   */
1488:../../dependencies/STM32CubeL0/Drivers/STM32L0xx_HAL_Driver/Inc/stm32l0xx_ll_usart.h **** __STATIC_INLINE uint32_t LL_USART_GetHWFlowCtrl(USART_TypeDef *USARTx)
1489:../../dependencies/STM32CubeL0/Drivers/STM32L0xx_HAL_Driver/Inc/stm32l0xx_ll_usart.h **** {
1490:../../dependencies/STM32CubeL0/Drivers/STM32L0xx_HAL_Driver/Inc/stm32l0xx_ll_usart.h ****   return (uint32_t)(READ_BIT(USARTx->CR3, USART_CR3_RTSE | USART_CR3_CTSE));
1491:../../dependencies/STM32CubeL0/Drivers/STM32L0xx_HAL_Driver/Inc/stm32l0xx_ll_usart.h **** }
1492:../../dependencies/STM32CubeL0/Drivers/STM32L0xx_HAL_Driver/Inc/stm32l0xx_ll_usart.h **** 
1493:../../dependencies/STM32CubeL0/Drivers/STM32L0xx_HAL_Driver/Inc/stm32l0xx_ll_usart.h **** /**
1494:../../dependencies/STM32CubeL0/Drivers/STM32L0xx_HAL_Driver/Inc/stm32l0xx_ll_usart.h ****   * @brief  Enable One bit sampling method
1495:../../dependencies/STM32CubeL0/Drivers/STM32L0xx_HAL_Driver/Inc/stm32l0xx_ll_usart.h ****   * @rmtoll CR3          ONEBIT        LL_USART_EnableOneBitSamp
1496:../../dependencies/STM32CubeL0/Drivers/STM32L0xx_HAL_Driver/Inc/stm32l0xx_ll_usart.h ****   * @param  USARTx USART Instance
1497:../../dependencies/STM32CubeL0/Drivers/STM32L0xx_HAL_Driver/Inc/stm32l0xx_ll_usart.h ****   * @retval None
1498:../../dependencies/STM32CubeL0/Drivers/STM32L0xx_HAL_Driver/Inc/stm32l0xx_ll_usart.h ****   */
1499:../../dependencies/STM32CubeL0/Drivers/STM32L0xx_HAL_Driver/Inc/stm32l0xx_ll_usart.h **** __STATIC_INLINE void LL_USART_EnableOneBitSamp(USART_TypeDef *USARTx)
1500:../../dependencies/STM32CubeL0/Drivers/STM32L0xx_HAL_Driver/Inc/stm32l0xx_ll_usart.h **** {
1501:../../dependencies/STM32CubeL0/Drivers/STM32L0xx_HAL_Driver/Inc/stm32l0xx_ll_usart.h ****   SET_BIT(USARTx->CR3, USART_CR3_ONEBIT);
1502:../../dependencies/STM32CubeL0/Drivers/STM32L0xx_HAL_Driver/Inc/stm32l0xx_ll_usart.h **** }
1503:../../dependencies/STM32CubeL0/Drivers/STM32L0xx_HAL_Driver/Inc/stm32l0xx_ll_usart.h **** 
1504:../../dependencies/STM32CubeL0/Drivers/STM32L0xx_HAL_Driver/Inc/stm32l0xx_ll_usart.h **** /**
1505:../../dependencies/STM32CubeL0/Drivers/STM32L0xx_HAL_Driver/Inc/stm32l0xx_ll_usart.h ****   * @brief  Disable One bit sampling method
1506:../../dependencies/STM32CubeL0/Drivers/STM32L0xx_HAL_Driver/Inc/stm32l0xx_ll_usart.h ****   * @rmtoll CR3          ONEBIT        LL_USART_DisableOneBitSamp
1507:../../dependencies/STM32CubeL0/Drivers/STM32L0xx_HAL_Driver/Inc/stm32l0xx_ll_usart.h ****   * @param  USARTx USART Instance
1508:../../dependencies/STM32CubeL0/Drivers/STM32L0xx_HAL_Driver/Inc/stm32l0xx_ll_usart.h ****   * @retval None
1509:../../dependencies/STM32CubeL0/Drivers/STM32L0xx_HAL_Driver/Inc/stm32l0xx_ll_usart.h ****   */
1510:../../dependencies/STM32CubeL0/Drivers/STM32L0xx_HAL_Driver/Inc/stm32l0xx_ll_usart.h **** __STATIC_INLINE void LL_USART_DisableOneBitSamp(USART_TypeDef *USARTx)
1511:../../dependencies/STM32CubeL0/Drivers/STM32L0xx_HAL_Driver/Inc/stm32l0xx_ll_usart.h **** {
1512:../../dependencies/STM32CubeL0/Drivers/STM32L0xx_HAL_Driver/Inc/stm32l0xx_ll_usart.h ****   CLEAR_BIT(USARTx->CR3, USART_CR3_ONEBIT);
1513:../../dependencies/STM32CubeL0/Drivers/STM32L0xx_HAL_Driver/Inc/stm32l0xx_ll_usart.h **** }
1514:../../dependencies/STM32CubeL0/Drivers/STM32L0xx_HAL_Driver/Inc/stm32l0xx_ll_usart.h **** 
1515:../../dependencies/STM32CubeL0/Drivers/STM32L0xx_HAL_Driver/Inc/stm32l0xx_ll_usart.h **** /**
ARM GAS  /var/folders/fs/dxwfnrqj18z860lwl3d6f5t00000gn/T//ccABuIkd.s 			page 31


1516:../../dependencies/STM32CubeL0/Drivers/STM32L0xx_HAL_Driver/Inc/stm32l0xx_ll_usart.h ****   * @brief  Indicate if One bit sampling method is enabled
1517:../../dependencies/STM32CubeL0/Drivers/STM32L0xx_HAL_Driver/Inc/stm32l0xx_ll_usart.h ****   * @rmtoll CR3          ONEBIT        LL_USART_IsEnabledOneBitSamp
1518:../../dependencies/STM32CubeL0/Drivers/STM32L0xx_HAL_Driver/Inc/stm32l0xx_ll_usart.h ****   * @param  USARTx USART Instance
1519:../../dependencies/STM32CubeL0/Drivers/STM32L0xx_HAL_Driver/Inc/stm32l0xx_ll_usart.h ****   * @retval State of bit (1 or 0).
1520:../../dependencies/STM32CubeL0/Drivers/STM32L0xx_HAL_Driver/Inc/stm32l0xx_ll_usart.h ****   */
1521:../../dependencies/STM32CubeL0/Drivers/STM32L0xx_HAL_Driver/Inc/stm32l0xx_ll_usart.h **** __STATIC_INLINE uint32_t LL_USART_IsEnabledOneBitSamp(USART_TypeDef *USARTx)
1522:../../dependencies/STM32CubeL0/Drivers/STM32L0xx_HAL_Driver/Inc/stm32l0xx_ll_usart.h **** {
1523:../../dependencies/STM32CubeL0/Drivers/STM32L0xx_HAL_Driver/Inc/stm32l0xx_ll_usart.h ****   return ((READ_BIT(USARTx->CR3, USART_CR3_ONEBIT) == (USART_CR3_ONEBIT)) ? 1UL : 0UL);
1524:../../dependencies/STM32CubeL0/Drivers/STM32L0xx_HAL_Driver/Inc/stm32l0xx_ll_usart.h **** }
1525:../../dependencies/STM32CubeL0/Drivers/STM32L0xx_HAL_Driver/Inc/stm32l0xx_ll_usart.h **** 
1526:../../dependencies/STM32CubeL0/Drivers/STM32L0xx_HAL_Driver/Inc/stm32l0xx_ll_usart.h **** /**
1527:../../dependencies/STM32CubeL0/Drivers/STM32L0xx_HAL_Driver/Inc/stm32l0xx_ll_usart.h ****   * @brief  Enable Overrun detection
1528:../../dependencies/STM32CubeL0/Drivers/STM32L0xx_HAL_Driver/Inc/stm32l0xx_ll_usart.h ****   * @rmtoll CR3          OVRDIS        LL_USART_EnableOverrunDetect
1529:../../dependencies/STM32CubeL0/Drivers/STM32L0xx_HAL_Driver/Inc/stm32l0xx_ll_usart.h ****   * @param  USARTx USART Instance
1530:../../dependencies/STM32CubeL0/Drivers/STM32L0xx_HAL_Driver/Inc/stm32l0xx_ll_usart.h ****   * @retval None
1531:../../dependencies/STM32CubeL0/Drivers/STM32L0xx_HAL_Driver/Inc/stm32l0xx_ll_usart.h ****   */
1532:../../dependencies/STM32CubeL0/Drivers/STM32L0xx_HAL_Driver/Inc/stm32l0xx_ll_usart.h **** __STATIC_INLINE void LL_USART_EnableOverrunDetect(USART_TypeDef *USARTx)
1533:../../dependencies/STM32CubeL0/Drivers/STM32L0xx_HAL_Driver/Inc/stm32l0xx_ll_usart.h **** {
1534:../../dependencies/STM32CubeL0/Drivers/STM32L0xx_HAL_Driver/Inc/stm32l0xx_ll_usart.h ****   CLEAR_BIT(USARTx->CR3, USART_CR3_OVRDIS);
1535:../../dependencies/STM32CubeL0/Drivers/STM32L0xx_HAL_Driver/Inc/stm32l0xx_ll_usart.h **** }
1536:../../dependencies/STM32CubeL0/Drivers/STM32L0xx_HAL_Driver/Inc/stm32l0xx_ll_usart.h **** 
1537:../../dependencies/STM32CubeL0/Drivers/STM32L0xx_HAL_Driver/Inc/stm32l0xx_ll_usart.h **** /**
1538:../../dependencies/STM32CubeL0/Drivers/STM32L0xx_HAL_Driver/Inc/stm32l0xx_ll_usart.h ****   * @brief  Disable Overrun detection
1539:../../dependencies/STM32CubeL0/Drivers/STM32L0xx_HAL_Driver/Inc/stm32l0xx_ll_usart.h ****   * @rmtoll CR3          OVRDIS        LL_USART_DisableOverrunDetect
1540:../../dependencies/STM32CubeL0/Drivers/STM32L0xx_HAL_Driver/Inc/stm32l0xx_ll_usart.h ****   * @param  USARTx USART Instance
1541:../../dependencies/STM32CubeL0/Drivers/STM32L0xx_HAL_Driver/Inc/stm32l0xx_ll_usart.h ****   * @retval None
1542:../../dependencies/STM32CubeL0/Drivers/STM32L0xx_HAL_Driver/Inc/stm32l0xx_ll_usart.h ****   */
1543:../../dependencies/STM32CubeL0/Drivers/STM32L0xx_HAL_Driver/Inc/stm32l0xx_ll_usart.h **** __STATIC_INLINE void LL_USART_DisableOverrunDetect(USART_TypeDef *USARTx)
1544:../../dependencies/STM32CubeL0/Drivers/STM32L0xx_HAL_Driver/Inc/stm32l0xx_ll_usart.h **** {
1545:../../dependencies/STM32CubeL0/Drivers/STM32L0xx_HAL_Driver/Inc/stm32l0xx_ll_usart.h ****   SET_BIT(USARTx->CR3, USART_CR3_OVRDIS);
1546:../../dependencies/STM32CubeL0/Drivers/STM32L0xx_HAL_Driver/Inc/stm32l0xx_ll_usart.h **** }
1547:../../dependencies/STM32CubeL0/Drivers/STM32L0xx_HAL_Driver/Inc/stm32l0xx_ll_usart.h **** 
1548:../../dependencies/STM32CubeL0/Drivers/STM32L0xx_HAL_Driver/Inc/stm32l0xx_ll_usart.h **** /**
1549:../../dependencies/STM32CubeL0/Drivers/STM32L0xx_HAL_Driver/Inc/stm32l0xx_ll_usart.h ****   * @brief  Indicate if Overrun detection is enabled
1550:../../dependencies/STM32CubeL0/Drivers/STM32L0xx_HAL_Driver/Inc/stm32l0xx_ll_usart.h ****   * @rmtoll CR3          OVRDIS        LL_USART_IsEnabledOverrunDetect
1551:../../dependencies/STM32CubeL0/Drivers/STM32L0xx_HAL_Driver/Inc/stm32l0xx_ll_usart.h ****   * @param  USARTx USART Instance
1552:../../dependencies/STM32CubeL0/Drivers/STM32L0xx_HAL_Driver/Inc/stm32l0xx_ll_usart.h ****   * @retval State of bit (1 or 0).
1553:../../dependencies/STM32CubeL0/Drivers/STM32L0xx_HAL_Driver/Inc/stm32l0xx_ll_usart.h ****   */
1554:../../dependencies/STM32CubeL0/Drivers/STM32L0xx_HAL_Driver/Inc/stm32l0xx_ll_usart.h **** __STATIC_INLINE uint32_t LL_USART_IsEnabledOverrunDetect(USART_TypeDef *USARTx)
1555:../../dependencies/STM32CubeL0/Drivers/STM32L0xx_HAL_Driver/Inc/stm32l0xx_ll_usart.h **** {
1556:../../dependencies/STM32CubeL0/Drivers/STM32L0xx_HAL_Driver/Inc/stm32l0xx_ll_usart.h ****   return ((READ_BIT(USARTx->CR3, USART_CR3_OVRDIS) != USART_CR3_OVRDIS) ? 1UL : 0UL);
1557:../../dependencies/STM32CubeL0/Drivers/STM32L0xx_HAL_Driver/Inc/stm32l0xx_ll_usart.h **** }
1558:../../dependencies/STM32CubeL0/Drivers/STM32L0xx_HAL_Driver/Inc/stm32l0xx_ll_usart.h **** 
1559:../../dependencies/STM32CubeL0/Drivers/STM32L0xx_HAL_Driver/Inc/stm32l0xx_ll_usart.h **** /**
1560:../../dependencies/STM32CubeL0/Drivers/STM32L0xx_HAL_Driver/Inc/stm32l0xx_ll_usart.h ****   * @brief  Select event type for Wake UP Interrupt Flag (WUS[1:0] bits)
1561:../../dependencies/STM32CubeL0/Drivers/STM32L0xx_HAL_Driver/Inc/stm32l0xx_ll_usart.h ****   * @note   Macro IS_UART_WAKEUP_FROMSTOP_INSTANCE(USARTx) can be used to check whether or not
1562:../../dependencies/STM32CubeL0/Drivers/STM32L0xx_HAL_Driver/Inc/stm32l0xx_ll_usart.h ****   *         Wake-up from Stop mode feature is supported by the USARTx instance.
1563:../../dependencies/STM32CubeL0/Drivers/STM32L0xx_HAL_Driver/Inc/stm32l0xx_ll_usart.h ****   * @rmtoll CR3          WUS           LL_USART_SetWKUPType
1564:../../dependencies/STM32CubeL0/Drivers/STM32L0xx_HAL_Driver/Inc/stm32l0xx_ll_usart.h ****   * @param  USARTx USART Instance
1565:../../dependencies/STM32CubeL0/Drivers/STM32L0xx_HAL_Driver/Inc/stm32l0xx_ll_usart.h ****   * @param  Type This parameter can be one of the following values:
1566:../../dependencies/STM32CubeL0/Drivers/STM32L0xx_HAL_Driver/Inc/stm32l0xx_ll_usart.h ****   *         @arg @ref LL_USART_WAKEUP_ON_ADDRESS
1567:../../dependencies/STM32CubeL0/Drivers/STM32L0xx_HAL_Driver/Inc/stm32l0xx_ll_usart.h ****   *         @arg @ref LL_USART_WAKEUP_ON_STARTBIT
1568:../../dependencies/STM32CubeL0/Drivers/STM32L0xx_HAL_Driver/Inc/stm32l0xx_ll_usart.h ****   *         @arg @ref LL_USART_WAKEUP_ON_RXNE
1569:../../dependencies/STM32CubeL0/Drivers/STM32L0xx_HAL_Driver/Inc/stm32l0xx_ll_usart.h ****   * @retval None
1570:../../dependencies/STM32CubeL0/Drivers/STM32L0xx_HAL_Driver/Inc/stm32l0xx_ll_usart.h ****   */
1571:../../dependencies/STM32CubeL0/Drivers/STM32L0xx_HAL_Driver/Inc/stm32l0xx_ll_usart.h **** __STATIC_INLINE void LL_USART_SetWKUPType(USART_TypeDef *USARTx, uint32_t Type)
1572:../../dependencies/STM32CubeL0/Drivers/STM32L0xx_HAL_Driver/Inc/stm32l0xx_ll_usart.h **** {
ARM GAS  /var/folders/fs/dxwfnrqj18z860lwl3d6f5t00000gn/T//ccABuIkd.s 			page 32


1573:../../dependencies/STM32CubeL0/Drivers/STM32L0xx_HAL_Driver/Inc/stm32l0xx_ll_usart.h ****   MODIFY_REG(USARTx->CR3, USART_CR3_WUS, Type);
1574:../../dependencies/STM32CubeL0/Drivers/STM32L0xx_HAL_Driver/Inc/stm32l0xx_ll_usart.h **** }
1575:../../dependencies/STM32CubeL0/Drivers/STM32L0xx_HAL_Driver/Inc/stm32l0xx_ll_usart.h **** 
1576:../../dependencies/STM32CubeL0/Drivers/STM32L0xx_HAL_Driver/Inc/stm32l0xx_ll_usart.h **** /**
1577:../../dependencies/STM32CubeL0/Drivers/STM32L0xx_HAL_Driver/Inc/stm32l0xx_ll_usart.h ****   * @brief  Return event type for Wake UP Interrupt Flag (WUS[1:0] bits)
1578:../../dependencies/STM32CubeL0/Drivers/STM32L0xx_HAL_Driver/Inc/stm32l0xx_ll_usart.h ****   * @note   Macro IS_UART_WAKEUP_FROMSTOP_INSTANCE(USARTx) can be used to check whether or not
1579:../../dependencies/STM32CubeL0/Drivers/STM32L0xx_HAL_Driver/Inc/stm32l0xx_ll_usart.h ****   *         Wake-up from Stop mode feature is supported by the USARTx instance.
1580:../../dependencies/STM32CubeL0/Drivers/STM32L0xx_HAL_Driver/Inc/stm32l0xx_ll_usart.h ****   * @rmtoll CR3          WUS           LL_USART_GetWKUPType
1581:../../dependencies/STM32CubeL0/Drivers/STM32L0xx_HAL_Driver/Inc/stm32l0xx_ll_usart.h ****   * @param  USARTx USART Instance
1582:../../dependencies/STM32CubeL0/Drivers/STM32L0xx_HAL_Driver/Inc/stm32l0xx_ll_usart.h ****   * @retval Returned value can be one of the following values:
1583:../../dependencies/STM32CubeL0/Drivers/STM32L0xx_HAL_Driver/Inc/stm32l0xx_ll_usart.h ****   *         @arg @ref LL_USART_WAKEUP_ON_ADDRESS
1584:../../dependencies/STM32CubeL0/Drivers/STM32L0xx_HAL_Driver/Inc/stm32l0xx_ll_usart.h ****   *         @arg @ref LL_USART_WAKEUP_ON_STARTBIT
1585:../../dependencies/STM32CubeL0/Drivers/STM32L0xx_HAL_Driver/Inc/stm32l0xx_ll_usart.h ****   *         @arg @ref LL_USART_WAKEUP_ON_RXNE
1586:../../dependencies/STM32CubeL0/Drivers/STM32L0xx_HAL_Driver/Inc/stm32l0xx_ll_usart.h ****   */
1587:../../dependencies/STM32CubeL0/Drivers/STM32L0xx_HAL_Driver/Inc/stm32l0xx_ll_usart.h **** __STATIC_INLINE uint32_t LL_USART_GetWKUPType(USART_TypeDef *USARTx)
1588:../../dependencies/STM32CubeL0/Drivers/STM32L0xx_HAL_Driver/Inc/stm32l0xx_ll_usart.h **** {
1589:../../dependencies/STM32CubeL0/Drivers/STM32L0xx_HAL_Driver/Inc/stm32l0xx_ll_usart.h ****   return (uint32_t)(READ_BIT(USARTx->CR3, USART_CR3_WUS));
1590:../../dependencies/STM32CubeL0/Drivers/STM32L0xx_HAL_Driver/Inc/stm32l0xx_ll_usart.h **** }
1591:../../dependencies/STM32CubeL0/Drivers/STM32L0xx_HAL_Driver/Inc/stm32l0xx_ll_usart.h **** 
1592:../../dependencies/STM32CubeL0/Drivers/STM32L0xx_HAL_Driver/Inc/stm32l0xx_ll_usart.h **** /**
1593:../../dependencies/STM32CubeL0/Drivers/STM32L0xx_HAL_Driver/Inc/stm32l0xx_ll_usart.h ****   * @brief  Configure USART BRR register for achieving expected Baud Rate value.
1594:../../dependencies/STM32CubeL0/Drivers/STM32L0xx_HAL_Driver/Inc/stm32l0xx_ll_usart.h ****   * @note   Compute and set USARTDIV value in BRR Register (full BRR content)
1595:../../dependencies/STM32CubeL0/Drivers/STM32L0xx_HAL_Driver/Inc/stm32l0xx_ll_usart.h ****   *         according to used Peripheral Clock, Oversampling mode, and expected Baud Rate values
1596:../../dependencies/STM32CubeL0/Drivers/STM32L0xx_HAL_Driver/Inc/stm32l0xx_ll_usart.h ****   * @note   Peripheral clock and Baud rate values provided as function parameters should be valid
1597:../../dependencies/STM32CubeL0/Drivers/STM32L0xx_HAL_Driver/Inc/stm32l0xx_ll_usart.h ****   *         (Baud rate value != 0)
1598:../../dependencies/STM32CubeL0/Drivers/STM32L0xx_HAL_Driver/Inc/stm32l0xx_ll_usart.h ****   * @note   In case of oversampling by 16 and 8, BRR content must be greater than or equal to 16d.
1599:../../dependencies/STM32CubeL0/Drivers/STM32L0xx_HAL_Driver/Inc/stm32l0xx_ll_usart.h ****   * @rmtoll BRR          BRR           LL_USART_SetBaudRate
1600:../../dependencies/STM32CubeL0/Drivers/STM32L0xx_HAL_Driver/Inc/stm32l0xx_ll_usart.h ****   * @param  USARTx USART Instance
1601:../../dependencies/STM32CubeL0/Drivers/STM32L0xx_HAL_Driver/Inc/stm32l0xx_ll_usart.h ****   * @param  PeriphClk Peripheral Clock
1602:../../dependencies/STM32CubeL0/Drivers/STM32L0xx_HAL_Driver/Inc/stm32l0xx_ll_usart.h ****   * @param  OverSampling This parameter can be one of the following values:
1603:../../dependencies/STM32CubeL0/Drivers/STM32L0xx_HAL_Driver/Inc/stm32l0xx_ll_usart.h ****   *         @arg @ref LL_USART_OVERSAMPLING_16
1604:../../dependencies/STM32CubeL0/Drivers/STM32L0xx_HAL_Driver/Inc/stm32l0xx_ll_usart.h ****   *         @arg @ref LL_USART_OVERSAMPLING_8
1605:../../dependencies/STM32CubeL0/Drivers/STM32L0xx_HAL_Driver/Inc/stm32l0xx_ll_usart.h ****   * @param  BaudRate Baud Rate
1606:../../dependencies/STM32CubeL0/Drivers/STM32L0xx_HAL_Driver/Inc/stm32l0xx_ll_usart.h ****   * @retval None
1607:../../dependencies/STM32CubeL0/Drivers/STM32L0xx_HAL_Driver/Inc/stm32l0xx_ll_usart.h ****   */
1608:../../dependencies/STM32CubeL0/Drivers/STM32L0xx_HAL_Driver/Inc/stm32l0xx_ll_usart.h **** __STATIC_INLINE void LL_USART_SetBaudRate(USART_TypeDef *USARTx, uint32_t PeriphClk, uint32_t OverS
1609:../../dependencies/STM32CubeL0/Drivers/STM32L0xx_HAL_Driver/Inc/stm32l0xx_ll_usart.h ****                                           uint32_t BaudRate)
1610:../../dependencies/STM32CubeL0/Drivers/STM32L0xx_HAL_Driver/Inc/stm32l0xx_ll_usart.h **** {
 205              		.loc 1 1610 1
 206              		.cfi_startproc
 207              		@ args = 0, pretend = 0, frame = 24
 208              		@ frame_needed = 1, uses_anonymous_args = 0
 209 0000 80B5     		push	{r7, lr}
 210              		.cfi_def_cfa_offset 8
 211              		.cfi_offset 7, -8
 212              		.cfi_offset 14, -4
 213 0002 86B0     		sub	sp, sp, #24
 214              		.cfi_def_cfa_offset 32
 215 0004 00AF     		add	r7, sp, #0
 216              		.cfi_def_cfa_register 7
 217 0006 F860     		str	r0, [r7, #12]
 218 0008 B960     		str	r1, [r7, #8]
 219 000a 7A60     		str	r2, [r7, #4]
 220 000c 3B60     		str	r3, [r7]
1611:../../dependencies/STM32CubeL0/Drivers/STM32L0xx_HAL_Driver/Inc/stm32l0xx_ll_usart.h ****   uint32_t usartdiv;
1612:../../dependencies/STM32CubeL0/Drivers/STM32L0xx_HAL_Driver/Inc/stm32l0xx_ll_usart.h ****   uint32_t brrtemp;
1613:../../dependencies/STM32CubeL0/Drivers/STM32L0xx_HAL_Driver/Inc/stm32l0xx_ll_usart.h **** 
ARM GAS  /var/folders/fs/dxwfnrqj18z860lwl3d6f5t00000gn/T//ccABuIkd.s 			page 33


1614:../../dependencies/STM32CubeL0/Drivers/STM32L0xx_HAL_Driver/Inc/stm32l0xx_ll_usart.h ****   if (OverSampling == LL_USART_OVERSAMPLING_8)
 221              		.loc 1 1614 6
 222 000e 7A68     		ldr	r2, [r7, #4]
 223 0010 8023     		movs	r3, #128
 224 0012 1B02     		lsls	r3, r3, #8
 225 0014 9A42     		cmp	r2, r3
 226 0016 1CD1     		bne	.L15
1615:../../dependencies/STM32CubeL0/Drivers/STM32L0xx_HAL_Driver/Inc/stm32l0xx_ll_usart.h ****   {
1616:../../dependencies/STM32CubeL0/Drivers/STM32L0xx_HAL_Driver/Inc/stm32l0xx_ll_usart.h ****     usartdiv = (uint16_t)(__LL_USART_DIV_SAMPLING8(PeriphClk, BaudRate));
 227              		.loc 1 1616 27
 228 0018 BB68     		ldr	r3, [r7, #8]
 229 001a 5A00     		lsls	r2, r3, #1
 230 001c 3B68     		ldr	r3, [r7]
 231 001e 5B08     		lsrs	r3, r3, #1
 232 0020 D318     		adds	r3, r2, r3
 233 0022 3968     		ldr	r1, [r7]
 234 0024 1800     		movs	r0, r3
 235 0026 FFF7FEFF 		bl	__aeabi_uidiv
 236 002a 0300     		movs	r3, r0
 237              		.loc 1 1616 16
 238 002c 9BB2     		uxth	r3, r3
 239              		.loc 1 1616 14
 240 002e 7B61     		str	r3, [r7, #20]
1617:../../dependencies/STM32CubeL0/Drivers/STM32L0xx_HAL_Driver/Inc/stm32l0xx_ll_usart.h ****     brrtemp = usartdiv & 0xFFF0U;
 241              		.loc 1 1617 13
 242 0030 7B69     		ldr	r3, [r7, #20]
 243 0032 104A     		ldr	r2, .L18
 244 0034 1340     		ands	r3, r2
 245 0036 3B61     		str	r3, [r7, #16]
1618:../../dependencies/STM32CubeL0/Drivers/STM32L0xx_HAL_Driver/Inc/stm32l0xx_ll_usart.h ****     brrtemp |= (uint16_t)((usartdiv & (uint16_t)0x000FU) >> 1U);
 246              		.loc 1 1618 58
 247 0038 7B69     		ldr	r3, [r7, #20]
 248 003a 5B08     		lsrs	r3, r3, #1
 249              		.loc 1 1618 16
 250 003c 9BB2     		uxth	r3, r3
 251 003e 1A00     		movs	r2, r3
 252 0040 0723     		movs	r3, #7
 253 0042 1340     		ands	r3, r2
 254              		.loc 1 1618 13
 255 0044 3A69     		ldr	r2, [r7, #16]
 256 0046 1343     		orrs	r3, r2
 257 0048 3B61     		str	r3, [r7, #16]
1619:../../dependencies/STM32CubeL0/Drivers/STM32L0xx_HAL_Driver/Inc/stm32l0xx_ll_usart.h ****     USARTx->BRR = brrtemp;
 258              		.loc 1 1619 17
 259 004a FB68     		ldr	r3, [r7, #12]
 260 004c 3A69     		ldr	r2, [r7, #16]
 261 004e DA60     		str	r2, [r3, #12]
1620:../../dependencies/STM32CubeL0/Drivers/STM32L0xx_HAL_Driver/Inc/stm32l0xx_ll_usart.h ****   }
1621:../../dependencies/STM32CubeL0/Drivers/STM32L0xx_HAL_Driver/Inc/stm32l0xx_ll_usart.h ****   else
1622:../../dependencies/STM32CubeL0/Drivers/STM32L0xx_HAL_Driver/Inc/stm32l0xx_ll_usart.h ****   {
1623:../../dependencies/STM32CubeL0/Drivers/STM32L0xx_HAL_Driver/Inc/stm32l0xx_ll_usart.h ****     USARTx->BRR = (uint16_t)(__LL_USART_DIV_SAMPLING16(PeriphClk, BaudRate));
1624:../../dependencies/STM32CubeL0/Drivers/STM32L0xx_HAL_Driver/Inc/stm32l0xx_ll_usart.h ****   }
1625:../../dependencies/STM32CubeL0/Drivers/STM32L0xx_HAL_Driver/Inc/stm32l0xx_ll_usart.h **** }
 262              		.loc 1 1625 1
 263 0050 0CE0     		b	.L17
 264              	.L15:
1623:../../dependencies/STM32CubeL0/Drivers/STM32L0xx_HAL_Driver/Inc/stm32l0xx_ll_usart.h ****   }
ARM GAS  /var/folders/fs/dxwfnrqj18z860lwl3d6f5t00000gn/T//ccABuIkd.s 			page 34


 265              		.loc 1 1623 30
 266 0052 3B68     		ldr	r3, [r7]
 267 0054 5A08     		lsrs	r2, r3, #1
 268 0056 BB68     		ldr	r3, [r7, #8]
 269 0058 D318     		adds	r3, r2, r3
 270 005a 3968     		ldr	r1, [r7]
 271 005c 1800     		movs	r0, r3
 272 005e FFF7FEFF 		bl	__aeabi_uidiv
 273 0062 0300     		movs	r3, r0
1623:../../dependencies/STM32CubeL0/Drivers/STM32L0xx_HAL_Driver/Inc/stm32l0xx_ll_usart.h ****   }
 274              		.loc 1 1623 19
 275 0064 9BB2     		uxth	r3, r3
 276 0066 1A00     		movs	r2, r3
1623:../../dependencies/STM32CubeL0/Drivers/STM32L0xx_HAL_Driver/Inc/stm32l0xx_ll_usart.h ****   }
 277              		.loc 1 1623 17
 278 0068 FB68     		ldr	r3, [r7, #12]
 279 006a DA60     		str	r2, [r3, #12]
 280              	.L17:
 281              		.loc 1 1625 1
 282 006c C046     		nop
 283 006e BD46     		mov	sp, r7
 284 0070 06B0     		add	sp, sp, #24
 285              		@ sp needed
 286 0072 80BD     		pop	{r7, pc}
 287              	.L19:
 288              		.align	2
 289              	.L18:
 290 0074 F0FF0000 		.word	65520
 291              		.cfi_endproc
 292              	.LFE121:
 294              		.section	.text.LL_APB1_GRP1_ForceReset,"ax",%progbits
 295              		.align	1
 296              		.syntax unified
 297              		.code	16
 298              		.thumb_func
 299              		.fpu softvfp
 301              	LL_APB1_GRP1_ForceReset:
 302              	.LFB402:
 303              		.file 2 "../../dependencies/STM32CubeL0/Drivers/STM32L0xx_HAL_Driver/Inc/stm32l0xx_ll_bus.h"
   1:../../dependencies/STM32CubeL0/Drivers/STM32L0xx_HAL_Driver/Inc/stm32l0xx_ll_bus.h **** /**
   2:../../dependencies/STM32CubeL0/Drivers/STM32L0xx_HAL_Driver/Inc/stm32l0xx_ll_bus.h ****   ******************************************************************************
   3:../../dependencies/STM32CubeL0/Drivers/STM32L0xx_HAL_Driver/Inc/stm32l0xx_ll_bus.h ****   * @file    stm32l0xx_ll_bus.h
   4:../../dependencies/STM32CubeL0/Drivers/STM32L0xx_HAL_Driver/Inc/stm32l0xx_ll_bus.h ****   * @author  MCD Application Team
   5:../../dependencies/STM32CubeL0/Drivers/STM32L0xx_HAL_Driver/Inc/stm32l0xx_ll_bus.h ****   * @brief   Header file of BUS LL module.
   6:../../dependencies/STM32CubeL0/Drivers/STM32L0xx_HAL_Driver/Inc/stm32l0xx_ll_bus.h **** 
   7:../../dependencies/STM32CubeL0/Drivers/STM32L0xx_HAL_Driver/Inc/stm32l0xx_ll_bus.h ****   @verbatim
   8:../../dependencies/STM32CubeL0/Drivers/STM32L0xx_HAL_Driver/Inc/stm32l0xx_ll_bus.h ****                       ##### RCC Limitations #####
   9:../../dependencies/STM32CubeL0/Drivers/STM32L0xx_HAL_Driver/Inc/stm32l0xx_ll_bus.h ****   ==============================================================================
  10:../../dependencies/STM32CubeL0/Drivers/STM32L0xx_HAL_Driver/Inc/stm32l0xx_ll_bus.h ****     [..]
  11:../../dependencies/STM32CubeL0/Drivers/STM32L0xx_HAL_Driver/Inc/stm32l0xx_ll_bus.h ****       A delay between an RCC peripheral clock enable and the effective peripheral
  12:../../dependencies/STM32CubeL0/Drivers/STM32L0xx_HAL_Driver/Inc/stm32l0xx_ll_bus.h ****       enabling should be taken into account in order to manage the peripheral read/write
  13:../../dependencies/STM32CubeL0/Drivers/STM32L0xx_HAL_Driver/Inc/stm32l0xx_ll_bus.h ****       from/to registers.
  14:../../dependencies/STM32CubeL0/Drivers/STM32L0xx_HAL_Driver/Inc/stm32l0xx_ll_bus.h ****       (+) This delay depends on the peripheral mapping.
  15:../../dependencies/STM32CubeL0/Drivers/STM32L0xx_HAL_Driver/Inc/stm32l0xx_ll_bus.h ****         (++) AHB & APB peripherals, 1 dummy read is necessary
  16:../../dependencies/STM32CubeL0/Drivers/STM32L0xx_HAL_Driver/Inc/stm32l0xx_ll_bus.h **** 
  17:../../dependencies/STM32CubeL0/Drivers/STM32L0xx_HAL_Driver/Inc/stm32l0xx_ll_bus.h ****     [..]
  18:../../dependencies/STM32CubeL0/Drivers/STM32L0xx_HAL_Driver/Inc/stm32l0xx_ll_bus.h ****       Workarounds:
ARM GAS  /var/folders/fs/dxwfnrqj18z860lwl3d6f5t00000gn/T//ccABuIkd.s 			page 35


  19:../../dependencies/STM32CubeL0/Drivers/STM32L0xx_HAL_Driver/Inc/stm32l0xx_ll_bus.h ****       (#) For AHB & APB peripherals, a dummy read to the peripheral register has been
  20:../../dependencies/STM32CubeL0/Drivers/STM32L0xx_HAL_Driver/Inc/stm32l0xx_ll_bus.h ****           inserted in each LL_{BUS}_GRP{x}_EnableClock() function.
  21:../../dependencies/STM32CubeL0/Drivers/STM32L0xx_HAL_Driver/Inc/stm32l0xx_ll_bus.h **** 
  22:../../dependencies/STM32CubeL0/Drivers/STM32L0xx_HAL_Driver/Inc/stm32l0xx_ll_bus.h ****   @endverbatim
  23:../../dependencies/STM32CubeL0/Drivers/STM32L0xx_HAL_Driver/Inc/stm32l0xx_ll_bus.h ****   ******************************************************************************
  24:../../dependencies/STM32CubeL0/Drivers/STM32L0xx_HAL_Driver/Inc/stm32l0xx_ll_bus.h ****   * @attention
  25:../../dependencies/STM32CubeL0/Drivers/STM32L0xx_HAL_Driver/Inc/stm32l0xx_ll_bus.h ****   *
  26:../../dependencies/STM32CubeL0/Drivers/STM32L0xx_HAL_Driver/Inc/stm32l0xx_ll_bus.h ****   * <h2><center>&copy; Copyright(c) 2016 STMicroelectronics.
  27:../../dependencies/STM32CubeL0/Drivers/STM32L0xx_HAL_Driver/Inc/stm32l0xx_ll_bus.h ****   * All rights reserved.</center></h2>
  28:../../dependencies/STM32CubeL0/Drivers/STM32L0xx_HAL_Driver/Inc/stm32l0xx_ll_bus.h ****   *
  29:../../dependencies/STM32CubeL0/Drivers/STM32L0xx_HAL_Driver/Inc/stm32l0xx_ll_bus.h ****   * This software component is licensed by ST under BSD 3-Clause license,
  30:../../dependencies/STM32CubeL0/Drivers/STM32L0xx_HAL_Driver/Inc/stm32l0xx_ll_bus.h ****   * the "License"; You may not use this file except in compliance with the
  31:../../dependencies/STM32CubeL0/Drivers/STM32L0xx_HAL_Driver/Inc/stm32l0xx_ll_bus.h ****   * License. You may obtain a copy of the License at:
  32:../../dependencies/STM32CubeL0/Drivers/STM32L0xx_HAL_Driver/Inc/stm32l0xx_ll_bus.h ****   *                        opensource.org/licenses/BSD-3-Clause
  33:../../dependencies/STM32CubeL0/Drivers/STM32L0xx_HAL_Driver/Inc/stm32l0xx_ll_bus.h ****   *
  34:../../dependencies/STM32CubeL0/Drivers/STM32L0xx_HAL_Driver/Inc/stm32l0xx_ll_bus.h ****   ******************************************************************************
  35:../../dependencies/STM32CubeL0/Drivers/STM32L0xx_HAL_Driver/Inc/stm32l0xx_ll_bus.h ****   */
  36:../../dependencies/STM32CubeL0/Drivers/STM32L0xx_HAL_Driver/Inc/stm32l0xx_ll_bus.h **** 
  37:../../dependencies/STM32CubeL0/Drivers/STM32L0xx_HAL_Driver/Inc/stm32l0xx_ll_bus.h **** /* Define to prevent recursive inclusion -------------------------------------*/
  38:../../dependencies/STM32CubeL0/Drivers/STM32L0xx_HAL_Driver/Inc/stm32l0xx_ll_bus.h **** #ifndef __STM32L0xx_LL_BUS_H
  39:../../dependencies/STM32CubeL0/Drivers/STM32L0xx_HAL_Driver/Inc/stm32l0xx_ll_bus.h **** #define __STM32L0xx_LL_BUS_H
  40:../../dependencies/STM32CubeL0/Drivers/STM32L0xx_HAL_Driver/Inc/stm32l0xx_ll_bus.h **** 
  41:../../dependencies/STM32CubeL0/Drivers/STM32L0xx_HAL_Driver/Inc/stm32l0xx_ll_bus.h **** #ifdef __cplusplus
  42:../../dependencies/STM32CubeL0/Drivers/STM32L0xx_HAL_Driver/Inc/stm32l0xx_ll_bus.h **** extern "C" {
  43:../../dependencies/STM32CubeL0/Drivers/STM32L0xx_HAL_Driver/Inc/stm32l0xx_ll_bus.h **** #endif
  44:../../dependencies/STM32CubeL0/Drivers/STM32L0xx_HAL_Driver/Inc/stm32l0xx_ll_bus.h **** 
  45:../../dependencies/STM32CubeL0/Drivers/STM32L0xx_HAL_Driver/Inc/stm32l0xx_ll_bus.h **** /* Includes ------------------------------------------------------------------*/
  46:../../dependencies/STM32CubeL0/Drivers/STM32L0xx_HAL_Driver/Inc/stm32l0xx_ll_bus.h **** #include "stm32l0xx.h"
  47:../../dependencies/STM32CubeL0/Drivers/STM32L0xx_HAL_Driver/Inc/stm32l0xx_ll_bus.h **** 
  48:../../dependencies/STM32CubeL0/Drivers/STM32L0xx_HAL_Driver/Inc/stm32l0xx_ll_bus.h **** /** @addtogroup STM32L0xx_LL_Driver
  49:../../dependencies/STM32CubeL0/Drivers/STM32L0xx_HAL_Driver/Inc/stm32l0xx_ll_bus.h ****   * @{
  50:../../dependencies/STM32CubeL0/Drivers/STM32L0xx_HAL_Driver/Inc/stm32l0xx_ll_bus.h ****   */
  51:../../dependencies/STM32CubeL0/Drivers/STM32L0xx_HAL_Driver/Inc/stm32l0xx_ll_bus.h **** 
  52:../../dependencies/STM32CubeL0/Drivers/STM32L0xx_HAL_Driver/Inc/stm32l0xx_ll_bus.h **** #if defined(RCC)
  53:../../dependencies/STM32CubeL0/Drivers/STM32L0xx_HAL_Driver/Inc/stm32l0xx_ll_bus.h **** 
  54:../../dependencies/STM32CubeL0/Drivers/STM32L0xx_HAL_Driver/Inc/stm32l0xx_ll_bus.h **** /** @defgroup BUS_LL BUS
  55:../../dependencies/STM32CubeL0/Drivers/STM32L0xx_HAL_Driver/Inc/stm32l0xx_ll_bus.h ****   * @{
  56:../../dependencies/STM32CubeL0/Drivers/STM32L0xx_HAL_Driver/Inc/stm32l0xx_ll_bus.h ****   */
  57:../../dependencies/STM32CubeL0/Drivers/STM32L0xx_HAL_Driver/Inc/stm32l0xx_ll_bus.h **** 
  58:../../dependencies/STM32CubeL0/Drivers/STM32L0xx_HAL_Driver/Inc/stm32l0xx_ll_bus.h **** /* Private types -------------------------------------------------------------*/
  59:../../dependencies/STM32CubeL0/Drivers/STM32L0xx_HAL_Driver/Inc/stm32l0xx_ll_bus.h **** /* Private variables ---------------------------------------------------------*/
  60:../../dependencies/STM32CubeL0/Drivers/STM32L0xx_HAL_Driver/Inc/stm32l0xx_ll_bus.h **** 
  61:../../dependencies/STM32CubeL0/Drivers/STM32L0xx_HAL_Driver/Inc/stm32l0xx_ll_bus.h **** /* Private constants ---------------------------------------------------------*/
  62:../../dependencies/STM32CubeL0/Drivers/STM32L0xx_HAL_Driver/Inc/stm32l0xx_ll_bus.h **** 
  63:../../dependencies/STM32CubeL0/Drivers/STM32L0xx_HAL_Driver/Inc/stm32l0xx_ll_bus.h **** /* Private macros ------------------------------------------------------------*/
  64:../../dependencies/STM32CubeL0/Drivers/STM32L0xx_HAL_Driver/Inc/stm32l0xx_ll_bus.h **** 
  65:../../dependencies/STM32CubeL0/Drivers/STM32L0xx_HAL_Driver/Inc/stm32l0xx_ll_bus.h **** /* Exported types ------------------------------------------------------------*/
  66:../../dependencies/STM32CubeL0/Drivers/STM32L0xx_HAL_Driver/Inc/stm32l0xx_ll_bus.h **** /* Exported constants --------------------------------------------------------*/
  67:../../dependencies/STM32CubeL0/Drivers/STM32L0xx_HAL_Driver/Inc/stm32l0xx_ll_bus.h **** /** @defgroup BUS_LL_Exported_Constants BUS Exported Constants
  68:../../dependencies/STM32CubeL0/Drivers/STM32L0xx_HAL_Driver/Inc/stm32l0xx_ll_bus.h ****   * @{
  69:../../dependencies/STM32CubeL0/Drivers/STM32L0xx_HAL_Driver/Inc/stm32l0xx_ll_bus.h ****   */
  70:../../dependencies/STM32CubeL0/Drivers/STM32L0xx_HAL_Driver/Inc/stm32l0xx_ll_bus.h **** 
  71:../../dependencies/STM32CubeL0/Drivers/STM32L0xx_HAL_Driver/Inc/stm32l0xx_ll_bus.h **** /** @defgroup BUS_LL_EC_AHB1_GRP1_PERIPH  AHB1 GRP1 PERIPH
  72:../../dependencies/STM32CubeL0/Drivers/STM32L0xx_HAL_Driver/Inc/stm32l0xx_ll_bus.h ****   * @{
  73:../../dependencies/STM32CubeL0/Drivers/STM32L0xx_HAL_Driver/Inc/stm32l0xx_ll_bus.h ****   */
  74:../../dependencies/STM32CubeL0/Drivers/STM32L0xx_HAL_Driver/Inc/stm32l0xx_ll_bus.h **** #define LL_AHB1_GRP1_PERIPH_ALL            0xFFFFFFFFU
  75:../../dependencies/STM32CubeL0/Drivers/STM32L0xx_HAL_Driver/Inc/stm32l0xx_ll_bus.h **** #define LL_AHB1_GRP1_PERIPH_DMA1           RCC_AHBENR_DMA1EN      /*!< DMA1 clock enable */
ARM GAS  /var/folders/fs/dxwfnrqj18z860lwl3d6f5t00000gn/T//ccABuIkd.s 			page 36


  76:../../dependencies/STM32CubeL0/Drivers/STM32L0xx_HAL_Driver/Inc/stm32l0xx_ll_bus.h **** #define LL_AHB1_GRP1_PERIPH_MIF            RCC_AHBENR_MIFEN       /*!< MIF clock enable */
  77:../../dependencies/STM32CubeL0/Drivers/STM32L0xx_HAL_Driver/Inc/stm32l0xx_ll_bus.h **** #define LL_AHB1_GRP1_PERIPH_SRAM           RCC_AHBSMENR_SRAMSMEN  /*!< Sleep Mode SRAM clock enable
  78:../../dependencies/STM32CubeL0/Drivers/STM32L0xx_HAL_Driver/Inc/stm32l0xx_ll_bus.h **** #define LL_AHB1_GRP1_PERIPH_CRC            RCC_AHBENR_CRCEN       /*!< CRC clock enable */
  79:../../dependencies/STM32CubeL0/Drivers/STM32L0xx_HAL_Driver/Inc/stm32l0xx_ll_bus.h **** #if defined(TSC)
  80:../../dependencies/STM32CubeL0/Drivers/STM32L0xx_HAL_Driver/Inc/stm32l0xx_ll_bus.h **** #define LL_AHB1_GRP1_PERIPH_TSC            RCC_AHBENR_TSCEN       /*!< TSC clock enable */
  81:../../dependencies/STM32CubeL0/Drivers/STM32L0xx_HAL_Driver/Inc/stm32l0xx_ll_bus.h **** #endif /*TSC*/
  82:../../dependencies/STM32CubeL0/Drivers/STM32L0xx_HAL_Driver/Inc/stm32l0xx_ll_bus.h **** #if defined(RNG)
  83:../../dependencies/STM32CubeL0/Drivers/STM32L0xx_HAL_Driver/Inc/stm32l0xx_ll_bus.h **** #define LL_AHB1_GRP1_PERIPH_RNG            RCC_AHBENR_RNGEN       /*!< RNG clock enable */
  84:../../dependencies/STM32CubeL0/Drivers/STM32L0xx_HAL_Driver/Inc/stm32l0xx_ll_bus.h **** #endif /*RNG*/
  85:../../dependencies/STM32CubeL0/Drivers/STM32L0xx_HAL_Driver/Inc/stm32l0xx_ll_bus.h **** #if defined(AES)
  86:../../dependencies/STM32CubeL0/Drivers/STM32L0xx_HAL_Driver/Inc/stm32l0xx_ll_bus.h **** #define LL_AHB1_GRP1_PERIPH_CRYP           RCC_AHBENR_CRYPEN      /*!< CRYP clock enable */
  87:../../dependencies/STM32CubeL0/Drivers/STM32L0xx_HAL_Driver/Inc/stm32l0xx_ll_bus.h **** #endif /*AES*/
  88:../../dependencies/STM32CubeL0/Drivers/STM32L0xx_HAL_Driver/Inc/stm32l0xx_ll_bus.h **** /**
  89:../../dependencies/STM32CubeL0/Drivers/STM32L0xx_HAL_Driver/Inc/stm32l0xx_ll_bus.h ****   * @}
  90:../../dependencies/STM32CubeL0/Drivers/STM32L0xx_HAL_Driver/Inc/stm32l0xx_ll_bus.h ****   */
  91:../../dependencies/STM32CubeL0/Drivers/STM32L0xx_HAL_Driver/Inc/stm32l0xx_ll_bus.h **** 
  92:../../dependencies/STM32CubeL0/Drivers/STM32L0xx_HAL_Driver/Inc/stm32l0xx_ll_bus.h **** 
  93:../../dependencies/STM32CubeL0/Drivers/STM32L0xx_HAL_Driver/Inc/stm32l0xx_ll_bus.h **** /** @defgroup BUS_LL_EC_APB1_GRP1_PERIPH  APB1 GRP1 PERIPH
  94:../../dependencies/STM32CubeL0/Drivers/STM32L0xx_HAL_Driver/Inc/stm32l0xx_ll_bus.h ****   * @{
  95:../../dependencies/STM32CubeL0/Drivers/STM32L0xx_HAL_Driver/Inc/stm32l0xx_ll_bus.h ****   */
  96:../../dependencies/STM32CubeL0/Drivers/STM32L0xx_HAL_Driver/Inc/stm32l0xx_ll_bus.h **** #define LL_APB1_GRP1_PERIPH_ALL            0xFFFFFFFFU
  97:../../dependencies/STM32CubeL0/Drivers/STM32L0xx_HAL_Driver/Inc/stm32l0xx_ll_bus.h **** #define LL_APB1_GRP1_PERIPH_TIM2           RCC_APB1ENR_TIM2EN     /*!< TIM2 clock enable */
  98:../../dependencies/STM32CubeL0/Drivers/STM32L0xx_HAL_Driver/Inc/stm32l0xx_ll_bus.h **** #if defined(TIM3)
  99:../../dependencies/STM32CubeL0/Drivers/STM32L0xx_HAL_Driver/Inc/stm32l0xx_ll_bus.h **** #define LL_APB1_GRP1_PERIPH_TIM3           RCC_APB1ENR_TIM3EN     /*!< TIM3 clock enable */
 100:../../dependencies/STM32CubeL0/Drivers/STM32L0xx_HAL_Driver/Inc/stm32l0xx_ll_bus.h **** #endif
 101:../../dependencies/STM32CubeL0/Drivers/STM32L0xx_HAL_Driver/Inc/stm32l0xx_ll_bus.h **** #if defined(TIM6)
 102:../../dependencies/STM32CubeL0/Drivers/STM32L0xx_HAL_Driver/Inc/stm32l0xx_ll_bus.h **** #define LL_APB1_GRP1_PERIPH_TIM6           RCC_APB1ENR_TIM6EN     /*!< TIM6 clock enable */
 103:../../dependencies/STM32CubeL0/Drivers/STM32L0xx_HAL_Driver/Inc/stm32l0xx_ll_bus.h **** #endif
 104:../../dependencies/STM32CubeL0/Drivers/STM32L0xx_HAL_Driver/Inc/stm32l0xx_ll_bus.h **** #if defined(TIM7)
 105:../../dependencies/STM32CubeL0/Drivers/STM32L0xx_HAL_Driver/Inc/stm32l0xx_ll_bus.h **** #define LL_APB1_GRP1_PERIPH_TIM7           RCC_APB1ENR_TIM7EN     /*!< TIM7 clock enable */
 106:../../dependencies/STM32CubeL0/Drivers/STM32L0xx_HAL_Driver/Inc/stm32l0xx_ll_bus.h **** #endif
 107:../../dependencies/STM32CubeL0/Drivers/STM32L0xx_HAL_Driver/Inc/stm32l0xx_ll_bus.h **** #if defined(LCD)
 108:../../dependencies/STM32CubeL0/Drivers/STM32L0xx_HAL_Driver/Inc/stm32l0xx_ll_bus.h **** #define LL_APB1_GRP1_PERIPH_LCD            RCC_APB1ENR_LCDEN      /*!< LCD clock enable */
 109:../../dependencies/STM32CubeL0/Drivers/STM32L0xx_HAL_Driver/Inc/stm32l0xx_ll_bus.h **** #endif /*LCD*/
 110:../../dependencies/STM32CubeL0/Drivers/STM32L0xx_HAL_Driver/Inc/stm32l0xx_ll_bus.h **** #define LL_APB1_GRP1_PERIPH_WWDG           RCC_APB1ENR_WWDGEN     /*!< WWDG clock enable */
 111:../../dependencies/STM32CubeL0/Drivers/STM32L0xx_HAL_Driver/Inc/stm32l0xx_ll_bus.h **** #if defined(SPI2)
 112:../../dependencies/STM32CubeL0/Drivers/STM32L0xx_HAL_Driver/Inc/stm32l0xx_ll_bus.h **** #define LL_APB1_GRP1_PERIPH_SPI2           RCC_APB1ENR_SPI2EN     /*!< SPI2 clock enable */
 113:../../dependencies/STM32CubeL0/Drivers/STM32L0xx_HAL_Driver/Inc/stm32l0xx_ll_bus.h **** #endif
 114:../../dependencies/STM32CubeL0/Drivers/STM32L0xx_HAL_Driver/Inc/stm32l0xx_ll_bus.h **** #define LL_APB1_GRP1_PERIPH_USART2         RCC_APB1ENR_USART2EN   /*!< USART2 clock enable */
 115:../../dependencies/STM32CubeL0/Drivers/STM32L0xx_HAL_Driver/Inc/stm32l0xx_ll_bus.h **** #define LL_APB1_GRP1_PERIPH_LPUART1        RCC_APB1ENR_LPUART1EN  /*!< LPUART1 clock enable */
 116:../../dependencies/STM32CubeL0/Drivers/STM32L0xx_HAL_Driver/Inc/stm32l0xx_ll_bus.h **** #if defined(USART4)
 117:../../dependencies/STM32CubeL0/Drivers/STM32L0xx_HAL_Driver/Inc/stm32l0xx_ll_bus.h **** #define LL_APB1_GRP1_PERIPH_USART4         RCC_APB1ENR_USART4EN   /*!< USART4 clock enable */
 118:../../dependencies/STM32CubeL0/Drivers/STM32L0xx_HAL_Driver/Inc/stm32l0xx_ll_bus.h **** #endif
 119:../../dependencies/STM32CubeL0/Drivers/STM32L0xx_HAL_Driver/Inc/stm32l0xx_ll_bus.h **** #if defined(USART5)
 120:../../dependencies/STM32CubeL0/Drivers/STM32L0xx_HAL_Driver/Inc/stm32l0xx_ll_bus.h **** #define LL_APB1_GRP1_PERIPH_USART5         RCC_APB1ENR_USART5EN   /*!< USART5 clock enable */
 121:../../dependencies/STM32CubeL0/Drivers/STM32L0xx_HAL_Driver/Inc/stm32l0xx_ll_bus.h **** #endif
 122:../../dependencies/STM32CubeL0/Drivers/STM32L0xx_HAL_Driver/Inc/stm32l0xx_ll_bus.h **** #define LL_APB1_GRP1_PERIPH_I2C1           RCC_APB1ENR_I2C1EN     /*!< I2C1 clock enable */
 123:../../dependencies/STM32CubeL0/Drivers/STM32L0xx_HAL_Driver/Inc/stm32l0xx_ll_bus.h **** #if defined(I2C2)
 124:../../dependencies/STM32CubeL0/Drivers/STM32L0xx_HAL_Driver/Inc/stm32l0xx_ll_bus.h **** #define LL_APB1_GRP1_PERIPH_I2C2           RCC_APB1ENR_I2C2EN     /*!< I2C2 clock enable */
 125:../../dependencies/STM32CubeL0/Drivers/STM32L0xx_HAL_Driver/Inc/stm32l0xx_ll_bus.h **** #endif
