ARM GAS  /var/folders/fs/dxwfnrqj18z860lwl3d6f5t00000gn/T//ccl6Jv28.s 			page 1


   1              		.cpu cortex-m0plus
   2              		.eabi_attribute 20, 1
   3              		.eabi_attribute 21, 1
   4              		.eabi_attribute 23, 3
   5              		.eabi_attribute 24, 1
   6              		.eabi_attribute 25, 1
   7              		.eabi_attribute 26, 1
   8              		.eabi_attribute 30, 6
   9              		.eabi_attribute 34, 0
  10              		.eabi_attribute 18, 4
  11              		.file	"stm32l0xx_ll_rcc.c"
  12              		.text
  13              	.Ltext0:
  14              		.cfi_sections	.debug_frame
  15              		.section	.text.LL_RCC_HSE_DisableBypass,"ax",%progbits
  16              		.align	1
  17              		.arch armv6s-m
  18              		.syntax unified
  19              		.code	16
  20              		.thumb_func
  21              		.fpu softvfp
  23              	LL_RCC_HSE_DisableBypass:
  24              	.LFB49:
  25              		.file 1 "../../dependencies/STM32CubeL0/Drivers/STM32L0xx_HAL_Driver/Inc/stm32l0xx_ll_rcc.h"
   1:../../dependencies/STM32CubeL0/Drivers/STM32L0xx_HAL_Driver/Inc/stm32l0xx_ll_rcc.h **** /**
   2:../../dependencies/STM32CubeL0/Drivers/STM32L0xx_HAL_Driver/Inc/stm32l0xx_ll_rcc.h ****   ******************************************************************************
   3:../../dependencies/STM32CubeL0/Drivers/STM32L0xx_HAL_Driver/Inc/stm32l0xx_ll_rcc.h ****   * @file    stm32l0xx_ll_rcc.h
   4:../../dependencies/STM32CubeL0/Drivers/STM32L0xx_HAL_Driver/Inc/stm32l0xx_ll_rcc.h ****   * @author  MCD Application Team
   5:../../dependencies/STM32CubeL0/Drivers/STM32L0xx_HAL_Driver/Inc/stm32l0xx_ll_rcc.h ****   * @brief   Header file of RCC LL module.
   6:../../dependencies/STM32CubeL0/Drivers/STM32L0xx_HAL_Driver/Inc/stm32l0xx_ll_rcc.h ****   ******************************************************************************
   7:../../dependencies/STM32CubeL0/Drivers/STM32L0xx_HAL_Driver/Inc/stm32l0xx_ll_rcc.h ****   * @attention
   8:../../dependencies/STM32CubeL0/Drivers/STM32L0xx_HAL_Driver/Inc/stm32l0xx_ll_rcc.h ****   *
   9:../../dependencies/STM32CubeL0/Drivers/STM32L0xx_HAL_Driver/Inc/stm32l0xx_ll_rcc.h ****   * <h2><center>&copy; Copyright(c) 2016 STMicroelectronics.
  10:../../dependencies/STM32CubeL0/Drivers/STM32L0xx_HAL_Driver/Inc/stm32l0xx_ll_rcc.h ****   * All rights reserved.</center></h2>
  11:../../dependencies/STM32CubeL0/Drivers/STM32L0xx_HAL_Driver/Inc/stm32l0xx_ll_rcc.h ****   *
  12:../../dependencies/STM32CubeL0/Drivers/STM32L0xx_HAL_Driver/Inc/stm32l0xx_ll_rcc.h ****   * This software component is licensed by ST under BSD 3-Clause license,
  13:../../dependencies/STM32CubeL0/Drivers/STM32L0xx_HAL_Driver/Inc/stm32l0xx_ll_rcc.h ****   * the "License"; You may not use this file except in compliance with the
  14:../../dependencies/STM32CubeL0/Drivers/STM32L0xx_HAL_Driver/Inc/stm32l0xx_ll_rcc.h ****   * License. You may obtain a copy of the License at:
  15:../../dependencies/STM32CubeL0/Drivers/STM32L0xx_HAL_Driver/Inc/stm32l0xx_ll_rcc.h ****   *                        opensource.org/licenses/BSD-3-Clause
  16:../../dependencies/STM32CubeL0/Drivers/STM32L0xx_HAL_Driver/Inc/stm32l0xx_ll_rcc.h ****   *
  17:../../dependencies/STM32CubeL0/Drivers/STM32L0xx_HAL_Driver/Inc/stm32l0xx_ll_rcc.h ****   ******************************************************************************
  18:../../dependencies/STM32CubeL0/Drivers/STM32L0xx_HAL_Driver/Inc/stm32l0xx_ll_rcc.h ****   */
  19:../../dependencies/STM32CubeL0/Drivers/STM32L0xx_HAL_Driver/Inc/stm32l0xx_ll_rcc.h **** 
  20:../../dependencies/STM32CubeL0/Drivers/STM32L0xx_HAL_Driver/Inc/stm32l0xx_ll_rcc.h **** /* Define to prevent recursive inclusion -------------------------------------*/
  21:../../dependencies/STM32CubeL0/Drivers/STM32L0xx_HAL_Driver/Inc/stm32l0xx_ll_rcc.h **** #ifndef __STM32L0xx_LL_RCC_H
  22:../../dependencies/STM32CubeL0/Drivers/STM32L0xx_HAL_Driver/Inc/stm32l0xx_ll_rcc.h **** #define __STM32L0xx_LL_RCC_H
  23:../../dependencies/STM32CubeL0/Drivers/STM32L0xx_HAL_Driver/Inc/stm32l0xx_ll_rcc.h **** 
  24:../../dependencies/STM32CubeL0/Drivers/STM32L0xx_HAL_Driver/Inc/stm32l0xx_ll_rcc.h **** #ifdef __cplusplus
  25:../../dependencies/STM32CubeL0/Drivers/STM32L0xx_HAL_Driver/Inc/stm32l0xx_ll_rcc.h **** extern "C" {
  26:../../dependencies/STM32CubeL0/Drivers/STM32L0xx_HAL_Driver/Inc/stm32l0xx_ll_rcc.h **** #endif
  27:../../dependencies/STM32CubeL0/Drivers/STM32L0xx_HAL_Driver/Inc/stm32l0xx_ll_rcc.h **** 
  28:../../dependencies/STM32CubeL0/Drivers/STM32L0xx_HAL_Driver/Inc/stm32l0xx_ll_rcc.h **** /* Includes ------------------------------------------------------------------*/
  29:../../dependencies/STM32CubeL0/Drivers/STM32L0xx_HAL_Driver/Inc/stm32l0xx_ll_rcc.h **** #include "stm32l0xx.h"
  30:../../dependencies/STM32CubeL0/Drivers/STM32L0xx_HAL_Driver/Inc/stm32l0xx_ll_rcc.h **** 
  31:../../dependencies/STM32CubeL0/Drivers/STM32L0xx_HAL_Driver/Inc/stm32l0xx_ll_rcc.h **** /** @addtogroup STM32L0xx_LL_Driver
  32:../../dependencies/STM32CubeL0/Drivers/STM32L0xx_HAL_Driver/Inc/stm32l0xx_ll_rcc.h ****   * @{
  33:../../dependencies/STM32CubeL0/Drivers/STM32L0xx_HAL_Driver/Inc/stm32l0xx_ll_rcc.h ****   */
ARM GAS  /var/folders/fs/dxwfnrqj18z860lwl3d6f5t00000gn/T//ccl6Jv28.s 			page 2


  34:../../dependencies/STM32CubeL0/Drivers/STM32L0xx_HAL_Driver/Inc/stm32l0xx_ll_rcc.h **** 
  35:../../dependencies/STM32CubeL0/Drivers/STM32L0xx_HAL_Driver/Inc/stm32l0xx_ll_rcc.h **** #if defined(RCC)
  36:../../dependencies/STM32CubeL0/Drivers/STM32L0xx_HAL_Driver/Inc/stm32l0xx_ll_rcc.h **** 
  37:../../dependencies/STM32CubeL0/Drivers/STM32L0xx_HAL_Driver/Inc/stm32l0xx_ll_rcc.h **** /** @defgroup RCC_LL RCC
  38:../../dependencies/STM32CubeL0/Drivers/STM32L0xx_HAL_Driver/Inc/stm32l0xx_ll_rcc.h ****   * @{
  39:../../dependencies/STM32CubeL0/Drivers/STM32L0xx_HAL_Driver/Inc/stm32l0xx_ll_rcc.h ****   */
  40:../../dependencies/STM32CubeL0/Drivers/STM32L0xx_HAL_Driver/Inc/stm32l0xx_ll_rcc.h **** 
  41:../../dependencies/STM32CubeL0/Drivers/STM32L0xx_HAL_Driver/Inc/stm32l0xx_ll_rcc.h **** /* Private types -------------------------------------------------------------*/
  42:../../dependencies/STM32CubeL0/Drivers/STM32L0xx_HAL_Driver/Inc/stm32l0xx_ll_rcc.h **** /* Private variables ---------------------------------------------------------*/
  43:../../dependencies/STM32CubeL0/Drivers/STM32L0xx_HAL_Driver/Inc/stm32l0xx_ll_rcc.h **** /** @defgroup RCC_LL_Private_Variables RCC Private Variables
  44:../../dependencies/STM32CubeL0/Drivers/STM32L0xx_HAL_Driver/Inc/stm32l0xx_ll_rcc.h ****   * @{
  45:../../dependencies/STM32CubeL0/Drivers/STM32L0xx_HAL_Driver/Inc/stm32l0xx_ll_rcc.h ****   */
  46:../../dependencies/STM32CubeL0/Drivers/STM32L0xx_HAL_Driver/Inc/stm32l0xx_ll_rcc.h **** 
  47:../../dependencies/STM32CubeL0/Drivers/STM32L0xx_HAL_Driver/Inc/stm32l0xx_ll_rcc.h **** /**
  48:../../dependencies/STM32CubeL0/Drivers/STM32L0xx_HAL_Driver/Inc/stm32l0xx_ll_rcc.h ****   * @}
  49:../../dependencies/STM32CubeL0/Drivers/STM32L0xx_HAL_Driver/Inc/stm32l0xx_ll_rcc.h ****   */
  50:../../dependencies/STM32CubeL0/Drivers/STM32L0xx_HAL_Driver/Inc/stm32l0xx_ll_rcc.h **** 
  51:../../dependencies/STM32CubeL0/Drivers/STM32L0xx_HAL_Driver/Inc/stm32l0xx_ll_rcc.h **** /* Private constants ---------------------------------------------------------*/
  52:../../dependencies/STM32CubeL0/Drivers/STM32L0xx_HAL_Driver/Inc/stm32l0xx_ll_rcc.h **** /** @defgroup RCC_LL_Private_Constants RCC Private Constants
  53:../../dependencies/STM32CubeL0/Drivers/STM32L0xx_HAL_Driver/Inc/stm32l0xx_ll_rcc.h ****   * @{
  54:../../dependencies/STM32CubeL0/Drivers/STM32L0xx_HAL_Driver/Inc/stm32l0xx_ll_rcc.h ****   */
  55:../../dependencies/STM32CubeL0/Drivers/STM32L0xx_HAL_Driver/Inc/stm32l0xx_ll_rcc.h **** 
  56:../../dependencies/STM32CubeL0/Drivers/STM32L0xx_HAL_Driver/Inc/stm32l0xx_ll_rcc.h **** /**
  57:../../dependencies/STM32CubeL0/Drivers/STM32L0xx_HAL_Driver/Inc/stm32l0xx_ll_rcc.h ****   * @}
  58:../../dependencies/STM32CubeL0/Drivers/STM32L0xx_HAL_Driver/Inc/stm32l0xx_ll_rcc.h ****   */
  59:../../dependencies/STM32CubeL0/Drivers/STM32L0xx_HAL_Driver/Inc/stm32l0xx_ll_rcc.h **** 
  60:../../dependencies/STM32CubeL0/Drivers/STM32L0xx_HAL_Driver/Inc/stm32l0xx_ll_rcc.h **** /* Private macros ------------------------------------------------------------*/
  61:../../dependencies/STM32CubeL0/Drivers/STM32L0xx_HAL_Driver/Inc/stm32l0xx_ll_rcc.h **** #if defined(USE_FULL_LL_DRIVER)
  62:../../dependencies/STM32CubeL0/Drivers/STM32L0xx_HAL_Driver/Inc/stm32l0xx_ll_rcc.h **** /** @defgroup RCC_LL_Private_Macros RCC Private Macros
  63:../../dependencies/STM32CubeL0/Drivers/STM32L0xx_HAL_Driver/Inc/stm32l0xx_ll_rcc.h ****   * @{
  64:../../dependencies/STM32CubeL0/Drivers/STM32L0xx_HAL_Driver/Inc/stm32l0xx_ll_rcc.h ****   */
  65:../../dependencies/STM32CubeL0/Drivers/STM32L0xx_HAL_Driver/Inc/stm32l0xx_ll_rcc.h **** /**
  66:../../dependencies/STM32CubeL0/Drivers/STM32L0xx_HAL_Driver/Inc/stm32l0xx_ll_rcc.h ****   * @}
  67:../../dependencies/STM32CubeL0/Drivers/STM32L0xx_HAL_Driver/Inc/stm32l0xx_ll_rcc.h ****   */
  68:../../dependencies/STM32CubeL0/Drivers/STM32L0xx_HAL_Driver/Inc/stm32l0xx_ll_rcc.h **** #endif /*USE_FULL_LL_DRIVER*/
  69:../../dependencies/STM32CubeL0/Drivers/STM32L0xx_HAL_Driver/Inc/stm32l0xx_ll_rcc.h **** /* Exported types ------------------------------------------------------------*/
  70:../../dependencies/STM32CubeL0/Drivers/STM32L0xx_HAL_Driver/Inc/stm32l0xx_ll_rcc.h **** #if defined(USE_FULL_LL_DRIVER)
  71:../../dependencies/STM32CubeL0/Drivers/STM32L0xx_HAL_Driver/Inc/stm32l0xx_ll_rcc.h **** /** @defgroup RCC_LL_Exported_Types RCC Exported Types
  72:../../dependencies/STM32CubeL0/Drivers/STM32L0xx_HAL_Driver/Inc/stm32l0xx_ll_rcc.h ****   * @{
  73:../../dependencies/STM32CubeL0/Drivers/STM32L0xx_HAL_Driver/Inc/stm32l0xx_ll_rcc.h ****   */
  74:../../dependencies/STM32CubeL0/Drivers/STM32L0xx_HAL_Driver/Inc/stm32l0xx_ll_rcc.h **** 
  75:../../dependencies/STM32CubeL0/Drivers/STM32L0xx_HAL_Driver/Inc/stm32l0xx_ll_rcc.h **** /** @defgroup LL_ES_CLOCK_FREQ Clocks Frequency Structure
  76:../../dependencies/STM32CubeL0/Drivers/STM32L0xx_HAL_Driver/Inc/stm32l0xx_ll_rcc.h ****   * @{
  77:../../dependencies/STM32CubeL0/Drivers/STM32L0xx_HAL_Driver/Inc/stm32l0xx_ll_rcc.h ****   */
  78:../../dependencies/STM32CubeL0/Drivers/STM32L0xx_HAL_Driver/Inc/stm32l0xx_ll_rcc.h **** 
  79:../../dependencies/STM32CubeL0/Drivers/STM32L0xx_HAL_Driver/Inc/stm32l0xx_ll_rcc.h **** /**
  80:../../dependencies/STM32CubeL0/Drivers/STM32L0xx_HAL_Driver/Inc/stm32l0xx_ll_rcc.h ****   * @brief  RCC Clocks Frequency Structure
  81:../../dependencies/STM32CubeL0/Drivers/STM32L0xx_HAL_Driver/Inc/stm32l0xx_ll_rcc.h ****   */
  82:../../dependencies/STM32CubeL0/Drivers/STM32L0xx_HAL_Driver/Inc/stm32l0xx_ll_rcc.h **** typedef struct
  83:../../dependencies/STM32CubeL0/Drivers/STM32L0xx_HAL_Driver/Inc/stm32l0xx_ll_rcc.h **** {
  84:../../dependencies/STM32CubeL0/Drivers/STM32L0xx_HAL_Driver/Inc/stm32l0xx_ll_rcc.h ****   uint32_t SYSCLK_Frequency;        /*!< SYSCLK clock frequency */
  85:../../dependencies/STM32CubeL0/Drivers/STM32L0xx_HAL_Driver/Inc/stm32l0xx_ll_rcc.h ****   uint32_t HCLK_Frequency;          /*!< HCLK clock frequency */
  86:../../dependencies/STM32CubeL0/Drivers/STM32L0xx_HAL_Driver/Inc/stm32l0xx_ll_rcc.h ****   uint32_t PCLK1_Frequency;         /*!< PCLK1 clock frequency */
  87:../../dependencies/STM32CubeL0/Drivers/STM32L0xx_HAL_Driver/Inc/stm32l0xx_ll_rcc.h ****   uint32_t PCLK2_Frequency;         /*!< PCLK2 clock frequency */
  88:../../dependencies/STM32CubeL0/Drivers/STM32L0xx_HAL_Driver/Inc/stm32l0xx_ll_rcc.h **** } LL_RCC_ClocksTypeDef;
  89:../../dependencies/STM32CubeL0/Drivers/STM32L0xx_HAL_Driver/Inc/stm32l0xx_ll_rcc.h **** 
  90:../../dependencies/STM32CubeL0/Drivers/STM32L0xx_HAL_Driver/Inc/stm32l0xx_ll_rcc.h **** /**
ARM GAS  /var/folders/fs/dxwfnrqj18z860lwl3d6f5t00000gn/T//ccl6Jv28.s 			page 3


  91:../../dependencies/STM32CubeL0/Drivers/STM32L0xx_HAL_Driver/Inc/stm32l0xx_ll_rcc.h ****   * @}
  92:../../dependencies/STM32CubeL0/Drivers/STM32L0xx_HAL_Driver/Inc/stm32l0xx_ll_rcc.h ****   */
  93:../../dependencies/STM32CubeL0/Drivers/STM32L0xx_HAL_Driver/Inc/stm32l0xx_ll_rcc.h **** 
  94:../../dependencies/STM32CubeL0/Drivers/STM32L0xx_HAL_Driver/Inc/stm32l0xx_ll_rcc.h **** /**
  95:../../dependencies/STM32CubeL0/Drivers/STM32L0xx_HAL_Driver/Inc/stm32l0xx_ll_rcc.h ****   * @}
  96:../../dependencies/STM32CubeL0/Drivers/STM32L0xx_HAL_Driver/Inc/stm32l0xx_ll_rcc.h ****   */
  97:../../dependencies/STM32CubeL0/Drivers/STM32L0xx_HAL_Driver/Inc/stm32l0xx_ll_rcc.h **** #endif /* USE_FULL_LL_DRIVER */
  98:../../dependencies/STM32CubeL0/Drivers/STM32L0xx_HAL_Driver/Inc/stm32l0xx_ll_rcc.h **** 
  99:../../dependencies/STM32CubeL0/Drivers/STM32L0xx_HAL_Driver/Inc/stm32l0xx_ll_rcc.h **** /* Exported constants --------------------------------------------------------*/
 100:../../dependencies/STM32CubeL0/Drivers/STM32L0xx_HAL_Driver/Inc/stm32l0xx_ll_rcc.h **** /** @defgroup RCC_LL_Exported_Constants RCC Exported Constants
 101:../../dependencies/STM32CubeL0/Drivers/STM32L0xx_HAL_Driver/Inc/stm32l0xx_ll_rcc.h ****   * @{
 102:../../dependencies/STM32CubeL0/Drivers/STM32L0xx_HAL_Driver/Inc/stm32l0xx_ll_rcc.h ****   */
 103:../../dependencies/STM32CubeL0/Drivers/STM32L0xx_HAL_Driver/Inc/stm32l0xx_ll_rcc.h **** 
 104:../../dependencies/STM32CubeL0/Drivers/STM32L0xx_HAL_Driver/Inc/stm32l0xx_ll_rcc.h **** /** @defgroup RCC_LL_EC_OSC_VALUES Oscillator Values adaptation
 105:../../dependencies/STM32CubeL0/Drivers/STM32L0xx_HAL_Driver/Inc/stm32l0xx_ll_rcc.h ****   * @brief    Defines used to adapt values of different oscillators
 106:../../dependencies/STM32CubeL0/Drivers/STM32L0xx_HAL_Driver/Inc/stm32l0xx_ll_rcc.h ****   * @note     These values could be modified in the user environment according to
 107:../../dependencies/STM32CubeL0/Drivers/STM32L0xx_HAL_Driver/Inc/stm32l0xx_ll_rcc.h ****   *           HW set-up.
 108:../../dependencies/STM32CubeL0/Drivers/STM32L0xx_HAL_Driver/Inc/stm32l0xx_ll_rcc.h ****   * @{
 109:../../dependencies/STM32CubeL0/Drivers/STM32L0xx_HAL_Driver/Inc/stm32l0xx_ll_rcc.h ****   */
 110:../../dependencies/STM32CubeL0/Drivers/STM32L0xx_HAL_Driver/Inc/stm32l0xx_ll_rcc.h **** #if !defined  (HSE_VALUE)
 111:../../dependencies/STM32CubeL0/Drivers/STM32L0xx_HAL_Driver/Inc/stm32l0xx_ll_rcc.h **** #define HSE_VALUE    (8000000U)  /*!< Value of the HSE oscillator in Hz */
 112:../../dependencies/STM32CubeL0/Drivers/STM32L0xx_HAL_Driver/Inc/stm32l0xx_ll_rcc.h **** #endif /* HSE_VALUE */
 113:../../dependencies/STM32CubeL0/Drivers/STM32L0xx_HAL_Driver/Inc/stm32l0xx_ll_rcc.h **** 
 114:../../dependencies/STM32CubeL0/Drivers/STM32L0xx_HAL_Driver/Inc/stm32l0xx_ll_rcc.h **** #if !defined  (HSI_VALUE)
 115:../../dependencies/STM32CubeL0/Drivers/STM32L0xx_HAL_Driver/Inc/stm32l0xx_ll_rcc.h **** #define HSI_VALUE    (16000000U) /*!< Value of the HSI oscillator in Hz */
 116:../../dependencies/STM32CubeL0/Drivers/STM32L0xx_HAL_Driver/Inc/stm32l0xx_ll_rcc.h **** #endif /* HSI_VALUE */
 117:../../dependencies/STM32CubeL0/Drivers/STM32L0xx_HAL_Driver/Inc/stm32l0xx_ll_rcc.h **** 
 118:../../dependencies/STM32CubeL0/Drivers/STM32L0xx_HAL_Driver/Inc/stm32l0xx_ll_rcc.h **** #if !defined  (LSE_VALUE)
 119:../../dependencies/STM32CubeL0/Drivers/STM32L0xx_HAL_Driver/Inc/stm32l0xx_ll_rcc.h **** #define LSE_VALUE    (32768U)    /*!< Value of the LSE oscillator in Hz */
 120:../../dependencies/STM32CubeL0/Drivers/STM32L0xx_HAL_Driver/Inc/stm32l0xx_ll_rcc.h **** #endif /* LSE_VALUE */
 121:../../dependencies/STM32CubeL0/Drivers/STM32L0xx_HAL_Driver/Inc/stm32l0xx_ll_rcc.h **** 
 122:../../dependencies/STM32CubeL0/Drivers/STM32L0xx_HAL_Driver/Inc/stm32l0xx_ll_rcc.h **** #if !defined  (LSI_VALUE)
 123:../../dependencies/STM32CubeL0/Drivers/STM32L0xx_HAL_Driver/Inc/stm32l0xx_ll_rcc.h **** #define LSI_VALUE    (37000U)    /*!< Value of the LSI oscillator in Hz */
 124:../../dependencies/STM32CubeL0/Drivers/STM32L0xx_HAL_Driver/Inc/stm32l0xx_ll_rcc.h **** #endif /* LSI_VALUE */
 125:../../dependencies/STM32CubeL0/Drivers/STM32L0xx_HAL_Driver/Inc/stm32l0xx_ll_rcc.h **** #if defined(RCC_HSI48_SUPPORT)
 126:../../dependencies/STM32CubeL0/Drivers/STM32L0xx_HAL_Driver/Inc/stm32l0xx_ll_rcc.h **** 
 127:../../dependencies/STM32CubeL0/Drivers/STM32L0xx_HAL_Driver/Inc/stm32l0xx_ll_rcc.h **** #if !defined  (HSI48_VALUE)
 128:../../dependencies/STM32CubeL0/Drivers/STM32L0xx_HAL_Driver/Inc/stm32l0xx_ll_rcc.h **** #define HSI48_VALUE  (48000000U) /*!< Value of the HSI48 oscillator in Hz */
 129:../../dependencies/STM32CubeL0/Drivers/STM32L0xx_HAL_Driver/Inc/stm32l0xx_ll_rcc.h **** #endif /* HSI48_VALUE */
 130:../../dependencies/STM32CubeL0/Drivers/STM32L0xx_HAL_Driver/Inc/stm32l0xx_ll_rcc.h **** #endif /* RCC_HSI48_SUPPORT */
 131:../../dependencies/STM32CubeL0/Drivers/STM32L0xx_HAL_Driver/Inc/stm32l0xx_ll_rcc.h **** /**
 132:../../dependencies/STM32CubeL0/Drivers/STM32L0xx_HAL_Driver/Inc/stm32l0xx_ll_rcc.h ****   * @}
 133:../../dependencies/STM32CubeL0/Drivers/STM32L0xx_HAL_Driver/Inc/stm32l0xx_ll_rcc.h ****   */
 134:../../dependencies/STM32CubeL0/Drivers/STM32L0xx_HAL_Driver/Inc/stm32l0xx_ll_rcc.h **** 
 135:../../dependencies/STM32CubeL0/Drivers/STM32L0xx_HAL_Driver/Inc/stm32l0xx_ll_rcc.h **** /** @defgroup RCC_LL_EC_CLEAR_FLAG Clear Flags Defines
 136:../../dependencies/STM32CubeL0/Drivers/STM32L0xx_HAL_Driver/Inc/stm32l0xx_ll_rcc.h ****   * @brief    Flags defines which can be used with LL_RCC_WriteReg function
 137:../../dependencies/STM32CubeL0/Drivers/STM32L0xx_HAL_Driver/Inc/stm32l0xx_ll_rcc.h ****   * @{
 138:../../dependencies/STM32CubeL0/Drivers/STM32L0xx_HAL_Driver/Inc/stm32l0xx_ll_rcc.h ****   */
 139:../../dependencies/STM32CubeL0/Drivers/STM32L0xx_HAL_Driver/Inc/stm32l0xx_ll_rcc.h **** #define LL_RCC_CICR_LSIRDYC                RCC_CICR_LSIRDYC     /*!< LSI Ready Interrupt Clear */
 140:../../dependencies/STM32CubeL0/Drivers/STM32L0xx_HAL_Driver/Inc/stm32l0xx_ll_rcc.h **** #define LL_RCC_CICR_LSERDYC                RCC_CICR_LSERDYC     /*!< LSE Ready Interrupt Clear */
 141:../../dependencies/STM32CubeL0/Drivers/STM32L0xx_HAL_Driver/Inc/stm32l0xx_ll_rcc.h **** #define LL_RCC_CICR_HSIRDYC                RCC_CICR_HSIRDYC     /*!< HSI Ready Interrupt Clear */
 142:../../dependencies/STM32CubeL0/Drivers/STM32L0xx_HAL_Driver/Inc/stm32l0xx_ll_rcc.h **** #define LL_RCC_CICR_HSERDYC                RCC_CICR_HSERDYC     /*!< HSE Ready Interrupt Clear */
 143:../../dependencies/STM32CubeL0/Drivers/STM32L0xx_HAL_Driver/Inc/stm32l0xx_ll_rcc.h **** #define LL_RCC_CICR_PLLRDYC                RCC_CICR_PLLRDYC     /*!< PLL Ready Interrupt Clear */
 144:../../dependencies/STM32CubeL0/Drivers/STM32L0xx_HAL_Driver/Inc/stm32l0xx_ll_rcc.h **** #define LL_RCC_CICR_MSIRDYC                RCC_CICR_MSIRDYC     /*!< MSI Ready Interrupt Clear */
 145:../../dependencies/STM32CubeL0/Drivers/STM32L0xx_HAL_Driver/Inc/stm32l0xx_ll_rcc.h **** #if defined(RCC_HSI48_SUPPORT)
 146:../../dependencies/STM32CubeL0/Drivers/STM32L0xx_HAL_Driver/Inc/stm32l0xx_ll_rcc.h **** #define LL_RCC_CICR_HSI48RDYC               RCC_CICR_HSI48RDYC  /*!< HSI48 Ready Interrupt Clear */
 147:../../dependencies/STM32CubeL0/Drivers/STM32L0xx_HAL_Driver/Inc/stm32l0xx_ll_rcc.h **** #endif /* RCC_HSI48_SUPPORT */
ARM GAS  /var/folders/fs/dxwfnrqj18z860lwl3d6f5t00000gn/T//ccl6Jv28.s 			page 4


 148:../../dependencies/STM32CubeL0/Drivers/STM32L0xx_HAL_Driver/Inc/stm32l0xx_ll_rcc.h **** #define LL_RCC_CICR_LSECSSC                RCC_CICR_LSECSSC     /*!< LSE Clock Security System Inte
 149:../../dependencies/STM32CubeL0/Drivers/STM32L0xx_HAL_Driver/Inc/stm32l0xx_ll_rcc.h **** #define LL_RCC_CICR_CSSC                   RCC_CICR_CSSC        /*!< Clock Security System Interrup
 150:../../dependencies/STM32CubeL0/Drivers/STM32L0xx_HAL_Driver/Inc/stm32l0xx_ll_rcc.h **** /**
 151:../../dependencies/STM32CubeL0/Drivers/STM32L0xx_HAL_Driver/Inc/stm32l0xx_ll_rcc.h ****   * @}
 152:../../dependencies/STM32CubeL0/Drivers/STM32L0xx_HAL_Driver/Inc/stm32l0xx_ll_rcc.h ****   */
 153:../../dependencies/STM32CubeL0/Drivers/STM32L0xx_HAL_Driver/Inc/stm32l0xx_ll_rcc.h **** 
 154:../../dependencies/STM32CubeL0/Drivers/STM32L0xx_HAL_Driver/Inc/stm32l0xx_ll_rcc.h **** /** @defgroup RCC_LL_EC_GET_FLAG Get Flags Defines
 155:../../dependencies/STM32CubeL0/Drivers/STM32L0xx_HAL_Driver/Inc/stm32l0xx_ll_rcc.h ****   * @brief    Flags defines which can be used with LL_RCC_ReadReg function
 156:../../dependencies/STM32CubeL0/Drivers/STM32L0xx_HAL_Driver/Inc/stm32l0xx_ll_rcc.h ****   * @{
 157:../../dependencies/STM32CubeL0/Drivers/STM32L0xx_HAL_Driver/Inc/stm32l0xx_ll_rcc.h ****   */
 158:../../dependencies/STM32CubeL0/Drivers/STM32L0xx_HAL_Driver/Inc/stm32l0xx_ll_rcc.h **** #define LL_RCC_CIFR_LSIRDYF                RCC_CIFR_LSIRDYF     /*!< LSI Ready Interrupt flag */
 159:../../dependencies/STM32CubeL0/Drivers/STM32L0xx_HAL_Driver/Inc/stm32l0xx_ll_rcc.h **** #define LL_RCC_CIFR_LSERDYF                RCC_CIFR_LSERDYF     /*!< LSE Ready Interrupt flag */
 160:../../dependencies/STM32CubeL0/Drivers/STM32L0xx_HAL_Driver/Inc/stm32l0xx_ll_rcc.h **** #define LL_RCC_CIFR_HSIRDYF                RCC_CIFR_HSIRDYF     /*!< HSI Ready Interrupt flag */
 161:../../dependencies/STM32CubeL0/Drivers/STM32L0xx_HAL_Driver/Inc/stm32l0xx_ll_rcc.h **** #define LL_RCC_CIFR_HSERDYF                RCC_CIFR_HSERDYF     /*!< HSE Ready Interrupt flag */
 162:../../dependencies/STM32CubeL0/Drivers/STM32L0xx_HAL_Driver/Inc/stm32l0xx_ll_rcc.h **** #define LL_RCC_CIFR_PLLRDYF                RCC_CIFR_PLLRDYF     /*!< PLL Ready Interrupt flag */
 163:../../dependencies/STM32CubeL0/Drivers/STM32L0xx_HAL_Driver/Inc/stm32l0xx_ll_rcc.h **** #define LL_RCC_CIFR_MSIRDYF                RCC_CIFR_MSIRDYF     /*!< MSI Ready Interrupt flag */
 164:../../dependencies/STM32CubeL0/Drivers/STM32L0xx_HAL_Driver/Inc/stm32l0xx_ll_rcc.h **** #if defined(RCC_HSI48_SUPPORT)
 165:../../dependencies/STM32CubeL0/Drivers/STM32L0xx_HAL_Driver/Inc/stm32l0xx_ll_rcc.h **** #define LL_RCC_CIFR_HSI48RDYF               RCC_CIFR_HSI48RDYF  /*!< HSI48 Ready Interrupt flag */
 166:../../dependencies/STM32CubeL0/Drivers/STM32L0xx_HAL_Driver/Inc/stm32l0xx_ll_rcc.h **** #endif /* RCC_HSI48_SUPPORT */
 167:../../dependencies/STM32CubeL0/Drivers/STM32L0xx_HAL_Driver/Inc/stm32l0xx_ll_rcc.h **** #define LL_RCC_CIFR_LSECSSF                RCC_CIFR_LSECSSF    /*!< LSE Clock Security System Inter
 168:../../dependencies/STM32CubeL0/Drivers/STM32L0xx_HAL_Driver/Inc/stm32l0xx_ll_rcc.h **** #define LL_RCC_CIFR_CSSF                   RCC_CIFR_CSSF       /*!< Clock Security System Interrupt
 169:../../dependencies/STM32CubeL0/Drivers/STM32L0xx_HAL_Driver/Inc/stm32l0xx_ll_rcc.h **** #define LL_RCC_CSR_FWRSTF                 RCC_CSR_FWRSTF          /*!< Firewall reset flag */
 170:../../dependencies/STM32CubeL0/Drivers/STM32L0xx_HAL_Driver/Inc/stm32l0xx_ll_rcc.h **** #define LL_RCC_CSR_OBLRSTF                RCC_CSR_OBLRSTF         /*!< OBL reset flag */
 171:../../dependencies/STM32CubeL0/Drivers/STM32L0xx_HAL_Driver/Inc/stm32l0xx_ll_rcc.h **** #define LL_RCC_CSR_PINRSTF                RCC_CSR_PINRSTF         /*!< PIN reset flag */
 172:../../dependencies/STM32CubeL0/Drivers/STM32L0xx_HAL_Driver/Inc/stm32l0xx_ll_rcc.h **** #define LL_RCC_CSR_PORRSTF                RCC_CSR_PORRSTF         /*!< POR/PDR reset flag */
 173:../../dependencies/STM32CubeL0/Drivers/STM32L0xx_HAL_Driver/Inc/stm32l0xx_ll_rcc.h **** #define LL_RCC_CSR_SFTRSTF                RCC_CSR_SFTRSTF         /*!< Software Reset flag */
 174:../../dependencies/STM32CubeL0/Drivers/STM32L0xx_HAL_Driver/Inc/stm32l0xx_ll_rcc.h **** #define LL_RCC_CSR_IWDGRSTF               RCC_CSR_IWDGRSTF        /*!< Independent Watchdog reset f
 175:../../dependencies/STM32CubeL0/Drivers/STM32L0xx_HAL_Driver/Inc/stm32l0xx_ll_rcc.h **** #define LL_RCC_CSR_WWDGRSTF               RCC_CSR_WWDGRSTF        /*!< Window watchdog reset flag *
 176:../../dependencies/STM32CubeL0/Drivers/STM32L0xx_HAL_Driver/Inc/stm32l0xx_ll_rcc.h **** #define LL_RCC_CSR_LPWRRSTF               RCC_CSR_LPWRRSTF        /*!< Low-Power reset flag */
 177:../../dependencies/STM32CubeL0/Drivers/STM32L0xx_HAL_Driver/Inc/stm32l0xx_ll_rcc.h **** /**
 178:../../dependencies/STM32CubeL0/Drivers/STM32L0xx_HAL_Driver/Inc/stm32l0xx_ll_rcc.h ****   * @}
 179:../../dependencies/STM32CubeL0/Drivers/STM32L0xx_HAL_Driver/Inc/stm32l0xx_ll_rcc.h ****   */
 180:../../dependencies/STM32CubeL0/Drivers/STM32L0xx_HAL_Driver/Inc/stm32l0xx_ll_rcc.h **** 
 181:../../dependencies/STM32CubeL0/Drivers/STM32L0xx_HAL_Driver/Inc/stm32l0xx_ll_rcc.h **** /** @defgroup RCC_LL_EC_IT IT Defines
 182:../../dependencies/STM32CubeL0/Drivers/STM32L0xx_HAL_Driver/Inc/stm32l0xx_ll_rcc.h ****   * @brief    IT defines which can be used with LL_RCC_ReadReg and  LL_RCC_WriteReg functions
 183:../../dependencies/STM32CubeL0/Drivers/STM32L0xx_HAL_Driver/Inc/stm32l0xx_ll_rcc.h ****   * @{
 184:../../dependencies/STM32CubeL0/Drivers/STM32L0xx_HAL_Driver/Inc/stm32l0xx_ll_rcc.h ****   */
 185:../../dependencies/STM32CubeL0/Drivers/STM32L0xx_HAL_Driver/Inc/stm32l0xx_ll_rcc.h **** #define LL_RCC_CIER_LSIRDYIE               RCC_CIER_LSIRDYIE      /*!< LSI Ready Interrupt Enable *
 186:../../dependencies/STM32CubeL0/Drivers/STM32L0xx_HAL_Driver/Inc/stm32l0xx_ll_rcc.h **** #define LL_RCC_CIER_LSERDYIE               RCC_CIER_LSERDYIE      /*!< LSE Ready Interrupt Enable *
 187:../../dependencies/STM32CubeL0/Drivers/STM32L0xx_HAL_Driver/Inc/stm32l0xx_ll_rcc.h **** #define LL_RCC_CIER_HSIRDYIE               RCC_CIER_HSIRDYIE      /*!< HSI Ready Interrupt Enable *
 188:../../dependencies/STM32CubeL0/Drivers/STM32L0xx_HAL_Driver/Inc/stm32l0xx_ll_rcc.h **** #define LL_RCC_CIER_HSERDYIE               RCC_CIER_HSERDYIE      /*!< HSE Ready Interrupt Enable *
 189:../../dependencies/STM32CubeL0/Drivers/STM32L0xx_HAL_Driver/Inc/stm32l0xx_ll_rcc.h **** #define LL_RCC_CIER_PLLRDYIE               RCC_CIER_PLLRDYIE      /*!< PLL Ready Interrupt Enable *
 190:../../dependencies/STM32CubeL0/Drivers/STM32L0xx_HAL_Driver/Inc/stm32l0xx_ll_rcc.h **** #define LL_RCC_CIER_MSIRDYIE               RCC_CIER_MSIRDYIE      /*!< MSI Ready Interrupt Enable *
 191:../../dependencies/STM32CubeL0/Drivers/STM32L0xx_HAL_Driver/Inc/stm32l0xx_ll_rcc.h **** #if defined(RCC_HSI48_SUPPORT)
 192:../../dependencies/STM32CubeL0/Drivers/STM32L0xx_HAL_Driver/Inc/stm32l0xx_ll_rcc.h **** #define LL_RCC_CIER_HSI48RDYIE              RCC_CIER_HSI48RDYIE   /*!< HSI48 Ready Interrupt Enable
 193:../../dependencies/STM32CubeL0/Drivers/STM32L0xx_HAL_Driver/Inc/stm32l0xx_ll_rcc.h **** #endif /* RCC_HSI48_SUPPORT */
 194:../../dependencies/STM32CubeL0/Drivers/STM32L0xx_HAL_Driver/Inc/stm32l0xx_ll_rcc.h **** #define LL_RCC_CIER_LSECSSIE               RCC_CIER_LSECSSIE      /*!< LSE CSS Interrupt Enable */
 195:../../dependencies/STM32CubeL0/Drivers/STM32L0xx_HAL_Driver/Inc/stm32l0xx_ll_rcc.h **** /**
 196:../../dependencies/STM32CubeL0/Drivers/STM32L0xx_HAL_Driver/Inc/stm32l0xx_ll_rcc.h ****   * @}
 197:../../dependencies/STM32CubeL0/Drivers/STM32L0xx_HAL_Driver/Inc/stm32l0xx_ll_rcc.h ****   */
 198:../../dependencies/STM32CubeL0/Drivers/STM32L0xx_HAL_Driver/Inc/stm32l0xx_ll_rcc.h **** 
 199:../../dependencies/STM32CubeL0/Drivers/STM32L0xx_HAL_Driver/Inc/stm32l0xx_ll_rcc.h **** /** @defgroup RCC_LL_EC_LSEDRIVE  LSE oscillator drive capability
 200:../../dependencies/STM32CubeL0/Drivers/STM32L0xx_HAL_Driver/Inc/stm32l0xx_ll_rcc.h ****   * @{
 201:../../dependencies/STM32CubeL0/Drivers/STM32L0xx_HAL_Driver/Inc/stm32l0xx_ll_rcc.h ****   */
 202:../../dependencies/STM32CubeL0/Drivers/STM32L0xx_HAL_Driver/Inc/stm32l0xx_ll_rcc.h **** #define LL_RCC_LSEDRIVE_LOW                (0x00000000U) /*!< Xtal mode lower driving capability */
 203:../../dependencies/STM32CubeL0/Drivers/STM32L0xx_HAL_Driver/Inc/stm32l0xx_ll_rcc.h **** #define LL_RCC_LSEDRIVE_MEDIUMLOW          RCC_CSR_LSEDRV_0 /*!< Xtal mode medium low driving capab
 204:../../dependencies/STM32CubeL0/Drivers/STM32L0xx_HAL_Driver/Inc/stm32l0xx_ll_rcc.h **** #define LL_RCC_LSEDRIVE_MEDIUMHIGH         RCC_CSR_LSEDRV_1 /*!< Xtal mode medium high driving capa
ARM GAS  /var/folders/fs/dxwfnrqj18z860lwl3d6f5t00000gn/T//ccl6Jv28.s 			page 5


 205:../../dependencies/STM32CubeL0/Drivers/STM32L0xx_HAL_Driver/Inc/stm32l0xx_ll_rcc.h **** #define LL_RCC_LSEDRIVE_HIGH               RCC_CSR_LSEDRV   /*!< Xtal mode higher driving capabilit
 206:../../dependencies/STM32CubeL0/Drivers/STM32L0xx_HAL_Driver/Inc/stm32l0xx_ll_rcc.h **** /**
 207:../../dependencies/STM32CubeL0/Drivers/STM32L0xx_HAL_Driver/Inc/stm32l0xx_ll_rcc.h ****   * @}
 208:../../dependencies/STM32CubeL0/Drivers/STM32L0xx_HAL_Driver/Inc/stm32l0xx_ll_rcc.h ****   */
 209:../../dependencies/STM32CubeL0/Drivers/STM32L0xx_HAL_Driver/Inc/stm32l0xx_ll_rcc.h **** 
 210:../../dependencies/STM32CubeL0/Drivers/STM32L0xx_HAL_Driver/Inc/stm32l0xx_ll_rcc.h **** /** @defgroup RCC_LL_EC_RTC_HSE_DIV RTC HSE Prescaler
 211:../../dependencies/STM32CubeL0/Drivers/STM32L0xx_HAL_Driver/Inc/stm32l0xx_ll_rcc.h ****   * @{
 212:../../dependencies/STM32CubeL0/Drivers/STM32L0xx_HAL_Driver/Inc/stm32l0xx_ll_rcc.h ****   */
 213:../../dependencies/STM32CubeL0/Drivers/STM32L0xx_HAL_Driver/Inc/stm32l0xx_ll_rcc.h **** #define LL_RCC_RTC_HSE_DIV_2               0x00000000U          /*!< HSE is divided by 2 for RTC cl
 214:../../dependencies/STM32CubeL0/Drivers/STM32L0xx_HAL_Driver/Inc/stm32l0xx_ll_rcc.h **** #define LL_RCC_RTC_HSE_DIV_4               RCC_CR_RTCPRE_0      /*!< HSE is divided by 4 for RTC cl
 215:../../dependencies/STM32CubeL0/Drivers/STM32L0xx_HAL_Driver/Inc/stm32l0xx_ll_rcc.h **** #define LL_RCC_RTC_HSE_DIV_8               RCC_CR_RTCPRE_1      /*!< HSE is divided by 8 for RTC cl
 216:../../dependencies/STM32CubeL0/Drivers/STM32L0xx_HAL_Driver/Inc/stm32l0xx_ll_rcc.h **** #define LL_RCC_RTC_HSE_DIV_16              RCC_CR_RTCPRE        /*!< HSE is divided by 16 for RTC c
 217:../../dependencies/STM32CubeL0/Drivers/STM32L0xx_HAL_Driver/Inc/stm32l0xx_ll_rcc.h **** /**
 218:../../dependencies/STM32CubeL0/Drivers/STM32L0xx_HAL_Driver/Inc/stm32l0xx_ll_rcc.h ****   * @}
 219:../../dependencies/STM32CubeL0/Drivers/STM32L0xx_HAL_Driver/Inc/stm32l0xx_ll_rcc.h ****   */
 220:../../dependencies/STM32CubeL0/Drivers/STM32L0xx_HAL_Driver/Inc/stm32l0xx_ll_rcc.h **** 
 221:../../dependencies/STM32CubeL0/Drivers/STM32L0xx_HAL_Driver/Inc/stm32l0xx_ll_rcc.h **** /** @defgroup RCC_LL_EC_MSIRANGE  MSI clock ranges
 222:../../dependencies/STM32CubeL0/Drivers/STM32L0xx_HAL_Driver/Inc/stm32l0xx_ll_rcc.h ****   * @{
 223:../../dependencies/STM32CubeL0/Drivers/STM32L0xx_HAL_Driver/Inc/stm32l0xx_ll_rcc.h ****   */
 224:../../dependencies/STM32CubeL0/Drivers/STM32L0xx_HAL_Driver/Inc/stm32l0xx_ll_rcc.h **** #define LL_RCC_MSIRANGE_0                  RCC_ICSCR_MSIRANGE_0  /*!< MSI = 65.536 KHz */
 225:../../dependencies/STM32CubeL0/Drivers/STM32L0xx_HAL_Driver/Inc/stm32l0xx_ll_rcc.h **** #define LL_RCC_MSIRANGE_1                  RCC_ICSCR_MSIRANGE_1  /*!< MSI = 131.072 KHz*/
 226:../../dependencies/STM32CubeL0/Drivers/STM32L0xx_HAL_Driver/Inc/stm32l0xx_ll_rcc.h **** #define LL_RCC_MSIRANGE_2                  RCC_ICSCR_MSIRANGE_2  /*!< MSI = 262.144 KHz */
 227:../../dependencies/STM32CubeL0/Drivers/STM32L0xx_HAL_Driver/Inc/stm32l0xx_ll_rcc.h **** #define LL_RCC_MSIRANGE_3                  RCC_ICSCR_MSIRANGE_3  /*!< MSI = 524.288 KHz */
 228:../../dependencies/STM32CubeL0/Drivers/STM32L0xx_HAL_Driver/Inc/stm32l0xx_ll_rcc.h **** #define LL_RCC_MSIRANGE_4                  RCC_ICSCR_MSIRANGE_4  /*!< MSI = 1.048 MHz */
 229:../../dependencies/STM32CubeL0/Drivers/STM32L0xx_HAL_Driver/Inc/stm32l0xx_ll_rcc.h **** #define LL_RCC_MSIRANGE_5                  RCC_ICSCR_MSIRANGE_5  /*!< MSI = 2.097 MHz */
 230:../../dependencies/STM32CubeL0/Drivers/STM32L0xx_HAL_Driver/Inc/stm32l0xx_ll_rcc.h **** #define LL_RCC_MSIRANGE_6                  RCC_ICSCR_MSIRANGE_6  /*!< MSI = 4.194 MHz */
 231:../../dependencies/STM32CubeL0/Drivers/STM32L0xx_HAL_Driver/Inc/stm32l0xx_ll_rcc.h **** /**
 232:../../dependencies/STM32CubeL0/Drivers/STM32L0xx_HAL_Driver/Inc/stm32l0xx_ll_rcc.h ****   * @}
 233:../../dependencies/STM32CubeL0/Drivers/STM32L0xx_HAL_Driver/Inc/stm32l0xx_ll_rcc.h ****   */
 234:../../dependencies/STM32CubeL0/Drivers/STM32L0xx_HAL_Driver/Inc/stm32l0xx_ll_rcc.h **** 
 235:../../dependencies/STM32CubeL0/Drivers/STM32L0xx_HAL_Driver/Inc/stm32l0xx_ll_rcc.h **** /** @defgroup RCC_LL_EC_SYS_CLKSOURCE  System clock switch
 236:../../dependencies/STM32CubeL0/Drivers/STM32L0xx_HAL_Driver/Inc/stm32l0xx_ll_rcc.h ****   * @{
 237:../../dependencies/STM32CubeL0/Drivers/STM32L0xx_HAL_Driver/Inc/stm32l0xx_ll_rcc.h ****   */
 238:../../dependencies/STM32CubeL0/Drivers/STM32L0xx_HAL_Driver/Inc/stm32l0xx_ll_rcc.h **** #define LL_RCC_SYS_CLKSOURCE_MSI           RCC_CFGR_SW_MSI    /*!< MSI selection as system clock */
 239:../../dependencies/STM32CubeL0/Drivers/STM32L0xx_HAL_Driver/Inc/stm32l0xx_ll_rcc.h **** #define LL_RCC_SYS_CLKSOURCE_HSI           RCC_CFGR_SW_HSI    /*!< HSI selection as system clock */
 240:../../dependencies/STM32CubeL0/Drivers/STM32L0xx_HAL_Driver/Inc/stm32l0xx_ll_rcc.h **** #define LL_RCC_SYS_CLKSOURCE_HSE           RCC_CFGR_SW_HSE    /*!< HSE selection as system clock */
 241:../../dependencies/STM32CubeL0/Drivers/STM32L0xx_HAL_Driver/Inc/stm32l0xx_ll_rcc.h **** #define LL_RCC_SYS_CLKSOURCE_PLL           RCC_CFGR_SW_PLL    /*!< PLL selection as system clock */
 242:../../dependencies/STM32CubeL0/Drivers/STM32L0xx_HAL_Driver/Inc/stm32l0xx_ll_rcc.h **** /**
 243:../../dependencies/STM32CubeL0/Drivers/STM32L0xx_HAL_Driver/Inc/stm32l0xx_ll_rcc.h ****   * @}
 244:../../dependencies/STM32CubeL0/Drivers/STM32L0xx_HAL_Driver/Inc/stm32l0xx_ll_rcc.h ****   */
 245:../../dependencies/STM32CubeL0/Drivers/STM32L0xx_HAL_Driver/Inc/stm32l0xx_ll_rcc.h **** 
 246:../../dependencies/STM32CubeL0/Drivers/STM32L0xx_HAL_Driver/Inc/stm32l0xx_ll_rcc.h **** /** @defgroup RCC_LL_EC_SYS_CLKSOURCE_STATUS  System clock switch status
 247:../../dependencies/STM32CubeL0/Drivers/STM32L0xx_HAL_Driver/Inc/stm32l0xx_ll_rcc.h ****   * @{
 248:../../dependencies/STM32CubeL0/Drivers/STM32L0xx_HAL_Driver/Inc/stm32l0xx_ll_rcc.h ****   */
 249:../../dependencies/STM32CubeL0/Drivers/STM32L0xx_HAL_Driver/Inc/stm32l0xx_ll_rcc.h **** #define LL_RCC_SYS_CLKSOURCE_STATUS_MSI    RCC_CFGR_SWS_MSI   /*!< MSI used as system clock */
 250:../../dependencies/STM32CubeL0/Drivers/STM32L0xx_HAL_Driver/Inc/stm32l0xx_ll_rcc.h **** #define LL_RCC_SYS_CLKSOURCE_STATUS_HSI    RCC_CFGR_SWS_HSI   /*!< HSI used as system clock */
 251:../../dependencies/STM32CubeL0/Drivers/STM32L0xx_HAL_Driver/Inc/stm32l0xx_ll_rcc.h **** #define LL_RCC_SYS_CLKSOURCE_STATUS_HSE    RCC_CFGR_SWS_HSE   /*!< HSE used as system clock */
 252:../../dependencies/STM32CubeL0/Drivers/STM32L0xx_HAL_Driver/Inc/stm32l0xx_ll_rcc.h **** #define LL_RCC_SYS_CLKSOURCE_STATUS_PLL    RCC_CFGR_SWS_PLL   /*!< PLL used as system clock */
 253:../../dependencies/STM32CubeL0/Drivers/STM32L0xx_HAL_Driver/Inc/stm32l0xx_ll_rcc.h **** /**
 254:../../dependencies/STM32CubeL0/Drivers/STM32L0xx_HAL_Driver/Inc/stm32l0xx_ll_rcc.h ****   * @}
 255:../../dependencies/STM32CubeL0/Drivers/STM32L0xx_HAL_Driver/Inc/stm32l0xx_ll_rcc.h ****   */
 256:../../dependencies/STM32CubeL0/Drivers/STM32L0xx_HAL_Driver/Inc/stm32l0xx_ll_rcc.h **** 
 257:../../dependencies/STM32CubeL0/Drivers/STM32L0xx_HAL_Driver/Inc/stm32l0xx_ll_rcc.h **** /** @defgroup RCC_LL_EC_SYSCLK_DIV  AHB prescaler
 258:../../dependencies/STM32CubeL0/Drivers/STM32L0xx_HAL_Driver/Inc/stm32l0xx_ll_rcc.h ****   * @{
 259:../../dependencies/STM32CubeL0/Drivers/STM32L0xx_HAL_Driver/Inc/stm32l0xx_ll_rcc.h ****   */
 260:../../dependencies/STM32CubeL0/Drivers/STM32L0xx_HAL_Driver/Inc/stm32l0xx_ll_rcc.h **** #define LL_RCC_SYSCLK_DIV_1                RCC_CFGR_HPRE_DIV1   /*!< SYSCLK not divided */
 261:../../dependencies/STM32CubeL0/Drivers/STM32L0xx_HAL_Driver/Inc/stm32l0xx_ll_rcc.h **** #define LL_RCC_SYSCLK_DIV_2                RCC_CFGR_HPRE_DIV2   /*!< SYSCLK divided by 2 */
ARM GAS  /var/folders/fs/dxwfnrqj18z860lwl3d6f5t00000gn/T//ccl6Jv28.s 			page 6


 262:../../dependencies/STM32CubeL0/Drivers/STM32L0xx_HAL_Driver/Inc/stm32l0xx_ll_rcc.h **** #define LL_RCC_SYSCLK_DIV_4                RCC_CFGR_HPRE_DIV4   /*!< SYSCLK divided by 4 */
 263:../../dependencies/STM32CubeL0/Drivers/STM32L0xx_HAL_Driver/Inc/stm32l0xx_ll_rcc.h **** #define LL_RCC_SYSCLK_DIV_8                RCC_CFGR_HPRE_DIV8   /*!< SYSCLK divided by 8 */
 264:../../dependencies/STM32CubeL0/Drivers/STM32L0xx_HAL_Driver/Inc/stm32l0xx_ll_rcc.h **** #define LL_RCC_SYSCLK_DIV_16               RCC_CFGR_HPRE_DIV16  /*!< SYSCLK divided by 16 */
 265:../../dependencies/STM32CubeL0/Drivers/STM32L0xx_HAL_Driver/Inc/stm32l0xx_ll_rcc.h **** #define LL_RCC_SYSCLK_DIV_64               RCC_CFGR_HPRE_DIV64  /*!< SYSCLK divided by 64 */
 266:../../dependencies/STM32CubeL0/Drivers/STM32L0xx_HAL_Driver/Inc/stm32l0xx_ll_rcc.h **** #define LL_RCC_SYSCLK_DIV_128              RCC_CFGR_HPRE_DIV128 /*!< SYSCLK divided by 128 */
 267:../../dependencies/STM32CubeL0/Drivers/STM32L0xx_HAL_Driver/Inc/stm32l0xx_ll_rcc.h **** #define LL_RCC_SYSCLK_DIV_256              RCC_CFGR_HPRE_DIV256 /*!< SYSCLK divided by 256 */
 268:../../dependencies/STM32CubeL0/Drivers/STM32L0xx_HAL_Driver/Inc/stm32l0xx_ll_rcc.h **** #define LL_RCC_SYSCLK_DIV_512              RCC_CFGR_HPRE_DIV512 /*!< SYSCLK divided by 512 */
 269:../../dependencies/STM32CubeL0/Drivers/STM32L0xx_HAL_Driver/Inc/stm32l0xx_ll_rcc.h **** /**
 270:../../dependencies/STM32CubeL0/Drivers/STM32L0xx_HAL_Driver/Inc/stm32l0xx_ll_rcc.h ****   * @}
 271:../../dependencies/STM32CubeL0/Drivers/STM32L0xx_HAL_Driver/Inc/stm32l0xx_ll_rcc.h ****   */
 272:../../dependencies/STM32CubeL0/Drivers/STM32L0xx_HAL_Driver/Inc/stm32l0xx_ll_rcc.h **** 
 273:../../dependencies/STM32CubeL0/Drivers/STM32L0xx_HAL_Driver/Inc/stm32l0xx_ll_rcc.h **** /** @defgroup RCC_LL_EC_APB1_DIV  APB low-speed prescaler (APB1)
 274:../../dependencies/STM32CubeL0/Drivers/STM32L0xx_HAL_Driver/Inc/stm32l0xx_ll_rcc.h ****   * @{
 275:../../dependencies/STM32CubeL0/Drivers/STM32L0xx_HAL_Driver/Inc/stm32l0xx_ll_rcc.h ****   */
 276:../../dependencies/STM32CubeL0/Drivers/STM32L0xx_HAL_Driver/Inc/stm32l0xx_ll_rcc.h **** #define LL_RCC_APB1_DIV_1                  RCC_CFGR_PPRE1_DIV1  /*!< HCLK not divided */
 277:../../dependencies/STM32CubeL0/Drivers/STM32L0xx_HAL_Driver/Inc/stm32l0xx_ll_rcc.h **** #define LL_RCC_APB1_DIV_2                  RCC_CFGR_PPRE1_DIV2  /*!< HCLK divided by 2 */
 278:../../dependencies/STM32CubeL0/Drivers/STM32L0xx_HAL_Driver/Inc/stm32l0xx_ll_rcc.h **** #define LL_RCC_APB1_DIV_4                  RCC_CFGR_PPRE1_DIV4  /*!< HCLK divided by 4 */
 279:../../dependencies/STM32CubeL0/Drivers/STM32L0xx_HAL_Driver/Inc/stm32l0xx_ll_rcc.h **** #define LL_RCC_APB1_DIV_8                  RCC_CFGR_PPRE1_DIV8  /*!< HCLK divided by 8 */
 280:../../dependencies/STM32CubeL0/Drivers/STM32L0xx_HAL_Driver/Inc/stm32l0xx_ll_rcc.h **** #define LL_RCC_APB1_DIV_16                 RCC_CFGR_PPRE1_DIV16 /*!< HCLK divided by 16 */
 281:../../dependencies/STM32CubeL0/Drivers/STM32L0xx_HAL_Driver/Inc/stm32l0xx_ll_rcc.h **** /**
 282:../../dependencies/STM32CubeL0/Drivers/STM32L0xx_HAL_Driver/Inc/stm32l0xx_ll_rcc.h ****   * @}
 283:../../dependencies/STM32CubeL0/Drivers/STM32L0xx_HAL_Driver/Inc/stm32l0xx_ll_rcc.h ****   */
 284:../../dependencies/STM32CubeL0/Drivers/STM32L0xx_HAL_Driver/Inc/stm32l0xx_ll_rcc.h **** 
 285:../../dependencies/STM32CubeL0/Drivers/STM32L0xx_HAL_Driver/Inc/stm32l0xx_ll_rcc.h **** /** @defgroup RCC_LL_EC_APB2_DIV  APB high-speed prescaler (APB2)
 286:../../dependencies/STM32CubeL0/Drivers/STM32L0xx_HAL_Driver/Inc/stm32l0xx_ll_rcc.h ****   * @{
 287:../../dependencies/STM32CubeL0/Drivers/STM32L0xx_HAL_Driver/Inc/stm32l0xx_ll_rcc.h ****   */
 288:../../dependencies/STM32CubeL0/Drivers/STM32L0xx_HAL_Driver/Inc/stm32l0xx_ll_rcc.h **** #define LL_RCC_APB2_DIV_1                  RCC_CFGR_PPRE2_DIV1  /*!< HCLK not divided */
 289:../../dependencies/STM32CubeL0/Drivers/STM32L0xx_HAL_Driver/Inc/stm32l0xx_ll_rcc.h **** #define LL_RCC_APB2_DIV_2                  RCC_CFGR_PPRE2_DIV2  /*!< HCLK divided by 2 */
 290:../../dependencies/STM32CubeL0/Drivers/STM32L0xx_HAL_Driver/Inc/stm32l0xx_ll_rcc.h **** #define LL_RCC_APB2_DIV_4                  RCC_CFGR_PPRE2_DIV4  /*!< HCLK divided by 4 */
 291:../../dependencies/STM32CubeL0/Drivers/STM32L0xx_HAL_Driver/Inc/stm32l0xx_ll_rcc.h **** #define LL_RCC_APB2_DIV_8                  RCC_CFGR_PPRE2_DIV8  /*!< HCLK divided by 8 */
 292:../../dependencies/STM32CubeL0/Drivers/STM32L0xx_HAL_Driver/Inc/stm32l0xx_ll_rcc.h **** #define LL_RCC_APB2_DIV_16                 RCC_CFGR_PPRE2_DIV16 /*!< HCLK divided by 16 */
 293:../../dependencies/STM32CubeL0/Drivers/STM32L0xx_HAL_Driver/Inc/stm32l0xx_ll_rcc.h **** /**
 294:../../dependencies/STM32CubeL0/Drivers/STM32L0xx_HAL_Driver/Inc/stm32l0xx_ll_rcc.h ****   * @}
 295:../../dependencies/STM32CubeL0/Drivers/STM32L0xx_HAL_Driver/Inc/stm32l0xx_ll_rcc.h ****   */
 296:../../dependencies/STM32CubeL0/Drivers/STM32L0xx_HAL_Driver/Inc/stm32l0xx_ll_rcc.h **** 
 297:../../dependencies/STM32CubeL0/Drivers/STM32L0xx_HAL_Driver/Inc/stm32l0xx_ll_rcc.h **** /** @defgroup RCC_LL_EC_STOP_WAKEUPCLOCK  Wakeup from Stop and CSS backup clock selection
 298:../../dependencies/STM32CubeL0/Drivers/STM32L0xx_HAL_Driver/Inc/stm32l0xx_ll_rcc.h ****   * @{
 299:../../dependencies/STM32CubeL0/Drivers/STM32L0xx_HAL_Driver/Inc/stm32l0xx_ll_rcc.h ****   */
 300:../../dependencies/STM32CubeL0/Drivers/STM32L0xx_HAL_Driver/Inc/stm32l0xx_ll_rcc.h **** #define LL_RCC_STOP_WAKEUPCLOCK_MSI        (0x00000000U) /*!< MSI selection after wake-up from STOP
 301:../../dependencies/STM32CubeL0/Drivers/STM32L0xx_HAL_Driver/Inc/stm32l0xx_ll_rcc.h **** #define LL_RCC_STOP_WAKEUPCLOCK_HSI        RCC_CFGR_STOPWUCK       /*!< HSI selection after wake-up
 302:../../dependencies/STM32CubeL0/Drivers/STM32L0xx_HAL_Driver/Inc/stm32l0xx_ll_rcc.h **** /**
 303:../../dependencies/STM32CubeL0/Drivers/STM32L0xx_HAL_Driver/Inc/stm32l0xx_ll_rcc.h ****   * @}
 304:../../dependencies/STM32CubeL0/Drivers/STM32L0xx_HAL_Driver/Inc/stm32l0xx_ll_rcc.h ****   */
 305:../../dependencies/STM32CubeL0/Drivers/STM32L0xx_HAL_Driver/Inc/stm32l0xx_ll_rcc.h **** 
 306:../../dependencies/STM32CubeL0/Drivers/STM32L0xx_HAL_Driver/Inc/stm32l0xx_ll_rcc.h **** /** @defgroup RCC_LL_EC_MCO1SOURCE  MCO1 SOURCE selection
 307:../../dependencies/STM32CubeL0/Drivers/STM32L0xx_HAL_Driver/Inc/stm32l0xx_ll_rcc.h ****   * @{
 308:../../dependencies/STM32CubeL0/Drivers/STM32L0xx_HAL_Driver/Inc/stm32l0xx_ll_rcc.h ****   */
 309:../../dependencies/STM32CubeL0/Drivers/STM32L0xx_HAL_Driver/Inc/stm32l0xx_ll_rcc.h **** #define LL_RCC_MCO1SOURCE_NOCLOCK          RCC_CFGR_MCOSEL_NOCLOCK      /*!< MCO output disabled, n
 310:../../dependencies/STM32CubeL0/Drivers/STM32L0xx_HAL_Driver/Inc/stm32l0xx_ll_rcc.h **** #define LL_RCC_MCO1SOURCE_SYSCLK           RCC_CFGR_MCOSEL_SYSCLK       /*!< SYSCLK selection as MC
 311:../../dependencies/STM32CubeL0/Drivers/STM32L0xx_HAL_Driver/Inc/stm32l0xx_ll_rcc.h **** #define LL_RCC_MCO1SOURCE_HSI              RCC_CFGR_MCOSEL_HSI          /*!< HSI selection as MCO s
 312:../../dependencies/STM32CubeL0/Drivers/STM32L0xx_HAL_Driver/Inc/stm32l0xx_ll_rcc.h **** #define LL_RCC_MCO1SOURCE_MSI              RCC_CFGR_MCOSEL_MSI          /*!< MSI selection as MCO s
 313:../../dependencies/STM32CubeL0/Drivers/STM32L0xx_HAL_Driver/Inc/stm32l0xx_ll_rcc.h **** #define LL_RCC_MCO1SOURCE_HSE              RCC_CFGR_MCOSEL_HSE          /*!< HSE selection as MCO s
 314:../../dependencies/STM32CubeL0/Drivers/STM32L0xx_HAL_Driver/Inc/stm32l0xx_ll_rcc.h **** #define LL_RCC_MCO1SOURCE_LSI              RCC_CFGR_MCOSEL_LSI          /*!< LSI selection as MCO s
 315:../../dependencies/STM32CubeL0/Drivers/STM32L0xx_HAL_Driver/Inc/stm32l0xx_ll_rcc.h **** #define LL_RCC_MCO1SOURCE_LSE              RCC_CFGR_MCOSEL_LSE          /*!< LSE selection as MCO s
 316:../../dependencies/STM32CubeL0/Drivers/STM32L0xx_HAL_Driver/Inc/stm32l0xx_ll_rcc.h **** #if defined(RCC_CFGR_MCOSEL_HSI48)
 317:../../dependencies/STM32CubeL0/Drivers/STM32L0xx_HAL_Driver/Inc/stm32l0xx_ll_rcc.h **** #define LL_RCC_MCO1SOURCE_HSI48            RCC_CFGR_MCOSEL_HSI48        /*!< HSI48 selection as MCO
 318:../../dependencies/STM32CubeL0/Drivers/STM32L0xx_HAL_Driver/Inc/stm32l0xx_ll_rcc.h **** #endif /* RCC_CFGR_MCOSEL_HSI48 */
ARM GAS  /var/folders/fs/dxwfnrqj18z860lwl3d6f5t00000gn/T//ccl6Jv28.s 			page 7


 319:../../dependencies/STM32CubeL0/Drivers/STM32L0xx_HAL_Driver/Inc/stm32l0xx_ll_rcc.h **** #define LL_RCC_MCO1SOURCE_PLLCLK           RCC_CFGR_MCOSEL_PLL          /*!< PLLCLK selection as MC
 320:../../dependencies/STM32CubeL0/Drivers/STM32L0xx_HAL_Driver/Inc/stm32l0xx_ll_rcc.h **** /**
 321:../../dependencies/STM32CubeL0/Drivers/STM32L0xx_HAL_Driver/Inc/stm32l0xx_ll_rcc.h ****   * @}
 322:../../dependencies/STM32CubeL0/Drivers/STM32L0xx_HAL_Driver/Inc/stm32l0xx_ll_rcc.h ****   */
 323:../../dependencies/STM32CubeL0/Drivers/STM32L0xx_HAL_Driver/Inc/stm32l0xx_ll_rcc.h **** 
 324:../../dependencies/STM32CubeL0/Drivers/STM32L0xx_HAL_Driver/Inc/stm32l0xx_ll_rcc.h **** /** @defgroup RCC_LL_EC_MCO1_DIV  MCO1 prescaler
 325:../../dependencies/STM32CubeL0/Drivers/STM32L0xx_HAL_Driver/Inc/stm32l0xx_ll_rcc.h ****   * @{
 326:../../dependencies/STM32CubeL0/Drivers/STM32L0xx_HAL_Driver/Inc/stm32l0xx_ll_rcc.h ****   */
 327:../../dependencies/STM32CubeL0/Drivers/STM32L0xx_HAL_Driver/Inc/stm32l0xx_ll_rcc.h **** #define LL_RCC_MCO1_DIV_1                  RCC_CFGR_MCOPRE_DIV1  /*!< MCO Clock divided by 1  */
 328:../../dependencies/STM32CubeL0/Drivers/STM32L0xx_HAL_Driver/Inc/stm32l0xx_ll_rcc.h **** #define LL_RCC_MCO1_DIV_2                  RCC_CFGR_MCOPRE_DIV2  /*!< MCO Clock divided by 2  */
 329:../../dependencies/STM32CubeL0/Drivers/STM32L0xx_HAL_Driver/Inc/stm32l0xx_ll_rcc.h **** #define LL_RCC_MCO1_DIV_4                  RCC_CFGR_MCOPRE_DIV4  /*!< MCO Clock divided by 4  */
 330:../../dependencies/STM32CubeL0/Drivers/STM32L0xx_HAL_Driver/Inc/stm32l0xx_ll_rcc.h **** #define LL_RCC_MCO1_DIV_8                  RCC_CFGR_MCOPRE_DIV8  /*!< MCO Clock divided by 8  */
 331:../../dependencies/STM32CubeL0/Drivers/STM32L0xx_HAL_Driver/Inc/stm32l0xx_ll_rcc.h **** #define LL_RCC_MCO1_DIV_16                 RCC_CFGR_MCOPRE_DIV16 /*!< MCO Clock divided by 16 */
 332:../../dependencies/STM32CubeL0/Drivers/STM32L0xx_HAL_Driver/Inc/stm32l0xx_ll_rcc.h **** /**
 333:../../dependencies/STM32CubeL0/Drivers/STM32L0xx_HAL_Driver/Inc/stm32l0xx_ll_rcc.h ****   * @}
 334:../../dependencies/STM32CubeL0/Drivers/STM32L0xx_HAL_Driver/Inc/stm32l0xx_ll_rcc.h ****   */
 335:../../dependencies/STM32CubeL0/Drivers/STM32L0xx_HAL_Driver/Inc/stm32l0xx_ll_rcc.h **** #if defined(USE_FULL_LL_DRIVER)
 336:../../dependencies/STM32CubeL0/Drivers/STM32L0xx_HAL_Driver/Inc/stm32l0xx_ll_rcc.h **** /** @defgroup RCC_LL_EC_PERIPH_FREQUENCY Peripheral clock frequency
 337:../../dependencies/STM32CubeL0/Drivers/STM32L0xx_HAL_Driver/Inc/stm32l0xx_ll_rcc.h ****   * @{
 338:../../dependencies/STM32CubeL0/Drivers/STM32L0xx_HAL_Driver/Inc/stm32l0xx_ll_rcc.h ****   */
 339:../../dependencies/STM32CubeL0/Drivers/STM32L0xx_HAL_Driver/Inc/stm32l0xx_ll_rcc.h **** #define LL_RCC_PERIPH_FREQUENCY_NO         0x00000000U      /*!< No clock enabled for the periphera
 340:../../dependencies/STM32CubeL0/Drivers/STM32L0xx_HAL_Driver/Inc/stm32l0xx_ll_rcc.h **** #define LL_RCC_PERIPH_FREQUENCY_NA         0xFFFFFFFFU      /*!< Frequency cannot be provided as ex
 341:../../dependencies/STM32CubeL0/Drivers/STM32L0xx_HAL_Driver/Inc/stm32l0xx_ll_rcc.h **** /**
 342:../../dependencies/STM32CubeL0/Drivers/STM32L0xx_HAL_Driver/Inc/stm32l0xx_ll_rcc.h ****   * @}
 343:../../dependencies/STM32CubeL0/Drivers/STM32L0xx_HAL_Driver/Inc/stm32l0xx_ll_rcc.h ****   */
 344:../../dependencies/STM32CubeL0/Drivers/STM32L0xx_HAL_Driver/Inc/stm32l0xx_ll_rcc.h **** #endif /* USE_FULL_LL_DRIVER */
 345:../../dependencies/STM32CubeL0/Drivers/STM32L0xx_HAL_Driver/Inc/stm32l0xx_ll_rcc.h **** 
 346:../../dependencies/STM32CubeL0/Drivers/STM32L0xx_HAL_Driver/Inc/stm32l0xx_ll_rcc.h **** /** @defgroup RCC_LL_EC_USART1_CLKSOURCE  Peripheral USART clock source selection
 347:../../dependencies/STM32CubeL0/Drivers/STM32L0xx_HAL_Driver/Inc/stm32l0xx_ll_rcc.h ****   * @{
 348:../../dependencies/STM32CubeL0/Drivers/STM32L0xx_HAL_Driver/Inc/stm32l0xx_ll_rcc.h ****   */
 349:../../dependencies/STM32CubeL0/Drivers/STM32L0xx_HAL_Driver/Inc/stm32l0xx_ll_rcc.h **** #if defined(RCC_CCIPR_USART1SEL)
 350:../../dependencies/STM32CubeL0/Drivers/STM32L0xx_HAL_Driver/Inc/stm32l0xx_ll_rcc.h **** #define LL_RCC_USART1_CLKSOURCE_PCLK2      (uint32_t)((RCC_CCIPR_USART1SEL << 16U) | 0x00000000U)  
 351:../../dependencies/STM32CubeL0/Drivers/STM32L0xx_HAL_Driver/Inc/stm32l0xx_ll_rcc.h **** #define LL_RCC_USART1_CLKSOURCE_SYSCLK     (uint32_t)((RCC_CCIPR_USART1SEL << 16U) | RCC_CCIPR_USAR
 352:../../dependencies/STM32CubeL0/Drivers/STM32L0xx_HAL_Driver/Inc/stm32l0xx_ll_rcc.h **** #define LL_RCC_USART1_CLKSOURCE_HSI        (uint32_t)((RCC_CCIPR_USART1SEL << 16U) | RCC_CCIPR_USAR
 353:../../dependencies/STM32CubeL0/Drivers/STM32L0xx_HAL_Driver/Inc/stm32l0xx_ll_rcc.h **** #define LL_RCC_USART1_CLKSOURCE_LSE        (uint32_t)((RCC_CCIPR_USART1SEL << 16U) | RCC_CCIPR_USAR
 354:../../dependencies/STM32CubeL0/Drivers/STM32L0xx_HAL_Driver/Inc/stm32l0xx_ll_rcc.h **** #endif /* RCC_CCIPR_USART1SEL */
 355:../../dependencies/STM32CubeL0/Drivers/STM32L0xx_HAL_Driver/Inc/stm32l0xx_ll_rcc.h **** #define LL_RCC_USART2_CLKSOURCE_PCLK1      (uint32_t)((RCC_CCIPR_USART2SEL << 16U) | 0x00000000U)  
 356:../../dependencies/STM32CubeL0/Drivers/STM32L0xx_HAL_Driver/Inc/stm32l0xx_ll_rcc.h **** #define LL_RCC_USART2_CLKSOURCE_SYSCLK     (uint32_t)((RCC_CCIPR_USART2SEL << 16U) | RCC_CCIPR_USAR
 357:../../dependencies/STM32CubeL0/Drivers/STM32L0xx_HAL_Driver/Inc/stm32l0xx_ll_rcc.h **** #define LL_RCC_USART2_CLKSOURCE_HSI        (uint32_t)((RCC_CCIPR_USART2SEL << 16U) | RCC_CCIPR_USAR
 358:../../dependencies/STM32CubeL0/Drivers/STM32L0xx_HAL_Driver/Inc/stm32l0xx_ll_rcc.h **** #define LL_RCC_USART2_CLKSOURCE_LSE        (uint32_t)((RCC_CCIPR_USART2SEL << 16U) | RCC_CCIPR_USAR
 359:../../dependencies/STM32CubeL0/Drivers/STM32L0xx_HAL_Driver/Inc/stm32l0xx_ll_rcc.h **** /**
 360:../../dependencies/STM32CubeL0/Drivers/STM32L0xx_HAL_Driver/Inc/stm32l0xx_ll_rcc.h ****   * @}
 361:../../dependencies/STM32CubeL0/Drivers/STM32L0xx_HAL_Driver/Inc/stm32l0xx_ll_rcc.h ****   */
 362:../../dependencies/STM32CubeL0/Drivers/STM32L0xx_HAL_Driver/Inc/stm32l0xx_ll_rcc.h **** 
 363:../../dependencies/STM32CubeL0/Drivers/STM32L0xx_HAL_Driver/Inc/stm32l0xx_ll_rcc.h **** 
 364:../../dependencies/STM32CubeL0/Drivers/STM32L0xx_HAL_Driver/Inc/stm32l0xx_ll_rcc.h **** 
 365:../../dependencies/STM32CubeL0/Drivers/STM32L0xx_HAL_Driver/Inc/stm32l0xx_ll_rcc.h **** /** @defgroup RCC_LL_EC_LPUART1_CLKSOURCE  Peripheral LPUART clock source selection
 366:../../dependencies/STM32CubeL0/Drivers/STM32L0xx_HAL_Driver/Inc/stm32l0xx_ll_rcc.h ****   * @{
 367:../../dependencies/STM32CubeL0/Drivers/STM32L0xx_HAL_Driver/Inc/stm32l0xx_ll_rcc.h ****   */
 368:../../dependencies/STM32CubeL0/Drivers/STM32L0xx_HAL_Driver/Inc/stm32l0xx_ll_rcc.h **** #define LL_RCC_LPUART1_CLKSOURCE_PCLK1     0x00000000U   /*!< PCLK1 selected as LPUART1 clock */
 369:../../dependencies/STM32CubeL0/Drivers/STM32L0xx_HAL_Driver/Inc/stm32l0xx_ll_rcc.h **** #define LL_RCC_LPUART1_CLKSOURCE_SYSCLK    RCC_CCIPR_LPUART1SEL_0  /*!< SYSCLK selected as LPUART1 
 370:../../dependencies/STM32CubeL0/Drivers/STM32L0xx_HAL_Driver/Inc/stm32l0xx_ll_rcc.h **** #define LL_RCC_LPUART1_CLKSOURCE_HSI       RCC_CCIPR_LPUART1SEL_1  /*!< HSI selected as LPUART1 clo
 371:../../dependencies/STM32CubeL0/Drivers/STM32L0xx_HAL_Driver/Inc/stm32l0xx_ll_rcc.h **** #define LL_RCC_LPUART1_CLKSOURCE_LSE       RCC_CCIPR_LPUART1SEL    /*!< LSE selected as LPUART1 clo
 372:../../dependencies/STM32CubeL0/Drivers/STM32L0xx_HAL_Driver/Inc/stm32l0xx_ll_rcc.h **** /**
 373:../../dependencies/STM32CubeL0/Drivers/STM32L0xx_HAL_Driver/Inc/stm32l0xx_ll_rcc.h ****   * @}
 374:../../dependencies/STM32CubeL0/Drivers/STM32L0xx_HAL_Driver/Inc/stm32l0xx_ll_rcc.h ****   */
 375:../../dependencies/STM32CubeL0/Drivers/STM32L0xx_HAL_Driver/Inc/stm32l0xx_ll_rcc.h **** 
ARM GAS  /var/folders/fs/dxwfnrqj18z860lwl3d6f5t00000gn/T//ccl6Jv28.s 			page 8


 376:../../dependencies/STM32CubeL0/Drivers/STM32L0xx_HAL_Driver/Inc/stm32l0xx_ll_rcc.h **** /** @defgroup RCC_LL_EC_I2C1_CLKSOURCE  Peripheral I2C clock source selection
 377:../../dependencies/STM32CubeL0/Drivers/STM32L0xx_HAL_Driver/Inc/stm32l0xx_ll_rcc.h ****   * @{
 378:../../dependencies/STM32CubeL0/Drivers/STM32L0xx_HAL_Driver/Inc/stm32l0xx_ll_rcc.h ****   */
 379:../../dependencies/STM32CubeL0/Drivers/STM32L0xx_HAL_Driver/Inc/stm32l0xx_ll_rcc.h **** #define LL_RCC_I2C1_CLKSOURCE_PCLK1        (uint32_t)((RCC_CCIPR_I2C1SEL << 4U) | (0x00000000U >> 4
 380:../../dependencies/STM32CubeL0/Drivers/STM32L0xx_HAL_Driver/Inc/stm32l0xx_ll_rcc.h **** #define LL_RCC_I2C1_CLKSOURCE_SYSCLK       (uint32_t)((RCC_CCIPR_I2C1SEL << 4U) | (RCC_CCIPR_I2C1SE
 381:../../dependencies/STM32CubeL0/Drivers/STM32L0xx_HAL_Driver/Inc/stm32l0xx_ll_rcc.h **** #define LL_RCC_I2C1_CLKSOURCE_HSI          (uint32_t)((RCC_CCIPR_I2C1SEL << 4U) | (RCC_CCIPR_I2C1SE
 382:../../dependencies/STM32CubeL0/Drivers/STM32L0xx_HAL_Driver/Inc/stm32l0xx_ll_rcc.h **** #if defined(RCC_CCIPR_I2C3SEL)
 383:../../dependencies/STM32CubeL0/Drivers/STM32L0xx_HAL_Driver/Inc/stm32l0xx_ll_rcc.h **** #define LL_RCC_I2C3_CLKSOURCE_PCLK1        (uint32_t)((RCC_CCIPR_I2C3SEL << 4U) | (0x00000000U >> 4
 384:../../dependencies/STM32CubeL0/Drivers/STM32L0xx_HAL_Driver/Inc/stm32l0xx_ll_rcc.h **** #define LL_RCC_I2C3_CLKSOURCE_SYSCLK       (uint32_t)((RCC_CCIPR_I2C3SEL << 4U) | (RCC_CCIPR_I2C3SE
 385:../../dependencies/STM32CubeL0/Drivers/STM32L0xx_HAL_Driver/Inc/stm32l0xx_ll_rcc.h **** #define LL_RCC_I2C3_CLKSOURCE_HSI          (uint32_t)((RCC_CCIPR_I2C3SEL << 4U) | (RCC_CCIPR_I2C3SE
 386:../../dependencies/STM32CubeL0/Drivers/STM32L0xx_HAL_Driver/Inc/stm32l0xx_ll_rcc.h **** #endif /*RCC_CCIPR_I2C3SEL*/
 387:../../dependencies/STM32CubeL0/Drivers/STM32L0xx_HAL_Driver/Inc/stm32l0xx_ll_rcc.h **** /**
 388:../../dependencies/STM32CubeL0/Drivers/STM32L0xx_HAL_Driver/Inc/stm32l0xx_ll_rcc.h ****   * @}
 389:../../dependencies/STM32CubeL0/Drivers/STM32L0xx_HAL_Driver/Inc/stm32l0xx_ll_rcc.h ****   */
 390:../../dependencies/STM32CubeL0/Drivers/STM32L0xx_HAL_Driver/Inc/stm32l0xx_ll_rcc.h **** 
 391:../../dependencies/STM32CubeL0/Drivers/STM32L0xx_HAL_Driver/Inc/stm32l0xx_ll_rcc.h **** /** @defgroup RCC_LL_EC_LPTIM1_CLKSOURCE  Peripheral LPTIM clock source selection
 392:../../dependencies/STM32CubeL0/Drivers/STM32L0xx_HAL_Driver/Inc/stm32l0xx_ll_rcc.h ****   * @{
 393:../../dependencies/STM32CubeL0/Drivers/STM32L0xx_HAL_Driver/Inc/stm32l0xx_ll_rcc.h ****   */
 394:../../dependencies/STM32CubeL0/Drivers/STM32L0xx_HAL_Driver/Inc/stm32l0xx_ll_rcc.h **** #define LL_RCC_LPTIM1_CLKSOURCE_PCLK1      (0x00000000U)          /*!< PCLK1 selected as LPTIM1 clo
 395:../../dependencies/STM32CubeL0/Drivers/STM32L0xx_HAL_Driver/Inc/stm32l0xx_ll_rcc.h **** #define LL_RCC_LPTIM1_CLKSOURCE_LSI        RCC_CCIPR_LPTIM1SEL_0  /*!< LSI selected as LPTIM1 clock
 396:../../dependencies/STM32CubeL0/Drivers/STM32L0xx_HAL_Driver/Inc/stm32l0xx_ll_rcc.h **** #define LL_RCC_LPTIM1_CLKSOURCE_HSI        RCC_CCIPR_LPTIM1SEL_1  /*!< HSI selected as LPTIM1 clock
 397:../../dependencies/STM32CubeL0/Drivers/STM32L0xx_HAL_Driver/Inc/stm32l0xx_ll_rcc.h **** #define LL_RCC_LPTIM1_CLKSOURCE_LSE        RCC_CCIPR_LPTIM1SEL    /*!< LSE selected as LPTIM1 clock
 398:../../dependencies/STM32CubeL0/Drivers/STM32L0xx_HAL_Driver/Inc/stm32l0xx_ll_rcc.h **** /**
 399:../../dependencies/STM32CubeL0/Drivers/STM32L0xx_HAL_Driver/Inc/stm32l0xx_ll_rcc.h ****   * @}
 400:../../dependencies/STM32CubeL0/Drivers/STM32L0xx_HAL_Driver/Inc/stm32l0xx_ll_rcc.h ****   */
 401:../../dependencies/STM32CubeL0/Drivers/STM32L0xx_HAL_Driver/Inc/stm32l0xx_ll_rcc.h **** 
 402:../../dependencies/STM32CubeL0/Drivers/STM32L0xx_HAL_Driver/Inc/stm32l0xx_ll_rcc.h **** #if defined(RCC_CCIPR_HSI48SEL)
 403:../../dependencies/STM32CubeL0/Drivers/STM32L0xx_HAL_Driver/Inc/stm32l0xx_ll_rcc.h **** 
 404:../../dependencies/STM32CubeL0/Drivers/STM32L0xx_HAL_Driver/Inc/stm32l0xx_ll_rcc.h **** #if defined(RNG)
 405:../../dependencies/STM32CubeL0/Drivers/STM32L0xx_HAL_Driver/Inc/stm32l0xx_ll_rcc.h **** /** @defgroup RCC_LL_EC_RNG_CLKSOURCE  Peripheral RNG clock source selection
 406:../../dependencies/STM32CubeL0/Drivers/STM32L0xx_HAL_Driver/Inc/stm32l0xx_ll_rcc.h ****   * @{
 407:../../dependencies/STM32CubeL0/Drivers/STM32L0xx_HAL_Driver/Inc/stm32l0xx_ll_rcc.h ****   */
 408:../../dependencies/STM32CubeL0/Drivers/STM32L0xx_HAL_Driver/Inc/stm32l0xx_ll_rcc.h **** #define LL_RCC_RNG_CLKSOURCE_PLL           (0x00000000U)          /*!< PLL selected as RNG clock */
 409:../../dependencies/STM32CubeL0/Drivers/STM32L0xx_HAL_Driver/Inc/stm32l0xx_ll_rcc.h **** #define LL_RCC_RNG_CLKSOURCE_HSI48         RCC_CCIPR_HSI48SEL   /*!< HSI48 selected as RNG clock*/
 410:../../dependencies/STM32CubeL0/Drivers/STM32L0xx_HAL_Driver/Inc/stm32l0xx_ll_rcc.h **** /**
 411:../../dependencies/STM32CubeL0/Drivers/STM32L0xx_HAL_Driver/Inc/stm32l0xx_ll_rcc.h ****   * @}
 412:../../dependencies/STM32CubeL0/Drivers/STM32L0xx_HAL_Driver/Inc/stm32l0xx_ll_rcc.h ****   */
 413:../../dependencies/STM32CubeL0/Drivers/STM32L0xx_HAL_Driver/Inc/stm32l0xx_ll_rcc.h **** #endif /* RNG */
 414:../../dependencies/STM32CubeL0/Drivers/STM32L0xx_HAL_Driver/Inc/stm32l0xx_ll_rcc.h **** #if defined(USB)
 415:../../dependencies/STM32CubeL0/Drivers/STM32L0xx_HAL_Driver/Inc/stm32l0xx_ll_rcc.h **** /** @defgroup RCC_LL_EC_USB_CLKSOURCE  Peripheral USB clock source selection
 416:../../dependencies/STM32CubeL0/Drivers/STM32L0xx_HAL_Driver/Inc/stm32l0xx_ll_rcc.h ****   * @{
 417:../../dependencies/STM32CubeL0/Drivers/STM32L0xx_HAL_Driver/Inc/stm32l0xx_ll_rcc.h ****   */
 418:../../dependencies/STM32CubeL0/Drivers/STM32L0xx_HAL_Driver/Inc/stm32l0xx_ll_rcc.h **** #define LL_RCC_USB_CLKSOURCE_PLL           (0x00000000U)          /*!< PLL selected as USB clock */
 419:../../dependencies/STM32CubeL0/Drivers/STM32L0xx_HAL_Driver/Inc/stm32l0xx_ll_rcc.h **** #define LL_RCC_USB_CLKSOURCE_HSI48         RCC_CCIPR_HSI48SEL   /*!< HSI48 selected as USB clock*/
 420:../../dependencies/STM32CubeL0/Drivers/STM32L0xx_HAL_Driver/Inc/stm32l0xx_ll_rcc.h **** /**
 421:../../dependencies/STM32CubeL0/Drivers/STM32L0xx_HAL_Driver/Inc/stm32l0xx_ll_rcc.h ****   * @}
 422:../../dependencies/STM32CubeL0/Drivers/STM32L0xx_HAL_Driver/Inc/stm32l0xx_ll_rcc.h ****   */
 423:../../dependencies/STM32CubeL0/Drivers/STM32L0xx_HAL_Driver/Inc/stm32l0xx_ll_rcc.h **** 
 424:../../dependencies/STM32CubeL0/Drivers/STM32L0xx_HAL_Driver/Inc/stm32l0xx_ll_rcc.h **** #endif /* USB */
 425:../../dependencies/STM32CubeL0/Drivers/STM32L0xx_HAL_Driver/Inc/stm32l0xx_ll_rcc.h **** #endif /* RCC_CCIPR_HSI48SEL */
 426:../../dependencies/STM32CubeL0/Drivers/STM32L0xx_HAL_Driver/Inc/stm32l0xx_ll_rcc.h **** 
 427:../../dependencies/STM32CubeL0/Drivers/STM32L0xx_HAL_Driver/Inc/stm32l0xx_ll_rcc.h **** 
 428:../../dependencies/STM32CubeL0/Drivers/STM32L0xx_HAL_Driver/Inc/stm32l0xx_ll_rcc.h **** /** @defgroup RCC_LL_EC_USART1 Peripheral USART get clock source
 429:../../dependencies/STM32CubeL0/Drivers/STM32L0xx_HAL_Driver/Inc/stm32l0xx_ll_rcc.h ****   * @{
 430:../../dependencies/STM32CubeL0/Drivers/STM32L0xx_HAL_Driver/Inc/stm32l0xx_ll_rcc.h ****   */
 431:../../dependencies/STM32CubeL0/Drivers/STM32L0xx_HAL_Driver/Inc/stm32l0xx_ll_rcc.h **** #if defined(RCC_CCIPR_USART1SEL)
 432:../../dependencies/STM32CubeL0/Drivers/STM32L0xx_HAL_Driver/Inc/stm32l0xx_ll_rcc.h **** #define LL_RCC_USART1_CLKSOURCE            RCC_CCIPR_USART1SEL    /*!< USART1 clock source selectio
ARM GAS  /var/folders/fs/dxwfnrqj18z860lwl3d6f5t00000gn/T//ccl6Jv28.s 			page 9


 433:../../dependencies/STM32CubeL0/Drivers/STM32L0xx_HAL_Driver/Inc/stm32l0xx_ll_rcc.h **** #endif /* RCC_CCIPR_USART1SEL */
 434:../../dependencies/STM32CubeL0/Drivers/STM32L0xx_HAL_Driver/Inc/stm32l0xx_ll_rcc.h **** #define LL_RCC_USART2_CLKSOURCE            RCC_CCIPR_USART2SEL    /*!< USART2 clock source selectio
 435:../../dependencies/STM32CubeL0/Drivers/STM32L0xx_HAL_Driver/Inc/stm32l0xx_ll_rcc.h **** /**
 436:../../dependencies/STM32CubeL0/Drivers/STM32L0xx_HAL_Driver/Inc/stm32l0xx_ll_rcc.h ****   * @}
 437:../../dependencies/STM32CubeL0/Drivers/STM32L0xx_HAL_Driver/Inc/stm32l0xx_ll_rcc.h ****   */
 438:../../dependencies/STM32CubeL0/Drivers/STM32L0xx_HAL_Driver/Inc/stm32l0xx_ll_rcc.h **** 
 439:../../dependencies/STM32CubeL0/Drivers/STM32L0xx_HAL_Driver/Inc/stm32l0xx_ll_rcc.h **** 
 440:../../dependencies/STM32CubeL0/Drivers/STM32L0xx_HAL_Driver/Inc/stm32l0xx_ll_rcc.h **** /** @defgroup RCC_LL_EC_LPUART1 Peripheral LPUART get clock source
 441:../../dependencies/STM32CubeL0/Drivers/STM32L0xx_HAL_Driver/Inc/stm32l0xx_ll_rcc.h ****   * @{
 442:../../dependencies/STM32CubeL0/Drivers/STM32L0xx_HAL_Driver/Inc/stm32l0xx_ll_rcc.h ****   */
 443:../../dependencies/STM32CubeL0/Drivers/STM32L0xx_HAL_Driver/Inc/stm32l0xx_ll_rcc.h **** #define LL_RCC_LPUART1_CLKSOURCE           RCC_CCIPR_LPUART1SEL   /*!< LPUART1 clock source selecti
 444:../../dependencies/STM32CubeL0/Drivers/STM32L0xx_HAL_Driver/Inc/stm32l0xx_ll_rcc.h **** /**
 445:../../dependencies/STM32CubeL0/Drivers/STM32L0xx_HAL_Driver/Inc/stm32l0xx_ll_rcc.h ****   * @}
 446:../../dependencies/STM32CubeL0/Drivers/STM32L0xx_HAL_Driver/Inc/stm32l0xx_ll_rcc.h ****   */
 447:../../dependencies/STM32CubeL0/Drivers/STM32L0xx_HAL_Driver/Inc/stm32l0xx_ll_rcc.h **** 
 448:../../dependencies/STM32CubeL0/Drivers/STM32L0xx_HAL_Driver/Inc/stm32l0xx_ll_rcc.h **** /** @defgroup RCC_LL_EC_I2C1 Peripheral I2C get clock source
 449:../../dependencies/STM32CubeL0/Drivers/STM32L0xx_HAL_Driver/Inc/stm32l0xx_ll_rcc.h ****   * @{
 450:../../dependencies/STM32CubeL0/Drivers/STM32L0xx_HAL_Driver/Inc/stm32l0xx_ll_rcc.h ****   */
 451:../../dependencies/STM32CubeL0/Drivers/STM32L0xx_HAL_Driver/Inc/stm32l0xx_ll_rcc.h **** #define LL_RCC_I2C1_CLKSOURCE              RCC_CCIPR_I2C1SEL   /*!< I2C1 clock source selection bit
 452:../../dependencies/STM32CubeL0/Drivers/STM32L0xx_HAL_Driver/Inc/stm32l0xx_ll_rcc.h **** #if defined(RCC_CCIPR_I2C3SEL)
 453:../../dependencies/STM32CubeL0/Drivers/STM32L0xx_HAL_Driver/Inc/stm32l0xx_ll_rcc.h **** #define LL_RCC_I2C3_CLKSOURCE              RCC_CCIPR_I2C3SEL   /*!< I2C3 clock source selection bit
 454:../../dependencies/STM32CubeL0/Drivers/STM32L0xx_HAL_Driver/Inc/stm32l0xx_ll_rcc.h **** #endif /*RCC_CCIPR_I2C3SEL*/
 455:../../dependencies/STM32CubeL0/Drivers/STM32L0xx_HAL_Driver/Inc/stm32l0xx_ll_rcc.h **** /**
 456:../../dependencies/STM32CubeL0/Drivers/STM32L0xx_HAL_Driver/Inc/stm32l0xx_ll_rcc.h ****   * @}
 457:../../dependencies/STM32CubeL0/Drivers/STM32L0xx_HAL_Driver/Inc/stm32l0xx_ll_rcc.h ****   */
 458:../../dependencies/STM32CubeL0/Drivers/STM32L0xx_HAL_Driver/Inc/stm32l0xx_ll_rcc.h **** 
 459:../../dependencies/STM32CubeL0/Drivers/STM32L0xx_HAL_Driver/Inc/stm32l0xx_ll_rcc.h **** /** @defgroup RCC_LL_EC_LPTIM1 Peripheral LPTIM get clock source
 460:../../dependencies/STM32CubeL0/Drivers/STM32L0xx_HAL_Driver/Inc/stm32l0xx_ll_rcc.h ****   * @{
 461:../../dependencies/STM32CubeL0/Drivers/STM32L0xx_HAL_Driver/Inc/stm32l0xx_ll_rcc.h ****   */
 462:../../dependencies/STM32CubeL0/Drivers/STM32L0xx_HAL_Driver/Inc/stm32l0xx_ll_rcc.h **** #define LL_RCC_LPTIM1_CLKSOURCE            RCC_CCIPR_LPTIM1SEL  /*!< LPTIM1 clock source selection 
 463:../../dependencies/STM32CubeL0/Drivers/STM32L0xx_HAL_Driver/Inc/stm32l0xx_ll_rcc.h **** /**
 464:../../dependencies/STM32CubeL0/Drivers/STM32L0xx_HAL_Driver/Inc/stm32l0xx_ll_rcc.h ****   * @}
 465:../../dependencies/STM32CubeL0/Drivers/STM32L0xx_HAL_Driver/Inc/stm32l0xx_ll_rcc.h ****   */
 466:../../dependencies/STM32CubeL0/Drivers/STM32L0xx_HAL_Driver/Inc/stm32l0xx_ll_rcc.h **** 
 467:../../dependencies/STM32CubeL0/Drivers/STM32L0xx_HAL_Driver/Inc/stm32l0xx_ll_rcc.h **** #if defined(RCC_CCIPR_HSI48SEL)
 468:../../dependencies/STM32CubeL0/Drivers/STM32L0xx_HAL_Driver/Inc/stm32l0xx_ll_rcc.h **** #if defined(RNG)
 469:../../dependencies/STM32CubeL0/Drivers/STM32L0xx_HAL_Driver/Inc/stm32l0xx_ll_rcc.h **** /** @defgroup RCC_LL_EC_RNG  Peripheral RNG get clock source
 470:../../dependencies/STM32CubeL0/Drivers/STM32L0xx_HAL_Driver/Inc/stm32l0xx_ll_rcc.h ****   * @{
 471:../../dependencies/STM32CubeL0/Drivers/STM32L0xx_HAL_Driver/Inc/stm32l0xx_ll_rcc.h ****   */
 472:../../dependencies/STM32CubeL0/Drivers/STM32L0xx_HAL_Driver/Inc/stm32l0xx_ll_rcc.h **** #define LL_RCC_RNG_CLKSOURCE               RCC_CCIPR_HSI48SEL   /*!< HSI48 RC clock source selectio
 473:../../dependencies/STM32CubeL0/Drivers/STM32L0xx_HAL_Driver/Inc/stm32l0xx_ll_rcc.h **** /**
 474:../../dependencies/STM32CubeL0/Drivers/STM32L0xx_HAL_Driver/Inc/stm32l0xx_ll_rcc.h ****   * @}
 475:../../dependencies/STM32CubeL0/Drivers/STM32L0xx_HAL_Driver/Inc/stm32l0xx_ll_rcc.h ****   */
 476:../../dependencies/STM32CubeL0/Drivers/STM32L0xx_HAL_Driver/Inc/stm32l0xx_ll_rcc.h **** #endif /* RNG */
 477:../../dependencies/STM32CubeL0/Drivers/STM32L0xx_HAL_Driver/Inc/stm32l0xx_ll_rcc.h **** 
 478:../../dependencies/STM32CubeL0/Drivers/STM32L0xx_HAL_Driver/Inc/stm32l0xx_ll_rcc.h **** #if defined(USB)
 479:../../dependencies/STM32CubeL0/Drivers/STM32L0xx_HAL_Driver/Inc/stm32l0xx_ll_rcc.h **** /** @defgroup RCC_LL_EC_USB  Peripheral USB get clock source
 480:../../dependencies/STM32CubeL0/Drivers/STM32L0xx_HAL_Driver/Inc/stm32l0xx_ll_rcc.h ****   * @{
 481:../../dependencies/STM32CubeL0/Drivers/STM32L0xx_HAL_Driver/Inc/stm32l0xx_ll_rcc.h ****   */
 482:../../dependencies/STM32CubeL0/Drivers/STM32L0xx_HAL_Driver/Inc/stm32l0xx_ll_rcc.h **** #define LL_RCC_USB_CLKSOURCE               RCC_CCIPR_HSI48SEL  /*!< HSI48 RC clock source selection
 483:../../dependencies/STM32CubeL0/Drivers/STM32L0xx_HAL_Driver/Inc/stm32l0xx_ll_rcc.h **** /**
 484:../../dependencies/STM32CubeL0/Drivers/STM32L0xx_HAL_Driver/Inc/stm32l0xx_ll_rcc.h ****   * @}
 485:../../dependencies/STM32CubeL0/Drivers/STM32L0xx_HAL_Driver/Inc/stm32l0xx_ll_rcc.h ****   */
 486:../../dependencies/STM32CubeL0/Drivers/STM32L0xx_HAL_Driver/Inc/stm32l0xx_ll_rcc.h **** 
 487:../../dependencies/STM32CubeL0/Drivers/STM32L0xx_HAL_Driver/Inc/stm32l0xx_ll_rcc.h **** #endif /* USB */
 488:../../dependencies/STM32CubeL0/Drivers/STM32L0xx_HAL_Driver/Inc/stm32l0xx_ll_rcc.h **** #endif /* RCC_CCIPR_HSI48SEL */
 489:../../dependencies/STM32CubeL0/Drivers/STM32L0xx_HAL_Driver/Inc/stm32l0xx_ll_rcc.h **** 
ARM GAS  /var/folders/fs/dxwfnrqj18z860lwl3d6f5t00000gn/T//ccl6Jv28.s 			page 10


 490:../../dependencies/STM32CubeL0/Drivers/STM32L0xx_HAL_Driver/Inc/stm32l0xx_ll_rcc.h **** /** @defgroup RCC_LL_EC_RTC_CLKSOURCE  RTC clock source selection
 491:../../dependencies/STM32CubeL0/Drivers/STM32L0xx_HAL_Driver/Inc/stm32l0xx_ll_rcc.h ****   * @{
 492:../../dependencies/STM32CubeL0/Drivers/STM32L0xx_HAL_Driver/Inc/stm32l0xx_ll_rcc.h ****   */
 493:../../dependencies/STM32CubeL0/Drivers/STM32L0xx_HAL_Driver/Inc/stm32l0xx_ll_rcc.h **** #define LL_RCC_RTC_CLKSOURCE_NONE          0x00000000U         /*!< No clock used as RTC clock */
 494:../../dependencies/STM32CubeL0/Drivers/STM32L0xx_HAL_Driver/Inc/stm32l0xx_ll_rcc.h **** #define LL_RCC_RTC_CLKSOURCE_LSE           RCC_CSR_RTCSEL_LSE            /*!< LSE oscillator clock 
 495:../../dependencies/STM32CubeL0/Drivers/STM32L0xx_HAL_Driver/Inc/stm32l0xx_ll_rcc.h **** #define LL_RCC_RTC_CLKSOURCE_LSI           RCC_CSR_RTCSEL_LSI            /*!< LSI oscillator clock 
 496:../../dependencies/STM32CubeL0/Drivers/STM32L0xx_HAL_Driver/Inc/stm32l0xx_ll_rcc.h **** #define LL_RCC_RTC_CLKSOURCE_HSE           RCC_CSR_RTCSEL_HSE            /*!< HSE oscillator clock 
 497:../../dependencies/STM32CubeL0/Drivers/STM32L0xx_HAL_Driver/Inc/stm32l0xx_ll_rcc.h ****                                                                              (selection through @re
 498:../../dependencies/STM32CubeL0/Drivers/STM32L0xx_HAL_Driver/Inc/stm32l0xx_ll_rcc.h **** /**
 499:../../dependencies/STM32CubeL0/Drivers/STM32L0xx_HAL_Driver/Inc/stm32l0xx_ll_rcc.h ****   * @}
 500:../../dependencies/STM32CubeL0/Drivers/STM32L0xx_HAL_Driver/Inc/stm32l0xx_ll_rcc.h ****   */
 501:../../dependencies/STM32CubeL0/Drivers/STM32L0xx_HAL_Driver/Inc/stm32l0xx_ll_rcc.h **** 
 502:../../dependencies/STM32CubeL0/Drivers/STM32L0xx_HAL_Driver/Inc/stm32l0xx_ll_rcc.h **** /** @defgroup RCC_LL_EC_PLL_MUL PLL Multiplicator factor
 503:../../dependencies/STM32CubeL0/Drivers/STM32L0xx_HAL_Driver/Inc/stm32l0xx_ll_rcc.h ****   * @{
 504:../../dependencies/STM32CubeL0/Drivers/STM32L0xx_HAL_Driver/Inc/stm32l0xx_ll_rcc.h ****   */
 505:../../dependencies/STM32CubeL0/Drivers/STM32L0xx_HAL_Driver/Inc/stm32l0xx_ll_rcc.h **** #define LL_RCC_PLL_MUL_3                   RCC_CFGR_PLLMUL3  /*!< PLL input clock * 3  */
 506:../../dependencies/STM32CubeL0/Drivers/STM32L0xx_HAL_Driver/Inc/stm32l0xx_ll_rcc.h **** #define LL_RCC_PLL_MUL_4                   RCC_CFGR_PLLMUL4  /*!< PLL input clock * 4  */
 507:../../dependencies/STM32CubeL0/Drivers/STM32L0xx_HAL_Driver/Inc/stm32l0xx_ll_rcc.h **** #define LL_RCC_PLL_MUL_6                   RCC_CFGR_PLLMUL6  /*!< PLL input clock * 6  */
 508:../../dependencies/STM32CubeL0/Drivers/STM32L0xx_HAL_Driver/Inc/stm32l0xx_ll_rcc.h **** #define LL_RCC_PLL_MUL_8                   RCC_CFGR_PLLMUL8  /*!< PLL input clock * 8  */
 509:../../dependencies/STM32CubeL0/Drivers/STM32L0xx_HAL_Driver/Inc/stm32l0xx_ll_rcc.h **** #define LL_RCC_PLL_MUL_12                  RCC_CFGR_PLLMUL12 /*!< PLL input clock * 12 */
 510:../../dependencies/STM32CubeL0/Drivers/STM32L0xx_HAL_Driver/Inc/stm32l0xx_ll_rcc.h **** #define LL_RCC_PLL_MUL_16                  RCC_CFGR_PLLMUL16 /*!< PLL input clock * 16 */
 511:../../dependencies/STM32CubeL0/Drivers/STM32L0xx_HAL_Driver/Inc/stm32l0xx_ll_rcc.h **** #define LL_RCC_PLL_MUL_24                  RCC_CFGR_PLLMUL24 /*!< PLL input clock * 24 */
 512:../../dependencies/STM32CubeL0/Drivers/STM32L0xx_HAL_Driver/Inc/stm32l0xx_ll_rcc.h **** #define LL_RCC_PLL_MUL_32                  RCC_CFGR_PLLMUL32 /*!< PLL input clock * 32 */
 513:../../dependencies/STM32CubeL0/Drivers/STM32L0xx_HAL_Driver/Inc/stm32l0xx_ll_rcc.h **** #define LL_RCC_PLL_MUL_48                  RCC_CFGR_PLLMUL48 /*!< PLL input clock * 48 */
 514:../../dependencies/STM32CubeL0/Drivers/STM32L0xx_HAL_Driver/Inc/stm32l0xx_ll_rcc.h **** /**
 515:../../dependencies/STM32CubeL0/Drivers/STM32L0xx_HAL_Driver/Inc/stm32l0xx_ll_rcc.h ****   * @}
 516:../../dependencies/STM32CubeL0/Drivers/STM32L0xx_HAL_Driver/Inc/stm32l0xx_ll_rcc.h ****   */
 517:../../dependencies/STM32CubeL0/Drivers/STM32L0xx_HAL_Driver/Inc/stm32l0xx_ll_rcc.h **** 
 518:../../dependencies/STM32CubeL0/Drivers/STM32L0xx_HAL_Driver/Inc/stm32l0xx_ll_rcc.h **** /** @defgroup RCC_LL_EC_PLL_DIV PLL division factor
 519:../../dependencies/STM32CubeL0/Drivers/STM32L0xx_HAL_Driver/Inc/stm32l0xx_ll_rcc.h ****   * @{
 520:../../dependencies/STM32CubeL0/Drivers/STM32L0xx_HAL_Driver/Inc/stm32l0xx_ll_rcc.h ****   */
 521:../../dependencies/STM32CubeL0/Drivers/STM32L0xx_HAL_Driver/Inc/stm32l0xx_ll_rcc.h **** #define LL_RCC_PLL_DIV_2                   RCC_CFGR_PLLDIV2 /*!< PLL clock output = PLLVCO / 2 */
 522:../../dependencies/STM32CubeL0/Drivers/STM32L0xx_HAL_Driver/Inc/stm32l0xx_ll_rcc.h **** #define LL_RCC_PLL_DIV_3                   RCC_CFGR_PLLDIV3 /*!< PLL clock output = PLLVCO / 3 */
 523:../../dependencies/STM32CubeL0/Drivers/STM32L0xx_HAL_Driver/Inc/stm32l0xx_ll_rcc.h **** #define LL_RCC_PLL_DIV_4                   RCC_CFGR_PLLDIV4 /*!< PLL clock output = PLLVCO / 4 */
 524:../../dependencies/STM32CubeL0/Drivers/STM32L0xx_HAL_Driver/Inc/stm32l0xx_ll_rcc.h **** /**
 525:../../dependencies/STM32CubeL0/Drivers/STM32L0xx_HAL_Driver/Inc/stm32l0xx_ll_rcc.h ****   * @}
 526:../../dependencies/STM32CubeL0/Drivers/STM32L0xx_HAL_Driver/Inc/stm32l0xx_ll_rcc.h ****   */
 527:../../dependencies/STM32CubeL0/Drivers/STM32L0xx_HAL_Driver/Inc/stm32l0xx_ll_rcc.h **** 
 528:../../dependencies/STM32CubeL0/Drivers/STM32L0xx_HAL_Driver/Inc/stm32l0xx_ll_rcc.h **** /** @defgroup RCC_LL_EC_PLLSOURCE PLL SOURCE
 529:../../dependencies/STM32CubeL0/Drivers/STM32L0xx_HAL_Driver/Inc/stm32l0xx_ll_rcc.h ****   * @{
 530:../../dependencies/STM32CubeL0/Drivers/STM32L0xx_HAL_Driver/Inc/stm32l0xx_ll_rcc.h ****   */
 531:../../dependencies/STM32CubeL0/Drivers/STM32L0xx_HAL_Driver/Inc/stm32l0xx_ll_rcc.h **** #define LL_RCC_PLLSOURCE_HSI               RCC_CFGR_PLLSRC_HSI                           /*!< HSI c
 532:../../dependencies/STM32CubeL0/Drivers/STM32L0xx_HAL_Driver/Inc/stm32l0xx_ll_rcc.h **** #define LL_RCC_PLLSOURCE_HSE               RCC_CFGR_PLLSRC_HSE                           /*!< HSE c
 533:../../dependencies/STM32CubeL0/Drivers/STM32L0xx_HAL_Driver/Inc/stm32l0xx_ll_rcc.h **** /**
 534:../../dependencies/STM32CubeL0/Drivers/STM32L0xx_HAL_Driver/Inc/stm32l0xx_ll_rcc.h ****   * @}
 535:../../dependencies/STM32CubeL0/Drivers/STM32L0xx_HAL_Driver/Inc/stm32l0xx_ll_rcc.h ****   */
 536:../../dependencies/STM32CubeL0/Drivers/STM32L0xx_HAL_Driver/Inc/stm32l0xx_ll_rcc.h **** 
 537:../../dependencies/STM32CubeL0/Drivers/STM32L0xx_HAL_Driver/Inc/stm32l0xx_ll_rcc.h **** /**
 538:../../dependencies/STM32CubeL0/Drivers/STM32L0xx_HAL_Driver/Inc/stm32l0xx_ll_rcc.h ****   * @}
 539:../../dependencies/STM32CubeL0/Drivers/STM32L0xx_HAL_Driver/Inc/stm32l0xx_ll_rcc.h ****   */
 540:../../dependencies/STM32CubeL0/Drivers/STM32L0xx_HAL_Driver/Inc/stm32l0xx_ll_rcc.h **** 
 541:../../dependencies/STM32CubeL0/Drivers/STM32L0xx_HAL_Driver/Inc/stm32l0xx_ll_rcc.h **** /* Exported macro ------------------------------------------------------------*/
 542:../../dependencies/STM32CubeL0/Drivers/STM32L0xx_HAL_Driver/Inc/stm32l0xx_ll_rcc.h **** /** @defgroup RCC_LL_Exported_Macros RCC Exported Macros
 543:../../dependencies/STM32CubeL0/Drivers/STM32L0xx_HAL_Driver/Inc/stm32l0xx_ll_rcc.h ****   * @{
 544:../../dependencies/STM32CubeL0/Drivers/STM32L0xx_HAL_Driver/Inc/stm32l0xx_ll_rcc.h ****   */
 545:../../dependencies/STM32CubeL0/Drivers/STM32L0xx_HAL_Driver/Inc/stm32l0xx_ll_rcc.h **** 
 546:../../dependencies/STM32CubeL0/Drivers/STM32L0xx_HAL_Driver/Inc/stm32l0xx_ll_rcc.h **** /** @defgroup RCC_LL_EM_WRITE_READ Common Write and read registers Macros
ARM GAS  /var/folders/fs/dxwfnrqj18z860lwl3d6f5t00000gn/T//ccl6Jv28.s 			page 11


 547:../../dependencies/STM32CubeL0/Drivers/STM32L0xx_HAL_Driver/Inc/stm32l0xx_ll_rcc.h ****   * @{
 548:../../dependencies/STM32CubeL0/Drivers/STM32L0xx_HAL_Driver/Inc/stm32l0xx_ll_rcc.h ****   */
 549:../../dependencies/STM32CubeL0/Drivers/STM32L0xx_HAL_Driver/Inc/stm32l0xx_ll_rcc.h **** 
 550:../../dependencies/STM32CubeL0/Drivers/STM32L0xx_HAL_Driver/Inc/stm32l0xx_ll_rcc.h **** /**
 551:../../dependencies/STM32CubeL0/Drivers/STM32L0xx_HAL_Driver/Inc/stm32l0xx_ll_rcc.h ****   * @brief  Write a value in RCC register
 552:../../dependencies/STM32CubeL0/Drivers/STM32L0xx_HAL_Driver/Inc/stm32l0xx_ll_rcc.h ****   * @param  __REG__ Register to be written
 553:../../dependencies/STM32CubeL0/Drivers/STM32L0xx_HAL_Driver/Inc/stm32l0xx_ll_rcc.h ****   * @param  __VALUE__ Value to be written in the register
 554:../../dependencies/STM32CubeL0/Drivers/STM32L0xx_HAL_Driver/Inc/stm32l0xx_ll_rcc.h ****   * @retval None
 555:../../dependencies/STM32CubeL0/Drivers/STM32L0xx_HAL_Driver/Inc/stm32l0xx_ll_rcc.h ****   */
 556:../../dependencies/STM32CubeL0/Drivers/STM32L0xx_HAL_Driver/Inc/stm32l0xx_ll_rcc.h **** #define LL_RCC_WriteReg(__REG__, __VALUE__) WRITE_REG(RCC->__REG__, (__VALUE__))
 557:../../dependencies/STM32CubeL0/Drivers/STM32L0xx_HAL_Driver/Inc/stm32l0xx_ll_rcc.h **** 
 558:../../dependencies/STM32CubeL0/Drivers/STM32L0xx_HAL_Driver/Inc/stm32l0xx_ll_rcc.h **** /**
 559:../../dependencies/STM32CubeL0/Drivers/STM32L0xx_HAL_Driver/Inc/stm32l0xx_ll_rcc.h ****   * @brief  Read a value in RCC register
 560:../../dependencies/STM32CubeL0/Drivers/STM32L0xx_HAL_Driver/Inc/stm32l0xx_ll_rcc.h ****   * @param  __REG__ Register to be read
 561:../../dependencies/STM32CubeL0/Drivers/STM32L0xx_HAL_Driver/Inc/stm32l0xx_ll_rcc.h ****   * @retval Register value
 562:../../dependencies/STM32CubeL0/Drivers/STM32L0xx_HAL_Driver/Inc/stm32l0xx_ll_rcc.h ****   */
 563:../../dependencies/STM32CubeL0/Drivers/STM32L0xx_HAL_Driver/Inc/stm32l0xx_ll_rcc.h **** #define LL_RCC_ReadReg(__REG__) READ_REG(RCC->__REG__)
 564:../../dependencies/STM32CubeL0/Drivers/STM32L0xx_HAL_Driver/Inc/stm32l0xx_ll_rcc.h **** /**
 565:../../dependencies/STM32CubeL0/Drivers/STM32L0xx_HAL_Driver/Inc/stm32l0xx_ll_rcc.h ****   * @}
 566:../../dependencies/STM32CubeL0/Drivers/STM32L0xx_HAL_Driver/Inc/stm32l0xx_ll_rcc.h ****   */
 567:../../dependencies/STM32CubeL0/Drivers/STM32L0xx_HAL_Driver/Inc/stm32l0xx_ll_rcc.h **** 
 568:../../dependencies/STM32CubeL0/Drivers/STM32L0xx_HAL_Driver/Inc/stm32l0xx_ll_rcc.h **** /** @defgroup RCC_LL_EM_CALC_FREQ Calculate frequencies
 569:../../dependencies/STM32CubeL0/Drivers/STM32L0xx_HAL_Driver/Inc/stm32l0xx_ll_rcc.h ****   * @{
 570:../../dependencies/STM32CubeL0/Drivers/STM32L0xx_HAL_Driver/Inc/stm32l0xx_ll_rcc.h ****   */
 571:../../dependencies/STM32CubeL0/Drivers/STM32L0xx_HAL_Driver/Inc/stm32l0xx_ll_rcc.h **** 
 572:../../dependencies/STM32CubeL0/Drivers/STM32L0xx_HAL_Driver/Inc/stm32l0xx_ll_rcc.h **** /**
 573:../../dependencies/STM32CubeL0/Drivers/STM32L0xx_HAL_Driver/Inc/stm32l0xx_ll_rcc.h ****   * @brief  Helper macro to calculate the PLLCLK frequency
 574:../../dependencies/STM32CubeL0/Drivers/STM32L0xx_HAL_Driver/Inc/stm32l0xx_ll_rcc.h ****   * @note ex: @ref __LL_RCC_CALC_PLLCLK_FREQ (HSE_VALUE,
 575:../../dependencies/STM32CubeL0/Drivers/STM32L0xx_HAL_Driver/Inc/stm32l0xx_ll_rcc.h ****   *                                      @ref LL_RCC_PLL_GetMultiplicator (),
 576:../../dependencies/STM32CubeL0/Drivers/STM32L0xx_HAL_Driver/Inc/stm32l0xx_ll_rcc.h ****   *                                      @ref LL_RCC_PLL_GetDivider ());
 577:../../dependencies/STM32CubeL0/Drivers/STM32L0xx_HAL_Driver/Inc/stm32l0xx_ll_rcc.h ****   * @param  __INPUTFREQ__ PLL Input frequency (based on MSI/HSE/HSI)
 578:../../dependencies/STM32CubeL0/Drivers/STM32L0xx_HAL_Driver/Inc/stm32l0xx_ll_rcc.h ****   * @param  __PLLMUL__ This parameter can be one of the following values:
 579:../../dependencies/STM32CubeL0/Drivers/STM32L0xx_HAL_Driver/Inc/stm32l0xx_ll_rcc.h ****   *         @arg @ref LL_RCC_PLL_MUL_3
 580:../../dependencies/STM32CubeL0/Drivers/STM32L0xx_HAL_Driver/Inc/stm32l0xx_ll_rcc.h ****   *         @arg @ref LL_RCC_PLL_MUL_4
 581:../../dependencies/STM32CubeL0/Drivers/STM32L0xx_HAL_Driver/Inc/stm32l0xx_ll_rcc.h ****   *         @arg @ref LL_RCC_PLL_MUL_6
 582:../../dependencies/STM32CubeL0/Drivers/STM32L0xx_HAL_Driver/Inc/stm32l0xx_ll_rcc.h ****   *         @arg @ref LL_RCC_PLL_MUL_8
 583:../../dependencies/STM32CubeL0/Drivers/STM32L0xx_HAL_Driver/Inc/stm32l0xx_ll_rcc.h ****   *         @arg @ref LL_RCC_PLL_MUL_12
 584:../../dependencies/STM32CubeL0/Drivers/STM32L0xx_HAL_Driver/Inc/stm32l0xx_ll_rcc.h ****   *         @arg @ref LL_RCC_PLL_MUL_16
 585:../../dependencies/STM32CubeL0/Drivers/STM32L0xx_HAL_Driver/Inc/stm32l0xx_ll_rcc.h ****   *         @arg @ref LL_RCC_PLL_MUL_24
 586:../../dependencies/STM32CubeL0/Drivers/STM32L0xx_HAL_Driver/Inc/stm32l0xx_ll_rcc.h ****   *         @arg @ref LL_RCC_PLL_MUL_32
 587:../../dependencies/STM32CubeL0/Drivers/STM32L0xx_HAL_Driver/Inc/stm32l0xx_ll_rcc.h ****   *         @arg @ref LL_RCC_PLL_MUL_48
 588:../../dependencies/STM32CubeL0/Drivers/STM32L0xx_HAL_Driver/Inc/stm32l0xx_ll_rcc.h ****   * @param  __PLLDIV__ This parameter can be one of the following values:
 589:../../dependencies/STM32CubeL0/Drivers/STM32L0xx_HAL_Driver/Inc/stm32l0xx_ll_rcc.h ****   *         @arg @ref LL_RCC_PLL_DIV_2
 590:../../dependencies/STM32CubeL0/Drivers/STM32L0xx_HAL_Driver/Inc/stm32l0xx_ll_rcc.h ****   *         @arg @ref LL_RCC_PLL_DIV_3
 591:../../dependencies/STM32CubeL0/Drivers/STM32L0xx_HAL_Driver/Inc/stm32l0xx_ll_rcc.h ****   *         @arg @ref LL_RCC_PLL_DIV_4
 592:../../dependencies/STM32CubeL0/Drivers/STM32L0xx_HAL_Driver/Inc/stm32l0xx_ll_rcc.h ****   * @retval PLL clock frequency (in Hz)
 593:../../dependencies/STM32CubeL0/Drivers/STM32L0xx_HAL_Driver/Inc/stm32l0xx_ll_rcc.h ****   */
 594:../../dependencies/STM32CubeL0/Drivers/STM32L0xx_HAL_Driver/Inc/stm32l0xx_ll_rcc.h **** #define __LL_RCC_CALC_PLLCLK_FREQ(__INPUTFREQ__, __PLLMUL__,  __PLLDIV__) ((__INPUTFREQ__) * (PLLMu
 595:../../dependencies/STM32CubeL0/Drivers/STM32L0xx_HAL_Driver/Inc/stm32l0xx_ll_rcc.h **** 
 596:../../dependencies/STM32CubeL0/Drivers/STM32L0xx_HAL_Driver/Inc/stm32l0xx_ll_rcc.h **** /**
 597:../../dependencies/STM32CubeL0/Drivers/STM32L0xx_HAL_Driver/Inc/stm32l0xx_ll_rcc.h ****   * @brief  Helper macro to calculate the HCLK frequency
 598:../../dependencies/STM32CubeL0/Drivers/STM32L0xx_HAL_Driver/Inc/stm32l0xx_ll_rcc.h ****   * @note: __AHBPRESCALER__ be retrieved by @ref LL_RCC_GetAHBPrescaler
 599:../../dependencies/STM32CubeL0/Drivers/STM32L0xx_HAL_Driver/Inc/stm32l0xx_ll_rcc.h ****   *        ex: __LL_RCC_CALC_HCLK_FREQ(LL_RCC_GetAHBPrescaler())
 600:../../dependencies/STM32CubeL0/Drivers/STM32L0xx_HAL_Driver/Inc/stm32l0xx_ll_rcc.h ****   * @param  __SYSCLKFREQ__ SYSCLK frequency (based on MSI/HSE/HSI/PLLCLK)
 601:../../dependencies/STM32CubeL0/Drivers/STM32L0xx_HAL_Driver/Inc/stm32l0xx_ll_rcc.h ****   * @param  __AHBPRESCALER__ This parameter can be one of the following values:
 602:../../dependencies/STM32CubeL0/Drivers/STM32L0xx_HAL_Driver/Inc/stm32l0xx_ll_rcc.h ****   *         @arg @ref LL_RCC_SYSCLK_DIV_1
 603:../../dependencies/STM32CubeL0/Drivers/STM32L0xx_HAL_Driver/Inc/stm32l0xx_ll_rcc.h ****   *         @arg @ref LL_RCC_SYSCLK_DIV_2
ARM GAS  /var/folders/fs/dxwfnrqj18z860lwl3d6f5t00000gn/T//ccl6Jv28.s 			page 12


 604:../../dependencies/STM32CubeL0/Drivers/STM32L0xx_HAL_Driver/Inc/stm32l0xx_ll_rcc.h ****   *         @arg @ref LL_RCC_SYSCLK_DIV_4
 605:../../dependencies/STM32CubeL0/Drivers/STM32L0xx_HAL_Driver/Inc/stm32l0xx_ll_rcc.h ****   *         @arg @ref LL_RCC_SYSCLK_DIV_8
 606:../../dependencies/STM32CubeL0/Drivers/STM32L0xx_HAL_Driver/Inc/stm32l0xx_ll_rcc.h ****   *         @arg @ref LL_RCC_SYSCLK_DIV_16
 607:../../dependencies/STM32CubeL0/Drivers/STM32L0xx_HAL_Driver/Inc/stm32l0xx_ll_rcc.h ****   *         @arg @ref LL_RCC_SYSCLK_DIV_64
 608:../../dependencies/STM32CubeL0/Drivers/STM32L0xx_HAL_Driver/Inc/stm32l0xx_ll_rcc.h ****   *         @arg @ref LL_RCC_SYSCLK_DIV_128
 609:../../dependencies/STM32CubeL0/Drivers/STM32L0xx_HAL_Driver/Inc/stm32l0xx_ll_rcc.h ****   *         @arg @ref LL_RCC_SYSCLK_DIV_256
 610:../../dependencies/STM32CubeL0/Drivers/STM32L0xx_HAL_Driver/Inc/stm32l0xx_ll_rcc.h ****   *         @arg @ref LL_RCC_SYSCLK_DIV_512
 611:../../dependencies/STM32CubeL0/Drivers/STM32L0xx_HAL_Driver/Inc/stm32l0xx_ll_rcc.h ****   * @retval HCLK clock frequency (in Hz)
 612:../../dependencies/STM32CubeL0/Drivers/STM32L0xx_HAL_Driver/Inc/stm32l0xx_ll_rcc.h ****   */
 613:../../dependencies/STM32CubeL0/Drivers/STM32L0xx_HAL_Driver/Inc/stm32l0xx_ll_rcc.h **** #define __LL_RCC_CALC_HCLK_FREQ(__SYSCLKFREQ__, __AHBPRESCALER__) ((__SYSCLKFREQ__) >> AHBPrescTabl
 614:../../dependencies/STM32CubeL0/Drivers/STM32L0xx_HAL_Driver/Inc/stm32l0xx_ll_rcc.h **** 
 615:../../dependencies/STM32CubeL0/Drivers/STM32L0xx_HAL_Driver/Inc/stm32l0xx_ll_rcc.h **** /**
 616:../../dependencies/STM32CubeL0/Drivers/STM32L0xx_HAL_Driver/Inc/stm32l0xx_ll_rcc.h ****   * @brief  Helper macro to calculate the PCLK1 frequency (ABP1)
 617:../../dependencies/STM32CubeL0/Drivers/STM32L0xx_HAL_Driver/Inc/stm32l0xx_ll_rcc.h ****   * @note: __APB1PRESCALER__ be retrieved by @ref LL_RCC_GetAPB1Prescaler
 618:../../dependencies/STM32CubeL0/Drivers/STM32L0xx_HAL_Driver/Inc/stm32l0xx_ll_rcc.h ****   *        ex: __LL_RCC_CALC_PCLK1_FREQ(LL_RCC_GetAPB1Prescaler())
 619:../../dependencies/STM32CubeL0/Drivers/STM32L0xx_HAL_Driver/Inc/stm32l0xx_ll_rcc.h ****   * @param  __HCLKFREQ__ HCLK frequency
 620:../../dependencies/STM32CubeL0/Drivers/STM32L0xx_HAL_Driver/Inc/stm32l0xx_ll_rcc.h ****   * @param  __APB1PRESCALER__ This parameter can be one of the following values:
 621:../../dependencies/STM32CubeL0/Drivers/STM32L0xx_HAL_Driver/Inc/stm32l0xx_ll_rcc.h ****   *         @arg @ref LL_RCC_APB1_DIV_1
 622:../../dependencies/STM32CubeL0/Drivers/STM32L0xx_HAL_Driver/Inc/stm32l0xx_ll_rcc.h ****   *         @arg @ref LL_RCC_APB1_DIV_2
 623:../../dependencies/STM32CubeL0/Drivers/STM32L0xx_HAL_Driver/Inc/stm32l0xx_ll_rcc.h ****   *         @arg @ref LL_RCC_APB1_DIV_4
 624:../../dependencies/STM32CubeL0/Drivers/STM32L0xx_HAL_Driver/Inc/stm32l0xx_ll_rcc.h ****   *         @arg @ref LL_RCC_APB1_DIV_8
 625:../../dependencies/STM32CubeL0/Drivers/STM32L0xx_HAL_Driver/Inc/stm32l0xx_ll_rcc.h ****   *         @arg @ref LL_RCC_APB1_DIV_16
 626:../../dependencies/STM32CubeL0/Drivers/STM32L0xx_HAL_Driver/Inc/stm32l0xx_ll_rcc.h ****   * @retval PCLK1 clock frequency (in Hz)
 627:../../dependencies/STM32CubeL0/Drivers/STM32L0xx_HAL_Driver/Inc/stm32l0xx_ll_rcc.h ****   */
 628:../../dependencies/STM32CubeL0/Drivers/STM32L0xx_HAL_Driver/Inc/stm32l0xx_ll_rcc.h **** #define __LL_RCC_CALC_PCLK1_FREQ(__HCLKFREQ__, __APB1PRESCALER__) ((__HCLKFREQ__) >> APBPrescTable[
 629:../../dependencies/STM32CubeL0/Drivers/STM32L0xx_HAL_Driver/Inc/stm32l0xx_ll_rcc.h **** 
 630:../../dependencies/STM32CubeL0/Drivers/STM32L0xx_HAL_Driver/Inc/stm32l0xx_ll_rcc.h **** /**
 631:../../dependencies/STM32CubeL0/Drivers/STM32L0xx_HAL_Driver/Inc/stm32l0xx_ll_rcc.h ****   * @brief  Helper macro to calculate the PCLK2 frequency (ABP2)
 632:../../dependencies/STM32CubeL0/Drivers/STM32L0xx_HAL_Driver/Inc/stm32l0xx_ll_rcc.h ****   * @note: __APB2PRESCALER__ be retrieved by @ref LL_RCC_GetAPB2Prescaler
 633:../../dependencies/STM32CubeL0/Drivers/STM32L0xx_HAL_Driver/Inc/stm32l0xx_ll_rcc.h ****   *        ex: __LL_RCC_CALC_PCLK2_FREQ(LL_RCC_GetAPB2Prescaler())
 634:../../dependencies/STM32CubeL0/Drivers/STM32L0xx_HAL_Driver/Inc/stm32l0xx_ll_rcc.h ****   * @param  __HCLKFREQ__ HCLK frequency
 635:../../dependencies/STM32CubeL0/Drivers/STM32L0xx_HAL_Driver/Inc/stm32l0xx_ll_rcc.h ****   * @param  __APB2PRESCALER__ This parameter can be one of the following values:
 636:../../dependencies/STM32CubeL0/Drivers/STM32L0xx_HAL_Driver/Inc/stm32l0xx_ll_rcc.h ****   *         @arg @ref LL_RCC_APB2_DIV_1
 637:../../dependencies/STM32CubeL0/Drivers/STM32L0xx_HAL_Driver/Inc/stm32l0xx_ll_rcc.h ****   *         @arg @ref LL_RCC_APB2_DIV_2
 638:../../dependencies/STM32CubeL0/Drivers/STM32L0xx_HAL_Driver/Inc/stm32l0xx_ll_rcc.h ****   *         @arg @ref LL_RCC_APB2_DIV_4
 639:../../dependencies/STM32CubeL0/Drivers/STM32L0xx_HAL_Driver/Inc/stm32l0xx_ll_rcc.h ****   *         @arg @ref LL_RCC_APB2_DIV_8
 640:../../dependencies/STM32CubeL0/Drivers/STM32L0xx_HAL_Driver/Inc/stm32l0xx_ll_rcc.h ****   *         @arg @ref LL_RCC_APB2_DIV_16
 641:../../dependencies/STM32CubeL0/Drivers/STM32L0xx_HAL_Driver/Inc/stm32l0xx_ll_rcc.h ****   * @retval PCLK2 clock frequency (in Hz)
 642:../../dependencies/STM32CubeL0/Drivers/STM32L0xx_HAL_Driver/Inc/stm32l0xx_ll_rcc.h ****   */
 643:../../dependencies/STM32CubeL0/Drivers/STM32L0xx_HAL_Driver/Inc/stm32l0xx_ll_rcc.h **** #define __LL_RCC_CALC_PCLK2_FREQ(__HCLKFREQ__, __APB2PRESCALER__) ((__HCLKFREQ__) >> APBPrescTable[
 644:../../dependencies/STM32CubeL0/Drivers/STM32L0xx_HAL_Driver/Inc/stm32l0xx_ll_rcc.h **** 
 645:../../dependencies/STM32CubeL0/Drivers/STM32L0xx_HAL_Driver/Inc/stm32l0xx_ll_rcc.h **** /**
 646:../../dependencies/STM32CubeL0/Drivers/STM32L0xx_HAL_Driver/Inc/stm32l0xx_ll_rcc.h ****   * @brief  Helper macro to calculate the MSI frequency (in Hz)
 647:../../dependencies/STM32CubeL0/Drivers/STM32L0xx_HAL_Driver/Inc/stm32l0xx_ll_rcc.h ****   * @note: __MSIRANGE__can be retrieved by @ref LL_RCC_MSI_GetRange
 648:../../dependencies/STM32CubeL0/Drivers/STM32L0xx_HAL_Driver/Inc/stm32l0xx_ll_rcc.h ****   *        ex: __LL_RCC_CALC_MSI_FREQ(LL_RCC_MSI_GetRange())
 649:../../dependencies/STM32CubeL0/Drivers/STM32L0xx_HAL_Driver/Inc/stm32l0xx_ll_rcc.h ****   * @param  __MSIRANGE__ This parameter can be one of the following values:
 650:../../dependencies/STM32CubeL0/Drivers/STM32L0xx_HAL_Driver/Inc/stm32l0xx_ll_rcc.h ****   *         @arg @ref LL_RCC_MSIRANGE_0
 651:../../dependencies/STM32CubeL0/Drivers/STM32L0xx_HAL_Driver/Inc/stm32l0xx_ll_rcc.h ****   *         @arg @ref LL_RCC_MSIRANGE_1
 652:../../dependencies/STM32CubeL0/Drivers/STM32L0xx_HAL_Driver/Inc/stm32l0xx_ll_rcc.h ****   *         @arg @ref LL_RCC_MSIRANGE_2
 653:../../dependencies/STM32CubeL0/Drivers/STM32L0xx_HAL_Driver/Inc/stm32l0xx_ll_rcc.h ****   *         @arg @ref LL_RCC_MSIRANGE_3
 654:../../dependencies/STM32CubeL0/Drivers/STM32L0xx_HAL_Driver/Inc/stm32l0xx_ll_rcc.h ****   *         @arg @ref LL_RCC_MSIRANGE_4
 655:../../dependencies/STM32CubeL0/Drivers/STM32L0xx_HAL_Driver/Inc/stm32l0xx_ll_rcc.h ****   *         @arg @ref LL_RCC_MSIRANGE_5
 656:../../dependencies/STM32CubeL0/Drivers/STM32L0xx_HAL_Driver/Inc/stm32l0xx_ll_rcc.h ****   *         @arg @ref LL_RCC_MSIRANGE_6
 657:../../dependencies/STM32CubeL0/Drivers/STM32L0xx_HAL_Driver/Inc/stm32l0xx_ll_rcc.h ****   * @retval MSI clock frequency (in Hz)
 658:../../dependencies/STM32CubeL0/Drivers/STM32L0xx_HAL_Driver/Inc/stm32l0xx_ll_rcc.h ****   */
 659:../../dependencies/STM32CubeL0/Drivers/STM32L0xx_HAL_Driver/Inc/stm32l0xx_ll_rcc.h **** #define __LL_RCC_CALC_MSI_FREQ(__MSIRANGE__) (32768UL * ( 1UL << (((__MSIRANGE__) >> RCC_ICSCR_MSIR
 660:../../dependencies/STM32CubeL0/Drivers/STM32L0xx_HAL_Driver/Inc/stm32l0xx_ll_rcc.h **** 
ARM GAS  /var/folders/fs/dxwfnrqj18z860lwl3d6f5t00000gn/T//ccl6Jv28.s 			page 13


 661:../../dependencies/STM32CubeL0/Drivers/STM32L0xx_HAL_Driver/Inc/stm32l0xx_ll_rcc.h **** /**
 662:../../dependencies/STM32CubeL0/Drivers/STM32L0xx_HAL_Driver/Inc/stm32l0xx_ll_rcc.h ****   * @}
 663:../../dependencies/STM32CubeL0/Drivers/STM32L0xx_HAL_Driver/Inc/stm32l0xx_ll_rcc.h ****   */
 664:../../dependencies/STM32CubeL0/Drivers/STM32L0xx_HAL_Driver/Inc/stm32l0xx_ll_rcc.h **** 
 665:../../dependencies/STM32CubeL0/Drivers/STM32L0xx_HAL_Driver/Inc/stm32l0xx_ll_rcc.h **** /**
 666:../../dependencies/STM32CubeL0/Drivers/STM32L0xx_HAL_Driver/Inc/stm32l0xx_ll_rcc.h ****   * @}
 667:../../dependencies/STM32CubeL0/Drivers/STM32L0xx_HAL_Driver/Inc/stm32l0xx_ll_rcc.h ****   */
 668:../../dependencies/STM32CubeL0/Drivers/STM32L0xx_HAL_Driver/Inc/stm32l0xx_ll_rcc.h **** 
 669:../../dependencies/STM32CubeL0/Drivers/STM32L0xx_HAL_Driver/Inc/stm32l0xx_ll_rcc.h **** /* Exported functions --------------------------------------------------------*/
 670:../../dependencies/STM32CubeL0/Drivers/STM32L0xx_HAL_Driver/Inc/stm32l0xx_ll_rcc.h **** /** @defgroup RCC_LL_Exported_Functions RCC Exported Functions
 671:../../dependencies/STM32CubeL0/Drivers/STM32L0xx_HAL_Driver/Inc/stm32l0xx_ll_rcc.h ****   * @{
 672:../../dependencies/STM32CubeL0/Drivers/STM32L0xx_HAL_Driver/Inc/stm32l0xx_ll_rcc.h ****   */
 673:../../dependencies/STM32CubeL0/Drivers/STM32L0xx_HAL_Driver/Inc/stm32l0xx_ll_rcc.h **** 
 674:../../dependencies/STM32CubeL0/Drivers/STM32L0xx_HAL_Driver/Inc/stm32l0xx_ll_rcc.h **** /** @defgroup RCC_LL_EF_HSE HSE
 675:../../dependencies/STM32CubeL0/Drivers/STM32L0xx_HAL_Driver/Inc/stm32l0xx_ll_rcc.h ****   * @{
 676:../../dependencies/STM32CubeL0/Drivers/STM32L0xx_HAL_Driver/Inc/stm32l0xx_ll_rcc.h ****   */
 677:../../dependencies/STM32CubeL0/Drivers/STM32L0xx_HAL_Driver/Inc/stm32l0xx_ll_rcc.h **** 
 678:../../dependencies/STM32CubeL0/Drivers/STM32L0xx_HAL_Driver/Inc/stm32l0xx_ll_rcc.h **** #if defined(RCC_HSECSS_SUPPORT)
 679:../../dependencies/STM32CubeL0/Drivers/STM32L0xx_HAL_Driver/Inc/stm32l0xx_ll_rcc.h **** /**
 680:../../dependencies/STM32CubeL0/Drivers/STM32L0xx_HAL_Driver/Inc/stm32l0xx_ll_rcc.h ****   * @brief  Enable the Clock Security System.
 681:../../dependencies/STM32CubeL0/Drivers/STM32L0xx_HAL_Driver/Inc/stm32l0xx_ll_rcc.h ****   * @rmtoll CR           CSSHSEON         LL_RCC_HSE_EnableCSS
 682:../../dependencies/STM32CubeL0/Drivers/STM32L0xx_HAL_Driver/Inc/stm32l0xx_ll_rcc.h ****   * @retval None
 683:../../dependencies/STM32CubeL0/Drivers/STM32L0xx_HAL_Driver/Inc/stm32l0xx_ll_rcc.h ****   */
 684:../../dependencies/STM32CubeL0/Drivers/STM32L0xx_HAL_Driver/Inc/stm32l0xx_ll_rcc.h **** __STATIC_INLINE void LL_RCC_HSE_EnableCSS(void)
 685:../../dependencies/STM32CubeL0/Drivers/STM32L0xx_HAL_Driver/Inc/stm32l0xx_ll_rcc.h **** {
 686:../../dependencies/STM32CubeL0/Drivers/STM32L0xx_HAL_Driver/Inc/stm32l0xx_ll_rcc.h ****   SET_BIT(RCC->CR, RCC_CR_CSSON);
 687:../../dependencies/STM32CubeL0/Drivers/STM32L0xx_HAL_Driver/Inc/stm32l0xx_ll_rcc.h **** }
 688:../../dependencies/STM32CubeL0/Drivers/STM32L0xx_HAL_Driver/Inc/stm32l0xx_ll_rcc.h **** #endif /* RCC_HSECSS_SUPPORT */
 689:../../dependencies/STM32CubeL0/Drivers/STM32L0xx_HAL_Driver/Inc/stm32l0xx_ll_rcc.h **** 
 690:../../dependencies/STM32CubeL0/Drivers/STM32L0xx_HAL_Driver/Inc/stm32l0xx_ll_rcc.h **** /**
 691:../../dependencies/STM32CubeL0/Drivers/STM32L0xx_HAL_Driver/Inc/stm32l0xx_ll_rcc.h ****   * @brief  Enable HSE external oscillator (HSE Bypass)
 692:../../dependencies/STM32CubeL0/Drivers/STM32L0xx_HAL_Driver/Inc/stm32l0xx_ll_rcc.h ****   * @rmtoll CR           HSEBYP        LL_RCC_HSE_EnableBypass
 693:../../dependencies/STM32CubeL0/Drivers/STM32L0xx_HAL_Driver/Inc/stm32l0xx_ll_rcc.h ****   * @retval None
 694:../../dependencies/STM32CubeL0/Drivers/STM32L0xx_HAL_Driver/Inc/stm32l0xx_ll_rcc.h ****   */
 695:../../dependencies/STM32CubeL0/Drivers/STM32L0xx_HAL_Driver/Inc/stm32l0xx_ll_rcc.h **** __STATIC_INLINE void LL_RCC_HSE_EnableBypass(void)
 696:../../dependencies/STM32CubeL0/Drivers/STM32L0xx_HAL_Driver/Inc/stm32l0xx_ll_rcc.h **** {
 697:../../dependencies/STM32CubeL0/Drivers/STM32L0xx_HAL_Driver/Inc/stm32l0xx_ll_rcc.h ****   SET_BIT(RCC->CR, RCC_CR_HSEBYP);
 698:../../dependencies/STM32CubeL0/Drivers/STM32L0xx_HAL_Driver/Inc/stm32l0xx_ll_rcc.h **** }
 699:../../dependencies/STM32CubeL0/Drivers/STM32L0xx_HAL_Driver/Inc/stm32l0xx_ll_rcc.h **** 
 700:../../dependencies/STM32CubeL0/Drivers/STM32L0xx_HAL_Driver/Inc/stm32l0xx_ll_rcc.h **** /**
 701:../../dependencies/STM32CubeL0/Drivers/STM32L0xx_HAL_Driver/Inc/stm32l0xx_ll_rcc.h ****   * @brief  Disable HSE external oscillator (HSE Bypass)
 702:../../dependencies/STM32CubeL0/Drivers/STM32L0xx_HAL_Driver/Inc/stm32l0xx_ll_rcc.h ****   * @rmtoll CR           HSEBYP        LL_RCC_HSE_DisableBypass
 703:../../dependencies/STM32CubeL0/Drivers/STM32L0xx_HAL_Driver/Inc/stm32l0xx_ll_rcc.h ****   * @retval None
 704:../../dependencies/STM32CubeL0/Drivers/STM32L0xx_HAL_Driver/Inc/stm32l0xx_ll_rcc.h ****   */
 705:../../dependencies/STM32CubeL0/Drivers/STM32L0xx_HAL_Driver/Inc/stm32l0xx_ll_rcc.h **** __STATIC_INLINE void LL_RCC_HSE_DisableBypass(void)
 706:../../dependencies/STM32CubeL0/Drivers/STM32L0xx_HAL_Driver/Inc/stm32l0xx_ll_rcc.h **** {
  26              		.loc 1 706 1
  27              		.cfi_startproc
  28              		@ args = 0, pretend = 0, frame = 0
  29              		@ frame_needed = 1, uses_anonymous_args = 0
  30 0000 80B5     		push	{r7, lr}
  31              		.cfi_def_cfa_offset 8
  32              		.cfi_offset 7, -8
  33              		.cfi_offset 14, -4
  34 0002 00AF     		add	r7, sp, #0
  35              		.cfi_def_cfa_register 7
 707:../../dependencies/STM32CubeL0/Drivers/STM32L0xx_HAL_Driver/Inc/stm32l0xx_ll_rcc.h ****   CLEAR_BIT(RCC->CR, RCC_CR_HSEBYP);
ARM GAS  /var/folders/fs/dxwfnrqj18z860lwl3d6f5t00000gn/T//ccl6Jv28.s 			page 14


  36              		.loc 1 707 3
  37 0004 044B     		ldr	r3, .L2
  38 0006 1A68     		ldr	r2, [r3]
  39 0008 034B     		ldr	r3, .L2
  40 000a 0449     		ldr	r1, .L2+4
  41 000c 0A40     		ands	r2, r1
  42 000e 1A60     		str	r2, [r3]
 708:../../dependencies/STM32CubeL0/Drivers/STM32L0xx_HAL_Driver/Inc/stm32l0xx_ll_rcc.h **** }
  43              		.loc 1 708 1
  44 0010 C046     		nop
  45 0012 BD46     		mov	sp, r7
  46              		@ sp needed
  47 0014 80BD     		pop	{r7, pc}
  48              	.L3:
  49 0016 C046     		.align	2
  50              	.L2:
  51 0018 00100240 		.word	1073876992
  52 001c FFFFFBFF 		.word	-262145
  53              		.cfi_endproc
  54              	.LFE49:
  56              		.section	.text.LL_RCC_HSI_IsReady,"ax",%progbits
  57              		.align	1
  58              		.syntax unified
  59              		.code	16
  60              		.thumb_func
  61              		.fpu softvfp
  63              	LL_RCC_HSI_IsReady:
  64              	.LFB57:
 709:../../dependencies/STM32CubeL0/Drivers/STM32L0xx_HAL_Driver/Inc/stm32l0xx_ll_rcc.h **** 
 710:../../dependencies/STM32CubeL0/Drivers/STM32L0xx_HAL_Driver/Inc/stm32l0xx_ll_rcc.h **** /**
 711:../../dependencies/STM32CubeL0/Drivers/STM32L0xx_HAL_Driver/Inc/stm32l0xx_ll_rcc.h ****   * @brief  Enable HSE crystal oscillator (HSE ON)
 712:../../dependencies/STM32CubeL0/Drivers/STM32L0xx_HAL_Driver/Inc/stm32l0xx_ll_rcc.h ****   * @rmtoll CR           HSEON         LL_RCC_HSE_Enable
 713:../../dependencies/STM32CubeL0/Drivers/STM32L0xx_HAL_Driver/Inc/stm32l0xx_ll_rcc.h ****   * @retval None
 714:../../dependencies/STM32CubeL0/Drivers/STM32L0xx_HAL_Driver/Inc/stm32l0xx_ll_rcc.h ****   */
 715:../../dependencies/STM32CubeL0/Drivers/STM32L0xx_HAL_Driver/Inc/stm32l0xx_ll_rcc.h **** __STATIC_INLINE void LL_RCC_HSE_Enable(void)
 716:../../dependencies/STM32CubeL0/Drivers/STM32L0xx_HAL_Driver/Inc/stm32l0xx_ll_rcc.h **** {
 717:../../dependencies/STM32CubeL0/Drivers/STM32L0xx_HAL_Driver/Inc/stm32l0xx_ll_rcc.h ****   SET_BIT(RCC->CR, RCC_CR_HSEON);
 718:../../dependencies/STM32CubeL0/Drivers/STM32L0xx_HAL_Driver/Inc/stm32l0xx_ll_rcc.h **** }
 719:../../dependencies/STM32CubeL0/Drivers/STM32L0xx_HAL_Driver/Inc/stm32l0xx_ll_rcc.h **** 
 720:../../dependencies/STM32CubeL0/Drivers/STM32L0xx_HAL_Driver/Inc/stm32l0xx_ll_rcc.h **** /**
 721:../../dependencies/STM32CubeL0/Drivers/STM32L0xx_HAL_Driver/Inc/stm32l0xx_ll_rcc.h ****   * @brief  Disable HSE crystal oscillator (HSE ON)
 722:../../dependencies/STM32CubeL0/Drivers/STM32L0xx_HAL_Driver/Inc/stm32l0xx_ll_rcc.h ****   * @rmtoll CR           HSEON         LL_RCC_HSE_Disable
 723:../../dependencies/STM32CubeL0/Drivers/STM32L0xx_HAL_Driver/Inc/stm32l0xx_ll_rcc.h ****   * @retval None
 724:../../dependencies/STM32CubeL0/Drivers/STM32L0xx_HAL_Driver/Inc/stm32l0xx_ll_rcc.h ****   */
 725:../../dependencies/STM32CubeL0/Drivers/STM32L0xx_HAL_Driver/Inc/stm32l0xx_ll_rcc.h **** __STATIC_INLINE void LL_RCC_HSE_Disable(void)
 726:../../dependencies/STM32CubeL0/Drivers/STM32L0xx_HAL_Driver/Inc/stm32l0xx_ll_rcc.h **** {
 727:../../dependencies/STM32CubeL0/Drivers/STM32L0xx_HAL_Driver/Inc/stm32l0xx_ll_rcc.h ****   CLEAR_BIT(RCC->CR, RCC_CR_HSEON);
 728:../../dependencies/STM32CubeL0/Drivers/STM32L0xx_HAL_Driver/Inc/stm32l0xx_ll_rcc.h **** }
 729:../../dependencies/STM32CubeL0/Drivers/STM32L0xx_HAL_Driver/Inc/stm32l0xx_ll_rcc.h **** 
 730:../../dependencies/STM32CubeL0/Drivers/STM32L0xx_HAL_Driver/Inc/stm32l0xx_ll_rcc.h **** /**
 731:../../dependencies/STM32CubeL0/Drivers/STM32L0xx_HAL_Driver/Inc/stm32l0xx_ll_rcc.h ****   * @brief  Check if HSE oscillator Ready
 732:../../dependencies/STM32CubeL0/Drivers/STM32L0xx_HAL_Driver/Inc/stm32l0xx_ll_rcc.h ****   * @rmtoll CR           HSERDY        LL_RCC_HSE_IsReady
 733:../../dependencies/STM32CubeL0/Drivers/STM32L0xx_HAL_Driver/Inc/stm32l0xx_ll_rcc.h ****   * @retval State of bit (1 or 0).
 734:../../dependencies/STM32CubeL0/Drivers/STM32L0xx_HAL_Driver/Inc/stm32l0xx_ll_rcc.h ****   */
 735:../../dependencies/STM32CubeL0/Drivers/STM32L0xx_HAL_Driver/Inc/stm32l0xx_ll_rcc.h **** __STATIC_INLINE uint32_t LL_RCC_HSE_IsReady(void)
 736:../../dependencies/STM32CubeL0/Drivers/STM32L0xx_HAL_Driver/Inc/stm32l0xx_ll_rcc.h **** {
 737:../../dependencies/STM32CubeL0/Drivers/STM32L0xx_HAL_Driver/Inc/stm32l0xx_ll_rcc.h ****   return ((READ_BIT(RCC->CR, RCC_CR_HSERDY) == RCC_CR_HSERDY) ? 1UL : 0UL);
ARM GAS  /var/folders/fs/dxwfnrqj18z860lwl3d6f5t00000gn/T//ccl6Jv28.s 			page 15


 738:../../dependencies/STM32CubeL0/Drivers/STM32L0xx_HAL_Driver/Inc/stm32l0xx_ll_rcc.h **** }
 739:../../dependencies/STM32CubeL0/Drivers/STM32L0xx_HAL_Driver/Inc/stm32l0xx_ll_rcc.h **** 
 740:../../dependencies/STM32CubeL0/Drivers/STM32L0xx_HAL_Driver/Inc/stm32l0xx_ll_rcc.h **** /**
 741:../../dependencies/STM32CubeL0/Drivers/STM32L0xx_HAL_Driver/Inc/stm32l0xx_ll_rcc.h ****   * @brief  Configure the RTC prescaler (divider)
 742:../../dependencies/STM32CubeL0/Drivers/STM32L0xx_HAL_Driver/Inc/stm32l0xx_ll_rcc.h ****   * @rmtoll CR           RTCPRE        LL_RCC_SetRTC_HSEPrescaler
 743:../../dependencies/STM32CubeL0/Drivers/STM32L0xx_HAL_Driver/Inc/stm32l0xx_ll_rcc.h ****   * @param  Div This parameter can be one of the following values:
 744:../../dependencies/STM32CubeL0/Drivers/STM32L0xx_HAL_Driver/Inc/stm32l0xx_ll_rcc.h ****   *         @arg @ref LL_RCC_RTC_HSE_DIV_2
 745:../../dependencies/STM32CubeL0/Drivers/STM32L0xx_HAL_Driver/Inc/stm32l0xx_ll_rcc.h ****   *         @arg @ref LL_RCC_RTC_HSE_DIV_4
 746:../../dependencies/STM32CubeL0/Drivers/STM32L0xx_HAL_Driver/Inc/stm32l0xx_ll_rcc.h ****   *         @arg @ref LL_RCC_RTC_HSE_DIV_8
 747:../../dependencies/STM32CubeL0/Drivers/STM32L0xx_HAL_Driver/Inc/stm32l0xx_ll_rcc.h ****   *         @arg @ref LL_RCC_RTC_HSE_DIV_16
 748:../../dependencies/STM32CubeL0/Drivers/STM32L0xx_HAL_Driver/Inc/stm32l0xx_ll_rcc.h ****   * @retval None
 749:../../dependencies/STM32CubeL0/Drivers/STM32L0xx_HAL_Driver/Inc/stm32l0xx_ll_rcc.h ****   */
 750:../../dependencies/STM32CubeL0/Drivers/STM32L0xx_HAL_Driver/Inc/stm32l0xx_ll_rcc.h **** __STATIC_INLINE void LL_RCC_SetRTC_HSEPrescaler(uint32_t Div)
 751:../../dependencies/STM32CubeL0/Drivers/STM32L0xx_HAL_Driver/Inc/stm32l0xx_ll_rcc.h **** {
 752:../../dependencies/STM32CubeL0/Drivers/STM32L0xx_HAL_Driver/Inc/stm32l0xx_ll_rcc.h ****   MODIFY_REG(RCC->CR, RCC_CR_RTCPRE, Div);
 753:../../dependencies/STM32CubeL0/Drivers/STM32L0xx_HAL_Driver/Inc/stm32l0xx_ll_rcc.h **** }
 754:../../dependencies/STM32CubeL0/Drivers/STM32L0xx_HAL_Driver/Inc/stm32l0xx_ll_rcc.h **** 
 755:../../dependencies/STM32CubeL0/Drivers/STM32L0xx_HAL_Driver/Inc/stm32l0xx_ll_rcc.h **** /**
 756:../../dependencies/STM32CubeL0/Drivers/STM32L0xx_HAL_Driver/Inc/stm32l0xx_ll_rcc.h ****   * @brief  Get the RTC divider (prescaler)
 757:../../dependencies/STM32CubeL0/Drivers/STM32L0xx_HAL_Driver/Inc/stm32l0xx_ll_rcc.h ****   * @rmtoll CR           RTCPRE        LL_RCC_GetRTC_HSEPrescaler
 758:../../dependencies/STM32CubeL0/Drivers/STM32L0xx_HAL_Driver/Inc/stm32l0xx_ll_rcc.h ****   * @retval Returned value can be one of the following values:
 759:../../dependencies/STM32CubeL0/Drivers/STM32L0xx_HAL_Driver/Inc/stm32l0xx_ll_rcc.h ****   *         @arg @ref LL_RCC_RTC_HSE_DIV_2
 760:../../dependencies/STM32CubeL0/Drivers/STM32L0xx_HAL_Driver/Inc/stm32l0xx_ll_rcc.h ****   *         @arg @ref LL_RCC_RTC_HSE_DIV_4
 761:../../dependencies/STM32CubeL0/Drivers/STM32L0xx_HAL_Driver/Inc/stm32l0xx_ll_rcc.h ****   *         @arg @ref LL_RCC_RTC_HSE_DIV_8
 762:../../dependencies/STM32CubeL0/Drivers/STM32L0xx_HAL_Driver/Inc/stm32l0xx_ll_rcc.h ****   *         @arg @ref LL_RCC_RTC_HSE_DIV_16
 763:../../dependencies/STM32CubeL0/Drivers/STM32L0xx_HAL_Driver/Inc/stm32l0xx_ll_rcc.h ****   */
 764:../../dependencies/STM32CubeL0/Drivers/STM32L0xx_HAL_Driver/Inc/stm32l0xx_ll_rcc.h **** __STATIC_INLINE uint32_t LL_RCC_GetRTC_HSEPrescaler(void)
 765:../../dependencies/STM32CubeL0/Drivers/STM32L0xx_HAL_Driver/Inc/stm32l0xx_ll_rcc.h **** {
 766:../../dependencies/STM32CubeL0/Drivers/STM32L0xx_HAL_Driver/Inc/stm32l0xx_ll_rcc.h ****   return (uint32_t)(READ_BIT(RCC->CR, RCC_CR_RTCPRE));
 767:../../dependencies/STM32CubeL0/Drivers/STM32L0xx_HAL_Driver/Inc/stm32l0xx_ll_rcc.h **** }
 768:../../dependencies/STM32CubeL0/Drivers/STM32L0xx_HAL_Driver/Inc/stm32l0xx_ll_rcc.h **** 
 769:../../dependencies/STM32CubeL0/Drivers/STM32L0xx_HAL_Driver/Inc/stm32l0xx_ll_rcc.h **** /**
 770:../../dependencies/STM32CubeL0/Drivers/STM32L0xx_HAL_Driver/Inc/stm32l0xx_ll_rcc.h ****   * @}
 771:../../dependencies/STM32CubeL0/Drivers/STM32L0xx_HAL_Driver/Inc/stm32l0xx_ll_rcc.h ****   */
 772:../../dependencies/STM32CubeL0/Drivers/STM32L0xx_HAL_Driver/Inc/stm32l0xx_ll_rcc.h **** 
 773:../../dependencies/STM32CubeL0/Drivers/STM32L0xx_HAL_Driver/Inc/stm32l0xx_ll_rcc.h **** /** @defgroup RCC_LL_EF_HSI HSI
 774:../../dependencies/STM32CubeL0/Drivers/STM32L0xx_HAL_Driver/Inc/stm32l0xx_ll_rcc.h ****   * @{
 775:../../dependencies/STM32CubeL0/Drivers/STM32L0xx_HAL_Driver/Inc/stm32l0xx_ll_rcc.h ****   */
 776:../../dependencies/STM32CubeL0/Drivers/STM32L0xx_HAL_Driver/Inc/stm32l0xx_ll_rcc.h **** 
 777:../../dependencies/STM32CubeL0/Drivers/STM32L0xx_HAL_Driver/Inc/stm32l0xx_ll_rcc.h **** /**
 778:../../dependencies/STM32CubeL0/Drivers/STM32L0xx_HAL_Driver/Inc/stm32l0xx_ll_rcc.h ****   * @brief  Enable HSI oscillator
 779:../../dependencies/STM32CubeL0/Drivers/STM32L0xx_HAL_Driver/Inc/stm32l0xx_ll_rcc.h ****   * @rmtoll CR           HSION         LL_RCC_HSI_Enable
 780:../../dependencies/STM32CubeL0/Drivers/STM32L0xx_HAL_Driver/Inc/stm32l0xx_ll_rcc.h ****   * @retval None
 781:../../dependencies/STM32CubeL0/Drivers/STM32L0xx_HAL_Driver/Inc/stm32l0xx_ll_rcc.h ****   */
 782:../../dependencies/STM32CubeL0/Drivers/STM32L0xx_HAL_Driver/Inc/stm32l0xx_ll_rcc.h **** __STATIC_INLINE void LL_RCC_HSI_Enable(void)
 783:../../dependencies/STM32CubeL0/Drivers/STM32L0xx_HAL_Driver/Inc/stm32l0xx_ll_rcc.h **** {
 784:../../dependencies/STM32CubeL0/Drivers/STM32L0xx_HAL_Driver/Inc/stm32l0xx_ll_rcc.h ****   SET_BIT(RCC->CR, RCC_CR_HSION);
 785:../../dependencies/STM32CubeL0/Drivers/STM32L0xx_HAL_Driver/Inc/stm32l0xx_ll_rcc.h **** }
 786:../../dependencies/STM32CubeL0/Drivers/STM32L0xx_HAL_Driver/Inc/stm32l0xx_ll_rcc.h **** 
 787:../../dependencies/STM32CubeL0/Drivers/STM32L0xx_HAL_Driver/Inc/stm32l0xx_ll_rcc.h **** /**
 788:../../dependencies/STM32CubeL0/Drivers/STM32L0xx_HAL_Driver/Inc/stm32l0xx_ll_rcc.h ****   * @brief  Disable HSI oscillator
 789:../../dependencies/STM32CubeL0/Drivers/STM32L0xx_HAL_Driver/Inc/stm32l0xx_ll_rcc.h ****   * @rmtoll CR           HSION         LL_RCC_HSI_Disable
 790:../../dependencies/STM32CubeL0/Drivers/STM32L0xx_HAL_Driver/Inc/stm32l0xx_ll_rcc.h ****   * @retval None
 791:../../dependencies/STM32CubeL0/Drivers/STM32L0xx_HAL_Driver/Inc/stm32l0xx_ll_rcc.h ****   */
 792:../../dependencies/STM32CubeL0/Drivers/STM32L0xx_HAL_Driver/Inc/stm32l0xx_ll_rcc.h **** __STATIC_INLINE void LL_RCC_HSI_Disable(void)
 793:../../dependencies/STM32CubeL0/Drivers/STM32L0xx_HAL_Driver/Inc/stm32l0xx_ll_rcc.h **** {
 794:../../dependencies/STM32CubeL0/Drivers/STM32L0xx_HAL_Driver/Inc/stm32l0xx_ll_rcc.h ****   CLEAR_BIT(RCC->CR, RCC_CR_HSION);
ARM GAS  /var/folders/fs/dxwfnrqj18z860lwl3d6f5t00000gn/T//ccl6Jv28.s 			page 16


 795:../../dependencies/STM32CubeL0/Drivers/STM32L0xx_HAL_Driver/Inc/stm32l0xx_ll_rcc.h **** }
 796:../../dependencies/STM32CubeL0/Drivers/STM32L0xx_HAL_Driver/Inc/stm32l0xx_ll_rcc.h **** 
 797:../../dependencies/STM32CubeL0/Drivers/STM32L0xx_HAL_Driver/Inc/stm32l0xx_ll_rcc.h **** /**
 798:../../dependencies/STM32CubeL0/Drivers/STM32L0xx_HAL_Driver/Inc/stm32l0xx_ll_rcc.h ****   * @brief  Check if HSI clock is ready
 799:../../dependencies/STM32CubeL0/Drivers/STM32L0xx_HAL_Driver/Inc/stm32l0xx_ll_rcc.h ****   * @rmtoll CR           HSIRDY        LL_RCC_HSI_IsReady
 800:../../dependencies/STM32CubeL0/Drivers/STM32L0xx_HAL_Driver/Inc/stm32l0xx_ll_rcc.h ****   * @retval State of bit (1 or 0).
 801:../../dependencies/STM32CubeL0/Drivers/STM32L0xx_HAL_Driver/Inc/stm32l0xx_ll_rcc.h ****   */
 802:../../dependencies/STM32CubeL0/Drivers/STM32L0xx_HAL_Driver/Inc/stm32l0xx_ll_rcc.h **** __STATIC_INLINE uint32_t LL_RCC_HSI_IsReady(void)
 803:../../dependencies/STM32CubeL0/Drivers/STM32L0xx_HAL_Driver/Inc/stm32l0xx_ll_rcc.h **** {
  65              		.loc 1 803 1
  66              		.cfi_startproc
  67              		@ args = 0, pretend = 0, frame = 0
  68              		@ frame_needed = 1, uses_anonymous_args = 0
  69 0000 80B5     		push	{r7, lr}
  70              		.cfi_def_cfa_offset 8
  71              		.cfi_offset 7, -8
  72              		.cfi_offset 14, -4
  73 0002 00AF     		add	r7, sp, #0
  74              		.cfi_def_cfa_register 7
 804:../../dependencies/STM32CubeL0/Drivers/STM32L0xx_HAL_Driver/Inc/stm32l0xx_ll_rcc.h ****   return ((READ_BIT(RCC->CR, RCC_CR_HSIRDY) == RCC_CR_HSIRDY) ? 1UL : 0UL);
  75              		.loc 1 804 12
  76 0004 054B     		ldr	r3, .L8
  77 0006 1B68     		ldr	r3, [r3]
  78 0008 0422     		movs	r2, #4
  79 000a 1340     		ands	r3, r2
  80              		.loc 1 804 69
  81 000c 042B     		cmp	r3, #4
  82 000e 01D1     		bne	.L5
  83              		.loc 1 804 69 is_stmt 0 discriminator 1
  84 0010 0123     		movs	r3, #1
  85 0012 00E0     		b	.L7
  86              	.L5:
  87              		.loc 1 804 69 discriminator 2
  88 0014 0023     		movs	r3, #0
  89              	.L7:
 805:../../dependencies/STM32CubeL0/Drivers/STM32L0xx_HAL_Driver/Inc/stm32l0xx_ll_rcc.h **** }
  90              		.loc 1 805 1 is_stmt 1 discriminator 5
  91 0016 1800     		movs	r0, r3
  92 0018 BD46     		mov	sp, r7
  93              		@ sp needed
  94 001a 80BD     		pop	{r7, pc}
  95              	.L9:
  96              		.align	2
  97              	.L8:
  98 001c 00100240 		.word	1073876992
  99              		.cfi_endproc
 100              	.LFE57:
 102              		.section	.text.LL_RCC_HSI_SetCalibTrimming,"ax",%progbits
 103              		.align	1
 104              		.syntax unified
 105              		.code	16
 106              		.thumb_func
 107              		.fpu softvfp
 109              	LL_RCC_HSI_SetCalibTrimming:
 110              	.LFB63:
 806:../../dependencies/STM32CubeL0/Drivers/STM32L0xx_HAL_Driver/Inc/stm32l0xx_ll_rcc.h **** 
 807:../../dependencies/STM32CubeL0/Drivers/STM32L0xx_HAL_Driver/Inc/stm32l0xx_ll_rcc.h **** /**
ARM GAS  /var/folders/fs/dxwfnrqj18z860lwl3d6f5t00000gn/T//ccl6Jv28.s 			page 17


 808:../../dependencies/STM32CubeL0/Drivers/STM32L0xx_HAL_Driver/Inc/stm32l0xx_ll_rcc.h ****   * @brief  Enable HSI even in stop mode
 809:../../dependencies/STM32CubeL0/Drivers/STM32L0xx_HAL_Driver/Inc/stm32l0xx_ll_rcc.h ****   * @note HSI oscillator is forced ON even in Stop mode
 810:../../dependencies/STM32CubeL0/Drivers/STM32L0xx_HAL_Driver/Inc/stm32l0xx_ll_rcc.h ****   * @rmtoll CR           HSIKERON      LL_RCC_HSI_EnableInStopMode
 811:../../dependencies/STM32CubeL0/Drivers/STM32L0xx_HAL_Driver/Inc/stm32l0xx_ll_rcc.h ****   * @retval None
 812:../../dependencies/STM32CubeL0/Drivers/STM32L0xx_HAL_Driver/Inc/stm32l0xx_ll_rcc.h ****   */
 813:../../dependencies/STM32CubeL0/Drivers/STM32L0xx_HAL_Driver/Inc/stm32l0xx_ll_rcc.h **** __STATIC_INLINE void LL_RCC_HSI_EnableInStopMode(void)
 814:../../dependencies/STM32CubeL0/Drivers/STM32L0xx_HAL_Driver/Inc/stm32l0xx_ll_rcc.h **** {
 815:../../dependencies/STM32CubeL0/Drivers/STM32L0xx_HAL_Driver/Inc/stm32l0xx_ll_rcc.h ****   SET_BIT(RCC->CR, RCC_CR_HSIKERON);
 816:../../dependencies/STM32CubeL0/Drivers/STM32L0xx_HAL_Driver/Inc/stm32l0xx_ll_rcc.h **** }
 817:../../dependencies/STM32CubeL0/Drivers/STM32L0xx_HAL_Driver/Inc/stm32l0xx_ll_rcc.h **** 
 818:../../dependencies/STM32CubeL0/Drivers/STM32L0xx_HAL_Driver/Inc/stm32l0xx_ll_rcc.h **** /**
 819:../../dependencies/STM32CubeL0/Drivers/STM32L0xx_HAL_Driver/Inc/stm32l0xx_ll_rcc.h ****   * @brief  Disable HSI in stop mode
 820:../../dependencies/STM32CubeL0/Drivers/STM32L0xx_HAL_Driver/Inc/stm32l0xx_ll_rcc.h ****   * @rmtoll CR           HSIKERON      LL_RCC_HSI_DisableInStopMode
 821:../../dependencies/STM32CubeL0/Drivers/STM32L0xx_HAL_Driver/Inc/stm32l0xx_ll_rcc.h ****   * @retval None
 822:../../dependencies/STM32CubeL0/Drivers/STM32L0xx_HAL_Driver/Inc/stm32l0xx_ll_rcc.h ****   */
 823:../../dependencies/STM32CubeL0/Drivers/STM32L0xx_HAL_Driver/Inc/stm32l0xx_ll_rcc.h **** __STATIC_INLINE void LL_RCC_HSI_DisableInStopMode(void)
 824:../../dependencies/STM32CubeL0/Drivers/STM32L0xx_HAL_Driver/Inc/stm32l0xx_ll_rcc.h **** {
 825:../../dependencies/STM32CubeL0/Drivers/STM32L0xx_HAL_Driver/Inc/stm32l0xx_ll_rcc.h ****   CLEAR_BIT(RCC->CR, RCC_CR_HSIKERON);
 826:../../dependencies/STM32CubeL0/Drivers/STM32L0xx_HAL_Driver/Inc/stm32l0xx_ll_rcc.h **** }
 827:../../dependencies/STM32CubeL0/Drivers/STM32L0xx_HAL_Driver/Inc/stm32l0xx_ll_rcc.h **** 
 828:../../dependencies/STM32CubeL0/Drivers/STM32L0xx_HAL_Driver/Inc/stm32l0xx_ll_rcc.h **** /**
 829:../../dependencies/STM32CubeL0/Drivers/STM32L0xx_HAL_Driver/Inc/stm32l0xx_ll_rcc.h ****   * @brief  Enable HSI Divider (it divides by 4)
 830:../../dependencies/STM32CubeL0/Drivers/STM32L0xx_HAL_Driver/Inc/stm32l0xx_ll_rcc.h ****   * @rmtoll CR           HSIDIVEN       LL_RCC_HSI_EnableDivider
 831:../../dependencies/STM32CubeL0/Drivers/STM32L0xx_HAL_Driver/Inc/stm32l0xx_ll_rcc.h ****   * @retval None
 832:../../dependencies/STM32CubeL0/Drivers/STM32L0xx_HAL_Driver/Inc/stm32l0xx_ll_rcc.h ****   */
 833:../../dependencies/STM32CubeL0/Drivers/STM32L0xx_HAL_Driver/Inc/stm32l0xx_ll_rcc.h **** __STATIC_INLINE void LL_RCC_HSI_EnableDivider(void)
 834:../../dependencies/STM32CubeL0/Drivers/STM32L0xx_HAL_Driver/Inc/stm32l0xx_ll_rcc.h **** {
 835:../../dependencies/STM32CubeL0/Drivers/STM32L0xx_HAL_Driver/Inc/stm32l0xx_ll_rcc.h ****   SET_BIT(RCC->CR, RCC_CR_HSIDIVEN);
 836:../../dependencies/STM32CubeL0/Drivers/STM32L0xx_HAL_Driver/Inc/stm32l0xx_ll_rcc.h **** }
 837:../../dependencies/STM32CubeL0/Drivers/STM32L0xx_HAL_Driver/Inc/stm32l0xx_ll_rcc.h **** 
 838:../../dependencies/STM32CubeL0/Drivers/STM32L0xx_HAL_Driver/Inc/stm32l0xx_ll_rcc.h **** /**
 839:../../dependencies/STM32CubeL0/Drivers/STM32L0xx_HAL_Driver/Inc/stm32l0xx_ll_rcc.h ****   * @brief  Disable HSI Divider (it divides by 4)
 840:../../dependencies/STM32CubeL0/Drivers/STM32L0xx_HAL_Driver/Inc/stm32l0xx_ll_rcc.h ****   * @rmtoll CR           HSIDIVEN       LL_RCC_HSI_DisableDivider
 841:../../dependencies/STM32CubeL0/Drivers/STM32L0xx_HAL_Driver/Inc/stm32l0xx_ll_rcc.h ****   * @retval None
 842:../../dependencies/STM32CubeL0/Drivers/STM32L0xx_HAL_Driver/Inc/stm32l0xx_ll_rcc.h ****   */
 843:../../dependencies/STM32CubeL0/Drivers/STM32L0xx_HAL_Driver/Inc/stm32l0xx_ll_rcc.h **** __STATIC_INLINE void LL_RCC_HSI_DisableDivider(void)
 844:../../dependencies/STM32CubeL0/Drivers/STM32L0xx_HAL_Driver/Inc/stm32l0xx_ll_rcc.h **** {
 845:../../dependencies/STM32CubeL0/Drivers/STM32L0xx_HAL_Driver/Inc/stm32l0xx_ll_rcc.h ****   CLEAR_BIT(RCC->CR, RCC_CR_HSIDIVEN);
 846:../../dependencies/STM32CubeL0/Drivers/STM32L0xx_HAL_Driver/Inc/stm32l0xx_ll_rcc.h **** }
 847:../../dependencies/STM32CubeL0/Drivers/STM32L0xx_HAL_Driver/Inc/stm32l0xx_ll_rcc.h **** 
 848:../../dependencies/STM32CubeL0/Drivers/STM32L0xx_HAL_Driver/Inc/stm32l0xx_ll_rcc.h **** 
 849:../../dependencies/STM32CubeL0/Drivers/STM32L0xx_HAL_Driver/Inc/stm32l0xx_ll_rcc.h **** 
 850:../../dependencies/STM32CubeL0/Drivers/STM32L0xx_HAL_Driver/Inc/stm32l0xx_ll_rcc.h **** #if defined(RCC_CR_HSIOUTEN)
 851:../../dependencies/STM32CubeL0/Drivers/STM32L0xx_HAL_Driver/Inc/stm32l0xx_ll_rcc.h **** /**
 852:../../dependencies/STM32CubeL0/Drivers/STM32L0xx_HAL_Driver/Inc/stm32l0xx_ll_rcc.h ****   * @brief  Enable HSI Output
 853:../../dependencies/STM32CubeL0/Drivers/STM32L0xx_HAL_Driver/Inc/stm32l0xx_ll_rcc.h ****   * @rmtoll CR           HSIOUTEN       LL_RCC_HSI_EnableOutput
 854:../../dependencies/STM32CubeL0/Drivers/STM32L0xx_HAL_Driver/Inc/stm32l0xx_ll_rcc.h ****   * @retval None
 855:../../dependencies/STM32CubeL0/Drivers/STM32L0xx_HAL_Driver/Inc/stm32l0xx_ll_rcc.h ****   */
 856:../../dependencies/STM32CubeL0/Drivers/STM32L0xx_HAL_Driver/Inc/stm32l0xx_ll_rcc.h **** __STATIC_INLINE void LL_RCC_HSI_EnableOutput(void)
 857:../../dependencies/STM32CubeL0/Drivers/STM32L0xx_HAL_Driver/Inc/stm32l0xx_ll_rcc.h **** {
 858:../../dependencies/STM32CubeL0/Drivers/STM32L0xx_HAL_Driver/Inc/stm32l0xx_ll_rcc.h ****   SET_BIT(RCC->CR, RCC_CR_HSIOUTEN);
 859:../../dependencies/STM32CubeL0/Drivers/STM32L0xx_HAL_Driver/Inc/stm32l0xx_ll_rcc.h **** }
 860:../../dependencies/STM32CubeL0/Drivers/STM32L0xx_HAL_Driver/Inc/stm32l0xx_ll_rcc.h **** 
 861:../../dependencies/STM32CubeL0/Drivers/STM32L0xx_HAL_Driver/Inc/stm32l0xx_ll_rcc.h **** /**
 862:../../dependencies/STM32CubeL0/Drivers/STM32L0xx_HAL_Driver/Inc/stm32l0xx_ll_rcc.h ****   * @brief  Disable HSI Output
 863:../../dependencies/STM32CubeL0/Drivers/STM32L0xx_HAL_Driver/Inc/stm32l0xx_ll_rcc.h ****   * @rmtoll CR           HSIOUTEN       LL_RCC_HSI_DisableOutput
 864:../../dependencies/STM32CubeL0/Drivers/STM32L0xx_HAL_Driver/Inc/stm32l0xx_ll_rcc.h ****   * @retval None
ARM GAS  /var/folders/fs/dxwfnrqj18z860lwl3d6f5t00000gn/T//ccl6Jv28.s 			page 18


 865:../../dependencies/STM32CubeL0/Drivers/STM32L0xx_HAL_Driver/Inc/stm32l0xx_ll_rcc.h ****   */
 866:../../dependencies/STM32CubeL0/Drivers/STM32L0xx_HAL_Driver/Inc/stm32l0xx_ll_rcc.h **** __STATIC_INLINE void LL_RCC_HSI_DisableOutput(void)
 867:../../dependencies/STM32CubeL0/Drivers/STM32L0xx_HAL_Driver/Inc/stm32l0xx_ll_rcc.h **** {
 868:../../dependencies/STM32CubeL0/Drivers/STM32L0xx_HAL_Driver/Inc/stm32l0xx_ll_rcc.h ****   CLEAR_BIT(RCC->CR, RCC_CR_HSIOUTEN);
 869:../../dependencies/STM32CubeL0/Drivers/STM32L0xx_HAL_Driver/Inc/stm32l0xx_ll_rcc.h **** }
 870:../../dependencies/STM32CubeL0/Drivers/STM32L0xx_HAL_Driver/Inc/stm32l0xx_ll_rcc.h **** #endif /* RCC_CR_HSIOUTEN */
 871:../../dependencies/STM32CubeL0/Drivers/STM32L0xx_HAL_Driver/Inc/stm32l0xx_ll_rcc.h **** 
 872:../../dependencies/STM32CubeL0/Drivers/STM32L0xx_HAL_Driver/Inc/stm32l0xx_ll_rcc.h **** /**
 873:../../dependencies/STM32CubeL0/Drivers/STM32L0xx_HAL_Driver/Inc/stm32l0xx_ll_rcc.h ****   * @brief  Get HSI Calibration value
 874:../../dependencies/STM32CubeL0/Drivers/STM32L0xx_HAL_Driver/Inc/stm32l0xx_ll_rcc.h ****   * @note When HSITRIM is written, HSICAL is updated with the sum of
 875:../../dependencies/STM32CubeL0/Drivers/STM32L0xx_HAL_Driver/Inc/stm32l0xx_ll_rcc.h ****   *       HSITRIM and the factory trim value
 876:../../dependencies/STM32CubeL0/Drivers/STM32L0xx_HAL_Driver/Inc/stm32l0xx_ll_rcc.h ****   * @rmtoll ICSCR        HSICAL        LL_RCC_HSI_GetCalibration
 877:../../dependencies/STM32CubeL0/Drivers/STM32L0xx_HAL_Driver/Inc/stm32l0xx_ll_rcc.h ****   * @retval Between Min_Data = 0x00 and Max_Data = 0xFF
 878:../../dependencies/STM32CubeL0/Drivers/STM32L0xx_HAL_Driver/Inc/stm32l0xx_ll_rcc.h ****   */
 879:../../dependencies/STM32CubeL0/Drivers/STM32L0xx_HAL_Driver/Inc/stm32l0xx_ll_rcc.h **** __STATIC_INLINE uint32_t LL_RCC_HSI_GetCalibration(void)
 880:../../dependencies/STM32CubeL0/Drivers/STM32L0xx_HAL_Driver/Inc/stm32l0xx_ll_rcc.h **** {
 881:../../dependencies/STM32CubeL0/Drivers/STM32L0xx_HAL_Driver/Inc/stm32l0xx_ll_rcc.h ****   return (uint32_t)(READ_BIT(RCC->ICSCR, RCC_ICSCR_HSICAL) >> RCC_ICSCR_HSICAL_Pos);
 882:../../dependencies/STM32CubeL0/Drivers/STM32L0xx_HAL_Driver/Inc/stm32l0xx_ll_rcc.h **** }
 883:../../dependencies/STM32CubeL0/Drivers/STM32L0xx_HAL_Driver/Inc/stm32l0xx_ll_rcc.h **** 
 884:../../dependencies/STM32CubeL0/Drivers/STM32L0xx_HAL_Driver/Inc/stm32l0xx_ll_rcc.h **** /**
 885:../../dependencies/STM32CubeL0/Drivers/STM32L0xx_HAL_Driver/Inc/stm32l0xx_ll_rcc.h ****   * @brief  Set HSI Calibration trimming
 886:../../dependencies/STM32CubeL0/Drivers/STM32L0xx_HAL_Driver/Inc/stm32l0xx_ll_rcc.h ****   * @note user-programmable trimming value that is added to the HSICAL
 887:../../dependencies/STM32CubeL0/Drivers/STM32L0xx_HAL_Driver/Inc/stm32l0xx_ll_rcc.h ****   * @note Default value is 16, which, when added to the HSICAL value,
 888:../../dependencies/STM32CubeL0/Drivers/STM32L0xx_HAL_Driver/Inc/stm32l0xx_ll_rcc.h ****   *       should trim the HSI to 16 MHz +/- 1 %
 889:../../dependencies/STM32CubeL0/Drivers/STM32L0xx_HAL_Driver/Inc/stm32l0xx_ll_rcc.h ****   * @rmtoll ICSCR        HSITRIM       LL_RCC_HSI_SetCalibTrimming
 890:../../dependencies/STM32CubeL0/Drivers/STM32L0xx_HAL_Driver/Inc/stm32l0xx_ll_rcc.h ****   * @param  Value between Min_Data = 0x00 and Max_Data = 0x1F
 891:../../dependencies/STM32CubeL0/Drivers/STM32L0xx_HAL_Driver/Inc/stm32l0xx_ll_rcc.h ****   * @retval None
 892:../../dependencies/STM32CubeL0/Drivers/STM32L0xx_HAL_Driver/Inc/stm32l0xx_ll_rcc.h ****   */
 893:../../dependencies/STM32CubeL0/Drivers/STM32L0xx_HAL_Driver/Inc/stm32l0xx_ll_rcc.h **** __STATIC_INLINE void LL_RCC_HSI_SetCalibTrimming(uint32_t Value)
 894:../../dependencies/STM32CubeL0/Drivers/STM32L0xx_HAL_Driver/Inc/stm32l0xx_ll_rcc.h **** {
 111              		.loc 1 894 1
 112              		.cfi_startproc
 113              		@ args = 0, pretend = 0, frame = 8
 114              		@ frame_needed = 1, uses_anonymous_args = 0
 115 0000 80B5     		push	{r7, lr}
 116              		.cfi_def_cfa_offset 8
 117              		.cfi_offset 7, -8
 118              		.cfi_offset 14, -4
 119 0002 82B0     		sub	sp, sp, #8
 120              		.cfi_def_cfa_offset 16
 121 0004 00AF     		add	r7, sp, #0
 122              		.cfi_def_cfa_register 7
 123 0006 7860     		str	r0, [r7, #4]
 895:../../dependencies/STM32CubeL0/Drivers/STM32L0xx_HAL_Driver/Inc/stm32l0xx_ll_rcc.h ****   MODIFY_REG(RCC->ICSCR, RCC_ICSCR_HSITRIM, Value << RCC_ICSCR_HSITRIM_Pos);
 124              		.loc 1 895 3
 125 0008 064B     		ldr	r3, .L11
 126 000a 5B68     		ldr	r3, [r3, #4]
 127 000c 064A     		ldr	r2, .L11+4
 128 000e 1340     		ands	r3, r2
 129 0010 1900     		movs	r1, r3
 130 0012 7B68     		ldr	r3, [r7, #4]
 131 0014 1A02     		lsls	r2, r3, #8
 132 0016 034B     		ldr	r3, .L11
 133 0018 0A43     		orrs	r2, r1
 134 001a 5A60     		str	r2, [r3, #4]
 896:../../dependencies/STM32CubeL0/Drivers/STM32L0xx_HAL_Driver/Inc/stm32l0xx_ll_rcc.h **** }
 135              		.loc 1 896 1
ARM GAS  /var/folders/fs/dxwfnrqj18z860lwl3d6f5t00000gn/T//ccl6Jv28.s 			page 19


 136 001c C046     		nop
 137 001e BD46     		mov	sp, r7
 138 0020 02B0     		add	sp, sp, #8
 139              		@ sp needed
 140 0022 80BD     		pop	{r7, pc}
 141              	.L12:
 142              		.align	2
 143              	.L11:
 144 0024 00100240 		.word	1073876992
 145 0028 FFE0FFFF 		.word	-7937
 146              		.cfi_endproc
 147              	.LFE63:
 149              		.section	.text.LL_RCC_HSI48_IsReady,"ax",%progbits
 150              		.align	1
 151              		.syntax unified
 152              		.code	16
 153              		.thumb_func
 154              		.fpu softvfp
 156              	LL_RCC_HSI48_IsReady:
 157              	.LFB67:
 897:../../dependencies/STM32CubeL0/Drivers/STM32L0xx_HAL_Driver/Inc/stm32l0xx_ll_rcc.h **** 
 898:../../dependencies/STM32CubeL0/Drivers/STM32L0xx_HAL_Driver/Inc/stm32l0xx_ll_rcc.h **** /**
 899:../../dependencies/STM32CubeL0/Drivers/STM32L0xx_HAL_Driver/Inc/stm32l0xx_ll_rcc.h ****   * @brief  Get HSI Calibration trimming
 900:../../dependencies/STM32CubeL0/Drivers/STM32L0xx_HAL_Driver/Inc/stm32l0xx_ll_rcc.h ****   * @rmtoll ICSCR        HSITRIM       LL_RCC_HSI_GetCalibTrimming
 901:../../dependencies/STM32CubeL0/Drivers/STM32L0xx_HAL_Driver/Inc/stm32l0xx_ll_rcc.h ****   * @retval Between Min_Data = 0x00 and Max_Data = 0x1F
 902:../../dependencies/STM32CubeL0/Drivers/STM32L0xx_HAL_Driver/Inc/stm32l0xx_ll_rcc.h ****   */
 903:../../dependencies/STM32CubeL0/Drivers/STM32L0xx_HAL_Driver/Inc/stm32l0xx_ll_rcc.h **** __STATIC_INLINE uint32_t LL_RCC_HSI_GetCalibTrimming(void)
 904:../../dependencies/STM32CubeL0/Drivers/STM32L0xx_HAL_Driver/Inc/stm32l0xx_ll_rcc.h **** {
 905:../../dependencies/STM32CubeL0/Drivers/STM32L0xx_HAL_Driver/Inc/stm32l0xx_ll_rcc.h ****   return (uint32_t)(READ_BIT(RCC->ICSCR, RCC_ICSCR_HSITRIM) >> RCC_ICSCR_HSITRIM_Pos);
 906:../../dependencies/STM32CubeL0/Drivers/STM32L0xx_HAL_Driver/Inc/stm32l0xx_ll_rcc.h **** }
 907:../../dependencies/STM32CubeL0/Drivers/STM32L0xx_HAL_Driver/Inc/stm32l0xx_ll_rcc.h **** 
 908:../../dependencies/STM32CubeL0/Drivers/STM32L0xx_HAL_Driver/Inc/stm32l0xx_ll_rcc.h **** /**
 909:../../dependencies/STM32CubeL0/Drivers/STM32L0xx_HAL_Driver/Inc/stm32l0xx_ll_rcc.h ****   * @}
 910:../../dependencies/STM32CubeL0/Drivers/STM32L0xx_HAL_Driver/Inc/stm32l0xx_ll_rcc.h ****   */
 911:../../dependencies/STM32CubeL0/Drivers/STM32L0xx_HAL_Driver/Inc/stm32l0xx_ll_rcc.h **** 
 912:../../dependencies/STM32CubeL0/Drivers/STM32L0xx_HAL_Driver/Inc/stm32l0xx_ll_rcc.h **** #if defined(RCC_HSI48_SUPPORT)
 913:../../dependencies/STM32CubeL0/Drivers/STM32L0xx_HAL_Driver/Inc/stm32l0xx_ll_rcc.h **** /** @defgroup RCC_LL_EF_HSI48 HSI48
 914:../../dependencies/STM32CubeL0/Drivers/STM32L0xx_HAL_Driver/Inc/stm32l0xx_ll_rcc.h ****   * @{
 915:../../dependencies/STM32CubeL0/Drivers/STM32L0xx_HAL_Driver/Inc/stm32l0xx_ll_rcc.h ****   */
 916:../../dependencies/STM32CubeL0/Drivers/STM32L0xx_HAL_Driver/Inc/stm32l0xx_ll_rcc.h **** 
 917:../../dependencies/STM32CubeL0/Drivers/STM32L0xx_HAL_Driver/Inc/stm32l0xx_ll_rcc.h **** /**
 918:../../dependencies/STM32CubeL0/Drivers/STM32L0xx_HAL_Driver/Inc/stm32l0xx_ll_rcc.h ****   * @brief  Enable HSI48
 919:../../dependencies/STM32CubeL0/Drivers/STM32L0xx_HAL_Driver/Inc/stm32l0xx_ll_rcc.h ****   * @rmtoll CRRCR          HSI48ON       LL_RCC_HSI48_Enable
 920:../../dependencies/STM32CubeL0/Drivers/STM32L0xx_HAL_Driver/Inc/stm32l0xx_ll_rcc.h ****   * @retval None
 921:../../dependencies/STM32CubeL0/Drivers/STM32L0xx_HAL_Driver/Inc/stm32l0xx_ll_rcc.h ****   */
 922:../../dependencies/STM32CubeL0/Drivers/STM32L0xx_HAL_Driver/Inc/stm32l0xx_ll_rcc.h **** __STATIC_INLINE void LL_RCC_HSI48_Enable(void)
 923:../../dependencies/STM32CubeL0/Drivers/STM32L0xx_HAL_Driver/Inc/stm32l0xx_ll_rcc.h **** {
 924:../../dependencies/STM32CubeL0/Drivers/STM32L0xx_HAL_Driver/Inc/stm32l0xx_ll_rcc.h ****   SET_BIT(RCC->CRRCR, RCC_CRRCR_HSI48ON);
 925:../../dependencies/STM32CubeL0/Drivers/STM32L0xx_HAL_Driver/Inc/stm32l0xx_ll_rcc.h **** }
 926:../../dependencies/STM32CubeL0/Drivers/STM32L0xx_HAL_Driver/Inc/stm32l0xx_ll_rcc.h **** 
 927:../../dependencies/STM32CubeL0/Drivers/STM32L0xx_HAL_Driver/Inc/stm32l0xx_ll_rcc.h **** /**
 928:../../dependencies/STM32CubeL0/Drivers/STM32L0xx_HAL_Driver/Inc/stm32l0xx_ll_rcc.h ****   * @brief  Disable HSI48
 929:../../dependencies/STM32CubeL0/Drivers/STM32L0xx_HAL_Driver/Inc/stm32l0xx_ll_rcc.h ****   * @rmtoll CRRCR          HSI48ON       LL_RCC_HSI48_Disable
 930:../../dependencies/STM32CubeL0/Drivers/STM32L0xx_HAL_Driver/Inc/stm32l0xx_ll_rcc.h ****   * @retval None
 931:../../dependencies/STM32CubeL0/Drivers/STM32L0xx_HAL_Driver/Inc/stm32l0xx_ll_rcc.h ****   */
 932:../../dependencies/STM32CubeL0/Drivers/STM32L0xx_HAL_Driver/Inc/stm32l0xx_ll_rcc.h **** __STATIC_INLINE void LL_RCC_HSI48_Disable(void)
 933:../../dependencies/STM32CubeL0/Drivers/STM32L0xx_HAL_Driver/Inc/stm32l0xx_ll_rcc.h **** {
ARM GAS  /var/folders/fs/dxwfnrqj18z860lwl3d6f5t00000gn/T//ccl6Jv28.s 			page 20


 934:../../dependencies/STM32CubeL0/Drivers/STM32L0xx_HAL_Driver/Inc/stm32l0xx_ll_rcc.h ****   CLEAR_BIT(RCC->CRRCR, RCC_CRRCR_HSI48ON);
 935:../../dependencies/STM32CubeL0/Drivers/STM32L0xx_HAL_Driver/Inc/stm32l0xx_ll_rcc.h **** }
 936:../../dependencies/STM32CubeL0/Drivers/STM32L0xx_HAL_Driver/Inc/stm32l0xx_ll_rcc.h **** 
 937:../../dependencies/STM32CubeL0/Drivers/STM32L0xx_HAL_Driver/Inc/stm32l0xx_ll_rcc.h **** /**
 938:../../dependencies/STM32CubeL0/Drivers/STM32L0xx_HAL_Driver/Inc/stm32l0xx_ll_rcc.h ****   * @brief  Check if HSI48 oscillator Ready
 939:../../dependencies/STM32CubeL0/Drivers/STM32L0xx_HAL_Driver/Inc/stm32l0xx_ll_rcc.h ****   * @rmtoll CRRCR          HSI48RDY      LL_RCC_HSI48_IsReady
 940:../../dependencies/STM32CubeL0/Drivers/STM32L0xx_HAL_Driver/Inc/stm32l0xx_ll_rcc.h ****   * @retval State of bit (1 or 0).
 941:../../dependencies/STM32CubeL0/Drivers/STM32L0xx_HAL_Driver/Inc/stm32l0xx_ll_rcc.h ****   */
 942:../../dependencies/STM32CubeL0/Drivers/STM32L0xx_HAL_Driver/Inc/stm32l0xx_ll_rcc.h **** __STATIC_INLINE uint32_t LL_RCC_HSI48_IsReady(void)
 943:../../dependencies/STM32CubeL0/Drivers/STM32L0xx_HAL_Driver/Inc/stm32l0xx_ll_rcc.h **** {
 158              		.loc 1 943 1
 159              		.cfi_startproc
 160              		@ args = 0, pretend = 0, frame = 0
 161              		@ frame_needed = 1, uses_anonymous_args = 0
 162 0000 80B5     		push	{r7, lr}
 163              		.cfi_def_cfa_offset 8
 164              		.cfi_offset 7, -8
 165              		.cfi_offset 14, -4
 166 0002 00AF     		add	r7, sp, #0
 167              		.cfi_def_cfa_register 7
 944:../../dependencies/STM32CubeL0/Drivers/STM32L0xx_HAL_Driver/Inc/stm32l0xx_ll_rcc.h ****   return ((READ_BIT(RCC->CRRCR, RCC_CRRCR_HSI48RDY) == RCC_CRRCR_HSI48RDY) ? 1UL : 0UL);
 168              		.loc 1 944 12
 169 0004 054B     		ldr	r3, .L17
 170 0006 9B68     		ldr	r3, [r3, #8]
 171 0008 0222     		movs	r2, #2
 172 000a 1340     		ands	r3, r2
 173              		.loc 1 944 82
 174 000c 022B     		cmp	r3, #2
 175 000e 01D1     		bne	.L14
 176              		.loc 1 944 82 is_stmt 0 discriminator 1
 177 0010 0123     		movs	r3, #1
 178 0012 00E0     		b	.L16
 179              	.L14:
 180              		.loc 1 944 82 discriminator 2
 181 0014 0023     		movs	r3, #0
 182              	.L16:
 945:../../dependencies/STM32CubeL0/Drivers/STM32L0xx_HAL_Driver/Inc/stm32l0xx_ll_rcc.h **** }
 183              		.loc 1 945 1 is_stmt 1 discriminator 5
 184 0016 1800     		movs	r0, r3
 185 0018 BD46     		mov	sp, r7
 186              		@ sp needed
 187 001a 80BD     		pop	{r7, pc}
 188              	.L18:
 189              		.align	2
 190              	.L17:
 191 001c 00100240 		.word	1073876992
 192              		.cfi_endproc
 193              	.LFE67:
 195              		.section	.text.LL_RCC_LSE_IsReady,"ax",%progbits
 196              		.align	1
 197              		.syntax unified
 198              		.code	16
 199              		.thumb_func
 200              		.fpu softvfp
 202              	LL_RCC_LSE_IsReady:
 203              	.LFB77:
 946:../../dependencies/STM32CubeL0/Drivers/STM32L0xx_HAL_Driver/Inc/stm32l0xx_ll_rcc.h **** 
ARM GAS  /var/folders/fs/dxwfnrqj18z860lwl3d6f5t00000gn/T//ccl6Jv28.s 			page 21


 947:../../dependencies/STM32CubeL0/Drivers/STM32L0xx_HAL_Driver/Inc/stm32l0xx_ll_rcc.h **** /**
 948:../../dependencies/STM32CubeL0/Drivers/STM32L0xx_HAL_Driver/Inc/stm32l0xx_ll_rcc.h ****   * @brief  Get HSI48 Calibration value
 949:../../dependencies/STM32CubeL0/Drivers/STM32L0xx_HAL_Driver/Inc/stm32l0xx_ll_rcc.h ****   * @rmtoll CRRCR          HSI48CAL      LL_RCC_HSI48_GetCalibration
 950:../../dependencies/STM32CubeL0/Drivers/STM32L0xx_HAL_Driver/Inc/stm32l0xx_ll_rcc.h ****   * @retval Between Min_Data = 0x00 and Max_Data = 0xFF
 951:../../dependencies/STM32CubeL0/Drivers/STM32L0xx_HAL_Driver/Inc/stm32l0xx_ll_rcc.h ****   */
 952:../../dependencies/STM32CubeL0/Drivers/STM32L0xx_HAL_Driver/Inc/stm32l0xx_ll_rcc.h **** __STATIC_INLINE uint32_t LL_RCC_HSI48_GetCalibration(void)
 953:../../dependencies/STM32CubeL0/Drivers/STM32L0xx_HAL_Driver/Inc/stm32l0xx_ll_rcc.h **** {
 954:../../dependencies/STM32CubeL0/Drivers/STM32L0xx_HAL_Driver/Inc/stm32l0xx_ll_rcc.h ****   return (uint32_t)(READ_BIT(RCC->CRRCR, RCC_CRRCR_HSI48CAL) >> RCC_CRRCR_HSI48CAL_Pos);
 955:../../dependencies/STM32CubeL0/Drivers/STM32L0xx_HAL_Driver/Inc/stm32l0xx_ll_rcc.h **** }
 956:../../dependencies/STM32CubeL0/Drivers/STM32L0xx_HAL_Driver/Inc/stm32l0xx_ll_rcc.h **** 
 957:../../dependencies/STM32CubeL0/Drivers/STM32L0xx_HAL_Driver/Inc/stm32l0xx_ll_rcc.h **** #if defined(RCC_CRRCR_HSI48DIV6OUTEN)
 958:../../dependencies/STM32CubeL0/Drivers/STM32L0xx_HAL_Driver/Inc/stm32l0xx_ll_rcc.h **** /**
 959:../../dependencies/STM32CubeL0/Drivers/STM32L0xx_HAL_Driver/Inc/stm32l0xx_ll_rcc.h ****   * @brief  Enable HSI48 Divider (it divides by 6)
 960:../../dependencies/STM32CubeL0/Drivers/STM32L0xx_HAL_Driver/Inc/stm32l0xx_ll_rcc.h ****   * @rmtoll CRRCR           HSI48DIV6OUTEN       LL_RCC_HSI48_EnableDivider
 961:../../dependencies/STM32CubeL0/Drivers/STM32L0xx_HAL_Driver/Inc/stm32l0xx_ll_rcc.h ****   * @retval None
 962:../../dependencies/STM32CubeL0/Drivers/STM32L0xx_HAL_Driver/Inc/stm32l0xx_ll_rcc.h ****   */
 963:../../dependencies/STM32CubeL0/Drivers/STM32L0xx_HAL_Driver/Inc/stm32l0xx_ll_rcc.h **** __STATIC_INLINE void LL_RCC_HSI48_EnableDivider(void)
 964:../../dependencies/STM32CubeL0/Drivers/STM32L0xx_HAL_Driver/Inc/stm32l0xx_ll_rcc.h **** {
 965:../../dependencies/STM32CubeL0/Drivers/STM32L0xx_HAL_Driver/Inc/stm32l0xx_ll_rcc.h ****   SET_BIT(RCC->CRRCR, RCC_CRRCR_HSI48DIV6OUTEN);
 966:../../dependencies/STM32CubeL0/Drivers/STM32L0xx_HAL_Driver/Inc/stm32l0xx_ll_rcc.h **** }
 967:../../dependencies/STM32CubeL0/Drivers/STM32L0xx_HAL_Driver/Inc/stm32l0xx_ll_rcc.h **** 
 968:../../dependencies/STM32CubeL0/Drivers/STM32L0xx_HAL_Driver/Inc/stm32l0xx_ll_rcc.h **** /**
 969:../../dependencies/STM32CubeL0/Drivers/STM32L0xx_HAL_Driver/Inc/stm32l0xx_ll_rcc.h ****   * @brief  Disable HSI48 Divider (it divides by 6)
 970:../../dependencies/STM32CubeL0/Drivers/STM32L0xx_HAL_Driver/Inc/stm32l0xx_ll_rcc.h ****   * @rmtoll CRRCR           HSI48DIV6OUTEN       LL_RCC_HSI48_DisableDivider
 971:../../dependencies/STM32CubeL0/Drivers/STM32L0xx_HAL_Driver/Inc/stm32l0xx_ll_rcc.h ****   * @retval None
 972:../../dependencies/STM32CubeL0/Drivers/STM32L0xx_HAL_Driver/Inc/stm32l0xx_ll_rcc.h ****   */
 973:../../dependencies/STM32CubeL0/Drivers/STM32L0xx_HAL_Driver/Inc/stm32l0xx_ll_rcc.h **** __STATIC_INLINE void LL_RCC_HSI48_DisableDivider(void)
 974:../../dependencies/STM32CubeL0/Drivers/STM32L0xx_HAL_Driver/Inc/stm32l0xx_ll_rcc.h **** {
 975:../../dependencies/STM32CubeL0/Drivers/STM32L0xx_HAL_Driver/Inc/stm32l0xx_ll_rcc.h ****   CLEAR_BIT(RCC->CRRCR, RCC_CRRCR_HSI48DIV6OUTEN);
 976:../../dependencies/STM32CubeL0/Drivers/STM32L0xx_HAL_Driver/Inc/stm32l0xx_ll_rcc.h **** }
 977:../../dependencies/STM32CubeL0/Drivers/STM32L0xx_HAL_Driver/Inc/stm32l0xx_ll_rcc.h **** 
 978:../../dependencies/STM32CubeL0/Drivers/STM32L0xx_HAL_Driver/Inc/stm32l0xx_ll_rcc.h **** /**
 979:../../dependencies/STM32CubeL0/Drivers/STM32L0xx_HAL_Driver/Inc/stm32l0xx_ll_rcc.h ****   * @brief  Check if HSI48 Divider is enabled (it divides by 6)
 980:../../dependencies/STM32CubeL0/Drivers/STM32L0xx_HAL_Driver/Inc/stm32l0xx_ll_rcc.h ****   * @rmtoll CRRCR        HSI48DIV6OUTEN        LL_RCC_HSI48_IsDivided
 981:../../dependencies/STM32CubeL0/Drivers/STM32L0xx_HAL_Driver/Inc/stm32l0xx_ll_rcc.h ****   * @retval State of bit (1 or 0).
 982:../../dependencies/STM32CubeL0/Drivers/STM32L0xx_HAL_Driver/Inc/stm32l0xx_ll_rcc.h ****   */
 983:../../dependencies/STM32CubeL0/Drivers/STM32L0xx_HAL_Driver/Inc/stm32l0xx_ll_rcc.h **** __STATIC_INLINE uint32_t LL_RCC_HSI48_IsDivided(void)
 984:../../dependencies/STM32CubeL0/Drivers/STM32L0xx_HAL_Driver/Inc/stm32l0xx_ll_rcc.h **** {
 985:../../dependencies/STM32CubeL0/Drivers/STM32L0xx_HAL_Driver/Inc/stm32l0xx_ll_rcc.h ****   return ((READ_BIT(RCC->CRRCR, RCC_CRRCR_HSI48DIV6OUTEN) == RCC_CRRCR_HSI48DIV6OUTEN) ? 1UL : 0UL)
 986:../../dependencies/STM32CubeL0/Drivers/STM32L0xx_HAL_Driver/Inc/stm32l0xx_ll_rcc.h **** }
 987:../../dependencies/STM32CubeL0/Drivers/STM32L0xx_HAL_Driver/Inc/stm32l0xx_ll_rcc.h **** 
 988:../../dependencies/STM32CubeL0/Drivers/STM32L0xx_HAL_Driver/Inc/stm32l0xx_ll_rcc.h **** #endif /*RCC_CRRCR_HSI48DIV6OUTEN*/
 989:../../dependencies/STM32CubeL0/Drivers/STM32L0xx_HAL_Driver/Inc/stm32l0xx_ll_rcc.h **** 
 990:../../dependencies/STM32CubeL0/Drivers/STM32L0xx_HAL_Driver/Inc/stm32l0xx_ll_rcc.h **** /**
 991:../../dependencies/STM32CubeL0/Drivers/STM32L0xx_HAL_Driver/Inc/stm32l0xx_ll_rcc.h ****   * @}
 992:../../dependencies/STM32CubeL0/Drivers/STM32L0xx_HAL_Driver/Inc/stm32l0xx_ll_rcc.h ****   */
 993:../../dependencies/STM32CubeL0/Drivers/STM32L0xx_HAL_Driver/Inc/stm32l0xx_ll_rcc.h **** 
 994:../../dependencies/STM32CubeL0/Drivers/STM32L0xx_HAL_Driver/Inc/stm32l0xx_ll_rcc.h **** #endif /* RCC_HSI48_SUPPORT */
 995:../../dependencies/STM32CubeL0/Drivers/STM32L0xx_HAL_Driver/Inc/stm32l0xx_ll_rcc.h **** 
 996:../../dependencies/STM32CubeL0/Drivers/STM32L0xx_HAL_Driver/Inc/stm32l0xx_ll_rcc.h **** /** @defgroup RCC_LL_EF_LSE LSE
 997:../../dependencies/STM32CubeL0/Drivers/STM32L0xx_HAL_Driver/Inc/stm32l0xx_ll_rcc.h ****   * @{
 998:../../dependencies/STM32CubeL0/Drivers/STM32L0xx_HAL_Driver/Inc/stm32l0xx_ll_rcc.h ****   */
 999:../../dependencies/STM32CubeL0/Drivers/STM32L0xx_HAL_Driver/Inc/stm32l0xx_ll_rcc.h **** 
1000:../../dependencies/STM32CubeL0/Drivers/STM32L0xx_HAL_Driver/Inc/stm32l0xx_ll_rcc.h **** /**
1001:../../dependencies/STM32CubeL0/Drivers/STM32L0xx_HAL_Driver/Inc/stm32l0xx_ll_rcc.h ****   * @brief  Enable  Low Speed External (LSE) crystal.
1002:../../dependencies/STM32CubeL0/Drivers/STM32L0xx_HAL_Driver/Inc/stm32l0xx_ll_rcc.h ****   * @rmtoll CSR         LSEON         LL_RCC_LSE_Enable
1003:../../dependencies/STM32CubeL0/Drivers/STM32L0xx_HAL_Driver/Inc/stm32l0xx_ll_rcc.h ****   * @retval None
ARM GAS  /var/folders/fs/dxwfnrqj18z860lwl3d6f5t00000gn/T//ccl6Jv28.s 			page 22


1004:../../dependencies/STM32CubeL0/Drivers/STM32L0xx_HAL_Driver/Inc/stm32l0xx_ll_rcc.h ****   */
1005:../../dependencies/STM32CubeL0/Drivers/STM32L0xx_HAL_Driver/Inc/stm32l0xx_ll_rcc.h **** __STATIC_INLINE void LL_RCC_LSE_Enable(void)
1006:../../dependencies/STM32CubeL0/Drivers/STM32L0xx_HAL_Driver/Inc/stm32l0xx_ll_rcc.h **** {
1007:../../dependencies/STM32CubeL0/Drivers/STM32L0xx_HAL_Driver/Inc/stm32l0xx_ll_rcc.h ****   SET_BIT(RCC->CSR, RCC_CSR_LSEON);
1008:../../dependencies/STM32CubeL0/Drivers/STM32L0xx_HAL_Driver/Inc/stm32l0xx_ll_rcc.h **** }
1009:../../dependencies/STM32CubeL0/Drivers/STM32L0xx_HAL_Driver/Inc/stm32l0xx_ll_rcc.h **** 
1010:../../dependencies/STM32CubeL0/Drivers/STM32L0xx_HAL_Driver/Inc/stm32l0xx_ll_rcc.h **** /**
1011:../../dependencies/STM32CubeL0/Drivers/STM32L0xx_HAL_Driver/Inc/stm32l0xx_ll_rcc.h ****   * @brief  Disable  Low Speed External (LSE) crystal.
1012:../../dependencies/STM32CubeL0/Drivers/STM32L0xx_HAL_Driver/Inc/stm32l0xx_ll_rcc.h ****   * @rmtoll CSR         LSEON         LL_RCC_LSE_Disable
1013:../../dependencies/STM32CubeL0/Drivers/STM32L0xx_HAL_Driver/Inc/stm32l0xx_ll_rcc.h ****   * @retval None
1014:../../dependencies/STM32CubeL0/Drivers/STM32L0xx_HAL_Driver/Inc/stm32l0xx_ll_rcc.h ****   */
1015:../../dependencies/STM32CubeL0/Drivers/STM32L0xx_HAL_Driver/Inc/stm32l0xx_ll_rcc.h **** __STATIC_INLINE void LL_RCC_LSE_Disable(void)
1016:../../dependencies/STM32CubeL0/Drivers/STM32L0xx_HAL_Driver/Inc/stm32l0xx_ll_rcc.h **** {
1017:../../dependencies/STM32CubeL0/Drivers/STM32L0xx_HAL_Driver/Inc/stm32l0xx_ll_rcc.h ****   CLEAR_BIT(RCC->CSR, RCC_CSR_LSEON);
1018:../../dependencies/STM32CubeL0/Drivers/STM32L0xx_HAL_Driver/Inc/stm32l0xx_ll_rcc.h **** }
1019:../../dependencies/STM32CubeL0/Drivers/STM32L0xx_HAL_Driver/Inc/stm32l0xx_ll_rcc.h **** 
1020:../../dependencies/STM32CubeL0/Drivers/STM32L0xx_HAL_Driver/Inc/stm32l0xx_ll_rcc.h **** /**
1021:../../dependencies/STM32CubeL0/Drivers/STM32L0xx_HAL_Driver/Inc/stm32l0xx_ll_rcc.h ****   * @brief  Enable external clock source (LSE bypass).
1022:../../dependencies/STM32CubeL0/Drivers/STM32L0xx_HAL_Driver/Inc/stm32l0xx_ll_rcc.h ****   * @rmtoll CSR         LSEBYP        LL_RCC_LSE_EnableBypass
1023:../../dependencies/STM32CubeL0/Drivers/STM32L0xx_HAL_Driver/Inc/stm32l0xx_ll_rcc.h ****   * @retval None
1024:../../dependencies/STM32CubeL0/Drivers/STM32L0xx_HAL_Driver/Inc/stm32l0xx_ll_rcc.h ****   */
1025:../../dependencies/STM32CubeL0/Drivers/STM32L0xx_HAL_Driver/Inc/stm32l0xx_ll_rcc.h **** __STATIC_INLINE void LL_RCC_LSE_EnableBypass(void)
1026:../../dependencies/STM32CubeL0/Drivers/STM32L0xx_HAL_Driver/Inc/stm32l0xx_ll_rcc.h **** {
1027:../../dependencies/STM32CubeL0/Drivers/STM32L0xx_HAL_Driver/Inc/stm32l0xx_ll_rcc.h ****   SET_BIT(RCC->CSR, RCC_CSR_LSEBYP);
1028:../../dependencies/STM32CubeL0/Drivers/STM32L0xx_HAL_Driver/Inc/stm32l0xx_ll_rcc.h **** }
1029:../../dependencies/STM32CubeL0/Drivers/STM32L0xx_HAL_Driver/Inc/stm32l0xx_ll_rcc.h **** 
1030:../../dependencies/STM32CubeL0/Drivers/STM32L0xx_HAL_Driver/Inc/stm32l0xx_ll_rcc.h **** /**
1031:../../dependencies/STM32CubeL0/Drivers/STM32L0xx_HAL_Driver/Inc/stm32l0xx_ll_rcc.h ****   * @brief  Disable external clock source (LSE bypass).
1032:../../dependencies/STM32CubeL0/Drivers/STM32L0xx_HAL_Driver/Inc/stm32l0xx_ll_rcc.h ****   * @rmtoll CSR         LSEBYP        LL_RCC_LSE_DisableBypass
1033:../../dependencies/STM32CubeL0/Drivers/STM32L0xx_HAL_Driver/Inc/stm32l0xx_ll_rcc.h ****   * @retval None
1034:../../dependencies/STM32CubeL0/Drivers/STM32L0xx_HAL_Driver/Inc/stm32l0xx_ll_rcc.h ****   */
1035:../../dependencies/STM32CubeL0/Drivers/STM32L0xx_HAL_Driver/Inc/stm32l0xx_ll_rcc.h **** __STATIC_INLINE void LL_RCC_LSE_DisableBypass(void)
1036:../../dependencies/STM32CubeL0/Drivers/STM32L0xx_HAL_Driver/Inc/stm32l0xx_ll_rcc.h **** {
1037:../../dependencies/STM32CubeL0/Drivers/STM32L0xx_HAL_Driver/Inc/stm32l0xx_ll_rcc.h ****   CLEAR_BIT(RCC->CSR, RCC_CSR_LSEBYP);
1038:../../dependencies/STM32CubeL0/Drivers/STM32L0xx_HAL_Driver/Inc/stm32l0xx_ll_rcc.h **** }
1039:../../dependencies/STM32CubeL0/Drivers/STM32L0xx_HAL_Driver/Inc/stm32l0xx_ll_rcc.h **** 
1040:../../dependencies/STM32CubeL0/Drivers/STM32L0xx_HAL_Driver/Inc/stm32l0xx_ll_rcc.h **** /**
1041:../../dependencies/STM32CubeL0/Drivers/STM32L0xx_HAL_Driver/Inc/stm32l0xx_ll_rcc.h ****   * @brief  Set LSE oscillator drive capability
1042:../../dependencies/STM32CubeL0/Drivers/STM32L0xx_HAL_Driver/Inc/stm32l0xx_ll_rcc.h ****   * @note The oscillator is in Xtal mode when it is not in bypass mode.
1043:../../dependencies/STM32CubeL0/Drivers/STM32L0xx_HAL_Driver/Inc/stm32l0xx_ll_rcc.h ****   * @rmtoll CSR         LSEDRV        LL_RCC_LSE_SetDriveCapability
1044:../../dependencies/STM32CubeL0/Drivers/STM32L0xx_HAL_Driver/Inc/stm32l0xx_ll_rcc.h ****   * @param  LSEDrive This parameter can be one of the following values:
1045:../../dependencies/STM32CubeL0/Drivers/STM32L0xx_HAL_Driver/Inc/stm32l0xx_ll_rcc.h ****   *         @arg @ref LL_RCC_LSEDRIVE_LOW
1046:../../dependencies/STM32CubeL0/Drivers/STM32L0xx_HAL_Driver/Inc/stm32l0xx_ll_rcc.h ****   *         @arg @ref LL_RCC_LSEDRIVE_MEDIUMLOW
1047:../../dependencies/STM32CubeL0/Drivers/STM32L0xx_HAL_Driver/Inc/stm32l0xx_ll_rcc.h ****   *         @arg @ref LL_RCC_LSEDRIVE_MEDIUMHIGH
1048:../../dependencies/STM32CubeL0/Drivers/STM32L0xx_HAL_Driver/Inc/stm32l0xx_ll_rcc.h ****   *         @arg @ref LL_RCC_LSEDRIVE_HIGH
1049:../../dependencies/STM32CubeL0/Drivers/STM32L0xx_HAL_Driver/Inc/stm32l0xx_ll_rcc.h ****   * @retval None
1050:../../dependencies/STM32CubeL0/Drivers/STM32L0xx_HAL_Driver/Inc/stm32l0xx_ll_rcc.h ****   */
1051:../../dependencies/STM32CubeL0/Drivers/STM32L0xx_HAL_Driver/Inc/stm32l0xx_ll_rcc.h **** __STATIC_INLINE void LL_RCC_LSE_SetDriveCapability(uint32_t LSEDrive)
1052:../../dependencies/STM32CubeL0/Drivers/STM32L0xx_HAL_Driver/Inc/stm32l0xx_ll_rcc.h **** {
1053:../../dependencies/STM32CubeL0/Drivers/STM32L0xx_HAL_Driver/Inc/stm32l0xx_ll_rcc.h ****   MODIFY_REG(RCC->CSR, RCC_CSR_LSEDRV, LSEDrive);
1054:../../dependencies/STM32CubeL0/Drivers/STM32L0xx_HAL_Driver/Inc/stm32l0xx_ll_rcc.h **** }
1055:../../dependencies/STM32CubeL0/Drivers/STM32L0xx_HAL_Driver/Inc/stm32l0xx_ll_rcc.h **** 
1056:../../dependencies/STM32CubeL0/Drivers/STM32L0xx_HAL_Driver/Inc/stm32l0xx_ll_rcc.h **** /**
1057:../../dependencies/STM32CubeL0/Drivers/STM32L0xx_HAL_Driver/Inc/stm32l0xx_ll_rcc.h ****   * @brief  Get LSE oscillator drive capability
1058:../../dependencies/STM32CubeL0/Drivers/STM32L0xx_HAL_Driver/Inc/stm32l0xx_ll_rcc.h ****   * @rmtoll CSR         LSEDRV        LL_RCC_LSE_GetDriveCapability
1059:../../dependencies/STM32CubeL0/Drivers/STM32L0xx_HAL_Driver/Inc/stm32l0xx_ll_rcc.h ****   * @retval Returned value can be one of the following values:
1060:../../dependencies/STM32CubeL0/Drivers/STM32L0xx_HAL_Driver/Inc/stm32l0xx_ll_rcc.h ****   *         @arg @ref LL_RCC_LSEDRIVE_LOW
ARM GAS  /var/folders/fs/dxwfnrqj18z860lwl3d6f5t00000gn/T//ccl6Jv28.s 			page 23


1061:../../dependencies/STM32CubeL0/Drivers/STM32L0xx_HAL_Driver/Inc/stm32l0xx_ll_rcc.h ****   *         @arg @ref LL_RCC_LSEDRIVE_MEDIUMLOW
1062:../../dependencies/STM32CubeL0/Drivers/STM32L0xx_HAL_Driver/Inc/stm32l0xx_ll_rcc.h ****   *         @arg @ref LL_RCC_LSEDRIVE_MEDIUMHIGH
1063:../../dependencies/STM32CubeL0/Drivers/STM32L0xx_HAL_Driver/Inc/stm32l0xx_ll_rcc.h ****   *         @arg @ref LL_RCC_LSEDRIVE_HIGH
1064:../../dependencies/STM32CubeL0/Drivers/STM32L0xx_HAL_Driver/Inc/stm32l0xx_ll_rcc.h ****   */
1065:../../dependencies/STM32CubeL0/Drivers/STM32L0xx_HAL_Driver/Inc/stm32l0xx_ll_rcc.h **** __STATIC_INLINE uint32_t LL_RCC_LSE_GetDriveCapability(void)
1066:../../dependencies/STM32CubeL0/Drivers/STM32L0xx_HAL_Driver/Inc/stm32l0xx_ll_rcc.h **** {
1067:../../dependencies/STM32CubeL0/Drivers/STM32L0xx_HAL_Driver/Inc/stm32l0xx_ll_rcc.h ****   return (uint32_t)(READ_BIT(RCC->CSR, RCC_CSR_LSEDRV));
1068:../../dependencies/STM32CubeL0/Drivers/STM32L0xx_HAL_Driver/Inc/stm32l0xx_ll_rcc.h **** }
1069:../../dependencies/STM32CubeL0/Drivers/STM32L0xx_HAL_Driver/Inc/stm32l0xx_ll_rcc.h **** 
1070:../../dependencies/STM32CubeL0/Drivers/STM32L0xx_HAL_Driver/Inc/stm32l0xx_ll_rcc.h **** /**
1071:../../dependencies/STM32CubeL0/Drivers/STM32L0xx_HAL_Driver/Inc/stm32l0xx_ll_rcc.h ****   * @brief  Enable Clock security system on LSE.
1072:../../dependencies/STM32CubeL0/Drivers/STM32L0xx_HAL_Driver/Inc/stm32l0xx_ll_rcc.h ****   * @rmtoll CSR         LSECSSON      LL_RCC_LSE_EnableCSS
1073:../../dependencies/STM32CubeL0/Drivers/STM32L0xx_HAL_Driver/Inc/stm32l0xx_ll_rcc.h ****   * @retval None
1074:../../dependencies/STM32CubeL0/Drivers/STM32L0xx_HAL_Driver/Inc/stm32l0xx_ll_rcc.h ****   */
1075:../../dependencies/STM32CubeL0/Drivers/STM32L0xx_HAL_Driver/Inc/stm32l0xx_ll_rcc.h **** __STATIC_INLINE void LL_RCC_LSE_EnableCSS(void)
1076:../../dependencies/STM32CubeL0/Drivers/STM32L0xx_HAL_Driver/Inc/stm32l0xx_ll_rcc.h **** {
1077:../../dependencies/STM32CubeL0/Drivers/STM32L0xx_HAL_Driver/Inc/stm32l0xx_ll_rcc.h ****   SET_BIT(RCC->CSR, RCC_CSR_LSECSSON);
1078:../../dependencies/STM32CubeL0/Drivers/STM32L0xx_HAL_Driver/Inc/stm32l0xx_ll_rcc.h **** }
1079:../../dependencies/STM32CubeL0/Drivers/STM32L0xx_HAL_Driver/Inc/stm32l0xx_ll_rcc.h **** 
1080:../../dependencies/STM32CubeL0/Drivers/STM32L0xx_HAL_Driver/Inc/stm32l0xx_ll_rcc.h **** /**
1081:../../dependencies/STM32CubeL0/Drivers/STM32L0xx_HAL_Driver/Inc/stm32l0xx_ll_rcc.h ****   * @brief  Disable Clock security system on LSE.
1082:../../dependencies/STM32CubeL0/Drivers/STM32L0xx_HAL_Driver/Inc/stm32l0xx_ll_rcc.h ****   * @note   Clock security system can be disabled only after a LSE
1083:../../dependencies/STM32CubeL0/Drivers/STM32L0xx_HAL_Driver/Inc/stm32l0xx_ll_rcc.h ****   *         failure detection. In that case it MUST be disabled by software.
1084:../../dependencies/STM32CubeL0/Drivers/STM32L0xx_HAL_Driver/Inc/stm32l0xx_ll_rcc.h ****   * @rmtoll CSR          LSECSSON      LL_RCC_LSE_DisableCSS
1085:../../dependencies/STM32CubeL0/Drivers/STM32L0xx_HAL_Driver/Inc/stm32l0xx_ll_rcc.h ****   * @retval None
1086:../../dependencies/STM32CubeL0/Drivers/STM32L0xx_HAL_Driver/Inc/stm32l0xx_ll_rcc.h ****   */
1087:../../dependencies/STM32CubeL0/Drivers/STM32L0xx_HAL_Driver/Inc/stm32l0xx_ll_rcc.h **** __STATIC_INLINE void LL_RCC_LSE_DisableCSS(void)
1088:../../dependencies/STM32CubeL0/Drivers/STM32L0xx_HAL_Driver/Inc/stm32l0xx_ll_rcc.h **** {
1089:../../dependencies/STM32CubeL0/Drivers/STM32L0xx_HAL_Driver/Inc/stm32l0xx_ll_rcc.h ****   CLEAR_BIT(RCC->CSR, RCC_CSR_LSECSSON);
1090:../../dependencies/STM32CubeL0/Drivers/STM32L0xx_HAL_Driver/Inc/stm32l0xx_ll_rcc.h **** }
1091:../../dependencies/STM32CubeL0/Drivers/STM32L0xx_HAL_Driver/Inc/stm32l0xx_ll_rcc.h **** 
1092:../../dependencies/STM32CubeL0/Drivers/STM32L0xx_HAL_Driver/Inc/stm32l0xx_ll_rcc.h **** /**
1093:../../dependencies/STM32CubeL0/Drivers/STM32L0xx_HAL_Driver/Inc/stm32l0xx_ll_rcc.h ****   * @brief  Check if LSE oscillator Ready
1094:../../dependencies/STM32CubeL0/Drivers/STM32L0xx_HAL_Driver/Inc/stm32l0xx_ll_rcc.h ****   * @rmtoll CSR         LSERDY        LL_RCC_LSE_IsReady
1095:../../dependencies/STM32CubeL0/Drivers/STM32L0xx_HAL_Driver/Inc/stm32l0xx_ll_rcc.h ****   * @retval State of bit (1 or 0).
1096:../../dependencies/STM32CubeL0/Drivers/STM32L0xx_HAL_Driver/Inc/stm32l0xx_ll_rcc.h ****   */
1097:../../dependencies/STM32CubeL0/Drivers/STM32L0xx_HAL_Driver/Inc/stm32l0xx_ll_rcc.h **** __STATIC_INLINE uint32_t LL_RCC_LSE_IsReady(void)
1098:../../dependencies/STM32CubeL0/Drivers/STM32L0xx_HAL_Driver/Inc/stm32l0xx_ll_rcc.h **** {
 204              		.loc 1 1098 1
 205              		.cfi_startproc
 206              		@ args = 0, pretend = 0, frame = 0
 207              		@ frame_needed = 1, uses_anonymous_args = 0
 208 0000 80B5     		push	{r7, lr}
 209              		.cfi_def_cfa_offset 8
 210              		.cfi_offset 7, -8
 211              		.cfi_offset 14, -4
 212 0002 00AF     		add	r7, sp, #0
 213              		.cfi_def_cfa_register 7
1099:../../dependencies/STM32CubeL0/Drivers/STM32L0xx_HAL_Driver/Inc/stm32l0xx_ll_rcc.h ****   return ((READ_BIT(RCC->CSR, RCC_CSR_LSERDY) == RCC_CSR_LSERDY) ? 1UL : 0UL);
 214              		.loc 1 1099 12
 215 0004 074B     		ldr	r3, .L23
 216 0006 1A6D     		ldr	r2, [r3, #80]
 217 0008 8023     		movs	r3, #128
 218 000a 9B00     		lsls	r3, r3, #2
 219 000c 1A40     		ands	r2, r3
 220              		.loc 1 1099 72
 221 000e 8023     		movs	r3, #128
ARM GAS  /var/folders/fs/dxwfnrqj18z860lwl3d6f5t00000gn/T//ccl6Jv28.s 			page 24


 222 0010 9B00     		lsls	r3, r3, #2
 223 0012 9A42     		cmp	r2, r3
 224 0014 01D1     		bne	.L20
 225              		.loc 1 1099 72 is_stmt 0 discriminator 1
 226 0016 0123     		movs	r3, #1
 227 0018 00E0     		b	.L22
 228              	.L20:
 229              		.loc 1 1099 72 discriminator 2
 230 001a 0023     		movs	r3, #0
 231              	.L22:
1100:../../dependencies/STM32CubeL0/Drivers/STM32L0xx_HAL_Driver/Inc/stm32l0xx_ll_rcc.h **** }
 232              		.loc 1 1100 1 is_stmt 1 discriminator 5
 233 001c 1800     		movs	r0, r3
 234 001e BD46     		mov	sp, r7
 235              		@ sp needed
 236 0020 80BD     		pop	{r7, pc}
 237              	.L24:
 238 0022 C046     		.align	2
 239              	.L23:
 240 0024 00100240 		.word	1073876992
 241              		.cfi_endproc
 242              	.LFE77:
 244              		.section	.text.LL_RCC_LSI_IsReady,"ax",%progbits
 245              		.align	1
 246              		.syntax unified
 247              		.code	16
 248              		.thumb_func
 249              		.fpu softvfp
 251              	LL_RCC_LSI_IsReady:
 252              	.LFB81:
1101:../../dependencies/STM32CubeL0/Drivers/STM32L0xx_HAL_Driver/Inc/stm32l0xx_ll_rcc.h **** 
1102:../../dependencies/STM32CubeL0/Drivers/STM32L0xx_HAL_Driver/Inc/stm32l0xx_ll_rcc.h **** /**
1103:../../dependencies/STM32CubeL0/Drivers/STM32L0xx_HAL_Driver/Inc/stm32l0xx_ll_rcc.h ****   * @brief  Check if CSS on LSE failure Detection
1104:../../dependencies/STM32CubeL0/Drivers/STM32L0xx_HAL_Driver/Inc/stm32l0xx_ll_rcc.h ****   * @rmtoll CSR         LSECSSD       LL_RCC_LSE_IsCSSDetected
1105:../../dependencies/STM32CubeL0/Drivers/STM32L0xx_HAL_Driver/Inc/stm32l0xx_ll_rcc.h ****   * @retval State of bit (1 or 0).
1106:../../dependencies/STM32CubeL0/Drivers/STM32L0xx_HAL_Driver/Inc/stm32l0xx_ll_rcc.h ****   */
1107:../../dependencies/STM32CubeL0/Drivers/STM32L0xx_HAL_Driver/Inc/stm32l0xx_ll_rcc.h **** __STATIC_INLINE uint32_t LL_RCC_LSE_IsCSSDetected(void)
1108:../../dependencies/STM32CubeL0/Drivers/STM32L0xx_HAL_Driver/Inc/stm32l0xx_ll_rcc.h **** {
1109:../../dependencies/STM32CubeL0/Drivers/STM32L0xx_HAL_Driver/Inc/stm32l0xx_ll_rcc.h ****   return ((READ_BIT(RCC->CSR, RCC_CSR_LSECSSD) == RCC_CSR_LSECSSD) ? 1UL : 0UL);
1110:../../dependencies/STM32CubeL0/Drivers/STM32L0xx_HAL_Driver/Inc/stm32l0xx_ll_rcc.h **** }
1111:../../dependencies/STM32CubeL0/Drivers/STM32L0xx_HAL_Driver/Inc/stm32l0xx_ll_rcc.h **** 
1112:../../dependencies/STM32CubeL0/Drivers/STM32L0xx_HAL_Driver/Inc/stm32l0xx_ll_rcc.h **** /**
1113:../../dependencies/STM32CubeL0/Drivers/STM32L0xx_HAL_Driver/Inc/stm32l0xx_ll_rcc.h ****   * @}
1114:../../dependencies/STM32CubeL0/Drivers/STM32L0xx_HAL_Driver/Inc/stm32l0xx_ll_rcc.h ****   */
1115:../../dependencies/STM32CubeL0/Drivers/STM32L0xx_HAL_Driver/Inc/stm32l0xx_ll_rcc.h **** 
1116:../../dependencies/STM32CubeL0/Drivers/STM32L0xx_HAL_Driver/Inc/stm32l0xx_ll_rcc.h **** /** @defgroup RCC_LL_EF_LSI LSI
1117:../../dependencies/STM32CubeL0/Drivers/STM32L0xx_HAL_Driver/Inc/stm32l0xx_ll_rcc.h ****   * @{
1118:../../dependencies/STM32CubeL0/Drivers/STM32L0xx_HAL_Driver/Inc/stm32l0xx_ll_rcc.h ****   */
1119:../../dependencies/STM32CubeL0/Drivers/STM32L0xx_HAL_Driver/Inc/stm32l0xx_ll_rcc.h **** 
1120:../../dependencies/STM32CubeL0/Drivers/STM32L0xx_HAL_Driver/Inc/stm32l0xx_ll_rcc.h **** /**
1121:../../dependencies/STM32CubeL0/Drivers/STM32L0xx_HAL_Driver/Inc/stm32l0xx_ll_rcc.h ****   * @brief  Enable LSI Oscillator
1122:../../dependencies/STM32CubeL0/Drivers/STM32L0xx_HAL_Driver/Inc/stm32l0xx_ll_rcc.h ****   * @rmtoll CSR          LSION         LL_RCC_LSI_Enable
1123:../../dependencies/STM32CubeL0/Drivers/STM32L0xx_HAL_Driver/Inc/stm32l0xx_ll_rcc.h ****   * @retval None
1124:../../dependencies/STM32CubeL0/Drivers/STM32L0xx_HAL_Driver/Inc/stm32l0xx_ll_rcc.h ****   */
1125:../../dependencies/STM32CubeL0/Drivers/STM32L0xx_HAL_Driver/Inc/stm32l0xx_ll_rcc.h **** __STATIC_INLINE void LL_RCC_LSI_Enable(void)
1126:../../dependencies/STM32CubeL0/Drivers/STM32L0xx_HAL_Driver/Inc/stm32l0xx_ll_rcc.h **** {
1127:../../dependencies/STM32CubeL0/Drivers/STM32L0xx_HAL_Driver/Inc/stm32l0xx_ll_rcc.h ****   SET_BIT(RCC->CSR, RCC_CSR_LSION);
ARM GAS  /var/folders/fs/dxwfnrqj18z860lwl3d6f5t00000gn/T//ccl6Jv28.s 			page 25


1128:../../dependencies/STM32CubeL0/Drivers/STM32L0xx_HAL_Driver/Inc/stm32l0xx_ll_rcc.h **** }
1129:../../dependencies/STM32CubeL0/Drivers/STM32L0xx_HAL_Driver/Inc/stm32l0xx_ll_rcc.h **** 
1130:../../dependencies/STM32CubeL0/Drivers/STM32L0xx_HAL_Driver/Inc/stm32l0xx_ll_rcc.h **** /**
1131:../../dependencies/STM32CubeL0/Drivers/STM32L0xx_HAL_Driver/Inc/stm32l0xx_ll_rcc.h ****   * @brief  Disable LSI Oscillator
1132:../../dependencies/STM32CubeL0/Drivers/STM32L0xx_HAL_Driver/Inc/stm32l0xx_ll_rcc.h ****   * @rmtoll CSR          LSION         LL_RCC_LSI_Disable
1133:../../dependencies/STM32CubeL0/Drivers/STM32L0xx_HAL_Driver/Inc/stm32l0xx_ll_rcc.h ****   * @retval None
1134:../../dependencies/STM32CubeL0/Drivers/STM32L0xx_HAL_Driver/Inc/stm32l0xx_ll_rcc.h ****   */
1135:../../dependencies/STM32CubeL0/Drivers/STM32L0xx_HAL_Driver/Inc/stm32l0xx_ll_rcc.h **** __STATIC_INLINE void LL_RCC_LSI_Disable(void)
1136:../../dependencies/STM32CubeL0/Drivers/STM32L0xx_HAL_Driver/Inc/stm32l0xx_ll_rcc.h **** {
1137:../../dependencies/STM32CubeL0/Drivers/STM32L0xx_HAL_Driver/Inc/stm32l0xx_ll_rcc.h ****   CLEAR_BIT(RCC->CSR, RCC_CSR_LSION);
1138:../../dependencies/STM32CubeL0/Drivers/STM32L0xx_HAL_Driver/Inc/stm32l0xx_ll_rcc.h **** }
1139:../../dependencies/STM32CubeL0/Drivers/STM32L0xx_HAL_Driver/Inc/stm32l0xx_ll_rcc.h **** 
1140:../../dependencies/STM32CubeL0/Drivers/STM32L0xx_HAL_Driver/Inc/stm32l0xx_ll_rcc.h **** /**
1141:../../dependencies/STM32CubeL0/Drivers/STM32L0xx_HAL_Driver/Inc/stm32l0xx_ll_rcc.h ****   * @brief  Check if LSI is Ready
1142:../../dependencies/STM32CubeL0/Drivers/STM32L0xx_HAL_Driver/Inc/stm32l0xx_ll_rcc.h ****   * @rmtoll CSR          LSIRDY        LL_RCC_LSI_IsReady
1143:../../dependencies/STM32CubeL0/Drivers/STM32L0xx_HAL_Driver/Inc/stm32l0xx_ll_rcc.h ****   * @retval State of bit (1 or 0).
1144:../../dependencies/STM32CubeL0/Drivers/STM32L0xx_HAL_Driver/Inc/stm32l0xx_ll_rcc.h ****   */
1145:../../dependencies/STM32CubeL0/Drivers/STM32L0xx_HAL_Driver/Inc/stm32l0xx_ll_rcc.h **** __STATIC_INLINE uint32_t LL_RCC_LSI_IsReady(void)
1146:../../dependencies/STM32CubeL0/Drivers/STM32L0xx_HAL_Driver/Inc/stm32l0xx_ll_rcc.h **** {
 253              		.loc 1 1146 1
 254              		.cfi_startproc
 255              		@ args = 0, pretend = 0, frame = 0
 256              		@ frame_needed = 1, uses_anonymous_args = 0
 257 0000 80B5     		push	{r7, lr}
 258              		.cfi_def_cfa_offset 8
 259              		.cfi_offset 7, -8
 260              		.cfi_offset 14, -4
 261 0002 00AF     		add	r7, sp, #0
 262              		.cfi_def_cfa_register 7
1147:../../dependencies/STM32CubeL0/Drivers/STM32L0xx_HAL_Driver/Inc/stm32l0xx_ll_rcc.h ****   return ((READ_BIT(RCC->CSR, RCC_CSR_LSIRDY) == RCC_CSR_LSIRDY) ? 1UL : 0UL);
 263              		.loc 1 1147 12
 264 0004 054B     		ldr	r3, .L29
 265 0006 1B6D     		ldr	r3, [r3, #80]
 266 0008 0222     		movs	r2, #2
 267 000a 1340     		ands	r3, r2
 268              		.loc 1 1147 72
 269 000c 022B     		cmp	r3, #2
 270 000e 01D1     		bne	.L26
 271              		.loc 1 1147 72 is_stmt 0 discriminator 1
 272 0010 0123     		movs	r3, #1
 273 0012 00E0     		b	.L28
 274              	.L26:
 275              		.loc 1 1147 72 discriminator 2
 276 0014 0023     		movs	r3, #0
 277              	.L28:
1148:../../dependencies/STM32CubeL0/Drivers/STM32L0xx_HAL_Driver/Inc/stm32l0xx_ll_rcc.h **** }
 278              		.loc 1 1148 1 is_stmt 1 discriminator 5
 279 0016 1800     		movs	r0, r3
 280 0018 BD46     		mov	sp, r7
 281              		@ sp needed
 282 001a 80BD     		pop	{r7, pc}
 283              	.L30:
 284              		.align	2
 285              	.L29:
 286 001c 00100240 		.word	1073876992
 287              		.cfi_endproc
 288              	.LFE81:
ARM GAS  /var/folders/fs/dxwfnrqj18z860lwl3d6f5t00000gn/T//ccl6Jv28.s 			page 26


 290              		.section	.text.LL_RCC_MSI_Enable,"ax",%progbits
 291              		.align	1
 292              		.syntax unified
 293              		.code	16
 294              		.thumb_func
 295              		.fpu softvfp
 297              	LL_RCC_MSI_Enable:
 298              	.LFB82:
1149:../../dependencies/STM32CubeL0/Drivers/STM32L0xx_HAL_Driver/Inc/stm32l0xx_ll_rcc.h **** 
1150:../../dependencies/STM32CubeL0/Drivers/STM32L0xx_HAL_Driver/Inc/stm32l0xx_ll_rcc.h **** /**
1151:../../dependencies/STM32CubeL0/Drivers/STM32L0xx_HAL_Driver/Inc/stm32l0xx_ll_rcc.h ****   * @}
1152:../../dependencies/STM32CubeL0/Drivers/STM32L0xx_HAL_Driver/Inc/stm32l0xx_ll_rcc.h ****   */
1153:../../dependencies/STM32CubeL0/Drivers/STM32L0xx_HAL_Driver/Inc/stm32l0xx_ll_rcc.h **** 
1154:../../dependencies/STM32CubeL0/Drivers/STM32L0xx_HAL_Driver/Inc/stm32l0xx_ll_rcc.h **** /** @defgroup RCC_LL_EF_MSI MSI
1155:../../dependencies/STM32CubeL0/Drivers/STM32L0xx_HAL_Driver/Inc/stm32l0xx_ll_rcc.h ****   * @{
1156:../../dependencies/STM32CubeL0/Drivers/STM32L0xx_HAL_Driver/Inc/stm32l0xx_ll_rcc.h ****   */
1157:../../dependencies/STM32CubeL0/Drivers/STM32L0xx_HAL_Driver/Inc/stm32l0xx_ll_rcc.h **** 
1158:../../dependencies/STM32CubeL0/Drivers/STM32L0xx_HAL_Driver/Inc/stm32l0xx_ll_rcc.h **** /**
1159:../../dependencies/STM32CubeL0/Drivers/STM32L0xx_HAL_Driver/Inc/stm32l0xx_ll_rcc.h ****   * @brief  Enable MSI oscillator
1160:../../dependencies/STM32CubeL0/Drivers/STM32L0xx_HAL_Driver/Inc/stm32l0xx_ll_rcc.h ****   * @rmtoll CR           MSION         LL_RCC_MSI_Enable
1161:../../dependencies/STM32CubeL0/Drivers/STM32L0xx_HAL_Driver/Inc/stm32l0xx_ll_rcc.h ****   * @retval None
1162:../../dependencies/STM32CubeL0/Drivers/STM32L0xx_HAL_Driver/Inc/stm32l0xx_ll_rcc.h ****   */
1163:../../dependencies/STM32CubeL0/Drivers/STM32L0xx_HAL_Driver/Inc/stm32l0xx_ll_rcc.h **** __STATIC_INLINE void LL_RCC_MSI_Enable(void)
1164:../../dependencies/STM32CubeL0/Drivers/STM32L0xx_HAL_Driver/Inc/stm32l0xx_ll_rcc.h **** {
 299              		.loc 1 1164 1
 300              		.cfi_startproc
 301              		@ args = 0, pretend = 0, frame = 0
 302              		@ frame_needed = 1, uses_anonymous_args = 0
 303 0000 80B5     		push	{r7, lr}
 304              		.cfi_def_cfa_offset 8
 305              		.cfi_offset 7, -8
 306              		.cfi_offset 14, -4
 307 0002 00AF     		add	r7, sp, #0
 308              		.cfi_def_cfa_register 7
1165:../../dependencies/STM32CubeL0/Drivers/STM32L0xx_HAL_Driver/Inc/stm32l0xx_ll_rcc.h ****   SET_BIT(RCC->CR, RCC_CR_MSION);
 309              		.loc 1 1165 3
 310 0004 044B     		ldr	r3, .L32
 311 0006 1A68     		ldr	r2, [r3]
 312 0008 034B     		ldr	r3, .L32
 313 000a 8021     		movs	r1, #128
 314 000c 4900     		lsls	r1, r1, #1
 315 000e 0A43     		orrs	r2, r1
 316 0010 1A60     		str	r2, [r3]
1166:../../dependencies/STM32CubeL0/Drivers/STM32L0xx_HAL_Driver/Inc/stm32l0xx_ll_rcc.h **** }
 317              		.loc 1 1166 1
 318 0012 C046     		nop
 319 0014 BD46     		mov	sp, r7
 320              		@ sp needed
 321 0016 80BD     		pop	{r7, pc}
 322              	.L33:
 323              		.align	2
 324              	.L32:
 325 0018 00100240 		.word	1073876992
 326              		.cfi_endproc
 327              	.LFE82:
 329              		.section	.text.LL_RCC_MSI_IsReady,"ax",%progbits
 330              		.align	1
ARM GAS  /var/folders/fs/dxwfnrqj18z860lwl3d6f5t00000gn/T//ccl6Jv28.s 			page 27


 331              		.syntax unified
 332              		.code	16
 333              		.thumb_func
 334              		.fpu softvfp
 336              	LL_RCC_MSI_IsReady:
 337              	.LFB84:
1167:../../dependencies/STM32CubeL0/Drivers/STM32L0xx_HAL_Driver/Inc/stm32l0xx_ll_rcc.h **** 
1168:../../dependencies/STM32CubeL0/Drivers/STM32L0xx_HAL_Driver/Inc/stm32l0xx_ll_rcc.h **** /**
1169:../../dependencies/STM32CubeL0/Drivers/STM32L0xx_HAL_Driver/Inc/stm32l0xx_ll_rcc.h ****   * @brief  Disable MSI oscillator
1170:../../dependencies/STM32CubeL0/Drivers/STM32L0xx_HAL_Driver/Inc/stm32l0xx_ll_rcc.h ****   * @rmtoll CR           MSION         LL_RCC_MSI_Disable
1171:../../dependencies/STM32CubeL0/Drivers/STM32L0xx_HAL_Driver/Inc/stm32l0xx_ll_rcc.h ****   * @retval None
1172:../../dependencies/STM32CubeL0/Drivers/STM32L0xx_HAL_Driver/Inc/stm32l0xx_ll_rcc.h ****   */
1173:../../dependencies/STM32CubeL0/Drivers/STM32L0xx_HAL_Driver/Inc/stm32l0xx_ll_rcc.h **** __STATIC_INLINE void LL_RCC_MSI_Disable(void)
1174:../../dependencies/STM32CubeL0/Drivers/STM32L0xx_HAL_Driver/Inc/stm32l0xx_ll_rcc.h **** {
1175:../../dependencies/STM32CubeL0/Drivers/STM32L0xx_HAL_Driver/Inc/stm32l0xx_ll_rcc.h ****   CLEAR_BIT(RCC->CR, RCC_CR_MSION);
1176:../../dependencies/STM32CubeL0/Drivers/STM32L0xx_HAL_Driver/Inc/stm32l0xx_ll_rcc.h **** }
1177:../../dependencies/STM32CubeL0/Drivers/STM32L0xx_HAL_Driver/Inc/stm32l0xx_ll_rcc.h **** 
1178:../../dependencies/STM32CubeL0/Drivers/STM32L0xx_HAL_Driver/Inc/stm32l0xx_ll_rcc.h **** /**
1179:../../dependencies/STM32CubeL0/Drivers/STM32L0xx_HAL_Driver/Inc/stm32l0xx_ll_rcc.h ****   * @brief  Check if MSI oscillator Ready
1180:../../dependencies/STM32CubeL0/Drivers/STM32L0xx_HAL_Driver/Inc/stm32l0xx_ll_rcc.h ****   * @rmtoll CR           MSIRDY        LL_RCC_MSI_IsReady
1181:../../dependencies/STM32CubeL0/Drivers/STM32L0xx_HAL_Driver/Inc/stm32l0xx_ll_rcc.h ****   * @retval State of bit (1 or 0).
1182:../../dependencies/STM32CubeL0/Drivers/STM32L0xx_HAL_Driver/Inc/stm32l0xx_ll_rcc.h ****   */
1183:../../dependencies/STM32CubeL0/Drivers/STM32L0xx_HAL_Driver/Inc/stm32l0xx_ll_rcc.h **** __STATIC_INLINE uint32_t LL_RCC_MSI_IsReady(void)
1184:../../dependencies/STM32CubeL0/Drivers/STM32L0xx_HAL_Driver/Inc/stm32l0xx_ll_rcc.h **** {
 338              		.loc 1 1184 1
 339              		.cfi_startproc
 340              		@ args = 0, pretend = 0, frame = 0
 341              		@ frame_needed = 1, uses_anonymous_args = 0
 342 0000 80B5     		push	{r7, lr}
 343              		.cfi_def_cfa_offset 8
 344              		.cfi_offset 7, -8
 345              		.cfi_offset 14, -4
 346 0002 00AF     		add	r7, sp, #0
 347              		.cfi_def_cfa_register 7
1185:../../dependencies/STM32CubeL0/Drivers/STM32L0xx_HAL_Driver/Inc/stm32l0xx_ll_rcc.h ****   return ((READ_BIT(RCC->CR, RCC_CR_MSIRDY) == RCC_CR_MSIRDY) ? 1UL : 0UL);
 348              		.loc 1 1185 12
 349 0004 074B     		ldr	r3, .L38
 350 0006 1A68     		ldr	r2, [r3]
 351 0008 8023     		movs	r3, #128
 352 000a 9B00     		lsls	r3, r3, #2
 353 000c 1A40     		ands	r2, r3
 354              		.loc 1 1185 69
 355 000e 8023     		movs	r3, #128
 356 0010 9B00     		lsls	r3, r3, #2
 357 0012 9A42     		cmp	r2, r3
 358 0014 01D1     		bne	.L35
 359              		.loc 1 1185 69 is_stmt 0 discriminator 1
 360 0016 0123     		movs	r3, #1
 361 0018 00E0     		b	.L37
 362              	.L35:
 363              		.loc 1 1185 69 discriminator 2
 364 001a 0023     		movs	r3, #0
 365              	.L37:
1186:../../dependencies/STM32CubeL0/Drivers/STM32L0xx_HAL_Driver/Inc/stm32l0xx_ll_rcc.h **** }
 366              		.loc 1 1186 1 is_stmt 1 discriminator 5
 367 001c 1800     		movs	r0, r3
 368 001e BD46     		mov	sp, r7
ARM GAS  /var/folders/fs/dxwfnrqj18z860lwl3d6f5t00000gn/T//ccl6Jv28.s 			page 28


 369              		@ sp needed
 370 0020 80BD     		pop	{r7, pc}
 371              	.L39:
 372 0022 C046     		.align	2
 373              	.L38:
 374 0024 00100240 		.word	1073876992
 375              		.cfi_endproc
 376              	.LFE84:
 378              		.section	.text.LL_RCC_MSI_SetRange,"ax",%progbits
 379              		.align	1
 380              		.syntax unified
 381              		.code	16
 382              		.thumb_func
 383              		.fpu softvfp
 385              	LL_RCC_MSI_SetRange:
 386              	.LFB85:
1187:../../dependencies/STM32CubeL0/Drivers/STM32L0xx_HAL_Driver/Inc/stm32l0xx_ll_rcc.h **** 
1188:../../dependencies/STM32CubeL0/Drivers/STM32L0xx_HAL_Driver/Inc/stm32l0xx_ll_rcc.h **** /**
1189:../../dependencies/STM32CubeL0/Drivers/STM32L0xx_HAL_Driver/Inc/stm32l0xx_ll_rcc.h ****   * @brief  Configure the Internal Multi Speed oscillator (MSI) clock range in run mode.
1190:../../dependencies/STM32CubeL0/Drivers/STM32L0xx_HAL_Driver/Inc/stm32l0xx_ll_rcc.h ****   * @rmtoll ICSCR           MSIRANGE      LL_RCC_MSI_SetRange
1191:../../dependencies/STM32CubeL0/Drivers/STM32L0xx_HAL_Driver/Inc/stm32l0xx_ll_rcc.h ****   * @param  Range This parameter can be one of the following values:
1192:../../dependencies/STM32CubeL0/Drivers/STM32L0xx_HAL_Driver/Inc/stm32l0xx_ll_rcc.h ****   *         @arg @ref LL_RCC_MSIRANGE_0
1193:../../dependencies/STM32CubeL0/Drivers/STM32L0xx_HAL_Driver/Inc/stm32l0xx_ll_rcc.h ****   *         @arg @ref LL_RCC_MSIRANGE_1
1194:../../dependencies/STM32CubeL0/Drivers/STM32L0xx_HAL_Driver/Inc/stm32l0xx_ll_rcc.h ****   *         @arg @ref LL_RCC_MSIRANGE_2
1195:../../dependencies/STM32CubeL0/Drivers/STM32L0xx_HAL_Driver/Inc/stm32l0xx_ll_rcc.h ****   *         @arg @ref LL_RCC_MSIRANGE_3
1196:../../dependencies/STM32CubeL0/Drivers/STM32L0xx_HAL_Driver/Inc/stm32l0xx_ll_rcc.h ****   *         @arg @ref LL_RCC_MSIRANGE_4
1197:../../dependencies/STM32CubeL0/Drivers/STM32L0xx_HAL_Driver/Inc/stm32l0xx_ll_rcc.h ****   *         @arg @ref LL_RCC_MSIRANGE_5
1198:../../dependencies/STM32CubeL0/Drivers/STM32L0xx_HAL_Driver/Inc/stm32l0xx_ll_rcc.h ****   *         @arg @ref LL_RCC_MSIRANGE_6
1199:../../dependencies/STM32CubeL0/Drivers/STM32L0xx_HAL_Driver/Inc/stm32l0xx_ll_rcc.h ****   * @retval None
1200:../../dependencies/STM32CubeL0/Drivers/STM32L0xx_HAL_Driver/Inc/stm32l0xx_ll_rcc.h ****   */
1201:../../dependencies/STM32CubeL0/Drivers/STM32L0xx_HAL_Driver/Inc/stm32l0xx_ll_rcc.h **** __STATIC_INLINE void LL_RCC_MSI_SetRange(uint32_t Range)
1202:../../dependencies/STM32CubeL0/Drivers/STM32L0xx_HAL_Driver/Inc/stm32l0xx_ll_rcc.h **** {
 387              		.loc 1 1202 1
 388              		.cfi_startproc
 389              		@ args = 0, pretend = 0, frame = 8
 390              		@ frame_needed = 1, uses_anonymous_args = 0
 391 0000 80B5     		push	{r7, lr}
 392              		.cfi_def_cfa_offset 8
 393              		.cfi_offset 7, -8
 394              		.cfi_offset 14, -4
 395 0002 82B0     		sub	sp, sp, #8
 396              		.cfi_def_cfa_offset 16
 397 0004 00AF     		add	r7, sp, #0
 398              		.cfi_def_cfa_register 7
 399 0006 7860     		str	r0, [r7, #4]
1203:../../dependencies/STM32CubeL0/Drivers/STM32L0xx_HAL_Driver/Inc/stm32l0xx_ll_rcc.h ****   MODIFY_REG(RCC->ICSCR, RCC_ICSCR_MSIRANGE, Range);
 400              		.loc 1 1203 3
 401 0008 064B     		ldr	r3, .L41
 402 000a 5B68     		ldr	r3, [r3, #4]
 403 000c 064A     		ldr	r2, .L41+4
 404 000e 1340     		ands	r3, r2
 405 0010 1900     		movs	r1, r3
 406 0012 044B     		ldr	r3, .L41
 407 0014 7A68     		ldr	r2, [r7, #4]
 408 0016 0A43     		orrs	r2, r1
 409 0018 5A60     		str	r2, [r3, #4]
1204:../../dependencies/STM32CubeL0/Drivers/STM32L0xx_HAL_Driver/Inc/stm32l0xx_ll_rcc.h **** }
ARM GAS  /var/folders/fs/dxwfnrqj18z860lwl3d6f5t00000gn/T//ccl6Jv28.s 			page 29


 410              		.loc 1 1204 1
 411 001a C046     		nop
 412 001c BD46     		mov	sp, r7
 413 001e 02B0     		add	sp, sp, #8
 414              		@ sp needed
 415 0020 80BD     		pop	{r7, pc}
 416              	.L42:
 417 0022 C046     		.align	2
 418              	.L41:
 419 0024 00100240 		.word	1073876992
 420 0028 FF1FFFFF 		.word	-57345
 421              		.cfi_endproc
 422              	.LFE85:
 424              		.section	.text.LL_RCC_MSI_GetRange,"ax",%progbits
 425              		.align	1
 426              		.syntax unified
 427              		.code	16
 428              		.thumb_func
 429              		.fpu softvfp
 431              	LL_RCC_MSI_GetRange:
 432              	.LFB86:
1205:../../dependencies/STM32CubeL0/Drivers/STM32L0xx_HAL_Driver/Inc/stm32l0xx_ll_rcc.h **** 
1206:../../dependencies/STM32CubeL0/Drivers/STM32L0xx_HAL_Driver/Inc/stm32l0xx_ll_rcc.h **** /**
1207:../../dependencies/STM32CubeL0/Drivers/STM32L0xx_HAL_Driver/Inc/stm32l0xx_ll_rcc.h ****   * @brief  Get the Internal Multi Speed oscillator (MSI) clock range in run mode.
1208:../../dependencies/STM32CubeL0/Drivers/STM32L0xx_HAL_Driver/Inc/stm32l0xx_ll_rcc.h ****   * @rmtoll ICSCR           MSIRANGE      LL_RCC_MSI_GetRange
1209:../../dependencies/STM32CubeL0/Drivers/STM32L0xx_HAL_Driver/Inc/stm32l0xx_ll_rcc.h ****   * @retval Returned value can be one of the following values:
1210:../../dependencies/STM32CubeL0/Drivers/STM32L0xx_HAL_Driver/Inc/stm32l0xx_ll_rcc.h ****   *         @arg @ref LL_RCC_MSIRANGE_0
1211:../../dependencies/STM32CubeL0/Drivers/STM32L0xx_HAL_Driver/Inc/stm32l0xx_ll_rcc.h ****   *         @arg @ref LL_RCC_MSIRANGE_1
1212:../../dependencies/STM32CubeL0/Drivers/STM32L0xx_HAL_Driver/Inc/stm32l0xx_ll_rcc.h ****   *         @arg @ref LL_RCC_MSIRANGE_2
1213:../../dependencies/STM32CubeL0/Drivers/STM32L0xx_HAL_Driver/Inc/stm32l0xx_ll_rcc.h ****   *         @arg @ref LL_RCC_MSIRANGE_3
1214:../../dependencies/STM32CubeL0/Drivers/STM32L0xx_HAL_Driver/Inc/stm32l0xx_ll_rcc.h ****   *         @arg @ref LL_RCC_MSIRANGE_4
1215:../../dependencies/STM32CubeL0/Drivers/STM32L0xx_HAL_Driver/Inc/stm32l0xx_ll_rcc.h ****   *         @arg @ref LL_RCC_MSIRANGE_5
1216:../../dependencies/STM32CubeL0/Drivers/STM32L0xx_HAL_Driver/Inc/stm32l0xx_ll_rcc.h ****   *         @arg @ref LL_RCC_MSIRANGE_6
1217:../../dependencies/STM32CubeL0/Drivers/STM32L0xx_HAL_Driver/Inc/stm32l0xx_ll_rcc.h ****   */
1218:../../dependencies/STM32CubeL0/Drivers/STM32L0xx_HAL_Driver/Inc/stm32l0xx_ll_rcc.h **** __STATIC_INLINE uint32_t LL_RCC_MSI_GetRange(void)
1219:../../dependencies/STM32CubeL0/Drivers/STM32L0xx_HAL_Driver/Inc/stm32l0xx_ll_rcc.h **** {
 433              		.loc 1 1219 1
 434              		.cfi_startproc
 435              		@ args = 0, pretend = 0, frame = 0
 436              		@ frame_needed = 1, uses_anonymous_args = 0
 437 0000 80B5     		push	{r7, lr}
 438              		.cfi_def_cfa_offset 8
 439              		.cfi_offset 7, -8
 440              		.cfi_offset 14, -4
 441 0002 00AF     		add	r7, sp, #0
 442              		.cfi_def_cfa_register 7
1220:../../dependencies/STM32CubeL0/Drivers/STM32L0xx_HAL_Driver/Inc/stm32l0xx_ll_rcc.h ****   return (uint32_t)(READ_BIT(RCC->ICSCR, RCC_ICSCR_MSIRANGE));
 443              		.loc 1 1220 21
 444 0004 034B     		ldr	r3, .L45
 445 0006 5A68     		ldr	r2, [r3, #4]
 446              		.loc 1 1220 10
 447 0008 E023     		movs	r3, #224
 448 000a 1B02     		lsls	r3, r3, #8
 449 000c 1340     		ands	r3, r2
1221:../../dependencies/STM32CubeL0/Drivers/STM32L0xx_HAL_Driver/Inc/stm32l0xx_ll_rcc.h **** }
 450              		.loc 1 1221 1
 451 000e 1800     		movs	r0, r3
ARM GAS  /var/folders/fs/dxwfnrqj18z860lwl3d6f5t00000gn/T//ccl6Jv28.s 			page 30


 452 0010 BD46     		mov	sp, r7
 453              		@ sp needed
 454 0012 80BD     		pop	{r7, pc}
 455              	.L46:
 456              		.align	2
 457              	.L45:
 458 0014 00100240 		.word	1073876992
 459              		.cfi_endproc
 460              	.LFE86:
 462              		.section	.text.LL_RCC_MSI_SetCalibTrimming,"ax",%progbits
 463              		.align	1
 464              		.syntax unified
 465              		.code	16
 466              		.thumb_func
 467              		.fpu softvfp
 469              	LL_RCC_MSI_SetCalibTrimming:
 470              	.LFB88:
1222:../../dependencies/STM32CubeL0/Drivers/STM32L0xx_HAL_Driver/Inc/stm32l0xx_ll_rcc.h **** 
1223:../../dependencies/STM32CubeL0/Drivers/STM32L0xx_HAL_Driver/Inc/stm32l0xx_ll_rcc.h **** /**
1224:../../dependencies/STM32CubeL0/Drivers/STM32L0xx_HAL_Driver/Inc/stm32l0xx_ll_rcc.h ****   * @brief  Get MSI Calibration value
1225:../../dependencies/STM32CubeL0/Drivers/STM32L0xx_HAL_Driver/Inc/stm32l0xx_ll_rcc.h ****   * @note When MSITRIM is written, MSICAL is updated with the sum of
1226:../../dependencies/STM32CubeL0/Drivers/STM32L0xx_HAL_Driver/Inc/stm32l0xx_ll_rcc.h ****   *       MSITRIM and the factory trim value
1227:../../dependencies/STM32CubeL0/Drivers/STM32L0xx_HAL_Driver/Inc/stm32l0xx_ll_rcc.h ****   * @rmtoll ICSCR        MSICAL        LL_RCC_MSI_GetCalibration
1228:../../dependencies/STM32CubeL0/Drivers/STM32L0xx_HAL_Driver/Inc/stm32l0xx_ll_rcc.h ****   * @retval Between Min_Data = 0x00 and Max_Data = 0xFF
1229:../../dependencies/STM32CubeL0/Drivers/STM32L0xx_HAL_Driver/Inc/stm32l0xx_ll_rcc.h ****   */
1230:../../dependencies/STM32CubeL0/Drivers/STM32L0xx_HAL_Driver/Inc/stm32l0xx_ll_rcc.h **** __STATIC_INLINE uint32_t LL_RCC_MSI_GetCalibration(void)
1231:../../dependencies/STM32CubeL0/Drivers/STM32L0xx_HAL_Driver/Inc/stm32l0xx_ll_rcc.h **** {
1232:../../dependencies/STM32CubeL0/Drivers/STM32L0xx_HAL_Driver/Inc/stm32l0xx_ll_rcc.h ****   return (uint32_t)(READ_BIT(RCC->ICSCR, RCC_ICSCR_MSICAL) >> RCC_ICSCR_MSICAL_Pos);
1233:../../dependencies/STM32CubeL0/Drivers/STM32L0xx_HAL_Driver/Inc/stm32l0xx_ll_rcc.h **** }
1234:../../dependencies/STM32CubeL0/Drivers/STM32L0xx_HAL_Driver/Inc/stm32l0xx_ll_rcc.h **** 
1235:../../dependencies/STM32CubeL0/Drivers/STM32L0xx_HAL_Driver/Inc/stm32l0xx_ll_rcc.h **** /**
1236:../../dependencies/STM32CubeL0/Drivers/STM32L0xx_HAL_Driver/Inc/stm32l0xx_ll_rcc.h ****   * @brief  Set MSI Calibration trimming
1237:../../dependencies/STM32CubeL0/Drivers/STM32L0xx_HAL_Driver/Inc/stm32l0xx_ll_rcc.h ****   * @note user-programmable trimming value that is added to the MSICAL
1238:../../dependencies/STM32CubeL0/Drivers/STM32L0xx_HAL_Driver/Inc/stm32l0xx_ll_rcc.h ****   * @rmtoll ICSCR        MSITRIM       LL_RCC_MSI_SetCalibTrimming
1239:../../dependencies/STM32CubeL0/Drivers/STM32L0xx_HAL_Driver/Inc/stm32l0xx_ll_rcc.h ****   * @param  Value between Min_Data = 0x00 and Max_Data = 0xFF
1240:../../dependencies/STM32CubeL0/Drivers/STM32L0xx_HAL_Driver/Inc/stm32l0xx_ll_rcc.h ****   * @retval None
1241:../../dependencies/STM32CubeL0/Drivers/STM32L0xx_HAL_Driver/Inc/stm32l0xx_ll_rcc.h ****   */
1242:../../dependencies/STM32CubeL0/Drivers/STM32L0xx_HAL_Driver/Inc/stm32l0xx_ll_rcc.h **** __STATIC_INLINE void LL_RCC_MSI_SetCalibTrimming(uint32_t Value)
1243:../../dependencies/STM32CubeL0/Drivers/STM32L0xx_HAL_Driver/Inc/stm32l0xx_ll_rcc.h **** {
 471              		.loc 1 1243 1
 472              		.cfi_startproc
 473              		@ args = 0, pretend = 0, frame = 8
 474              		@ frame_needed = 1, uses_anonymous_args = 0
 475 0000 80B5     		push	{r7, lr}
 476              		.cfi_def_cfa_offset 8
 477              		.cfi_offset 7, -8
 478              		.cfi_offset 14, -4
 479 0002 82B0     		sub	sp, sp, #8
 480              		.cfi_def_cfa_offset 16
 481 0004 00AF     		add	r7, sp, #0
 482              		.cfi_def_cfa_register 7
 483 0006 7860     		str	r0, [r7, #4]
1244:../../dependencies/STM32CubeL0/Drivers/STM32L0xx_HAL_Driver/Inc/stm32l0xx_ll_rcc.h ****   MODIFY_REG(RCC->ICSCR, RCC_ICSCR_MSITRIM, Value << RCC_ICSCR_MSITRIM_Pos);
 484              		.loc 1 1244 3
 485 0008 064B     		ldr	r3, .L48
 486 000a 5B68     		ldr	r3, [r3, #4]
 487 000c 1B02     		lsls	r3, r3, #8
ARM GAS  /var/folders/fs/dxwfnrqj18z860lwl3d6f5t00000gn/T//ccl6Jv28.s 			page 31


 488 000e 190A     		lsrs	r1, r3, #8
 489 0010 7B68     		ldr	r3, [r7, #4]
 490 0012 1A06     		lsls	r2, r3, #24
 491 0014 034B     		ldr	r3, .L48
 492 0016 0A43     		orrs	r2, r1
 493 0018 5A60     		str	r2, [r3, #4]
1245:../../dependencies/STM32CubeL0/Drivers/STM32L0xx_HAL_Driver/Inc/stm32l0xx_ll_rcc.h **** }
 494              		.loc 1 1245 1
 495 001a C046     		nop
 496 001c BD46     		mov	sp, r7
 497 001e 02B0     		add	sp, sp, #8
 498              		@ sp needed
 499 0020 80BD     		pop	{r7, pc}
 500              	.L49:
 501 0022 C046     		.align	2
 502              	.L48:
 503 0024 00100240 		.word	1073876992
 504              		.cfi_endproc
 505              	.LFE88:
 507              		.section	.text.LL_RCC_GetSysClkSource,"ax",%progbits
 508              		.align	1
 509              		.syntax unified
 510              		.code	16
 511              		.thumb_func
 512              		.fpu softvfp
 514              	LL_RCC_GetSysClkSource:
 515              	.LFB91:
1246:../../dependencies/STM32CubeL0/Drivers/STM32L0xx_HAL_Driver/Inc/stm32l0xx_ll_rcc.h **** 
1247:../../dependencies/STM32CubeL0/Drivers/STM32L0xx_HAL_Driver/Inc/stm32l0xx_ll_rcc.h **** /**
1248:../../dependencies/STM32CubeL0/Drivers/STM32L0xx_HAL_Driver/Inc/stm32l0xx_ll_rcc.h ****   * @brief  Get MSI Calibration trimming
1249:../../dependencies/STM32CubeL0/Drivers/STM32L0xx_HAL_Driver/Inc/stm32l0xx_ll_rcc.h ****   * @rmtoll ICSCR        MSITRIM       LL_RCC_MSI_GetCalibTrimming
1250:../../dependencies/STM32CubeL0/Drivers/STM32L0xx_HAL_Driver/Inc/stm32l0xx_ll_rcc.h ****   * @retval Between Min_Data = 0x00 and Max_Data = 0xFF
1251:../../dependencies/STM32CubeL0/Drivers/STM32L0xx_HAL_Driver/Inc/stm32l0xx_ll_rcc.h ****   */
1252:../../dependencies/STM32CubeL0/Drivers/STM32L0xx_HAL_Driver/Inc/stm32l0xx_ll_rcc.h **** __STATIC_INLINE uint32_t LL_RCC_MSI_GetCalibTrimming(void)
1253:../../dependencies/STM32CubeL0/Drivers/STM32L0xx_HAL_Driver/Inc/stm32l0xx_ll_rcc.h **** {
1254:../../dependencies/STM32CubeL0/Drivers/STM32L0xx_HAL_Driver/Inc/stm32l0xx_ll_rcc.h ****   return (uint32_t)(READ_BIT(RCC->ICSCR, RCC_ICSCR_MSITRIM) >> RCC_ICSCR_MSITRIM_Pos);
1255:../../dependencies/STM32CubeL0/Drivers/STM32L0xx_HAL_Driver/Inc/stm32l0xx_ll_rcc.h **** }
1256:../../dependencies/STM32CubeL0/Drivers/STM32L0xx_HAL_Driver/Inc/stm32l0xx_ll_rcc.h **** 
1257:../../dependencies/STM32CubeL0/Drivers/STM32L0xx_HAL_Driver/Inc/stm32l0xx_ll_rcc.h **** /**
1258:../../dependencies/STM32CubeL0/Drivers/STM32L0xx_HAL_Driver/Inc/stm32l0xx_ll_rcc.h ****   * @}
1259:../../dependencies/STM32CubeL0/Drivers/STM32L0xx_HAL_Driver/Inc/stm32l0xx_ll_rcc.h ****   */
1260:../../dependencies/STM32CubeL0/Drivers/STM32L0xx_HAL_Driver/Inc/stm32l0xx_ll_rcc.h **** 
1261:../../dependencies/STM32CubeL0/Drivers/STM32L0xx_HAL_Driver/Inc/stm32l0xx_ll_rcc.h **** /** @defgroup RCC_LL_EF_System System
1262:../../dependencies/STM32CubeL0/Drivers/STM32L0xx_HAL_Driver/Inc/stm32l0xx_ll_rcc.h ****   * @{
1263:../../dependencies/STM32CubeL0/Drivers/STM32L0xx_HAL_Driver/Inc/stm32l0xx_ll_rcc.h ****   */
1264:../../dependencies/STM32CubeL0/Drivers/STM32L0xx_HAL_Driver/Inc/stm32l0xx_ll_rcc.h **** 
1265:../../dependencies/STM32CubeL0/Drivers/STM32L0xx_HAL_Driver/Inc/stm32l0xx_ll_rcc.h **** /**
1266:../../dependencies/STM32CubeL0/Drivers/STM32L0xx_HAL_Driver/Inc/stm32l0xx_ll_rcc.h ****   * @brief  Configure the system clock source
1267:../../dependencies/STM32CubeL0/Drivers/STM32L0xx_HAL_Driver/Inc/stm32l0xx_ll_rcc.h ****   * @rmtoll CFGR         SW            LL_RCC_SetSysClkSource
1268:../../dependencies/STM32CubeL0/Drivers/STM32L0xx_HAL_Driver/Inc/stm32l0xx_ll_rcc.h ****   * @param  Source This parameter can be one of the following values:
1269:../../dependencies/STM32CubeL0/Drivers/STM32L0xx_HAL_Driver/Inc/stm32l0xx_ll_rcc.h ****   *         @arg @ref LL_RCC_SYS_CLKSOURCE_MSI
1270:../../dependencies/STM32CubeL0/Drivers/STM32L0xx_HAL_Driver/Inc/stm32l0xx_ll_rcc.h ****   *         @arg @ref LL_RCC_SYS_CLKSOURCE_HSI
1271:../../dependencies/STM32CubeL0/Drivers/STM32L0xx_HAL_Driver/Inc/stm32l0xx_ll_rcc.h ****   *         @arg @ref LL_RCC_SYS_CLKSOURCE_HSE
1272:../../dependencies/STM32CubeL0/Drivers/STM32L0xx_HAL_Driver/Inc/stm32l0xx_ll_rcc.h ****   *         @arg @ref LL_RCC_SYS_CLKSOURCE_PLL
1273:../../dependencies/STM32CubeL0/Drivers/STM32L0xx_HAL_Driver/Inc/stm32l0xx_ll_rcc.h ****   * @retval None
1274:../../dependencies/STM32CubeL0/Drivers/STM32L0xx_HAL_Driver/Inc/stm32l0xx_ll_rcc.h ****   */
1275:../../dependencies/STM32CubeL0/Drivers/STM32L0xx_HAL_Driver/Inc/stm32l0xx_ll_rcc.h **** __STATIC_INLINE void LL_RCC_SetSysClkSource(uint32_t Source)
ARM GAS  /var/folders/fs/dxwfnrqj18z860lwl3d6f5t00000gn/T//ccl6Jv28.s 			page 32


1276:../../dependencies/STM32CubeL0/Drivers/STM32L0xx_HAL_Driver/Inc/stm32l0xx_ll_rcc.h **** {
1277:../../dependencies/STM32CubeL0/Drivers/STM32L0xx_HAL_Driver/Inc/stm32l0xx_ll_rcc.h ****   MODIFY_REG(RCC->CFGR, RCC_CFGR_SW, Source);
1278:../../dependencies/STM32CubeL0/Drivers/STM32L0xx_HAL_Driver/Inc/stm32l0xx_ll_rcc.h **** }
1279:../../dependencies/STM32CubeL0/Drivers/STM32L0xx_HAL_Driver/Inc/stm32l0xx_ll_rcc.h **** 
1280:../../dependencies/STM32CubeL0/Drivers/STM32L0xx_HAL_Driver/Inc/stm32l0xx_ll_rcc.h **** /**
1281:../../dependencies/STM32CubeL0/Drivers/STM32L0xx_HAL_Driver/Inc/stm32l0xx_ll_rcc.h ****   * @brief  Get the system clock source
1282:../../dependencies/STM32CubeL0/Drivers/STM32L0xx_HAL_Driver/Inc/stm32l0xx_ll_rcc.h ****   * @rmtoll CFGR         SWS           LL_RCC_GetSysClkSource
1283:../../dependencies/STM32CubeL0/Drivers/STM32L0xx_HAL_Driver/Inc/stm32l0xx_ll_rcc.h ****   * @retval Returned value can be one of the following values:
1284:../../dependencies/STM32CubeL0/Drivers/STM32L0xx_HAL_Driver/Inc/stm32l0xx_ll_rcc.h ****   *         @arg @ref LL_RCC_SYS_CLKSOURCE_STATUS_MSI
1285:../../dependencies/STM32CubeL0/Drivers/STM32L0xx_HAL_Driver/Inc/stm32l0xx_ll_rcc.h ****   *         @arg @ref LL_RCC_SYS_CLKSOURCE_STATUS_HSI
1286:../../dependencies/STM32CubeL0/Drivers/STM32L0xx_HAL_Driver/Inc/stm32l0xx_ll_rcc.h ****   *         @arg @ref LL_RCC_SYS_CLKSOURCE_STATUS_HSE
1287:../../dependencies/STM32CubeL0/Drivers/STM32L0xx_HAL_Driver/Inc/stm32l0xx_ll_rcc.h ****   *         @arg @ref LL_RCC_SYS_CLKSOURCE_STATUS_PLL
1288:../../dependencies/STM32CubeL0/Drivers/STM32L0xx_HAL_Driver/Inc/stm32l0xx_ll_rcc.h ****   */
1289:../../dependencies/STM32CubeL0/Drivers/STM32L0xx_HAL_Driver/Inc/stm32l0xx_ll_rcc.h **** __STATIC_INLINE uint32_t LL_RCC_GetSysClkSource(void)
1290:../../dependencies/STM32CubeL0/Drivers/STM32L0xx_HAL_Driver/Inc/stm32l0xx_ll_rcc.h **** {
 516              		.loc 1 1290 1
 517              		.cfi_startproc
 518              		@ args = 0, pretend = 0, frame = 0
 519              		@ frame_needed = 1, uses_anonymous_args = 0
 520 0000 80B5     		push	{r7, lr}
 521              		.cfi_def_cfa_offset 8
 522              		.cfi_offset 7, -8
 523              		.cfi_offset 14, -4
 524 0002 00AF     		add	r7, sp, #0
 525              		.cfi_def_cfa_register 7
1291:../../dependencies/STM32CubeL0/Drivers/STM32L0xx_HAL_Driver/Inc/stm32l0xx_ll_rcc.h ****   return (uint32_t)(READ_BIT(RCC->CFGR, RCC_CFGR_SWS));
 526              		.loc 1 1291 21
 527 0004 034B     		ldr	r3, .L52
 528 0006 DB68     		ldr	r3, [r3, #12]
 529              		.loc 1 1291 10
 530 0008 0C22     		movs	r2, #12
 531 000a 1340     		ands	r3, r2
1292:../../dependencies/STM32CubeL0/Drivers/STM32L0xx_HAL_Driver/Inc/stm32l0xx_ll_rcc.h **** }
 532              		.loc 1 1292 1
 533 000c 1800     		movs	r0, r3
 534 000e BD46     		mov	sp, r7
 535              		@ sp needed
 536 0010 80BD     		pop	{r7, pc}
 537              	.L53:
 538 0012 C046     		.align	2
 539              	.L52:
 540 0014 00100240 		.word	1073876992
 541              		.cfi_endproc
 542              	.LFE91:
 544              		.section	.text.LL_RCC_GetAHBPrescaler,"ax",%progbits
 545              		.align	1
 546              		.syntax unified
 547              		.code	16
 548              		.thumb_func
 549              		.fpu softvfp
 551              	LL_RCC_GetAHBPrescaler:
 552              	.LFB95:
1293:../../dependencies/STM32CubeL0/Drivers/STM32L0xx_HAL_Driver/Inc/stm32l0xx_ll_rcc.h **** 
1294:../../dependencies/STM32CubeL0/Drivers/STM32L0xx_HAL_Driver/Inc/stm32l0xx_ll_rcc.h **** /**
1295:../../dependencies/STM32CubeL0/Drivers/STM32L0xx_HAL_Driver/Inc/stm32l0xx_ll_rcc.h ****   * @brief  Set AHB prescaler
1296:../../dependencies/STM32CubeL0/Drivers/STM32L0xx_HAL_Driver/Inc/stm32l0xx_ll_rcc.h ****   * @rmtoll CFGR         HPRE          LL_RCC_SetAHBPrescaler
1297:../../dependencies/STM32CubeL0/Drivers/STM32L0xx_HAL_Driver/Inc/stm32l0xx_ll_rcc.h ****   * @param  Prescaler This parameter can be one of the following values:
ARM GAS  /var/folders/fs/dxwfnrqj18z860lwl3d6f5t00000gn/T//ccl6Jv28.s 			page 33


1298:../../dependencies/STM32CubeL0/Drivers/STM32L0xx_HAL_Driver/Inc/stm32l0xx_ll_rcc.h ****   *         @arg @ref LL_RCC_SYSCLK_DIV_1
1299:../../dependencies/STM32CubeL0/Drivers/STM32L0xx_HAL_Driver/Inc/stm32l0xx_ll_rcc.h ****   *         @arg @ref LL_RCC_SYSCLK_DIV_2
1300:../../dependencies/STM32CubeL0/Drivers/STM32L0xx_HAL_Driver/Inc/stm32l0xx_ll_rcc.h ****   *         @arg @ref LL_RCC_SYSCLK_DIV_4
1301:../../dependencies/STM32CubeL0/Drivers/STM32L0xx_HAL_Driver/Inc/stm32l0xx_ll_rcc.h ****   *         @arg @ref LL_RCC_SYSCLK_DIV_8
1302:../../dependencies/STM32CubeL0/Drivers/STM32L0xx_HAL_Driver/Inc/stm32l0xx_ll_rcc.h ****   *         @arg @ref LL_RCC_SYSCLK_DIV_16
1303:../../dependencies/STM32CubeL0/Drivers/STM32L0xx_HAL_Driver/Inc/stm32l0xx_ll_rcc.h ****   *         @arg @ref LL_RCC_SYSCLK_DIV_64
1304:../../dependencies/STM32CubeL0/Drivers/STM32L0xx_HAL_Driver/Inc/stm32l0xx_ll_rcc.h ****   *         @arg @ref LL_RCC_SYSCLK_DIV_128
1305:../../dependencies/STM32CubeL0/Drivers/STM32L0xx_HAL_Driver/Inc/stm32l0xx_ll_rcc.h ****   *         @arg @ref LL_RCC_SYSCLK_DIV_256
1306:../../dependencies/STM32CubeL0/Drivers/STM32L0xx_HAL_Driver/Inc/stm32l0xx_ll_rcc.h ****   *         @arg @ref LL_RCC_SYSCLK_DIV_512
1307:../../dependencies/STM32CubeL0/Drivers/STM32L0xx_HAL_Driver/Inc/stm32l0xx_ll_rcc.h ****   * @retval None
1308:../../dependencies/STM32CubeL0/Drivers/STM32L0xx_HAL_Driver/Inc/stm32l0xx_ll_rcc.h ****   */
1309:../../dependencies/STM32CubeL0/Drivers/STM32L0xx_HAL_Driver/Inc/stm32l0xx_ll_rcc.h **** __STATIC_INLINE void LL_RCC_SetAHBPrescaler(uint32_t Prescaler)
1310:../../dependencies/STM32CubeL0/Drivers/STM32L0xx_HAL_Driver/Inc/stm32l0xx_ll_rcc.h **** {
1311:../../dependencies/STM32CubeL0/Drivers/STM32L0xx_HAL_Driver/Inc/stm32l0xx_ll_rcc.h ****   MODIFY_REG(RCC->CFGR, RCC_CFGR_HPRE, Prescaler);
1312:../../dependencies/STM32CubeL0/Drivers/STM32L0xx_HAL_Driver/Inc/stm32l0xx_ll_rcc.h **** }
1313:../../dependencies/STM32CubeL0/Drivers/STM32L0xx_HAL_Driver/Inc/stm32l0xx_ll_rcc.h **** 
1314:../../dependencies/STM32CubeL0/Drivers/STM32L0xx_HAL_Driver/Inc/stm32l0xx_ll_rcc.h **** /**
1315:../../dependencies/STM32CubeL0/Drivers/STM32L0xx_HAL_Driver/Inc/stm32l0xx_ll_rcc.h ****   * @brief  Set APB1 prescaler
1316:../../dependencies/STM32CubeL0/Drivers/STM32L0xx_HAL_Driver/Inc/stm32l0xx_ll_rcc.h ****   * @rmtoll CFGR         PPRE1         LL_RCC_SetAPB1Prescaler
1317:../../dependencies/STM32CubeL0/Drivers/STM32L0xx_HAL_Driver/Inc/stm32l0xx_ll_rcc.h ****   * @param  Prescaler This parameter can be one of the following values:
1318:../../dependencies/STM32CubeL0/Drivers/STM32L0xx_HAL_Driver/Inc/stm32l0xx_ll_rcc.h ****   *         @arg @ref LL_RCC_APB1_DIV_1
1319:../../dependencies/STM32CubeL0/Drivers/STM32L0xx_HAL_Driver/Inc/stm32l0xx_ll_rcc.h ****   *         @arg @ref LL_RCC_APB1_DIV_2
1320:../../dependencies/STM32CubeL0/Drivers/STM32L0xx_HAL_Driver/Inc/stm32l0xx_ll_rcc.h ****   *         @arg @ref LL_RCC_APB1_DIV_4
1321:../../dependencies/STM32CubeL0/Drivers/STM32L0xx_HAL_Driver/Inc/stm32l0xx_ll_rcc.h ****   *         @arg @ref LL_RCC_APB1_DIV_8
1322:../../dependencies/STM32CubeL0/Drivers/STM32L0xx_HAL_Driver/Inc/stm32l0xx_ll_rcc.h ****   *         @arg @ref LL_RCC_APB1_DIV_16
1323:../../dependencies/STM32CubeL0/Drivers/STM32L0xx_HAL_Driver/Inc/stm32l0xx_ll_rcc.h ****   * @retval None
1324:../../dependencies/STM32CubeL0/Drivers/STM32L0xx_HAL_Driver/Inc/stm32l0xx_ll_rcc.h ****   */
1325:../../dependencies/STM32CubeL0/Drivers/STM32L0xx_HAL_Driver/Inc/stm32l0xx_ll_rcc.h **** __STATIC_INLINE void LL_RCC_SetAPB1Prescaler(uint32_t Prescaler)
1326:../../dependencies/STM32CubeL0/Drivers/STM32L0xx_HAL_Driver/Inc/stm32l0xx_ll_rcc.h **** {
1327:../../dependencies/STM32CubeL0/Drivers/STM32L0xx_HAL_Driver/Inc/stm32l0xx_ll_rcc.h ****   MODIFY_REG(RCC->CFGR, RCC_CFGR_PPRE1, Prescaler);
1328:../../dependencies/STM32CubeL0/Drivers/STM32L0xx_HAL_Driver/Inc/stm32l0xx_ll_rcc.h **** }
1329:../../dependencies/STM32CubeL0/Drivers/STM32L0xx_HAL_Driver/Inc/stm32l0xx_ll_rcc.h **** 
1330:../../dependencies/STM32CubeL0/Drivers/STM32L0xx_HAL_Driver/Inc/stm32l0xx_ll_rcc.h **** /**
1331:../../dependencies/STM32CubeL0/Drivers/STM32L0xx_HAL_Driver/Inc/stm32l0xx_ll_rcc.h ****   * @brief  Set APB2 prescaler
1332:../../dependencies/STM32CubeL0/Drivers/STM32L0xx_HAL_Driver/Inc/stm32l0xx_ll_rcc.h ****   * @rmtoll CFGR         PPRE2         LL_RCC_SetAPB2Prescaler
1333:../../dependencies/STM32CubeL0/Drivers/STM32L0xx_HAL_Driver/Inc/stm32l0xx_ll_rcc.h ****   * @param  Prescaler This parameter can be one of the following values:
1334:../../dependencies/STM32CubeL0/Drivers/STM32L0xx_HAL_Driver/Inc/stm32l0xx_ll_rcc.h ****   *         @arg @ref LL_RCC_APB2_DIV_1
1335:../../dependencies/STM32CubeL0/Drivers/STM32L0xx_HAL_Driver/Inc/stm32l0xx_ll_rcc.h ****   *         @arg @ref LL_RCC_APB2_DIV_2
1336:../../dependencies/STM32CubeL0/Drivers/STM32L0xx_HAL_Driver/Inc/stm32l0xx_ll_rcc.h ****   *         @arg @ref LL_RCC_APB2_DIV_4
1337:../../dependencies/STM32CubeL0/Drivers/STM32L0xx_HAL_Driver/Inc/stm32l0xx_ll_rcc.h ****   *         @arg @ref LL_RCC_APB2_DIV_8
1338:../../dependencies/STM32CubeL0/Drivers/STM32L0xx_HAL_Driver/Inc/stm32l0xx_ll_rcc.h ****   *         @arg @ref LL_RCC_APB2_DIV_16
1339:../../dependencies/STM32CubeL0/Drivers/STM32L0xx_HAL_Driver/Inc/stm32l0xx_ll_rcc.h ****   * @retval None
1340:../../dependencies/STM32CubeL0/Drivers/STM32L0xx_HAL_Driver/Inc/stm32l0xx_ll_rcc.h ****   */
1341:../../dependencies/STM32CubeL0/Drivers/STM32L0xx_HAL_Driver/Inc/stm32l0xx_ll_rcc.h **** __STATIC_INLINE void LL_RCC_SetAPB2Prescaler(uint32_t Prescaler)
1342:../../dependencies/STM32CubeL0/Drivers/STM32L0xx_HAL_Driver/Inc/stm32l0xx_ll_rcc.h **** {
1343:../../dependencies/STM32CubeL0/Drivers/STM32L0xx_HAL_Driver/Inc/stm32l0xx_ll_rcc.h ****   MODIFY_REG(RCC->CFGR, RCC_CFGR_PPRE2, Prescaler);
1344:../../dependencies/STM32CubeL0/Drivers/STM32L0xx_HAL_Driver/Inc/stm32l0xx_ll_rcc.h **** }
1345:../../dependencies/STM32CubeL0/Drivers/STM32L0xx_HAL_Driver/Inc/stm32l0xx_ll_rcc.h **** 
1346:../../dependencies/STM32CubeL0/Drivers/STM32L0xx_HAL_Driver/Inc/stm32l0xx_ll_rcc.h **** /**
1347:../../dependencies/STM32CubeL0/Drivers/STM32L0xx_HAL_Driver/Inc/stm32l0xx_ll_rcc.h ****   * @brief  Get AHB prescaler
1348:../../dependencies/STM32CubeL0/Drivers/STM32L0xx_HAL_Driver/Inc/stm32l0xx_ll_rcc.h ****   * @rmtoll CFGR         HPRE          LL_RCC_GetAHBPrescaler
1349:../../dependencies/STM32CubeL0/Drivers/STM32L0xx_HAL_Driver/Inc/stm32l0xx_ll_rcc.h ****   * @retval Returned value can be one of the following values:
1350:../../dependencies/STM32CubeL0/Drivers/STM32L0xx_HAL_Driver/Inc/stm32l0xx_ll_rcc.h ****   *         @arg @ref LL_RCC_SYSCLK_DIV_1
1351:../../dependencies/STM32CubeL0/Drivers/STM32L0xx_HAL_Driver/Inc/stm32l0xx_ll_rcc.h ****   *         @arg @ref LL_RCC_SYSCLK_DIV_2
1352:../../dependencies/STM32CubeL0/Drivers/STM32L0xx_HAL_Driver/Inc/stm32l0xx_ll_rcc.h ****   *         @arg @ref LL_RCC_SYSCLK_DIV_4
1353:../../dependencies/STM32CubeL0/Drivers/STM32L0xx_HAL_Driver/Inc/stm32l0xx_ll_rcc.h ****   *         @arg @ref LL_RCC_SYSCLK_DIV_8
1354:../../dependencies/STM32CubeL0/Drivers/STM32L0xx_HAL_Driver/Inc/stm32l0xx_ll_rcc.h ****   *         @arg @ref LL_RCC_SYSCLK_DIV_16
ARM GAS  /var/folders/fs/dxwfnrqj18z860lwl3d6f5t00000gn/T//ccl6Jv28.s 			page 34


1355:../../dependencies/STM32CubeL0/Drivers/STM32L0xx_HAL_Driver/Inc/stm32l0xx_ll_rcc.h ****   *         @arg @ref LL_RCC_SYSCLK_DIV_64
1356:../../dependencies/STM32CubeL0/Drivers/STM32L0xx_HAL_Driver/Inc/stm32l0xx_ll_rcc.h ****   *         @arg @ref LL_RCC_SYSCLK_DIV_128
1357:../../dependencies/STM32CubeL0/Drivers/STM32L0xx_HAL_Driver/Inc/stm32l0xx_ll_rcc.h ****   *         @arg @ref LL_RCC_SYSCLK_DIV_256
1358:../../dependencies/STM32CubeL0/Drivers/STM32L0xx_HAL_Driver/Inc/stm32l0xx_ll_rcc.h ****   *         @arg @ref LL_RCC_SYSCLK_DIV_512
1359:../../dependencies/STM32CubeL0/Drivers/STM32L0xx_HAL_Driver/Inc/stm32l0xx_ll_rcc.h ****   */
1360:../../dependencies/STM32CubeL0/Drivers/STM32L0xx_HAL_Driver/Inc/stm32l0xx_ll_rcc.h **** __STATIC_INLINE uint32_t LL_RCC_GetAHBPrescaler(void)
1361:../../dependencies/STM32CubeL0/Drivers/STM32L0xx_HAL_Driver/Inc/stm32l0xx_ll_rcc.h **** {
 553              		.loc 1 1361 1
 554              		.cfi_startproc
 555              		@ args = 0, pretend = 0, frame = 0
 556              		@ frame_needed = 1, uses_anonymous_args = 0
 557 0000 80B5     		push	{r7, lr}
 558              		.cfi_def_cfa_offset 8
 559              		.cfi_offset 7, -8
 560              		.cfi_offset 14, -4
 561 0002 00AF     		add	r7, sp, #0
 562              		.cfi_def_cfa_register 7
1362:../../dependencies/STM32CubeL0/Drivers/STM32L0xx_HAL_Driver/Inc/stm32l0xx_ll_rcc.h ****   return (uint32_t)(READ_BIT(RCC->CFGR, RCC_CFGR_HPRE));
 563              		.loc 1 1362 21
 564 0004 034B     		ldr	r3, .L56
 565 0006 DB68     		ldr	r3, [r3, #12]
 566              		.loc 1 1362 10
 567 0008 F022     		movs	r2, #240
 568 000a 1340     		ands	r3, r2
1363:../../dependencies/STM32CubeL0/Drivers/STM32L0xx_HAL_Driver/Inc/stm32l0xx_ll_rcc.h **** }
 569              		.loc 1 1363 1
 570 000c 1800     		movs	r0, r3
 571 000e BD46     		mov	sp, r7
 572              		@ sp needed
 573 0010 80BD     		pop	{r7, pc}
 574              	.L57:
 575 0012 C046     		.align	2
 576              	.L56:
 577 0014 00100240 		.word	1073876992
 578              		.cfi_endproc
 579              	.LFE95:
 581              		.section	.text.LL_RCC_GetAPB1Prescaler,"ax",%progbits
 582              		.align	1
 583              		.syntax unified
 584              		.code	16
 585              		.thumb_func
 586              		.fpu softvfp
 588              	LL_RCC_GetAPB1Prescaler:
 589              	.LFB96:
1364:../../dependencies/STM32CubeL0/Drivers/STM32L0xx_HAL_Driver/Inc/stm32l0xx_ll_rcc.h **** 
1365:../../dependencies/STM32CubeL0/Drivers/STM32L0xx_HAL_Driver/Inc/stm32l0xx_ll_rcc.h **** /**
1366:../../dependencies/STM32CubeL0/Drivers/STM32L0xx_HAL_Driver/Inc/stm32l0xx_ll_rcc.h ****   * @brief  Get APB1 prescaler
1367:../../dependencies/STM32CubeL0/Drivers/STM32L0xx_HAL_Driver/Inc/stm32l0xx_ll_rcc.h ****   * @rmtoll CFGR         PPRE1         LL_RCC_GetAPB1Prescaler
1368:../../dependencies/STM32CubeL0/Drivers/STM32L0xx_HAL_Driver/Inc/stm32l0xx_ll_rcc.h ****   * @retval Returned value can be one of the following values:
1369:../../dependencies/STM32CubeL0/Drivers/STM32L0xx_HAL_Driver/Inc/stm32l0xx_ll_rcc.h ****   *         @arg @ref LL_RCC_APB1_DIV_1
1370:../../dependencies/STM32CubeL0/Drivers/STM32L0xx_HAL_Driver/Inc/stm32l0xx_ll_rcc.h ****   *         @arg @ref LL_RCC_APB1_DIV_2
1371:../../dependencies/STM32CubeL0/Drivers/STM32L0xx_HAL_Driver/Inc/stm32l0xx_ll_rcc.h ****   *         @arg @ref LL_RCC_APB1_DIV_4
1372:../../dependencies/STM32CubeL0/Drivers/STM32L0xx_HAL_Driver/Inc/stm32l0xx_ll_rcc.h ****   *         @arg @ref LL_RCC_APB1_DIV_8
1373:../../dependencies/STM32CubeL0/Drivers/STM32L0xx_HAL_Driver/Inc/stm32l0xx_ll_rcc.h ****   *         @arg @ref LL_RCC_APB1_DIV_16
1374:../../dependencies/STM32CubeL0/Drivers/STM32L0xx_HAL_Driver/Inc/stm32l0xx_ll_rcc.h ****   */
1375:../../dependencies/STM32CubeL0/Drivers/STM32L0xx_HAL_Driver/Inc/stm32l0xx_ll_rcc.h **** __STATIC_INLINE uint32_t LL_RCC_GetAPB1Prescaler(void)
1376:../../dependencies/STM32CubeL0/Drivers/STM32L0xx_HAL_Driver/Inc/stm32l0xx_ll_rcc.h **** {
ARM GAS  /var/folders/fs/dxwfnrqj18z860lwl3d6f5t00000gn/T//ccl6Jv28.s 			page 35


 590              		.loc 1 1376 1
 591              		.cfi_startproc
 592              		@ args = 0, pretend = 0, frame = 0
 593              		@ frame_needed = 1, uses_anonymous_args = 0
 594 0000 80B5     		push	{r7, lr}
 595              		.cfi_def_cfa_offset 8
 596              		.cfi_offset 7, -8
 597              		.cfi_offset 14, -4
 598 0002 00AF     		add	r7, sp, #0
 599              		.cfi_def_cfa_register 7
1377:../../dependencies/STM32CubeL0/Drivers/STM32L0xx_HAL_Driver/Inc/stm32l0xx_ll_rcc.h ****   return (uint32_t)(READ_BIT(RCC->CFGR, RCC_CFGR_PPRE1));
 600              		.loc 1 1377 21
 601 0004 034B     		ldr	r3, .L60
 602 0006 DA68     		ldr	r2, [r3, #12]
 603              		.loc 1 1377 10
 604 0008 E023     		movs	r3, #224
 605 000a DB00     		lsls	r3, r3, #3
 606 000c 1340     		ands	r3, r2
1378:../../dependencies/STM32CubeL0/Drivers/STM32L0xx_HAL_Driver/Inc/stm32l0xx_ll_rcc.h **** }
 607              		.loc 1 1378 1
 608 000e 1800     		movs	r0, r3
 609 0010 BD46     		mov	sp, r7
 610              		@ sp needed
 611 0012 80BD     		pop	{r7, pc}
 612              	.L61:
 613              		.align	2
 614              	.L60:
 615 0014 00100240 		.word	1073876992
 616              		.cfi_endproc
 617              	.LFE96:
 619              		.section	.text.LL_RCC_GetAPB2Prescaler,"ax",%progbits
 620              		.align	1
 621              		.syntax unified
 622              		.code	16
 623              		.thumb_func
 624              		.fpu softvfp
 626              	LL_RCC_GetAPB2Prescaler:
 627              	.LFB97:
1379:../../dependencies/STM32CubeL0/Drivers/STM32L0xx_HAL_Driver/Inc/stm32l0xx_ll_rcc.h **** 
1380:../../dependencies/STM32CubeL0/Drivers/STM32L0xx_HAL_Driver/Inc/stm32l0xx_ll_rcc.h **** /**
1381:../../dependencies/STM32CubeL0/Drivers/STM32L0xx_HAL_Driver/Inc/stm32l0xx_ll_rcc.h ****   * @brief  Get APB2 prescaler
1382:../../dependencies/STM32CubeL0/Drivers/STM32L0xx_HAL_Driver/Inc/stm32l0xx_ll_rcc.h ****   * @rmtoll CFGR         PPRE2         LL_RCC_GetAPB2Prescaler
1383:../../dependencies/STM32CubeL0/Drivers/STM32L0xx_HAL_Driver/Inc/stm32l0xx_ll_rcc.h ****   * @retval Returned value can be one of the following values:
1384:../../dependencies/STM32CubeL0/Drivers/STM32L0xx_HAL_Driver/Inc/stm32l0xx_ll_rcc.h ****   *         @arg @ref LL_RCC_APB2_DIV_1
1385:../../dependencies/STM32CubeL0/Drivers/STM32L0xx_HAL_Driver/Inc/stm32l0xx_ll_rcc.h ****   *         @arg @ref LL_RCC_APB2_DIV_2
1386:../../dependencies/STM32CubeL0/Drivers/STM32L0xx_HAL_Driver/Inc/stm32l0xx_ll_rcc.h ****   *         @arg @ref LL_RCC_APB2_DIV_4
1387:../../dependencies/STM32CubeL0/Drivers/STM32L0xx_HAL_Driver/Inc/stm32l0xx_ll_rcc.h ****   *         @arg @ref LL_RCC_APB2_DIV_8
1388:../../dependencies/STM32CubeL0/Drivers/STM32L0xx_HAL_Driver/Inc/stm32l0xx_ll_rcc.h ****   *         @arg @ref LL_RCC_APB2_DIV_16
1389:../../dependencies/STM32CubeL0/Drivers/STM32L0xx_HAL_Driver/Inc/stm32l0xx_ll_rcc.h ****   */
1390:../../dependencies/STM32CubeL0/Drivers/STM32L0xx_HAL_Driver/Inc/stm32l0xx_ll_rcc.h **** __STATIC_INLINE uint32_t LL_RCC_GetAPB2Prescaler(void)
1391:../../dependencies/STM32CubeL0/Drivers/STM32L0xx_HAL_Driver/Inc/stm32l0xx_ll_rcc.h **** {
 628              		.loc 1 1391 1
 629              		.cfi_startproc
 630              		@ args = 0, pretend = 0, frame = 0
 631              		@ frame_needed = 1, uses_anonymous_args = 0
 632 0000 80B5     		push	{r7, lr}
 633              		.cfi_def_cfa_offset 8
ARM GAS  /var/folders/fs/dxwfnrqj18z860lwl3d6f5t00000gn/T//ccl6Jv28.s 			page 36


 634              		.cfi_offset 7, -8
 635              		.cfi_offset 14, -4
 636 0002 00AF     		add	r7, sp, #0
 637              		.cfi_def_cfa_register 7
1392:../../dependencies/STM32CubeL0/Drivers/STM32L0xx_HAL_Driver/Inc/stm32l0xx_ll_rcc.h ****   return (uint32_t)(READ_BIT(RCC->CFGR, RCC_CFGR_PPRE2));
 638              		.loc 1 1392 21
 639 0004 034B     		ldr	r3, .L64
 640 0006 DA68     		ldr	r2, [r3, #12]
 641              		.loc 1 1392 10
 642 0008 E023     		movs	r3, #224
 643 000a 9B01     		lsls	r3, r3, #6
 644 000c 1340     		ands	r3, r2
1393:../../dependencies/STM32CubeL0/Drivers/STM32L0xx_HAL_Driver/Inc/stm32l0xx_ll_rcc.h **** }
 645              		.loc 1 1393 1
 646 000e 1800     		movs	r0, r3
 647 0010 BD46     		mov	sp, r7
 648              		@ sp needed
 649 0012 80BD     		pop	{r7, pc}
 650              	.L65:
 651              		.align	2
 652              	.L64:
 653 0014 00100240 		.word	1073876992
 654              		.cfi_endproc
 655              	.LFE97:
 657              		.section	.text.LL_RCC_GetUSARTClockSource,"ax",%progbits
 658              		.align	1
 659              		.syntax unified
 660              		.code	16
 661              		.thumb_func
 662              		.fpu softvfp
 664              	LL_RCC_GetUSARTClockSource:
 665              	.LFB107:
1394:../../dependencies/STM32CubeL0/Drivers/STM32L0xx_HAL_Driver/Inc/stm32l0xx_ll_rcc.h **** 
1395:../../dependencies/STM32CubeL0/Drivers/STM32L0xx_HAL_Driver/Inc/stm32l0xx_ll_rcc.h **** /**
1396:../../dependencies/STM32CubeL0/Drivers/STM32L0xx_HAL_Driver/Inc/stm32l0xx_ll_rcc.h ****   * @brief  Set Clock After Wake-Up From Stop mode
1397:../../dependencies/STM32CubeL0/Drivers/STM32L0xx_HAL_Driver/Inc/stm32l0xx_ll_rcc.h ****   * @rmtoll CFGR         STOPWUCK      LL_RCC_SetClkAfterWakeFromStop
1398:../../dependencies/STM32CubeL0/Drivers/STM32L0xx_HAL_Driver/Inc/stm32l0xx_ll_rcc.h ****   * @param  Clock This parameter can be one of the following values:
1399:../../dependencies/STM32CubeL0/Drivers/STM32L0xx_HAL_Driver/Inc/stm32l0xx_ll_rcc.h ****   *         @arg @ref LL_RCC_STOP_WAKEUPCLOCK_MSI
1400:../../dependencies/STM32CubeL0/Drivers/STM32L0xx_HAL_Driver/Inc/stm32l0xx_ll_rcc.h ****   *         @arg @ref LL_RCC_STOP_WAKEUPCLOCK_HSI
1401:../../dependencies/STM32CubeL0/Drivers/STM32L0xx_HAL_Driver/Inc/stm32l0xx_ll_rcc.h ****   * @retval None
1402:../../dependencies/STM32CubeL0/Drivers/STM32L0xx_HAL_Driver/Inc/stm32l0xx_ll_rcc.h ****   */
1403:../../dependencies/STM32CubeL0/Drivers/STM32L0xx_HAL_Driver/Inc/stm32l0xx_ll_rcc.h **** __STATIC_INLINE void LL_RCC_SetClkAfterWakeFromStop(uint32_t Clock)
1404:../../dependencies/STM32CubeL0/Drivers/STM32L0xx_HAL_Driver/Inc/stm32l0xx_ll_rcc.h **** {
1405:../../dependencies/STM32CubeL0/Drivers/STM32L0xx_HAL_Driver/Inc/stm32l0xx_ll_rcc.h ****   MODIFY_REG(RCC->CFGR, RCC_CFGR_STOPWUCK, Clock);
1406:../../dependencies/STM32CubeL0/Drivers/STM32L0xx_HAL_Driver/Inc/stm32l0xx_ll_rcc.h **** }
1407:../../dependencies/STM32CubeL0/Drivers/STM32L0xx_HAL_Driver/Inc/stm32l0xx_ll_rcc.h **** 
1408:../../dependencies/STM32CubeL0/Drivers/STM32L0xx_HAL_Driver/Inc/stm32l0xx_ll_rcc.h **** /**
1409:../../dependencies/STM32CubeL0/Drivers/STM32L0xx_HAL_Driver/Inc/stm32l0xx_ll_rcc.h ****   * @brief  Get Clock After Wake-Up From Stop mode
1410:../../dependencies/STM32CubeL0/Drivers/STM32L0xx_HAL_Driver/Inc/stm32l0xx_ll_rcc.h ****   * @rmtoll CFGR         STOPWUCK      LL_RCC_GetClkAfterWakeFromStop
1411:../../dependencies/STM32CubeL0/Drivers/STM32L0xx_HAL_Driver/Inc/stm32l0xx_ll_rcc.h ****   * @retval Returned value can be one of the following values:
1412:../../dependencies/STM32CubeL0/Drivers/STM32L0xx_HAL_Driver/Inc/stm32l0xx_ll_rcc.h ****   *         @arg @ref LL_RCC_STOP_WAKEUPCLOCK_MSI
1413:../../dependencies/STM32CubeL0/Drivers/STM32L0xx_HAL_Driver/Inc/stm32l0xx_ll_rcc.h ****   *         @arg @ref LL_RCC_STOP_WAKEUPCLOCK_HSI
1414:../../dependencies/STM32CubeL0/Drivers/STM32L0xx_HAL_Driver/Inc/stm32l0xx_ll_rcc.h ****   */
1415:../../dependencies/STM32CubeL0/Drivers/STM32L0xx_HAL_Driver/Inc/stm32l0xx_ll_rcc.h **** __STATIC_INLINE uint32_t LL_RCC_GetClkAfterWakeFromStop(void)
1416:../../dependencies/STM32CubeL0/Drivers/STM32L0xx_HAL_Driver/Inc/stm32l0xx_ll_rcc.h **** {
1417:../../dependencies/STM32CubeL0/Drivers/STM32L0xx_HAL_Driver/Inc/stm32l0xx_ll_rcc.h ****   return (uint32_t)(READ_BIT(RCC->CFGR, RCC_CFGR_STOPWUCK));
1418:../../dependencies/STM32CubeL0/Drivers/STM32L0xx_HAL_Driver/Inc/stm32l0xx_ll_rcc.h **** }
ARM GAS  /var/folders/fs/dxwfnrqj18z860lwl3d6f5t00000gn/T//ccl6Jv28.s 			page 37


1419:../../dependencies/STM32CubeL0/Drivers/STM32L0xx_HAL_Driver/Inc/stm32l0xx_ll_rcc.h **** 
1420:../../dependencies/STM32CubeL0/Drivers/STM32L0xx_HAL_Driver/Inc/stm32l0xx_ll_rcc.h **** /**
1421:../../dependencies/STM32CubeL0/Drivers/STM32L0xx_HAL_Driver/Inc/stm32l0xx_ll_rcc.h ****   * @}
1422:../../dependencies/STM32CubeL0/Drivers/STM32L0xx_HAL_Driver/Inc/stm32l0xx_ll_rcc.h ****   */
1423:../../dependencies/STM32CubeL0/Drivers/STM32L0xx_HAL_Driver/Inc/stm32l0xx_ll_rcc.h **** 
1424:../../dependencies/STM32CubeL0/Drivers/STM32L0xx_HAL_Driver/Inc/stm32l0xx_ll_rcc.h **** /** @defgroup RCC_LL_EF_MCO MCO
1425:../../dependencies/STM32CubeL0/Drivers/STM32L0xx_HAL_Driver/Inc/stm32l0xx_ll_rcc.h ****   * @{
1426:../../dependencies/STM32CubeL0/Drivers/STM32L0xx_HAL_Driver/Inc/stm32l0xx_ll_rcc.h ****   */
1427:../../dependencies/STM32CubeL0/Drivers/STM32L0xx_HAL_Driver/Inc/stm32l0xx_ll_rcc.h **** 
1428:../../dependencies/STM32CubeL0/Drivers/STM32L0xx_HAL_Driver/Inc/stm32l0xx_ll_rcc.h **** /**
1429:../../dependencies/STM32CubeL0/Drivers/STM32L0xx_HAL_Driver/Inc/stm32l0xx_ll_rcc.h ****   * @brief  Configure MCOx
1430:../../dependencies/STM32CubeL0/Drivers/STM32L0xx_HAL_Driver/Inc/stm32l0xx_ll_rcc.h ****   * @rmtoll CFGR         MCOSEL        LL_RCC_ConfigMCO\n
1431:../../dependencies/STM32CubeL0/Drivers/STM32L0xx_HAL_Driver/Inc/stm32l0xx_ll_rcc.h ****   *         CFGR         MCOPRE        LL_RCC_ConfigMCO
1432:../../dependencies/STM32CubeL0/Drivers/STM32L0xx_HAL_Driver/Inc/stm32l0xx_ll_rcc.h ****   * @param  MCOxSource This parameter can be one of the following values:
1433:../../dependencies/STM32CubeL0/Drivers/STM32L0xx_HAL_Driver/Inc/stm32l0xx_ll_rcc.h ****   *         @arg @ref LL_RCC_MCO1SOURCE_NOCLOCK
1434:../../dependencies/STM32CubeL0/Drivers/STM32L0xx_HAL_Driver/Inc/stm32l0xx_ll_rcc.h ****   *         @arg @ref LL_RCC_MCO1SOURCE_SYSCLK
1435:../../dependencies/STM32CubeL0/Drivers/STM32L0xx_HAL_Driver/Inc/stm32l0xx_ll_rcc.h ****   *         @arg @ref LL_RCC_MCO1SOURCE_HSI
1436:../../dependencies/STM32CubeL0/Drivers/STM32L0xx_HAL_Driver/Inc/stm32l0xx_ll_rcc.h ****   *         @arg @ref LL_RCC_MCO1SOURCE_MSI
1437:../../dependencies/STM32CubeL0/Drivers/STM32L0xx_HAL_Driver/Inc/stm32l0xx_ll_rcc.h ****   *         @arg @ref LL_RCC_MCO1SOURCE_HSE
1438:../../dependencies/STM32CubeL0/Drivers/STM32L0xx_HAL_Driver/Inc/stm32l0xx_ll_rcc.h ****   *         @arg @ref LL_RCC_MCO1SOURCE_PLLCLK
1439:../../dependencies/STM32CubeL0/Drivers/STM32L0xx_HAL_Driver/Inc/stm32l0xx_ll_rcc.h ****   *         @arg @ref LL_RCC_MCO1SOURCE_LSI
1440:../../dependencies/STM32CubeL0/Drivers/STM32L0xx_HAL_Driver/Inc/stm32l0xx_ll_rcc.h ****   *         @arg @ref LL_RCC_MCO1SOURCE_LSE
1441:../../dependencies/STM32CubeL0/Drivers/STM32L0xx_HAL_Driver/Inc/stm32l0xx_ll_rcc.h ****   *         @arg @ref LL_RCC_MCO1SOURCE_HSI48 (*)
1442:../../dependencies/STM32CubeL0/Drivers/STM32L0xx_HAL_Driver/Inc/stm32l0xx_ll_rcc.h ****   *
1443:../../dependencies/STM32CubeL0/Drivers/STM32L0xx_HAL_Driver/Inc/stm32l0xx_ll_rcc.h ****   *         (*) value not defined in all devices.
1444:../../dependencies/STM32CubeL0/Drivers/STM32L0xx_HAL_Driver/Inc/stm32l0xx_ll_rcc.h ****   * @param  MCOxPrescaler This parameter can be one of the following values:
1445:../../dependencies/STM32CubeL0/Drivers/STM32L0xx_HAL_Driver/Inc/stm32l0xx_ll_rcc.h ****   *         @arg @ref LL_RCC_MCO1_DIV_1
1446:../../dependencies/STM32CubeL0/Drivers/STM32L0xx_HAL_Driver/Inc/stm32l0xx_ll_rcc.h ****   *         @arg @ref LL_RCC_MCO1_DIV_2
1447:../../dependencies/STM32CubeL0/Drivers/STM32L0xx_HAL_Driver/Inc/stm32l0xx_ll_rcc.h ****   *         @arg @ref LL_RCC_MCO1_DIV_4
1448:../../dependencies/STM32CubeL0/Drivers/STM32L0xx_HAL_Driver/Inc/stm32l0xx_ll_rcc.h ****   *         @arg @ref LL_RCC_MCO1_DIV_8
1449:../../dependencies/STM32CubeL0/Drivers/STM32L0xx_HAL_Driver/Inc/stm32l0xx_ll_rcc.h ****   *         @arg @ref LL_RCC_MCO1_DIV_16
1450:../../dependencies/STM32CubeL0/Drivers/STM32L0xx_HAL_Driver/Inc/stm32l0xx_ll_rcc.h ****   * @retval None
1451:../../dependencies/STM32CubeL0/Drivers/STM32L0xx_HAL_Driver/Inc/stm32l0xx_ll_rcc.h ****   */
1452:../../dependencies/STM32CubeL0/Drivers/STM32L0xx_HAL_Driver/Inc/stm32l0xx_ll_rcc.h **** __STATIC_INLINE void LL_RCC_ConfigMCO(uint32_t MCOxSource, uint32_t MCOxPrescaler)
1453:../../dependencies/STM32CubeL0/Drivers/STM32L0xx_HAL_Driver/Inc/stm32l0xx_ll_rcc.h **** {
1454:../../dependencies/STM32CubeL0/Drivers/STM32L0xx_HAL_Driver/Inc/stm32l0xx_ll_rcc.h ****   MODIFY_REG(RCC->CFGR, RCC_CFGR_MCOSEL | RCC_CFGR_MCOPRE, MCOxSource | MCOxPrescaler);
1455:../../dependencies/STM32CubeL0/Drivers/STM32L0xx_HAL_Driver/Inc/stm32l0xx_ll_rcc.h **** }
1456:../../dependencies/STM32CubeL0/Drivers/STM32L0xx_HAL_Driver/Inc/stm32l0xx_ll_rcc.h **** 
1457:../../dependencies/STM32CubeL0/Drivers/STM32L0xx_HAL_Driver/Inc/stm32l0xx_ll_rcc.h **** /**
1458:../../dependencies/STM32CubeL0/Drivers/STM32L0xx_HAL_Driver/Inc/stm32l0xx_ll_rcc.h ****   * @}
1459:../../dependencies/STM32CubeL0/Drivers/STM32L0xx_HAL_Driver/Inc/stm32l0xx_ll_rcc.h ****   */
1460:../../dependencies/STM32CubeL0/Drivers/STM32L0xx_HAL_Driver/Inc/stm32l0xx_ll_rcc.h **** 
1461:../../dependencies/STM32CubeL0/Drivers/STM32L0xx_HAL_Driver/Inc/stm32l0xx_ll_rcc.h **** /** @defgroup RCC_LL_EF_Peripheral_Clock_Source Peripheral Clock Source
1462:../../dependencies/STM32CubeL0/Drivers/STM32L0xx_HAL_Driver/Inc/stm32l0xx_ll_rcc.h ****   * @{
1463:../../dependencies/STM32CubeL0/Drivers/STM32L0xx_HAL_Driver/Inc/stm32l0xx_ll_rcc.h ****   */
1464:../../dependencies/STM32CubeL0/Drivers/STM32L0xx_HAL_Driver/Inc/stm32l0xx_ll_rcc.h **** 
1465:../../dependencies/STM32CubeL0/Drivers/STM32L0xx_HAL_Driver/Inc/stm32l0xx_ll_rcc.h **** /**
1466:../../dependencies/STM32CubeL0/Drivers/STM32L0xx_HAL_Driver/Inc/stm32l0xx_ll_rcc.h ****   * @brief  Configure USARTx clock source
1467:../../dependencies/STM32CubeL0/Drivers/STM32L0xx_HAL_Driver/Inc/stm32l0xx_ll_rcc.h ****   * @rmtoll CCIPR        USARTxSEL     LL_RCC_SetUSARTClockSource
1468:../../dependencies/STM32CubeL0/Drivers/STM32L0xx_HAL_Driver/Inc/stm32l0xx_ll_rcc.h ****   * @param  USARTxSource This parameter can be one of the following values:
1469:../../dependencies/STM32CubeL0/Drivers/STM32L0xx_HAL_Driver/Inc/stm32l0xx_ll_rcc.h ****   *         @arg @ref LL_RCC_USART1_CLKSOURCE_PCLK2 (*)
1470:../../dependencies/STM32CubeL0/Drivers/STM32L0xx_HAL_Driver/Inc/stm32l0xx_ll_rcc.h ****   *         @arg @ref LL_RCC_USART1_CLKSOURCE_SYSCLK (*)
1471:../../dependencies/STM32CubeL0/Drivers/STM32L0xx_HAL_Driver/Inc/stm32l0xx_ll_rcc.h ****   *         @arg @ref LL_RCC_USART1_CLKSOURCE_HSI (*)
1472:../../dependencies/STM32CubeL0/Drivers/STM32L0xx_HAL_Driver/Inc/stm32l0xx_ll_rcc.h ****   *         @arg @ref LL_RCC_USART1_CLKSOURCE_LSE (*)
1473:../../dependencies/STM32CubeL0/Drivers/STM32L0xx_HAL_Driver/Inc/stm32l0xx_ll_rcc.h ****   *         @arg @ref LL_RCC_USART2_CLKSOURCE_PCLK1
1474:../../dependencies/STM32CubeL0/Drivers/STM32L0xx_HAL_Driver/Inc/stm32l0xx_ll_rcc.h ****   *         @arg @ref LL_RCC_USART2_CLKSOURCE_SYSCLK
1475:../../dependencies/STM32CubeL0/Drivers/STM32L0xx_HAL_Driver/Inc/stm32l0xx_ll_rcc.h ****   *         @arg @ref LL_RCC_USART2_CLKSOURCE_HSI
ARM GAS  /var/folders/fs/dxwfnrqj18z860lwl3d6f5t00000gn/T//ccl6Jv28.s 			page 38


1476:../../dependencies/STM32CubeL0/Drivers/STM32L0xx_HAL_Driver/Inc/stm32l0xx_ll_rcc.h ****   *         @arg @ref LL_RCC_USART2_CLKSOURCE_LSE
1477:../../dependencies/STM32CubeL0/Drivers/STM32L0xx_HAL_Driver/Inc/stm32l0xx_ll_rcc.h ****   *
1478:../../dependencies/STM32CubeL0/Drivers/STM32L0xx_HAL_Driver/Inc/stm32l0xx_ll_rcc.h ****   *         (*) value not defined in all devices.
1479:../../dependencies/STM32CubeL0/Drivers/STM32L0xx_HAL_Driver/Inc/stm32l0xx_ll_rcc.h ****   * @retval None
1480:../../dependencies/STM32CubeL0/Drivers/STM32L0xx_HAL_Driver/Inc/stm32l0xx_ll_rcc.h ****   */
1481:../../dependencies/STM32CubeL0/Drivers/STM32L0xx_HAL_Driver/Inc/stm32l0xx_ll_rcc.h **** __STATIC_INLINE void LL_RCC_SetUSARTClockSource(uint32_t USARTxSource)
1482:../../dependencies/STM32CubeL0/Drivers/STM32L0xx_HAL_Driver/Inc/stm32l0xx_ll_rcc.h **** {
1483:../../dependencies/STM32CubeL0/Drivers/STM32L0xx_HAL_Driver/Inc/stm32l0xx_ll_rcc.h ****   MODIFY_REG(RCC->CCIPR, (USARTxSource >> 16U), (USARTxSource & 0x0000FFFFU));
1484:../../dependencies/STM32CubeL0/Drivers/STM32L0xx_HAL_Driver/Inc/stm32l0xx_ll_rcc.h **** }
1485:../../dependencies/STM32CubeL0/Drivers/STM32L0xx_HAL_Driver/Inc/stm32l0xx_ll_rcc.h **** 
1486:../../dependencies/STM32CubeL0/Drivers/STM32L0xx_HAL_Driver/Inc/stm32l0xx_ll_rcc.h **** /**
1487:../../dependencies/STM32CubeL0/Drivers/STM32L0xx_HAL_Driver/Inc/stm32l0xx_ll_rcc.h ****   * @brief  Configure LPUART1x clock source
1488:../../dependencies/STM32CubeL0/Drivers/STM32L0xx_HAL_Driver/Inc/stm32l0xx_ll_rcc.h ****   * @rmtoll CCIPR        LPUART1SEL    LL_RCC_SetLPUARTClockSource
1489:../../dependencies/STM32CubeL0/Drivers/STM32L0xx_HAL_Driver/Inc/stm32l0xx_ll_rcc.h ****   * @param  LPUARTxSource This parameter can be one of the following values:
1490:../../dependencies/STM32CubeL0/Drivers/STM32L0xx_HAL_Driver/Inc/stm32l0xx_ll_rcc.h ****   *         @arg @ref LL_RCC_LPUART1_CLKSOURCE_PCLK1
1491:../../dependencies/STM32CubeL0/Drivers/STM32L0xx_HAL_Driver/Inc/stm32l0xx_ll_rcc.h ****   *         @arg @ref LL_RCC_LPUART1_CLKSOURCE_SYSCLK
1492:../../dependencies/STM32CubeL0/Drivers/STM32L0xx_HAL_Driver/Inc/stm32l0xx_ll_rcc.h ****   *         @arg @ref LL_RCC_LPUART1_CLKSOURCE_HSI
1493:../../dependencies/STM32CubeL0/Drivers/STM32L0xx_HAL_Driver/Inc/stm32l0xx_ll_rcc.h ****   *         @arg @ref LL_RCC_LPUART1_CLKSOURCE_LSE
1494:../../dependencies/STM32CubeL0/Drivers/STM32L0xx_HAL_Driver/Inc/stm32l0xx_ll_rcc.h ****   * @retval None
1495:../../dependencies/STM32CubeL0/Drivers/STM32L0xx_HAL_Driver/Inc/stm32l0xx_ll_rcc.h ****   */
1496:../../dependencies/STM32CubeL0/Drivers/STM32L0xx_HAL_Driver/Inc/stm32l0xx_ll_rcc.h **** __STATIC_INLINE void LL_RCC_SetLPUARTClockSource(uint32_t LPUARTxSource)
1497:../../dependencies/STM32CubeL0/Drivers/STM32L0xx_HAL_Driver/Inc/stm32l0xx_ll_rcc.h **** {
1498:../../dependencies/STM32CubeL0/Drivers/STM32L0xx_HAL_Driver/Inc/stm32l0xx_ll_rcc.h ****   MODIFY_REG(RCC->CCIPR, RCC_CCIPR_LPUART1SEL, LPUARTxSource);
1499:../../dependencies/STM32CubeL0/Drivers/STM32L0xx_HAL_Driver/Inc/stm32l0xx_ll_rcc.h **** }
1500:../../dependencies/STM32CubeL0/Drivers/STM32L0xx_HAL_Driver/Inc/stm32l0xx_ll_rcc.h **** 
1501:../../dependencies/STM32CubeL0/Drivers/STM32L0xx_HAL_Driver/Inc/stm32l0xx_ll_rcc.h **** /**
1502:../../dependencies/STM32CubeL0/Drivers/STM32L0xx_HAL_Driver/Inc/stm32l0xx_ll_rcc.h ****   * @brief  Configure I2Cx clock source
1503:../../dependencies/STM32CubeL0/Drivers/STM32L0xx_HAL_Driver/Inc/stm32l0xx_ll_rcc.h ****   * @rmtoll CCIPR        I2CxSEL       LL_RCC_SetI2CClockSource
1504:../../dependencies/STM32CubeL0/Drivers/STM32L0xx_HAL_Driver/Inc/stm32l0xx_ll_rcc.h ****   * @param  I2CxSource This parameter can be one of the following values:
1505:../../dependencies/STM32CubeL0/Drivers/STM32L0xx_HAL_Driver/Inc/stm32l0xx_ll_rcc.h ****   *         @arg @ref LL_RCC_I2C1_CLKSOURCE_PCLK1
1506:../../dependencies/STM32CubeL0/Drivers/STM32L0xx_HAL_Driver/Inc/stm32l0xx_ll_rcc.h ****   *         @arg @ref LL_RCC_I2C1_CLKSOURCE_SYSCLK
1507:../../dependencies/STM32CubeL0/Drivers/STM32L0xx_HAL_Driver/Inc/stm32l0xx_ll_rcc.h ****   *         @arg @ref LL_RCC_I2C1_CLKSOURCE_HSI
1508:../../dependencies/STM32CubeL0/Drivers/STM32L0xx_HAL_Driver/Inc/stm32l0xx_ll_rcc.h ****   *         @arg @ref LL_RCC_I2C3_CLKSOURCE_PCLK1 (*)
1509:../../dependencies/STM32CubeL0/Drivers/STM32L0xx_HAL_Driver/Inc/stm32l0xx_ll_rcc.h ****   *         @arg @ref LL_RCC_I2C3_CLKSOURCE_SYSCLK (*)
1510:../../dependencies/STM32CubeL0/Drivers/STM32L0xx_HAL_Driver/Inc/stm32l0xx_ll_rcc.h ****   *         @arg @ref LL_RCC_I2C3_CLKSOURCE_HSI (*)
1511:../../dependencies/STM32CubeL0/Drivers/STM32L0xx_HAL_Driver/Inc/stm32l0xx_ll_rcc.h ****   *
1512:../../dependencies/STM32CubeL0/Drivers/STM32L0xx_HAL_Driver/Inc/stm32l0xx_ll_rcc.h ****   *         (*) value not defined in all devices.
1513:../../dependencies/STM32CubeL0/Drivers/STM32L0xx_HAL_Driver/Inc/stm32l0xx_ll_rcc.h ****   * @retval None
1514:../../dependencies/STM32CubeL0/Drivers/STM32L0xx_HAL_Driver/Inc/stm32l0xx_ll_rcc.h ****   */
1515:../../dependencies/STM32CubeL0/Drivers/STM32L0xx_HAL_Driver/Inc/stm32l0xx_ll_rcc.h **** __STATIC_INLINE void LL_RCC_SetI2CClockSource(uint32_t I2CxSource)
1516:../../dependencies/STM32CubeL0/Drivers/STM32L0xx_HAL_Driver/Inc/stm32l0xx_ll_rcc.h **** {
1517:../../dependencies/STM32CubeL0/Drivers/STM32L0xx_HAL_Driver/Inc/stm32l0xx_ll_rcc.h ****   MODIFY_REG(RCC->CCIPR, ((I2CxSource >> 4U) & 0x000FF000U), ((I2CxSource << 4U) & 0x000FF000U));
1518:../../dependencies/STM32CubeL0/Drivers/STM32L0xx_HAL_Driver/Inc/stm32l0xx_ll_rcc.h **** }
1519:../../dependencies/STM32CubeL0/Drivers/STM32L0xx_HAL_Driver/Inc/stm32l0xx_ll_rcc.h **** 
1520:../../dependencies/STM32CubeL0/Drivers/STM32L0xx_HAL_Driver/Inc/stm32l0xx_ll_rcc.h **** /**
1521:../../dependencies/STM32CubeL0/Drivers/STM32L0xx_HAL_Driver/Inc/stm32l0xx_ll_rcc.h ****   * @brief  Configure LPTIMx clock source
1522:../../dependencies/STM32CubeL0/Drivers/STM32L0xx_HAL_Driver/Inc/stm32l0xx_ll_rcc.h ****   * @rmtoll CCIPR        LPTIMxSEL     LL_RCC_SetLPTIMClockSource
1523:../../dependencies/STM32CubeL0/Drivers/STM32L0xx_HAL_Driver/Inc/stm32l0xx_ll_rcc.h ****   * @param  LPTIMxSource This parameter can be one of the following values:
1524:../../dependencies/STM32CubeL0/Drivers/STM32L0xx_HAL_Driver/Inc/stm32l0xx_ll_rcc.h ****   *         @arg @ref LL_RCC_LPTIM1_CLKSOURCE_PCLK1
1525:../../dependencies/STM32CubeL0/Drivers/STM32L0xx_HAL_Driver/Inc/stm32l0xx_ll_rcc.h ****   *         @arg @ref LL_RCC_LPTIM1_CLKSOURCE_LSI
1526:../../dependencies/STM32CubeL0/Drivers/STM32L0xx_HAL_Driver/Inc/stm32l0xx_ll_rcc.h ****   *         @arg @ref LL_RCC_LPTIM1_CLKSOURCE_HSI
1527:../../dependencies/STM32CubeL0/Drivers/STM32L0xx_HAL_Driver/Inc/stm32l0xx_ll_rcc.h ****   *         @arg @ref LL_RCC_LPTIM1_CLKSOURCE_LSE
1528:../../dependencies/STM32CubeL0/Drivers/STM32L0xx_HAL_Driver/Inc/stm32l0xx_ll_rcc.h ****   * @retval None
1529:../../dependencies/STM32CubeL0/Drivers/STM32L0xx_HAL_Driver/Inc/stm32l0xx_ll_rcc.h ****   */
1530:../../dependencies/STM32CubeL0/Drivers/STM32L0xx_HAL_Driver/Inc/stm32l0xx_ll_rcc.h **** __STATIC_INLINE void LL_RCC_SetLPTIMClockSource(uint32_t LPTIMxSource)
1531:../../dependencies/STM32CubeL0/Drivers/STM32L0xx_HAL_Driver/Inc/stm32l0xx_ll_rcc.h **** {
1532:../../dependencies/STM32CubeL0/Drivers/STM32L0xx_HAL_Driver/Inc/stm32l0xx_ll_rcc.h ****   MODIFY_REG(RCC->CCIPR, RCC_CCIPR_LPTIM1SEL, LPTIMxSource);
ARM GAS  /var/folders/fs/dxwfnrqj18z860lwl3d6f5t00000gn/T//ccl6Jv28.s 			page 39


1533:../../dependencies/STM32CubeL0/Drivers/STM32L0xx_HAL_Driver/Inc/stm32l0xx_ll_rcc.h **** }
1534:../../dependencies/STM32CubeL0/Drivers/STM32L0xx_HAL_Driver/Inc/stm32l0xx_ll_rcc.h **** 
1535:../../dependencies/STM32CubeL0/Drivers/STM32L0xx_HAL_Driver/Inc/stm32l0xx_ll_rcc.h **** #if defined(RCC_CCIPR_HSI48SEL)
1536:../../dependencies/STM32CubeL0/Drivers/STM32L0xx_HAL_Driver/Inc/stm32l0xx_ll_rcc.h **** #if defined(RNG)
1537:../../dependencies/STM32CubeL0/Drivers/STM32L0xx_HAL_Driver/Inc/stm32l0xx_ll_rcc.h **** /**
1538:../../dependencies/STM32CubeL0/Drivers/STM32L0xx_HAL_Driver/Inc/stm32l0xx_ll_rcc.h ****   * @brief  Configure RNG clock source
1539:../../dependencies/STM32CubeL0/Drivers/STM32L0xx_HAL_Driver/Inc/stm32l0xx_ll_rcc.h ****   * @rmtoll CCIPR        HSI48SEL      LL_RCC_SetRNGClockSource
1540:../../dependencies/STM32CubeL0/Drivers/STM32L0xx_HAL_Driver/Inc/stm32l0xx_ll_rcc.h ****   * @param  RNGxSource This parameter can be one of the following values:
1541:../../dependencies/STM32CubeL0/Drivers/STM32L0xx_HAL_Driver/Inc/stm32l0xx_ll_rcc.h ****   *         @arg @ref LL_RCC_RNG_CLKSOURCE_PLL
1542:../../dependencies/STM32CubeL0/Drivers/STM32L0xx_HAL_Driver/Inc/stm32l0xx_ll_rcc.h ****   *         @arg @ref LL_RCC_RNG_CLKSOURCE_HSI48
1543:../../dependencies/STM32CubeL0/Drivers/STM32L0xx_HAL_Driver/Inc/stm32l0xx_ll_rcc.h ****   * @retval None
1544:../../dependencies/STM32CubeL0/Drivers/STM32L0xx_HAL_Driver/Inc/stm32l0xx_ll_rcc.h ****   */
1545:../../dependencies/STM32CubeL0/Drivers/STM32L0xx_HAL_Driver/Inc/stm32l0xx_ll_rcc.h **** __STATIC_INLINE void LL_RCC_SetRNGClockSource(uint32_t RNGxSource)
1546:../../dependencies/STM32CubeL0/Drivers/STM32L0xx_HAL_Driver/Inc/stm32l0xx_ll_rcc.h **** {
1547:../../dependencies/STM32CubeL0/Drivers/STM32L0xx_HAL_Driver/Inc/stm32l0xx_ll_rcc.h ****   MODIFY_REG(RCC->CCIPR, RCC_CCIPR_HSI48SEL, RNGxSource);
1548:../../dependencies/STM32CubeL0/Drivers/STM32L0xx_HAL_Driver/Inc/stm32l0xx_ll_rcc.h **** }
1549:../../dependencies/STM32CubeL0/Drivers/STM32L0xx_HAL_Driver/Inc/stm32l0xx_ll_rcc.h **** #endif /* RNG */
1550:../../dependencies/STM32CubeL0/Drivers/STM32L0xx_HAL_Driver/Inc/stm32l0xx_ll_rcc.h **** 
1551:../../dependencies/STM32CubeL0/Drivers/STM32L0xx_HAL_Driver/Inc/stm32l0xx_ll_rcc.h **** #if defined(USB)
1552:../../dependencies/STM32CubeL0/Drivers/STM32L0xx_HAL_Driver/Inc/stm32l0xx_ll_rcc.h **** /**
1553:../../dependencies/STM32CubeL0/Drivers/STM32L0xx_HAL_Driver/Inc/stm32l0xx_ll_rcc.h ****   * @brief  Configure USB clock source
1554:../../dependencies/STM32CubeL0/Drivers/STM32L0xx_HAL_Driver/Inc/stm32l0xx_ll_rcc.h ****   * @rmtoll CCIPR        HSI48SEL      LL_RCC_SetUSBClockSource
1555:../../dependencies/STM32CubeL0/Drivers/STM32L0xx_HAL_Driver/Inc/stm32l0xx_ll_rcc.h ****   * @param  USBxSource This parameter can be one of the following values:
1556:../../dependencies/STM32CubeL0/Drivers/STM32L0xx_HAL_Driver/Inc/stm32l0xx_ll_rcc.h ****   *         @arg @ref LL_RCC_RNG_CLKSOURCE_PLL
1557:../../dependencies/STM32CubeL0/Drivers/STM32L0xx_HAL_Driver/Inc/stm32l0xx_ll_rcc.h ****   *         @arg @ref LL_RCC_RNG_CLKSOURCE_HSI48
1558:../../dependencies/STM32CubeL0/Drivers/STM32L0xx_HAL_Driver/Inc/stm32l0xx_ll_rcc.h ****   * @retval None
1559:../../dependencies/STM32CubeL0/Drivers/STM32L0xx_HAL_Driver/Inc/stm32l0xx_ll_rcc.h ****   */
1560:../../dependencies/STM32CubeL0/Drivers/STM32L0xx_HAL_Driver/Inc/stm32l0xx_ll_rcc.h **** __STATIC_INLINE void LL_RCC_SetUSBClockSource(uint32_t USBxSource)
1561:../../dependencies/STM32CubeL0/Drivers/STM32L0xx_HAL_Driver/Inc/stm32l0xx_ll_rcc.h **** {
1562:../../dependencies/STM32CubeL0/Drivers/STM32L0xx_HAL_Driver/Inc/stm32l0xx_ll_rcc.h ****   MODIFY_REG(RCC->CCIPR, RCC_CCIPR_HSI48SEL, USBxSource);
1563:../../dependencies/STM32CubeL0/Drivers/STM32L0xx_HAL_Driver/Inc/stm32l0xx_ll_rcc.h **** }
1564:../../dependencies/STM32CubeL0/Drivers/STM32L0xx_HAL_Driver/Inc/stm32l0xx_ll_rcc.h **** #endif /* USB */
1565:../../dependencies/STM32CubeL0/Drivers/STM32L0xx_HAL_Driver/Inc/stm32l0xx_ll_rcc.h **** 
1566:../../dependencies/STM32CubeL0/Drivers/STM32L0xx_HAL_Driver/Inc/stm32l0xx_ll_rcc.h **** #endif /* RCC_CCIPR_HSI48SEL */
1567:../../dependencies/STM32CubeL0/Drivers/STM32L0xx_HAL_Driver/Inc/stm32l0xx_ll_rcc.h **** 
1568:../../dependencies/STM32CubeL0/Drivers/STM32L0xx_HAL_Driver/Inc/stm32l0xx_ll_rcc.h **** /**
1569:../../dependencies/STM32CubeL0/Drivers/STM32L0xx_HAL_Driver/Inc/stm32l0xx_ll_rcc.h ****   * @brief  Get USARTx clock source
1570:../../dependencies/STM32CubeL0/Drivers/STM32L0xx_HAL_Driver/Inc/stm32l0xx_ll_rcc.h ****   * @rmtoll CCIPR        USARTxSEL     LL_RCC_GetUSARTClockSource
1571:../../dependencies/STM32CubeL0/Drivers/STM32L0xx_HAL_Driver/Inc/stm32l0xx_ll_rcc.h ****   * @param  USARTx This parameter can be one of the following values:
1572:../../dependencies/STM32CubeL0/Drivers/STM32L0xx_HAL_Driver/Inc/stm32l0xx_ll_rcc.h ****   *         @arg @ref LL_RCC_USART1_CLKSOURCE (*)
1573:../../dependencies/STM32CubeL0/Drivers/STM32L0xx_HAL_Driver/Inc/stm32l0xx_ll_rcc.h ****   *         @arg @ref LL_RCC_USART2_CLKSOURCE
1574:../../dependencies/STM32CubeL0/Drivers/STM32L0xx_HAL_Driver/Inc/stm32l0xx_ll_rcc.h ****   * @retval Returned value can be one of the following values:
1575:../../dependencies/STM32CubeL0/Drivers/STM32L0xx_HAL_Driver/Inc/stm32l0xx_ll_rcc.h ****   *         @arg @ref LL_RCC_USART1_CLKSOURCE_PCLK2 (*)
1576:../../dependencies/STM32CubeL0/Drivers/STM32L0xx_HAL_Driver/Inc/stm32l0xx_ll_rcc.h ****   *         @arg @ref LL_RCC_USART1_CLKSOURCE_SYSCLK (*)
1577:../../dependencies/STM32CubeL0/Drivers/STM32L0xx_HAL_Driver/Inc/stm32l0xx_ll_rcc.h ****   *         @arg @ref LL_RCC_USART1_CLKSOURCE_HSI (*)
1578:../../dependencies/STM32CubeL0/Drivers/STM32L0xx_HAL_Driver/Inc/stm32l0xx_ll_rcc.h ****   *         @arg @ref LL_RCC_USART1_CLKSOURCE_LSE (*)
1579:../../dependencies/STM32CubeL0/Drivers/STM32L0xx_HAL_Driver/Inc/stm32l0xx_ll_rcc.h ****   *         @arg @ref LL_RCC_USART2_CLKSOURCE_PCLK1
1580:../../dependencies/STM32CubeL0/Drivers/STM32L0xx_HAL_Driver/Inc/stm32l0xx_ll_rcc.h ****   *         @arg @ref LL_RCC_USART2_CLKSOURCE_SYSCLK
1581:../../dependencies/STM32CubeL0/Drivers/STM32L0xx_HAL_Driver/Inc/stm32l0xx_ll_rcc.h ****   *         @arg @ref LL_RCC_USART2_CLKSOURCE_HSI
1582:../../dependencies/STM32CubeL0/Drivers/STM32L0xx_HAL_Driver/Inc/stm32l0xx_ll_rcc.h ****   *         @arg @ref LL_RCC_USART2_CLKSOURCE_LSE
1583:../../dependencies/STM32CubeL0/Drivers/STM32L0xx_HAL_Driver/Inc/stm32l0xx_ll_rcc.h ****   *
1584:../../dependencies/STM32CubeL0/Drivers/STM32L0xx_HAL_Driver/Inc/stm32l0xx_ll_rcc.h ****   *         (*) value not defined in all devices.
1585:../../dependencies/STM32CubeL0/Drivers/STM32L0xx_HAL_Driver/Inc/stm32l0xx_ll_rcc.h ****   */
1586:../../dependencies/STM32CubeL0/Drivers/STM32L0xx_HAL_Driver/Inc/stm32l0xx_ll_rcc.h **** __STATIC_INLINE uint32_t LL_RCC_GetUSARTClockSource(uint32_t USARTx)
1587:../../dependencies/STM32CubeL0/Drivers/STM32L0xx_HAL_Driver/Inc/stm32l0xx_ll_rcc.h **** {
 666              		.loc 1 1587 1
 667              		.cfi_startproc
ARM GAS  /var/folders/fs/dxwfnrqj18z860lwl3d6f5t00000gn/T//ccl6Jv28.s 			page 40


 668              		@ args = 0, pretend = 0, frame = 8
 669              		@ frame_needed = 1, uses_anonymous_args = 0
 670 0000 80B5     		push	{r7, lr}
 671              		.cfi_def_cfa_offset 8
 672              		.cfi_offset 7, -8
 673              		.cfi_offset 14, -4
 674 0002 82B0     		sub	sp, sp, #8
 675              		.cfi_def_cfa_offset 16
 676 0004 00AF     		add	r7, sp, #0
 677              		.cfi_def_cfa_register 7
 678 0006 7860     		str	r0, [r7, #4]
1588:../../dependencies/STM32CubeL0/Drivers/STM32L0xx_HAL_Driver/Inc/stm32l0xx_ll_rcc.h ****   return (uint32_t)(READ_BIT(RCC->CCIPR, USARTx) | (USARTx << 16U));
 679              		.loc 1 1588 21
 680 0008 054B     		ldr	r3, .L68
 681 000a DB6C     		ldr	r3, [r3, #76]
 682 000c 7A68     		ldr	r2, [r7, #4]
 683 000e 1A40     		ands	r2, r3
 684              		.loc 1 1588 60
 685 0010 7B68     		ldr	r3, [r7, #4]
 686 0012 1B04     		lsls	r3, r3, #16
 687              		.loc 1 1588 10
 688 0014 1343     		orrs	r3, r2
1589:../../dependencies/STM32CubeL0/Drivers/STM32L0xx_HAL_Driver/Inc/stm32l0xx_ll_rcc.h **** }
 689              		.loc 1 1589 1
 690 0016 1800     		movs	r0, r3
 691 0018 BD46     		mov	sp, r7
 692 001a 02B0     		add	sp, sp, #8
 693              		@ sp needed
 694 001c 80BD     		pop	{r7, pc}
 695              	.L69:
 696 001e C046     		.align	2
 697              	.L68:
 698 0020 00100240 		.word	1073876992
 699              		.cfi_endproc
 700              	.LFE107:
 702              		.section	.text.LL_RCC_GetLPUARTClockSource,"ax",%progbits
 703              		.align	1
 704              		.syntax unified
 705              		.code	16
 706              		.thumb_func
 707              		.fpu softvfp
 709              	LL_RCC_GetLPUARTClockSource:
 710              	.LFB108:
1590:../../dependencies/STM32CubeL0/Drivers/STM32L0xx_HAL_Driver/Inc/stm32l0xx_ll_rcc.h **** 
1591:../../dependencies/STM32CubeL0/Drivers/STM32L0xx_HAL_Driver/Inc/stm32l0xx_ll_rcc.h **** 
1592:../../dependencies/STM32CubeL0/Drivers/STM32L0xx_HAL_Driver/Inc/stm32l0xx_ll_rcc.h **** 
1593:../../dependencies/STM32CubeL0/Drivers/STM32L0xx_HAL_Driver/Inc/stm32l0xx_ll_rcc.h **** /**
1594:../../dependencies/STM32CubeL0/Drivers/STM32L0xx_HAL_Driver/Inc/stm32l0xx_ll_rcc.h ****   * @brief  Get LPUARTx clock source
1595:../../dependencies/STM32CubeL0/Drivers/STM32L0xx_HAL_Driver/Inc/stm32l0xx_ll_rcc.h ****   * @rmtoll CCIPR        LPUART1SEL    LL_RCC_GetLPUARTClockSource
1596:../../dependencies/STM32CubeL0/Drivers/STM32L0xx_HAL_Driver/Inc/stm32l0xx_ll_rcc.h ****   * @param  LPUARTx This parameter can be one of the following values:
1597:../../dependencies/STM32CubeL0/Drivers/STM32L0xx_HAL_Driver/Inc/stm32l0xx_ll_rcc.h ****   *         @arg @ref LL_RCC_LPUART1_CLKSOURCE
1598:../../dependencies/STM32CubeL0/Drivers/STM32L0xx_HAL_Driver/Inc/stm32l0xx_ll_rcc.h ****   * @retval Returned value can be one of the following values:
1599:../../dependencies/STM32CubeL0/Drivers/STM32L0xx_HAL_Driver/Inc/stm32l0xx_ll_rcc.h ****   *         @arg @ref LL_RCC_LPUART1_CLKSOURCE_PCLK1
1600:../../dependencies/STM32CubeL0/Drivers/STM32L0xx_HAL_Driver/Inc/stm32l0xx_ll_rcc.h ****   *         @arg @ref LL_RCC_LPUART1_CLKSOURCE_SYSCLK
1601:../../dependencies/STM32CubeL0/Drivers/STM32L0xx_HAL_Driver/Inc/stm32l0xx_ll_rcc.h ****   *         @arg @ref LL_RCC_LPUART1_CLKSOURCE_HSI
1602:../../dependencies/STM32CubeL0/Drivers/STM32L0xx_HAL_Driver/Inc/stm32l0xx_ll_rcc.h ****   *         @arg @ref LL_RCC_LPUART1_CLKSOURCE_LSE
1603:../../dependencies/STM32CubeL0/Drivers/STM32L0xx_HAL_Driver/Inc/stm32l0xx_ll_rcc.h ****   */
ARM GAS  /var/folders/fs/dxwfnrqj18z860lwl3d6f5t00000gn/T//ccl6Jv28.s 			page 41


1604:../../dependencies/STM32CubeL0/Drivers/STM32L0xx_HAL_Driver/Inc/stm32l0xx_ll_rcc.h **** __STATIC_INLINE uint32_t LL_RCC_GetLPUARTClockSource(uint32_t LPUARTx)
1605:../../dependencies/STM32CubeL0/Drivers/STM32L0xx_HAL_Driver/Inc/stm32l0xx_ll_rcc.h **** {
 711              		.loc 1 1605 1
 712              		.cfi_startproc
 713              		@ args = 0, pretend = 0, frame = 8
 714              		@ frame_needed = 1, uses_anonymous_args = 0
 715 0000 80B5     		push	{r7, lr}
 716              		.cfi_def_cfa_offset 8
 717              		.cfi_offset 7, -8
 718              		.cfi_offset 14, -4
 719 0002 82B0     		sub	sp, sp, #8
 720              		.cfi_def_cfa_offset 16
 721 0004 00AF     		add	r7, sp, #0
 722              		.cfi_def_cfa_register 7
 723 0006 7860     		str	r0, [r7, #4]
1606:../../dependencies/STM32CubeL0/Drivers/STM32L0xx_HAL_Driver/Inc/stm32l0xx_ll_rcc.h ****   return (uint32_t)(READ_BIT(RCC->CCIPR, LPUARTx));
 724              		.loc 1 1606 21
 725 0008 034B     		ldr	r3, .L72
 726 000a DB6C     		ldr	r3, [r3, #76]
 727              		.loc 1 1606 10
 728 000c 7A68     		ldr	r2, [r7, #4]
 729 000e 1340     		ands	r3, r2
1607:../../dependencies/STM32CubeL0/Drivers/STM32L0xx_HAL_Driver/Inc/stm32l0xx_ll_rcc.h **** }
 730              		.loc 1 1607 1
 731 0010 1800     		movs	r0, r3
 732 0012 BD46     		mov	sp, r7
 733 0014 02B0     		add	sp, sp, #8
 734              		@ sp needed
 735 0016 80BD     		pop	{r7, pc}
 736              	.L73:
 737              		.align	2
 738              	.L72:
 739 0018 00100240 		.word	1073876992
 740              		.cfi_endproc
 741              	.LFE108:
 743              		.section	.text.LL_RCC_GetI2CClockSource,"ax",%progbits
 744              		.align	1
 745              		.syntax unified
 746              		.code	16
 747              		.thumb_func
 748              		.fpu softvfp
 750              	LL_RCC_GetI2CClockSource:
 751              	.LFB109:
1608:../../dependencies/STM32CubeL0/Drivers/STM32L0xx_HAL_Driver/Inc/stm32l0xx_ll_rcc.h **** 
1609:../../dependencies/STM32CubeL0/Drivers/STM32L0xx_HAL_Driver/Inc/stm32l0xx_ll_rcc.h **** /**
1610:../../dependencies/STM32CubeL0/Drivers/STM32L0xx_HAL_Driver/Inc/stm32l0xx_ll_rcc.h ****   * @brief  Get I2Cx clock source
1611:../../dependencies/STM32CubeL0/Drivers/STM32L0xx_HAL_Driver/Inc/stm32l0xx_ll_rcc.h ****   * @rmtoll CCIPR        I2CxSEL       LL_RCC_GetI2CClockSource
1612:../../dependencies/STM32CubeL0/Drivers/STM32L0xx_HAL_Driver/Inc/stm32l0xx_ll_rcc.h ****   * @param  I2Cx This parameter can be one of the following values:
1613:../../dependencies/STM32CubeL0/Drivers/STM32L0xx_HAL_Driver/Inc/stm32l0xx_ll_rcc.h ****   *         @arg @ref LL_RCC_I2C1_CLKSOURCE
1614:../../dependencies/STM32CubeL0/Drivers/STM32L0xx_HAL_Driver/Inc/stm32l0xx_ll_rcc.h ****   *         @arg @ref LL_RCC_I2C3_CLKSOURCE
1615:../../dependencies/STM32CubeL0/Drivers/STM32L0xx_HAL_Driver/Inc/stm32l0xx_ll_rcc.h ****   * @retval Returned value can be one of the following values:
1616:../../dependencies/STM32CubeL0/Drivers/STM32L0xx_HAL_Driver/Inc/stm32l0xx_ll_rcc.h ****   *         @arg @ref LL_RCC_I2C1_CLKSOURCE_PCLK1
1617:../../dependencies/STM32CubeL0/Drivers/STM32L0xx_HAL_Driver/Inc/stm32l0xx_ll_rcc.h ****   *         @arg @ref LL_RCC_I2C1_CLKSOURCE_SYSCLK
1618:../../dependencies/STM32CubeL0/Drivers/STM32L0xx_HAL_Driver/Inc/stm32l0xx_ll_rcc.h ****   *         @arg @ref LL_RCC_I2C1_CLKSOURCE_HSI
1619:../../dependencies/STM32CubeL0/Drivers/STM32L0xx_HAL_Driver/Inc/stm32l0xx_ll_rcc.h ****   *         @arg @ref LL_RCC_I2C3_CLKSOURCE_PCLK1  (*)
1620:../../dependencies/STM32CubeL0/Drivers/STM32L0xx_HAL_Driver/Inc/stm32l0xx_ll_rcc.h ****   *         @arg @ref LL_RCC_I2C3_CLKSOURCE_SYSCLK  (*)
1621:../../dependencies/STM32CubeL0/Drivers/STM32L0xx_HAL_Driver/Inc/stm32l0xx_ll_rcc.h ****   *         @arg @ref LL_RCC_I2C3_CLKSOURCE_HSI   (*)
ARM GAS  /var/folders/fs/dxwfnrqj18z860lwl3d6f5t00000gn/T//ccl6Jv28.s 			page 42


1622:../../dependencies/STM32CubeL0/Drivers/STM32L0xx_HAL_Driver/Inc/stm32l0xx_ll_rcc.h ****   *
1623:../../dependencies/STM32CubeL0/Drivers/STM32L0xx_HAL_Driver/Inc/stm32l0xx_ll_rcc.h ****   *         (*) value not defined in all devices.
1624:../../dependencies/STM32CubeL0/Drivers/STM32L0xx_HAL_Driver/Inc/stm32l0xx_ll_rcc.h ****   */
1625:../../dependencies/STM32CubeL0/Drivers/STM32L0xx_HAL_Driver/Inc/stm32l0xx_ll_rcc.h **** __STATIC_INLINE uint32_t LL_RCC_GetI2CClockSource(uint32_t I2Cx)
1626:../../dependencies/STM32CubeL0/Drivers/STM32L0xx_HAL_Driver/Inc/stm32l0xx_ll_rcc.h **** {
 752              		.loc 1 1626 1
 753              		.cfi_startproc
 754              		@ args = 0, pretend = 0, frame = 8
 755              		@ frame_needed = 1, uses_anonymous_args = 0
 756 0000 80B5     		push	{r7, lr}
 757              		.cfi_def_cfa_offset 8
 758              		.cfi_offset 7, -8
 759              		.cfi_offset 14, -4
 760 0002 82B0     		sub	sp, sp, #8
 761              		.cfi_def_cfa_offset 16
 762 0004 00AF     		add	r7, sp, #0
 763              		.cfi_def_cfa_register 7
 764 0006 7860     		str	r0, [r7, #4]
1627:../../dependencies/STM32CubeL0/Drivers/STM32L0xx_HAL_Driver/Inc/stm32l0xx_ll_rcc.h ****   return (uint32_t)((READ_BIT(RCC->CCIPR, I2Cx) >> 4U) | (I2Cx << 4U));
 765              		.loc 1 1627 22
 766 0008 054B     		ldr	r3, .L76
 767 000a DB6C     		ldr	r3, [r3, #76]
 768 000c 7A68     		ldr	r2, [r7, #4]
 769 000e 1340     		ands	r3, r2
 770              		.loc 1 1627 49
 771 0010 1A09     		lsrs	r2, r3, #4
 772              		.loc 1 1627 64
 773 0012 7B68     		ldr	r3, [r7, #4]
 774 0014 1B01     		lsls	r3, r3, #4
 775              		.loc 1 1627 10
 776 0016 1343     		orrs	r3, r2
1628:../../dependencies/STM32CubeL0/Drivers/STM32L0xx_HAL_Driver/Inc/stm32l0xx_ll_rcc.h **** }
 777              		.loc 1 1628 1
 778 0018 1800     		movs	r0, r3
 779 001a BD46     		mov	sp, r7
 780 001c 02B0     		add	sp, sp, #8
 781              		@ sp needed
 782 001e 80BD     		pop	{r7, pc}
 783              	.L77:
 784              		.align	2
 785              	.L76:
 786 0020 00100240 		.word	1073876992
 787              		.cfi_endproc
 788              	.LFE109:
 790              		.section	.text.LL_RCC_GetLPTIMClockSource,"ax",%progbits
 791              		.align	1
 792              		.syntax unified
 793              		.code	16
 794              		.thumb_func
 795              		.fpu softvfp
 797              	LL_RCC_GetLPTIMClockSource:
 798              	.LFB110:
1629:../../dependencies/STM32CubeL0/Drivers/STM32L0xx_HAL_Driver/Inc/stm32l0xx_ll_rcc.h **** 
1630:../../dependencies/STM32CubeL0/Drivers/STM32L0xx_HAL_Driver/Inc/stm32l0xx_ll_rcc.h **** /**
1631:../../dependencies/STM32CubeL0/Drivers/STM32L0xx_HAL_Driver/Inc/stm32l0xx_ll_rcc.h ****   * @brief  Get LPTIMx clock source
1632:../../dependencies/STM32CubeL0/Drivers/STM32L0xx_HAL_Driver/Inc/stm32l0xx_ll_rcc.h ****   * @rmtoll CCIPR        LPTIMxSEL     LL_RCC_GetLPTIMClockSource
1633:../../dependencies/STM32CubeL0/Drivers/STM32L0xx_HAL_Driver/Inc/stm32l0xx_ll_rcc.h ****   * @param  LPTIMx This parameter can be one of the following values:
ARM GAS  /var/folders/fs/dxwfnrqj18z860lwl3d6f5t00000gn/T//ccl6Jv28.s 			page 43


1634:../../dependencies/STM32CubeL0/Drivers/STM32L0xx_HAL_Driver/Inc/stm32l0xx_ll_rcc.h ****   *         @arg @ref LL_RCC_LPTIM1_CLKSOURCE
1635:../../dependencies/STM32CubeL0/Drivers/STM32L0xx_HAL_Driver/Inc/stm32l0xx_ll_rcc.h ****   * @retval Returned value can be one of the following values:
1636:../../dependencies/STM32CubeL0/Drivers/STM32L0xx_HAL_Driver/Inc/stm32l0xx_ll_rcc.h ****   *         @arg @ref LL_RCC_LPTIM1_CLKSOURCE_PCLK1
1637:../../dependencies/STM32CubeL0/Drivers/STM32L0xx_HAL_Driver/Inc/stm32l0xx_ll_rcc.h ****   *         @arg @ref LL_RCC_LPTIM1_CLKSOURCE_LSI
1638:../../dependencies/STM32CubeL0/Drivers/STM32L0xx_HAL_Driver/Inc/stm32l0xx_ll_rcc.h ****   *         @arg @ref LL_RCC_LPTIM1_CLKSOURCE_HSI
1639:../../dependencies/STM32CubeL0/Drivers/STM32L0xx_HAL_Driver/Inc/stm32l0xx_ll_rcc.h ****   *         @arg @ref LL_RCC_LPTIM1_CLKSOURCE_LSE
1640:../../dependencies/STM32CubeL0/Drivers/STM32L0xx_HAL_Driver/Inc/stm32l0xx_ll_rcc.h ****   */
1641:../../dependencies/STM32CubeL0/Drivers/STM32L0xx_HAL_Driver/Inc/stm32l0xx_ll_rcc.h **** __STATIC_INLINE uint32_t LL_RCC_GetLPTIMClockSource(uint32_t LPTIMx)
1642:../../dependencies/STM32CubeL0/Drivers/STM32L0xx_HAL_Driver/Inc/stm32l0xx_ll_rcc.h **** {
 799              		.loc 1 1642 1
 800              		.cfi_startproc
 801              		@ args = 0, pretend = 0, frame = 8
 802              		@ frame_needed = 1, uses_anonymous_args = 0
 803 0000 80B5     		push	{r7, lr}
 804              		.cfi_def_cfa_offset 8
 805              		.cfi_offset 7, -8
 806              		.cfi_offset 14, -4
 807 0002 82B0     		sub	sp, sp, #8
 808              		.cfi_def_cfa_offset 16
 809 0004 00AF     		add	r7, sp, #0
 810              		.cfi_def_cfa_register 7
 811 0006 7860     		str	r0, [r7, #4]
1643:../../dependencies/STM32CubeL0/Drivers/STM32L0xx_HAL_Driver/Inc/stm32l0xx_ll_rcc.h ****   return (uint32_t)(READ_BIT(RCC->CCIPR, LPTIMx));
 812              		.loc 1 1643 21
 813 0008 034B     		ldr	r3, .L80
 814 000a DB6C     		ldr	r3, [r3, #76]
 815              		.loc 1 1643 10
 816 000c 7A68     		ldr	r2, [r7, #4]
 817 000e 1340     		ands	r3, r2
1644:../../dependencies/STM32CubeL0/Drivers/STM32L0xx_HAL_Driver/Inc/stm32l0xx_ll_rcc.h **** }
 818              		.loc 1 1644 1
 819 0010 1800     		movs	r0, r3
 820 0012 BD46     		mov	sp, r7
 821 0014 02B0     		add	sp, sp, #8
 822              		@ sp needed
 823 0016 80BD     		pop	{r7, pc}
 824              	.L81:
 825              		.align	2
 826              	.L80:
 827 0018 00100240 		.word	1073876992
 828              		.cfi_endproc
 829              	.LFE110:
 831              		.section	.text.LL_RCC_GetUSBClockSource,"ax",%progbits
 832              		.align	1
 833              		.syntax unified
 834              		.code	16
 835              		.thumb_func
 836              		.fpu softvfp
 838              	LL_RCC_GetUSBClockSource:
 839              	.LFB112:
1645:../../dependencies/STM32CubeL0/Drivers/STM32L0xx_HAL_Driver/Inc/stm32l0xx_ll_rcc.h **** 
1646:../../dependencies/STM32CubeL0/Drivers/STM32L0xx_HAL_Driver/Inc/stm32l0xx_ll_rcc.h **** #if defined(RCC_CCIPR_HSI48SEL)
1647:../../dependencies/STM32CubeL0/Drivers/STM32L0xx_HAL_Driver/Inc/stm32l0xx_ll_rcc.h **** #if defined(RNG)
1648:../../dependencies/STM32CubeL0/Drivers/STM32L0xx_HAL_Driver/Inc/stm32l0xx_ll_rcc.h **** /**
1649:../../dependencies/STM32CubeL0/Drivers/STM32L0xx_HAL_Driver/Inc/stm32l0xx_ll_rcc.h ****   * @brief  Get RNGx clock source
1650:../../dependencies/STM32CubeL0/Drivers/STM32L0xx_HAL_Driver/Inc/stm32l0xx_ll_rcc.h ****   * @rmtoll CCIPR        CLK48SEL      LL_RCC_GetRNGClockSource
1651:../../dependencies/STM32CubeL0/Drivers/STM32L0xx_HAL_Driver/Inc/stm32l0xx_ll_rcc.h ****   * @param  RNGx This parameter can be one of the following values:
ARM GAS  /var/folders/fs/dxwfnrqj18z860lwl3d6f5t00000gn/T//ccl6Jv28.s 			page 44


1652:../../dependencies/STM32CubeL0/Drivers/STM32L0xx_HAL_Driver/Inc/stm32l0xx_ll_rcc.h ****   *         @arg @ref LL_RCC_RNG_CLKSOURCE
1653:../../dependencies/STM32CubeL0/Drivers/STM32L0xx_HAL_Driver/Inc/stm32l0xx_ll_rcc.h ****   * @retval Returned value can be one of the following values:
1654:../../dependencies/STM32CubeL0/Drivers/STM32L0xx_HAL_Driver/Inc/stm32l0xx_ll_rcc.h ****   *         @arg @ref LL_RCC_RNG_CLKSOURCE_PLL
1655:../../dependencies/STM32CubeL0/Drivers/STM32L0xx_HAL_Driver/Inc/stm32l0xx_ll_rcc.h ****   *         @arg @ref LL_RCC_RNG_CLKSOURCE_HSI48
1656:../../dependencies/STM32CubeL0/Drivers/STM32L0xx_HAL_Driver/Inc/stm32l0xx_ll_rcc.h ****   */
1657:../../dependencies/STM32CubeL0/Drivers/STM32L0xx_HAL_Driver/Inc/stm32l0xx_ll_rcc.h **** __STATIC_INLINE uint32_t LL_RCC_GetRNGClockSource(uint32_t RNGx)
1658:../../dependencies/STM32CubeL0/Drivers/STM32L0xx_HAL_Driver/Inc/stm32l0xx_ll_rcc.h **** {
1659:../../dependencies/STM32CubeL0/Drivers/STM32L0xx_HAL_Driver/Inc/stm32l0xx_ll_rcc.h ****   return (uint32_t)(READ_BIT(RCC->CCIPR, RNGx));
1660:../../dependencies/STM32CubeL0/Drivers/STM32L0xx_HAL_Driver/Inc/stm32l0xx_ll_rcc.h **** }
1661:../../dependencies/STM32CubeL0/Drivers/STM32L0xx_HAL_Driver/Inc/stm32l0xx_ll_rcc.h **** #endif /* RNG */
1662:../../dependencies/STM32CubeL0/Drivers/STM32L0xx_HAL_Driver/Inc/stm32l0xx_ll_rcc.h **** 
1663:../../dependencies/STM32CubeL0/Drivers/STM32L0xx_HAL_Driver/Inc/stm32l0xx_ll_rcc.h **** #if defined(USB)
1664:../../dependencies/STM32CubeL0/Drivers/STM32L0xx_HAL_Driver/Inc/stm32l0xx_ll_rcc.h **** /**
1665:../../dependencies/STM32CubeL0/Drivers/STM32L0xx_HAL_Driver/Inc/stm32l0xx_ll_rcc.h ****   * @brief  Get USBx clock source
1666:../../dependencies/STM32CubeL0/Drivers/STM32L0xx_HAL_Driver/Inc/stm32l0xx_ll_rcc.h ****   * @rmtoll CCIPR        CLK48SEL      LL_RCC_GetUSBClockSource
1667:../../dependencies/STM32CubeL0/Drivers/STM32L0xx_HAL_Driver/Inc/stm32l0xx_ll_rcc.h ****   * @param  USBx This parameter can be one of the following values:
1668:../../dependencies/STM32CubeL0/Drivers/STM32L0xx_HAL_Driver/Inc/stm32l0xx_ll_rcc.h ****   *         @arg @ref LL_RCC_USB_CLKSOURCE
1669:../../dependencies/STM32CubeL0/Drivers/STM32L0xx_HAL_Driver/Inc/stm32l0xx_ll_rcc.h ****   * @retval Returned value can be one of the following values:
1670:../../dependencies/STM32CubeL0/Drivers/STM32L0xx_HAL_Driver/Inc/stm32l0xx_ll_rcc.h ****   *         @arg @ref LL_RCC_USB_CLKSOURCE_PLL
1671:../../dependencies/STM32CubeL0/Drivers/STM32L0xx_HAL_Driver/Inc/stm32l0xx_ll_rcc.h ****   *         @arg @ref LL_RCC_USB_CLKSOURCE_HSI48
1672:../../dependencies/STM32CubeL0/Drivers/STM32L0xx_HAL_Driver/Inc/stm32l0xx_ll_rcc.h ****   */
1673:../../dependencies/STM32CubeL0/Drivers/STM32L0xx_HAL_Driver/Inc/stm32l0xx_ll_rcc.h **** __STATIC_INLINE uint32_t LL_RCC_GetUSBClockSource(uint32_t USBx)
1674:../../dependencies/STM32CubeL0/Drivers/STM32L0xx_HAL_Driver/Inc/stm32l0xx_ll_rcc.h **** {
 840              		.loc 1 1674 1
 841              		.cfi_startproc
 842              		@ args = 0, pretend = 0, frame = 8
 843              		@ frame_needed = 1, uses_anonymous_args = 0
 844 0000 80B5     		push	{r7, lr}
 845              		.cfi_def_cfa_offset 8
 846              		.cfi_offset 7, -8
 847              		.cfi_offset 14, -4
 848 0002 82B0     		sub	sp, sp, #8
 849              		.cfi_def_cfa_offset 16
 850 0004 00AF     		add	r7, sp, #0
 851              		.cfi_def_cfa_register 7
 852 0006 7860     		str	r0, [r7, #4]
1675:../../dependencies/STM32CubeL0/Drivers/STM32L0xx_HAL_Driver/Inc/stm32l0xx_ll_rcc.h ****   return (uint32_t)(READ_BIT(RCC->CCIPR, USBx));
 853              		.loc 1 1675 21
 854 0008 034B     		ldr	r3, .L84
 855 000a DB6C     		ldr	r3, [r3, #76]
 856              		.loc 1 1675 10
 857 000c 7A68     		ldr	r2, [r7, #4]
 858 000e 1340     		ands	r3, r2
1676:../../dependencies/STM32CubeL0/Drivers/STM32L0xx_HAL_Driver/Inc/stm32l0xx_ll_rcc.h **** }
 859              		.loc 1 1676 1
 860 0010 1800     		movs	r0, r3
 861 0012 BD46     		mov	sp, r7
 862 0014 02B0     		add	sp, sp, #8
 863              		@ sp needed
 864 0016 80BD     		pop	{r7, pc}
 865              	.L85:
 866              		.align	2
 867              	.L84:
 868 0018 00100240 		.word	1073876992
 869              		.cfi_endproc
 870              	.LFE112:
 872              		.section	.text.LL_RCC_PLL_IsReady,"ax",%progbits
ARM GAS  /var/folders/fs/dxwfnrqj18z860lwl3d6f5t00000gn/T//ccl6Jv28.s 			page 45


 873              		.align	1
 874              		.syntax unified
 875              		.code	16
 876              		.thumb_func
 877              		.fpu softvfp
 879              	LL_RCC_PLL_IsReady:
 880              	.LFB122:
1677:../../dependencies/STM32CubeL0/Drivers/STM32L0xx_HAL_Driver/Inc/stm32l0xx_ll_rcc.h **** #endif /* USB */
1678:../../dependencies/STM32CubeL0/Drivers/STM32L0xx_HAL_Driver/Inc/stm32l0xx_ll_rcc.h **** 
1679:../../dependencies/STM32CubeL0/Drivers/STM32L0xx_HAL_Driver/Inc/stm32l0xx_ll_rcc.h **** #endif /* RCC_CCIPR_HSI48SEL */
1680:../../dependencies/STM32CubeL0/Drivers/STM32L0xx_HAL_Driver/Inc/stm32l0xx_ll_rcc.h **** 
1681:../../dependencies/STM32CubeL0/Drivers/STM32L0xx_HAL_Driver/Inc/stm32l0xx_ll_rcc.h **** /**
1682:../../dependencies/STM32CubeL0/Drivers/STM32L0xx_HAL_Driver/Inc/stm32l0xx_ll_rcc.h ****   * @}
1683:../../dependencies/STM32CubeL0/Drivers/STM32L0xx_HAL_Driver/Inc/stm32l0xx_ll_rcc.h ****   */
1684:../../dependencies/STM32CubeL0/Drivers/STM32L0xx_HAL_Driver/Inc/stm32l0xx_ll_rcc.h **** 
1685:../../dependencies/STM32CubeL0/Drivers/STM32L0xx_HAL_Driver/Inc/stm32l0xx_ll_rcc.h **** /** @defgroup RCC_LL_EF_RTC RTC
1686:../../dependencies/STM32CubeL0/Drivers/STM32L0xx_HAL_Driver/Inc/stm32l0xx_ll_rcc.h ****   * @{
1687:../../dependencies/STM32CubeL0/Drivers/STM32L0xx_HAL_Driver/Inc/stm32l0xx_ll_rcc.h ****   */
1688:../../dependencies/STM32CubeL0/Drivers/STM32L0xx_HAL_Driver/Inc/stm32l0xx_ll_rcc.h **** 
1689:../../dependencies/STM32CubeL0/Drivers/STM32L0xx_HAL_Driver/Inc/stm32l0xx_ll_rcc.h **** /**
1690:../../dependencies/STM32CubeL0/Drivers/STM32L0xx_HAL_Driver/Inc/stm32l0xx_ll_rcc.h ****   * @brief  Set RTC Clock Source
1691:../../dependencies/STM32CubeL0/Drivers/STM32L0xx_HAL_Driver/Inc/stm32l0xx_ll_rcc.h ****   * @note Once the RTC clock source has been selected, it cannot be changed any more unless
1692:../../dependencies/STM32CubeL0/Drivers/STM32L0xx_HAL_Driver/Inc/stm32l0xx_ll_rcc.h ****   *       the Backup domain is reset, or unless a failure is detected on LSE (LSECSSD is
1693:../../dependencies/STM32CubeL0/Drivers/STM32L0xx_HAL_Driver/Inc/stm32l0xx_ll_rcc.h ****   *       set). The RTCRST bit can be used to reset them.
1694:../../dependencies/STM32CubeL0/Drivers/STM32L0xx_HAL_Driver/Inc/stm32l0xx_ll_rcc.h ****   * @rmtoll CSR         RTCSEL        LL_RCC_SetRTCClockSource
1695:../../dependencies/STM32CubeL0/Drivers/STM32L0xx_HAL_Driver/Inc/stm32l0xx_ll_rcc.h ****   * @param  Source This parameter can be one of the following values:
1696:../../dependencies/STM32CubeL0/Drivers/STM32L0xx_HAL_Driver/Inc/stm32l0xx_ll_rcc.h ****   *         @arg @ref LL_RCC_RTC_CLKSOURCE_NONE
1697:../../dependencies/STM32CubeL0/Drivers/STM32L0xx_HAL_Driver/Inc/stm32l0xx_ll_rcc.h ****   *         @arg @ref LL_RCC_RTC_CLKSOURCE_LSE
1698:../../dependencies/STM32CubeL0/Drivers/STM32L0xx_HAL_Driver/Inc/stm32l0xx_ll_rcc.h ****   *         @arg @ref LL_RCC_RTC_CLKSOURCE_LSI
1699:../../dependencies/STM32CubeL0/Drivers/STM32L0xx_HAL_Driver/Inc/stm32l0xx_ll_rcc.h ****   *         @arg @ref LL_RCC_RTC_CLKSOURCE_HSE
1700:../../dependencies/STM32CubeL0/Drivers/STM32L0xx_HAL_Driver/Inc/stm32l0xx_ll_rcc.h ****   * @retval None
1701:../../dependencies/STM32CubeL0/Drivers/STM32L0xx_HAL_Driver/Inc/stm32l0xx_ll_rcc.h ****   */
1702:../../dependencies/STM32CubeL0/Drivers/STM32L0xx_HAL_Driver/Inc/stm32l0xx_ll_rcc.h **** __STATIC_INLINE void LL_RCC_SetRTCClockSource(uint32_t Source)
1703:../../dependencies/STM32CubeL0/Drivers/STM32L0xx_HAL_Driver/Inc/stm32l0xx_ll_rcc.h **** {
1704:../../dependencies/STM32CubeL0/Drivers/STM32L0xx_HAL_Driver/Inc/stm32l0xx_ll_rcc.h ****   MODIFY_REG(RCC->CSR, RCC_CSR_RTCSEL, Source);
1705:../../dependencies/STM32CubeL0/Drivers/STM32L0xx_HAL_Driver/Inc/stm32l0xx_ll_rcc.h **** }
1706:../../dependencies/STM32CubeL0/Drivers/STM32L0xx_HAL_Driver/Inc/stm32l0xx_ll_rcc.h **** 
1707:../../dependencies/STM32CubeL0/Drivers/STM32L0xx_HAL_Driver/Inc/stm32l0xx_ll_rcc.h **** /**
1708:../../dependencies/STM32CubeL0/Drivers/STM32L0xx_HAL_Driver/Inc/stm32l0xx_ll_rcc.h ****   * @brief  Get RTC Clock Source
1709:../../dependencies/STM32CubeL0/Drivers/STM32L0xx_HAL_Driver/Inc/stm32l0xx_ll_rcc.h ****   * @rmtoll CSR         RTCSEL        LL_RCC_GetRTCClockSource
1710:../../dependencies/STM32CubeL0/Drivers/STM32L0xx_HAL_Driver/Inc/stm32l0xx_ll_rcc.h ****   * @retval Returned value can be one of the following values:
1711:../../dependencies/STM32CubeL0/Drivers/STM32L0xx_HAL_Driver/Inc/stm32l0xx_ll_rcc.h ****   *         @arg @ref LL_RCC_RTC_CLKSOURCE_NONE
1712:../../dependencies/STM32CubeL0/Drivers/STM32L0xx_HAL_Driver/Inc/stm32l0xx_ll_rcc.h ****   *         @arg @ref LL_RCC_RTC_CLKSOURCE_LSE
1713:../../dependencies/STM32CubeL0/Drivers/STM32L0xx_HAL_Driver/Inc/stm32l0xx_ll_rcc.h ****   *         @arg @ref LL_RCC_RTC_CLKSOURCE_LSI
1714:../../dependencies/STM32CubeL0/Drivers/STM32L0xx_HAL_Driver/Inc/stm32l0xx_ll_rcc.h ****   *         @arg @ref LL_RCC_RTC_CLKSOURCE_HSE
1715:../../dependencies/STM32CubeL0/Drivers/STM32L0xx_HAL_Driver/Inc/stm32l0xx_ll_rcc.h ****   */
1716:../../dependencies/STM32CubeL0/Drivers/STM32L0xx_HAL_Driver/Inc/stm32l0xx_ll_rcc.h **** __STATIC_INLINE uint32_t LL_RCC_GetRTCClockSource(void)
1717:../../dependencies/STM32CubeL0/Drivers/STM32L0xx_HAL_Driver/Inc/stm32l0xx_ll_rcc.h **** {
1718:../../dependencies/STM32CubeL0/Drivers/STM32L0xx_HAL_Driver/Inc/stm32l0xx_ll_rcc.h ****   return (uint32_t)(READ_BIT(RCC->CSR, RCC_CSR_RTCSEL));
1719:../../dependencies/STM32CubeL0/Drivers/STM32L0xx_HAL_Driver/Inc/stm32l0xx_ll_rcc.h **** }
1720:../../dependencies/STM32CubeL0/Drivers/STM32L0xx_HAL_Driver/Inc/stm32l0xx_ll_rcc.h **** 
1721:../../dependencies/STM32CubeL0/Drivers/STM32L0xx_HAL_Driver/Inc/stm32l0xx_ll_rcc.h **** /**
1722:../../dependencies/STM32CubeL0/Drivers/STM32L0xx_HAL_Driver/Inc/stm32l0xx_ll_rcc.h ****   * @brief  Enable RTC
1723:../../dependencies/STM32CubeL0/Drivers/STM32L0xx_HAL_Driver/Inc/stm32l0xx_ll_rcc.h ****   * @rmtoll CSR         RTCEN         LL_RCC_EnableRTC
1724:../../dependencies/STM32CubeL0/Drivers/STM32L0xx_HAL_Driver/Inc/stm32l0xx_ll_rcc.h ****   * @retval None
1725:../../dependencies/STM32CubeL0/Drivers/STM32L0xx_HAL_Driver/Inc/stm32l0xx_ll_rcc.h ****   */
1726:../../dependencies/STM32CubeL0/Drivers/STM32L0xx_HAL_Driver/Inc/stm32l0xx_ll_rcc.h **** __STATIC_INLINE void LL_RCC_EnableRTC(void)
ARM GAS  /var/folders/fs/dxwfnrqj18z860lwl3d6f5t00000gn/T//ccl6Jv28.s 			page 46


1727:../../dependencies/STM32CubeL0/Drivers/STM32L0xx_HAL_Driver/Inc/stm32l0xx_ll_rcc.h **** {
1728:../../dependencies/STM32CubeL0/Drivers/STM32L0xx_HAL_Driver/Inc/stm32l0xx_ll_rcc.h ****   SET_BIT(RCC->CSR, RCC_CSR_RTCEN);
1729:../../dependencies/STM32CubeL0/Drivers/STM32L0xx_HAL_Driver/Inc/stm32l0xx_ll_rcc.h **** }
1730:../../dependencies/STM32CubeL0/Drivers/STM32L0xx_HAL_Driver/Inc/stm32l0xx_ll_rcc.h **** 
1731:../../dependencies/STM32CubeL0/Drivers/STM32L0xx_HAL_Driver/Inc/stm32l0xx_ll_rcc.h **** /**
1732:../../dependencies/STM32CubeL0/Drivers/STM32L0xx_HAL_Driver/Inc/stm32l0xx_ll_rcc.h ****   * @brief  Disable RTC
1733:../../dependencies/STM32CubeL0/Drivers/STM32L0xx_HAL_Driver/Inc/stm32l0xx_ll_rcc.h ****   * @rmtoll CSR         RTCEN         LL_RCC_DisableRTC
1734:../../dependencies/STM32CubeL0/Drivers/STM32L0xx_HAL_Driver/Inc/stm32l0xx_ll_rcc.h ****   * @retval None
1735:../../dependencies/STM32CubeL0/Drivers/STM32L0xx_HAL_Driver/Inc/stm32l0xx_ll_rcc.h ****   */
1736:../../dependencies/STM32CubeL0/Drivers/STM32L0xx_HAL_Driver/Inc/stm32l0xx_ll_rcc.h **** __STATIC_INLINE void LL_RCC_DisableRTC(void)
1737:../../dependencies/STM32CubeL0/Drivers/STM32L0xx_HAL_Driver/Inc/stm32l0xx_ll_rcc.h **** {
1738:../../dependencies/STM32CubeL0/Drivers/STM32L0xx_HAL_Driver/Inc/stm32l0xx_ll_rcc.h ****   CLEAR_BIT(RCC->CSR, RCC_CSR_RTCEN);
1739:../../dependencies/STM32CubeL0/Drivers/STM32L0xx_HAL_Driver/Inc/stm32l0xx_ll_rcc.h **** }
1740:../../dependencies/STM32CubeL0/Drivers/STM32L0xx_HAL_Driver/Inc/stm32l0xx_ll_rcc.h **** 
1741:../../dependencies/STM32CubeL0/Drivers/STM32L0xx_HAL_Driver/Inc/stm32l0xx_ll_rcc.h **** /**
1742:../../dependencies/STM32CubeL0/Drivers/STM32L0xx_HAL_Driver/Inc/stm32l0xx_ll_rcc.h ****   * @brief  Check if RTC has been enabled or not
1743:../../dependencies/STM32CubeL0/Drivers/STM32L0xx_HAL_Driver/Inc/stm32l0xx_ll_rcc.h ****   * @rmtoll CSR         RTCEN         LL_RCC_IsEnabledRTC
1744:../../dependencies/STM32CubeL0/Drivers/STM32L0xx_HAL_Driver/Inc/stm32l0xx_ll_rcc.h ****   * @retval State of bit (1 or 0).
1745:../../dependencies/STM32CubeL0/Drivers/STM32L0xx_HAL_Driver/Inc/stm32l0xx_ll_rcc.h ****   */
1746:../../dependencies/STM32CubeL0/Drivers/STM32L0xx_HAL_Driver/Inc/stm32l0xx_ll_rcc.h **** __STATIC_INLINE uint32_t LL_RCC_IsEnabledRTC(void)
1747:../../dependencies/STM32CubeL0/Drivers/STM32L0xx_HAL_Driver/Inc/stm32l0xx_ll_rcc.h **** {
1748:../../dependencies/STM32CubeL0/Drivers/STM32L0xx_HAL_Driver/Inc/stm32l0xx_ll_rcc.h ****   return ((READ_BIT(RCC->CSR, RCC_CSR_RTCEN) == RCC_CSR_RTCEN) ? 1UL : 0UL);
1749:../../dependencies/STM32CubeL0/Drivers/STM32L0xx_HAL_Driver/Inc/stm32l0xx_ll_rcc.h **** }
1750:../../dependencies/STM32CubeL0/Drivers/STM32L0xx_HAL_Driver/Inc/stm32l0xx_ll_rcc.h **** 
1751:../../dependencies/STM32CubeL0/Drivers/STM32L0xx_HAL_Driver/Inc/stm32l0xx_ll_rcc.h **** /**
1752:../../dependencies/STM32CubeL0/Drivers/STM32L0xx_HAL_Driver/Inc/stm32l0xx_ll_rcc.h ****   * @brief  Force the Backup domain reset
1753:../../dependencies/STM32CubeL0/Drivers/STM32L0xx_HAL_Driver/Inc/stm32l0xx_ll_rcc.h ****   * @rmtoll CSR         RTCRST         LL_RCC_ForceBackupDomainReset
1754:../../dependencies/STM32CubeL0/Drivers/STM32L0xx_HAL_Driver/Inc/stm32l0xx_ll_rcc.h ****   * @retval None
1755:../../dependencies/STM32CubeL0/Drivers/STM32L0xx_HAL_Driver/Inc/stm32l0xx_ll_rcc.h ****   */
1756:../../dependencies/STM32CubeL0/Drivers/STM32L0xx_HAL_Driver/Inc/stm32l0xx_ll_rcc.h **** __STATIC_INLINE void LL_RCC_ForceBackupDomainReset(void)
1757:../../dependencies/STM32CubeL0/Drivers/STM32L0xx_HAL_Driver/Inc/stm32l0xx_ll_rcc.h **** {
1758:../../dependencies/STM32CubeL0/Drivers/STM32L0xx_HAL_Driver/Inc/stm32l0xx_ll_rcc.h ****   SET_BIT(RCC->CSR, RCC_CSR_RTCRST);
1759:../../dependencies/STM32CubeL0/Drivers/STM32L0xx_HAL_Driver/Inc/stm32l0xx_ll_rcc.h **** }
1760:../../dependencies/STM32CubeL0/Drivers/STM32L0xx_HAL_Driver/Inc/stm32l0xx_ll_rcc.h **** 
1761:../../dependencies/STM32CubeL0/Drivers/STM32L0xx_HAL_Driver/Inc/stm32l0xx_ll_rcc.h **** /**
1762:../../dependencies/STM32CubeL0/Drivers/STM32L0xx_HAL_Driver/Inc/stm32l0xx_ll_rcc.h ****   * @brief  Release the Backup domain reset
1763:../../dependencies/STM32CubeL0/Drivers/STM32L0xx_HAL_Driver/Inc/stm32l0xx_ll_rcc.h ****   * @rmtoll CSR         RTCRST         LL_RCC_ReleaseBackupDomainReset
1764:../../dependencies/STM32CubeL0/Drivers/STM32L0xx_HAL_Driver/Inc/stm32l0xx_ll_rcc.h ****   * @retval None
1765:../../dependencies/STM32CubeL0/Drivers/STM32L0xx_HAL_Driver/Inc/stm32l0xx_ll_rcc.h ****   */
1766:../../dependencies/STM32CubeL0/Drivers/STM32L0xx_HAL_Driver/Inc/stm32l0xx_ll_rcc.h **** __STATIC_INLINE void LL_RCC_ReleaseBackupDomainReset(void)
1767:../../dependencies/STM32CubeL0/Drivers/STM32L0xx_HAL_Driver/Inc/stm32l0xx_ll_rcc.h **** {
1768:../../dependencies/STM32CubeL0/Drivers/STM32L0xx_HAL_Driver/Inc/stm32l0xx_ll_rcc.h ****   CLEAR_BIT(RCC->CSR, RCC_CSR_RTCRST);
1769:../../dependencies/STM32CubeL0/Drivers/STM32L0xx_HAL_Driver/Inc/stm32l0xx_ll_rcc.h **** }
1770:../../dependencies/STM32CubeL0/Drivers/STM32L0xx_HAL_Driver/Inc/stm32l0xx_ll_rcc.h **** 
1771:../../dependencies/STM32CubeL0/Drivers/STM32L0xx_HAL_Driver/Inc/stm32l0xx_ll_rcc.h **** /**
1772:../../dependencies/STM32CubeL0/Drivers/STM32L0xx_HAL_Driver/Inc/stm32l0xx_ll_rcc.h ****   * @}
1773:../../dependencies/STM32CubeL0/Drivers/STM32L0xx_HAL_Driver/Inc/stm32l0xx_ll_rcc.h ****   */
1774:../../dependencies/STM32CubeL0/Drivers/STM32L0xx_HAL_Driver/Inc/stm32l0xx_ll_rcc.h **** 
1775:../../dependencies/STM32CubeL0/Drivers/STM32L0xx_HAL_Driver/Inc/stm32l0xx_ll_rcc.h **** /** @defgroup RCC_LL_EF_PLL PLL
1776:../../dependencies/STM32CubeL0/Drivers/STM32L0xx_HAL_Driver/Inc/stm32l0xx_ll_rcc.h ****   * @{
1777:../../dependencies/STM32CubeL0/Drivers/STM32L0xx_HAL_Driver/Inc/stm32l0xx_ll_rcc.h ****   */
1778:../../dependencies/STM32CubeL0/Drivers/STM32L0xx_HAL_Driver/Inc/stm32l0xx_ll_rcc.h **** 
1779:../../dependencies/STM32CubeL0/Drivers/STM32L0xx_HAL_Driver/Inc/stm32l0xx_ll_rcc.h **** /**
1780:../../dependencies/STM32CubeL0/Drivers/STM32L0xx_HAL_Driver/Inc/stm32l0xx_ll_rcc.h ****   * @brief  Enable PLL
1781:../../dependencies/STM32CubeL0/Drivers/STM32L0xx_HAL_Driver/Inc/stm32l0xx_ll_rcc.h ****   * @rmtoll CR           PLLON         LL_RCC_PLL_Enable
1782:../../dependencies/STM32CubeL0/Drivers/STM32L0xx_HAL_Driver/Inc/stm32l0xx_ll_rcc.h ****   * @retval None
1783:../../dependencies/STM32CubeL0/Drivers/STM32L0xx_HAL_Driver/Inc/stm32l0xx_ll_rcc.h ****   */
ARM GAS  /var/folders/fs/dxwfnrqj18z860lwl3d6f5t00000gn/T//ccl6Jv28.s 			page 47


1784:../../dependencies/STM32CubeL0/Drivers/STM32L0xx_HAL_Driver/Inc/stm32l0xx_ll_rcc.h **** __STATIC_INLINE void LL_RCC_PLL_Enable(void)
1785:../../dependencies/STM32CubeL0/Drivers/STM32L0xx_HAL_Driver/Inc/stm32l0xx_ll_rcc.h **** {
1786:../../dependencies/STM32CubeL0/Drivers/STM32L0xx_HAL_Driver/Inc/stm32l0xx_ll_rcc.h ****   SET_BIT(RCC->CR, RCC_CR_PLLON);
1787:../../dependencies/STM32CubeL0/Drivers/STM32L0xx_HAL_Driver/Inc/stm32l0xx_ll_rcc.h **** }
1788:../../dependencies/STM32CubeL0/Drivers/STM32L0xx_HAL_Driver/Inc/stm32l0xx_ll_rcc.h **** 
1789:../../dependencies/STM32CubeL0/Drivers/STM32L0xx_HAL_Driver/Inc/stm32l0xx_ll_rcc.h **** /**
1790:../../dependencies/STM32CubeL0/Drivers/STM32L0xx_HAL_Driver/Inc/stm32l0xx_ll_rcc.h ****   * @brief  Disable PLL
1791:../../dependencies/STM32CubeL0/Drivers/STM32L0xx_HAL_Driver/Inc/stm32l0xx_ll_rcc.h ****   * @note Cannot be disabled if the PLL clock is used as the system clock
1792:../../dependencies/STM32CubeL0/Drivers/STM32L0xx_HAL_Driver/Inc/stm32l0xx_ll_rcc.h ****   * @rmtoll CR           PLLON         LL_RCC_PLL_Disable
1793:../../dependencies/STM32CubeL0/Drivers/STM32L0xx_HAL_Driver/Inc/stm32l0xx_ll_rcc.h ****   * @retval None
1794:../../dependencies/STM32CubeL0/Drivers/STM32L0xx_HAL_Driver/Inc/stm32l0xx_ll_rcc.h ****   */
1795:../../dependencies/STM32CubeL0/Drivers/STM32L0xx_HAL_Driver/Inc/stm32l0xx_ll_rcc.h **** __STATIC_INLINE void LL_RCC_PLL_Disable(void)
1796:../../dependencies/STM32CubeL0/Drivers/STM32L0xx_HAL_Driver/Inc/stm32l0xx_ll_rcc.h **** {
1797:../../dependencies/STM32CubeL0/Drivers/STM32L0xx_HAL_Driver/Inc/stm32l0xx_ll_rcc.h ****   CLEAR_BIT(RCC->CR, RCC_CR_PLLON);
1798:../../dependencies/STM32CubeL0/Drivers/STM32L0xx_HAL_Driver/Inc/stm32l0xx_ll_rcc.h **** }
1799:../../dependencies/STM32CubeL0/Drivers/STM32L0xx_HAL_Driver/Inc/stm32l0xx_ll_rcc.h **** 
1800:../../dependencies/STM32CubeL0/Drivers/STM32L0xx_HAL_Driver/Inc/stm32l0xx_ll_rcc.h **** /**
1801:../../dependencies/STM32CubeL0/Drivers/STM32L0xx_HAL_Driver/Inc/stm32l0xx_ll_rcc.h ****   * @brief  Check if PLL Ready
1802:../../dependencies/STM32CubeL0/Drivers/STM32L0xx_HAL_Driver/Inc/stm32l0xx_ll_rcc.h ****   * @rmtoll CR           PLLRDY        LL_RCC_PLL_IsReady
1803:../../dependencies/STM32CubeL0/Drivers/STM32L0xx_HAL_Driver/Inc/stm32l0xx_ll_rcc.h ****   * @retval State of bit (1 or 0).
1804:../../dependencies/STM32CubeL0/Drivers/STM32L0xx_HAL_Driver/Inc/stm32l0xx_ll_rcc.h ****   */
1805:../../dependencies/STM32CubeL0/Drivers/STM32L0xx_HAL_Driver/Inc/stm32l0xx_ll_rcc.h **** __STATIC_INLINE uint32_t LL_RCC_PLL_IsReady(void)
1806:../../dependencies/STM32CubeL0/Drivers/STM32L0xx_HAL_Driver/Inc/stm32l0xx_ll_rcc.h **** {
 881              		.loc 1 1806 1
 882              		.cfi_startproc
 883              		@ args = 0, pretend = 0, frame = 0
 884              		@ frame_needed = 1, uses_anonymous_args = 0
 885 0000 80B5     		push	{r7, lr}
 886              		.cfi_def_cfa_offset 8
 887              		.cfi_offset 7, -8
 888              		.cfi_offset 14, -4
 889 0002 00AF     		add	r7, sp, #0
 890              		.cfi_def_cfa_register 7
1807:../../dependencies/STM32CubeL0/Drivers/STM32L0xx_HAL_Driver/Inc/stm32l0xx_ll_rcc.h ****   return ((READ_BIT(RCC->CR, RCC_CR_PLLRDY) == RCC_CR_PLLRDY) ? 1UL : 0UL);
 891              		.loc 1 1807 12
 892 0004 074B     		ldr	r3, .L90
 893 0006 1A68     		ldr	r2, [r3]
 894 0008 8023     		movs	r3, #128
 895 000a 9B04     		lsls	r3, r3, #18
 896 000c 1A40     		ands	r2, r3
 897              		.loc 1 1807 69
 898 000e 8023     		movs	r3, #128
 899 0010 9B04     		lsls	r3, r3, #18
 900 0012 9A42     		cmp	r2, r3
 901 0014 01D1     		bne	.L87
 902              		.loc 1 1807 69 is_stmt 0 discriminator 1
 903 0016 0123     		movs	r3, #1
 904 0018 00E0     		b	.L89
 905              	.L87:
 906              		.loc 1 1807 69 discriminator 2
 907 001a 0023     		movs	r3, #0
 908              	.L89:
1808:../../dependencies/STM32CubeL0/Drivers/STM32L0xx_HAL_Driver/Inc/stm32l0xx_ll_rcc.h **** }
 909              		.loc 1 1808 1 is_stmt 1 discriminator 5
 910 001c 1800     		movs	r0, r3
 911 001e BD46     		mov	sp, r7
 912              		@ sp needed
ARM GAS  /var/folders/fs/dxwfnrqj18z860lwl3d6f5t00000gn/T//ccl6Jv28.s 			page 48


 913 0020 80BD     		pop	{r7, pc}
 914              	.L91:
 915 0022 C046     		.align	2
 916              	.L90:
 917 0024 00100240 		.word	1073876992
 918              		.cfi_endproc
 919              	.LFE122:
 921              		.section	.text.LL_RCC_PLL_GetMainSource,"ax",%progbits
 922              		.align	1
 923              		.syntax unified
 924              		.code	16
 925              		.thumb_func
 926              		.fpu softvfp
 928              	LL_RCC_PLL_GetMainSource:
 929              	.LFB125:
1809:../../dependencies/STM32CubeL0/Drivers/STM32L0xx_HAL_Driver/Inc/stm32l0xx_ll_rcc.h **** 
1810:../../dependencies/STM32CubeL0/Drivers/STM32L0xx_HAL_Driver/Inc/stm32l0xx_ll_rcc.h **** /**
1811:../../dependencies/STM32CubeL0/Drivers/STM32L0xx_HAL_Driver/Inc/stm32l0xx_ll_rcc.h ****   * @brief  Configure PLL used for SYSCLK Domain
1812:../../dependencies/STM32CubeL0/Drivers/STM32L0xx_HAL_Driver/Inc/stm32l0xx_ll_rcc.h ****   * @rmtoll CFGR         PLLSRC        LL_RCC_PLL_ConfigDomain_SYS\n
1813:../../dependencies/STM32CubeL0/Drivers/STM32L0xx_HAL_Driver/Inc/stm32l0xx_ll_rcc.h ****   *         CFGR         PLLMUL        LL_RCC_PLL_ConfigDomain_SYS\n
1814:../../dependencies/STM32CubeL0/Drivers/STM32L0xx_HAL_Driver/Inc/stm32l0xx_ll_rcc.h ****   *         CFGR         PLLDIV        LL_RCC_PLL_ConfigDomain_SYS
1815:../../dependencies/STM32CubeL0/Drivers/STM32L0xx_HAL_Driver/Inc/stm32l0xx_ll_rcc.h ****   * @param  Source This parameter can be one of the following values:
1816:../../dependencies/STM32CubeL0/Drivers/STM32L0xx_HAL_Driver/Inc/stm32l0xx_ll_rcc.h ****   *         @arg @ref LL_RCC_PLLSOURCE_HSI
1817:../../dependencies/STM32CubeL0/Drivers/STM32L0xx_HAL_Driver/Inc/stm32l0xx_ll_rcc.h ****   *         @arg @ref LL_RCC_PLLSOURCE_HSE
1818:../../dependencies/STM32CubeL0/Drivers/STM32L0xx_HAL_Driver/Inc/stm32l0xx_ll_rcc.h ****   * @param  PLLMul This parameter can be one of the following values:
1819:../../dependencies/STM32CubeL0/Drivers/STM32L0xx_HAL_Driver/Inc/stm32l0xx_ll_rcc.h ****   *         @arg @ref LL_RCC_PLL_MUL_3
1820:../../dependencies/STM32CubeL0/Drivers/STM32L0xx_HAL_Driver/Inc/stm32l0xx_ll_rcc.h ****   *         @arg @ref LL_RCC_PLL_MUL_4
1821:../../dependencies/STM32CubeL0/Drivers/STM32L0xx_HAL_Driver/Inc/stm32l0xx_ll_rcc.h ****   *         @arg @ref LL_RCC_PLL_MUL_6
1822:../../dependencies/STM32CubeL0/Drivers/STM32L0xx_HAL_Driver/Inc/stm32l0xx_ll_rcc.h ****   *         @arg @ref LL_RCC_PLL_MUL_8
1823:../../dependencies/STM32CubeL0/Drivers/STM32L0xx_HAL_Driver/Inc/stm32l0xx_ll_rcc.h ****   *         @arg @ref LL_RCC_PLL_MUL_12
1824:../../dependencies/STM32CubeL0/Drivers/STM32L0xx_HAL_Driver/Inc/stm32l0xx_ll_rcc.h ****   *         @arg @ref LL_RCC_PLL_MUL_16
1825:../../dependencies/STM32CubeL0/Drivers/STM32L0xx_HAL_Driver/Inc/stm32l0xx_ll_rcc.h ****   *         @arg @ref LL_RCC_PLL_MUL_24
1826:../../dependencies/STM32CubeL0/Drivers/STM32L0xx_HAL_Driver/Inc/stm32l0xx_ll_rcc.h ****   *         @arg @ref LL_RCC_PLL_MUL_32
1827:../../dependencies/STM32CubeL0/Drivers/STM32L0xx_HAL_Driver/Inc/stm32l0xx_ll_rcc.h ****   *         @arg @ref LL_RCC_PLL_MUL_48
1828:../../dependencies/STM32CubeL0/Drivers/STM32L0xx_HAL_Driver/Inc/stm32l0xx_ll_rcc.h ****   * @param  PLLDiv This parameter can be one of the following values:
1829:../../dependencies/STM32CubeL0/Drivers/STM32L0xx_HAL_Driver/Inc/stm32l0xx_ll_rcc.h ****   *         @arg @ref LL_RCC_PLL_DIV_2
1830:../../dependencies/STM32CubeL0/Drivers/STM32L0xx_HAL_Driver/Inc/stm32l0xx_ll_rcc.h ****   *         @arg @ref LL_RCC_PLL_DIV_3
1831:../../dependencies/STM32CubeL0/Drivers/STM32L0xx_HAL_Driver/Inc/stm32l0xx_ll_rcc.h ****   *         @arg @ref LL_RCC_PLL_DIV_4
1832:../../dependencies/STM32CubeL0/Drivers/STM32L0xx_HAL_Driver/Inc/stm32l0xx_ll_rcc.h ****   * @retval None
1833:../../dependencies/STM32CubeL0/Drivers/STM32L0xx_HAL_Driver/Inc/stm32l0xx_ll_rcc.h ****   */
1834:../../dependencies/STM32CubeL0/Drivers/STM32L0xx_HAL_Driver/Inc/stm32l0xx_ll_rcc.h **** __STATIC_INLINE void LL_RCC_PLL_ConfigDomain_SYS(uint32_t Source, uint32_t PLLMul, uint32_t PLLDiv)
1835:../../dependencies/STM32CubeL0/Drivers/STM32L0xx_HAL_Driver/Inc/stm32l0xx_ll_rcc.h **** {
1836:../../dependencies/STM32CubeL0/Drivers/STM32L0xx_HAL_Driver/Inc/stm32l0xx_ll_rcc.h ****   MODIFY_REG(RCC->CFGR, RCC_CFGR_PLLSRC | RCC_CFGR_PLLMUL | RCC_CFGR_PLLDIV, Source | PLLMul | PLLD
1837:../../dependencies/STM32CubeL0/Drivers/STM32L0xx_HAL_Driver/Inc/stm32l0xx_ll_rcc.h **** }
1838:../../dependencies/STM32CubeL0/Drivers/STM32L0xx_HAL_Driver/Inc/stm32l0xx_ll_rcc.h **** 
1839:../../dependencies/STM32CubeL0/Drivers/STM32L0xx_HAL_Driver/Inc/stm32l0xx_ll_rcc.h **** /**
1840:../../dependencies/STM32CubeL0/Drivers/STM32L0xx_HAL_Driver/Inc/stm32l0xx_ll_rcc.h ****   * @brief  Configure PLL clock source
1841:../../dependencies/STM32CubeL0/Drivers/STM32L0xx_HAL_Driver/Inc/stm32l0xx_ll_rcc.h ****   * @rmtoll CFGR         PLLSRC        LL_RCC_PLL_SetMainSource
1842:../../dependencies/STM32CubeL0/Drivers/STM32L0xx_HAL_Driver/Inc/stm32l0xx_ll_rcc.h ****   * @param  PLLSource This parameter can be one of the following values:
1843:../../dependencies/STM32CubeL0/Drivers/STM32L0xx_HAL_Driver/Inc/stm32l0xx_ll_rcc.h ****   *         @arg @ref LL_RCC_PLLSOURCE_HSI
1844:../../dependencies/STM32CubeL0/Drivers/STM32L0xx_HAL_Driver/Inc/stm32l0xx_ll_rcc.h ****   *         @arg @ref LL_RCC_PLLSOURCE_HSE
1845:../../dependencies/STM32CubeL0/Drivers/STM32L0xx_HAL_Driver/Inc/stm32l0xx_ll_rcc.h ****   * @retval None
1846:../../dependencies/STM32CubeL0/Drivers/STM32L0xx_HAL_Driver/Inc/stm32l0xx_ll_rcc.h ****   */
1847:../../dependencies/STM32CubeL0/Drivers/STM32L0xx_HAL_Driver/Inc/stm32l0xx_ll_rcc.h **** __STATIC_INLINE void LL_RCC_PLL_SetMainSource(uint32_t PLLSource)
1848:../../dependencies/STM32CubeL0/Drivers/STM32L0xx_HAL_Driver/Inc/stm32l0xx_ll_rcc.h **** {
1849:../../dependencies/STM32CubeL0/Drivers/STM32L0xx_HAL_Driver/Inc/stm32l0xx_ll_rcc.h ****   MODIFY_REG(RCC->CFGR, RCC_CFGR_PLLSRC, PLLSource);
1850:../../dependencies/STM32CubeL0/Drivers/STM32L0xx_HAL_Driver/Inc/stm32l0xx_ll_rcc.h **** }
ARM GAS  /var/folders/fs/dxwfnrqj18z860lwl3d6f5t00000gn/T//ccl6Jv28.s 			page 49


1851:../../dependencies/STM32CubeL0/Drivers/STM32L0xx_HAL_Driver/Inc/stm32l0xx_ll_rcc.h **** 
1852:../../dependencies/STM32CubeL0/Drivers/STM32L0xx_HAL_Driver/Inc/stm32l0xx_ll_rcc.h **** /**
1853:../../dependencies/STM32CubeL0/Drivers/STM32L0xx_HAL_Driver/Inc/stm32l0xx_ll_rcc.h ****   * @brief  Get the oscillator used as PLL clock source.
1854:../../dependencies/STM32CubeL0/Drivers/STM32L0xx_HAL_Driver/Inc/stm32l0xx_ll_rcc.h ****   * @rmtoll CFGR         PLLSRC        LL_RCC_PLL_GetMainSource
1855:../../dependencies/STM32CubeL0/Drivers/STM32L0xx_HAL_Driver/Inc/stm32l0xx_ll_rcc.h ****   * @retval Returned value can be one of the following values:
1856:../../dependencies/STM32CubeL0/Drivers/STM32L0xx_HAL_Driver/Inc/stm32l0xx_ll_rcc.h ****   *         @arg @ref LL_RCC_PLLSOURCE_HSI
1857:../../dependencies/STM32CubeL0/Drivers/STM32L0xx_HAL_Driver/Inc/stm32l0xx_ll_rcc.h ****   *         @arg @ref LL_RCC_PLLSOURCE_HSE
1858:../../dependencies/STM32CubeL0/Drivers/STM32L0xx_HAL_Driver/Inc/stm32l0xx_ll_rcc.h ****   */
1859:../../dependencies/STM32CubeL0/Drivers/STM32L0xx_HAL_Driver/Inc/stm32l0xx_ll_rcc.h **** __STATIC_INLINE uint32_t LL_RCC_PLL_GetMainSource(void)
1860:../../dependencies/STM32CubeL0/Drivers/STM32L0xx_HAL_Driver/Inc/stm32l0xx_ll_rcc.h **** {
 930              		.loc 1 1860 1
 931              		.cfi_startproc
 932              		@ args = 0, pretend = 0, frame = 0
 933              		@ frame_needed = 1, uses_anonymous_args = 0
 934 0000 80B5     		push	{r7, lr}
 935              		.cfi_def_cfa_offset 8
 936              		.cfi_offset 7, -8
 937              		.cfi_offset 14, -4
 938 0002 00AF     		add	r7, sp, #0
 939              		.cfi_def_cfa_register 7
1861:../../dependencies/STM32CubeL0/Drivers/STM32L0xx_HAL_Driver/Inc/stm32l0xx_ll_rcc.h ****   return (uint32_t)(READ_BIT(RCC->CFGR, RCC_CFGR_PLLSRC));
 940              		.loc 1 1861 21
 941 0004 034B     		ldr	r3, .L94
 942 0006 DA68     		ldr	r2, [r3, #12]
 943              		.loc 1 1861 10
 944 0008 8023     		movs	r3, #128
 945 000a 5B02     		lsls	r3, r3, #9
 946 000c 1340     		ands	r3, r2
1862:../../dependencies/STM32CubeL0/Drivers/STM32L0xx_HAL_Driver/Inc/stm32l0xx_ll_rcc.h **** }
 947              		.loc 1 1862 1
 948 000e 1800     		movs	r0, r3
 949 0010 BD46     		mov	sp, r7
 950              		@ sp needed
 951 0012 80BD     		pop	{r7, pc}
 952              	.L95:
 953              		.align	2
 954              	.L94:
 955 0014 00100240 		.word	1073876992
 956              		.cfi_endproc
 957              	.LFE125:
 959              		.section	.text.LL_RCC_PLL_GetMultiplicator,"ax",%progbits
 960              		.align	1
 961              		.syntax unified
 962              		.code	16
 963              		.thumb_func
 964              		.fpu softvfp
 966              	LL_RCC_PLL_GetMultiplicator:
 967              	.LFB126:
1863:../../dependencies/STM32CubeL0/Drivers/STM32L0xx_HAL_Driver/Inc/stm32l0xx_ll_rcc.h **** 
1864:../../dependencies/STM32CubeL0/Drivers/STM32L0xx_HAL_Driver/Inc/stm32l0xx_ll_rcc.h **** /**
1865:../../dependencies/STM32CubeL0/Drivers/STM32L0xx_HAL_Driver/Inc/stm32l0xx_ll_rcc.h ****   * @brief  Get PLL multiplication Factor
1866:../../dependencies/STM32CubeL0/Drivers/STM32L0xx_HAL_Driver/Inc/stm32l0xx_ll_rcc.h ****   * @rmtoll CFGR         PLLMUL        LL_RCC_PLL_GetMultiplicator
1867:../../dependencies/STM32CubeL0/Drivers/STM32L0xx_HAL_Driver/Inc/stm32l0xx_ll_rcc.h ****   * @retval Returned value can be one of the following values:
1868:../../dependencies/STM32CubeL0/Drivers/STM32L0xx_HAL_Driver/Inc/stm32l0xx_ll_rcc.h ****   *         @arg @ref LL_RCC_PLL_MUL_3
1869:../../dependencies/STM32CubeL0/Drivers/STM32L0xx_HAL_Driver/Inc/stm32l0xx_ll_rcc.h ****   *         @arg @ref LL_RCC_PLL_MUL_4
1870:../../dependencies/STM32CubeL0/Drivers/STM32L0xx_HAL_Driver/Inc/stm32l0xx_ll_rcc.h ****   *         @arg @ref LL_RCC_PLL_MUL_6
1871:../../dependencies/STM32CubeL0/Drivers/STM32L0xx_HAL_Driver/Inc/stm32l0xx_ll_rcc.h ****   *         @arg @ref LL_RCC_PLL_MUL_8
ARM GAS  /var/folders/fs/dxwfnrqj18z860lwl3d6f5t00000gn/T//ccl6Jv28.s 			page 50


1872:../../dependencies/STM32CubeL0/Drivers/STM32L0xx_HAL_Driver/Inc/stm32l0xx_ll_rcc.h ****   *         @arg @ref LL_RCC_PLL_MUL_12
1873:../../dependencies/STM32CubeL0/Drivers/STM32L0xx_HAL_Driver/Inc/stm32l0xx_ll_rcc.h ****   *         @arg @ref LL_RCC_PLL_MUL_16
1874:../../dependencies/STM32CubeL0/Drivers/STM32L0xx_HAL_Driver/Inc/stm32l0xx_ll_rcc.h ****   *         @arg @ref LL_RCC_PLL_MUL_24
1875:../../dependencies/STM32CubeL0/Drivers/STM32L0xx_HAL_Driver/Inc/stm32l0xx_ll_rcc.h ****   *         @arg @ref LL_RCC_PLL_MUL_32
1876:../../dependencies/STM32CubeL0/Drivers/STM32L0xx_HAL_Driver/Inc/stm32l0xx_ll_rcc.h ****   *         @arg @ref LL_RCC_PLL_MUL_48
1877:../../dependencies/STM32CubeL0/Drivers/STM32L0xx_HAL_Driver/Inc/stm32l0xx_ll_rcc.h ****   */
1878:../../dependencies/STM32CubeL0/Drivers/STM32L0xx_HAL_Driver/Inc/stm32l0xx_ll_rcc.h **** __STATIC_INLINE uint32_t LL_RCC_PLL_GetMultiplicator(void)
1879:../../dependencies/STM32CubeL0/Drivers/STM32L0xx_HAL_Driver/Inc/stm32l0xx_ll_rcc.h **** {
 968              		.loc 1 1879 1
 969              		.cfi_startproc
 970              		@ args = 0, pretend = 0, frame = 0
 971              		@ frame_needed = 1, uses_anonymous_args = 0
 972 0000 80B5     		push	{r7, lr}
 973              		.cfi_def_cfa_offset 8
 974              		.cfi_offset 7, -8
 975              		.cfi_offset 14, -4
 976 0002 00AF     		add	r7, sp, #0
 977              		.cfi_def_cfa_register 7
1880:../../dependencies/STM32CubeL0/Drivers/STM32L0xx_HAL_Driver/Inc/stm32l0xx_ll_rcc.h ****   return (uint32_t)(READ_BIT(RCC->CFGR, RCC_CFGR_PLLMUL));
 978              		.loc 1 1880 21
 979 0004 034B     		ldr	r3, .L98
 980 0006 DA68     		ldr	r2, [r3, #12]
 981              		.loc 1 1880 10
 982 0008 F023     		movs	r3, #240
 983 000a 9B03     		lsls	r3, r3, #14
 984 000c 1340     		ands	r3, r2
1881:../../dependencies/STM32CubeL0/Drivers/STM32L0xx_HAL_Driver/Inc/stm32l0xx_ll_rcc.h **** }
 985              		.loc 1 1881 1
 986 000e 1800     		movs	r0, r3
 987 0010 BD46     		mov	sp, r7
 988              		@ sp needed
 989 0012 80BD     		pop	{r7, pc}
 990              	.L99:
 991              		.align	2
 992              	.L98:
 993 0014 00100240 		.word	1073876992
 994              		.cfi_endproc
 995              	.LFE126:
 997              		.section	.text.LL_RCC_PLL_GetDivider,"ax",%progbits
 998              		.align	1
 999              		.syntax unified
 1000              		.code	16
 1001              		.thumb_func
 1002              		.fpu softvfp
 1004              	LL_RCC_PLL_GetDivider:
 1005              	.LFB127:
1882:../../dependencies/STM32CubeL0/Drivers/STM32L0xx_HAL_Driver/Inc/stm32l0xx_ll_rcc.h **** 
1883:../../dependencies/STM32CubeL0/Drivers/STM32L0xx_HAL_Driver/Inc/stm32l0xx_ll_rcc.h **** /**
1884:../../dependencies/STM32CubeL0/Drivers/STM32L0xx_HAL_Driver/Inc/stm32l0xx_ll_rcc.h ****   * @brief  Get Division factor for the main PLL and other PLL
1885:../../dependencies/STM32CubeL0/Drivers/STM32L0xx_HAL_Driver/Inc/stm32l0xx_ll_rcc.h ****   * @rmtoll CFGR         PLLDIV        LL_RCC_PLL_GetDivider
1886:../../dependencies/STM32CubeL0/Drivers/STM32L0xx_HAL_Driver/Inc/stm32l0xx_ll_rcc.h ****   * @retval Returned value can be one of the following values:
1887:../../dependencies/STM32CubeL0/Drivers/STM32L0xx_HAL_Driver/Inc/stm32l0xx_ll_rcc.h ****   *         @arg @ref LL_RCC_PLL_DIV_2
1888:../../dependencies/STM32CubeL0/Drivers/STM32L0xx_HAL_Driver/Inc/stm32l0xx_ll_rcc.h ****   *         @arg @ref LL_RCC_PLL_DIV_3
1889:../../dependencies/STM32CubeL0/Drivers/STM32L0xx_HAL_Driver/Inc/stm32l0xx_ll_rcc.h ****   *         @arg @ref LL_RCC_PLL_DIV_4
1890:../../dependencies/STM32CubeL0/Drivers/STM32L0xx_HAL_Driver/Inc/stm32l0xx_ll_rcc.h ****   */
1891:../../dependencies/STM32CubeL0/Drivers/STM32L0xx_HAL_Driver/Inc/stm32l0xx_ll_rcc.h **** __STATIC_INLINE uint32_t LL_RCC_PLL_GetDivider(void)
1892:../../dependencies/STM32CubeL0/Drivers/STM32L0xx_HAL_Driver/Inc/stm32l0xx_ll_rcc.h **** {
ARM GAS  /var/folders/fs/dxwfnrqj18z860lwl3d6f5t00000gn/T//ccl6Jv28.s 			page 51


 1006              		.loc 1 1892 1
 1007              		.cfi_startproc
 1008              		@ args = 0, pretend = 0, frame = 0
 1009              		@ frame_needed = 1, uses_anonymous_args = 0
 1010 0000 80B5     		push	{r7, lr}
 1011              		.cfi_def_cfa_offset 8
 1012              		.cfi_offset 7, -8
 1013              		.cfi_offset 14, -4
 1014 0002 00AF     		add	r7, sp, #0
 1015              		.cfi_def_cfa_register 7
1893:../../dependencies/STM32CubeL0/Drivers/STM32L0xx_HAL_Driver/Inc/stm32l0xx_ll_rcc.h ****   return (uint32_t)(READ_BIT(RCC->CFGR, RCC_CFGR_PLLDIV));
 1016              		.loc 1 1893 21
 1017 0004 034B     		ldr	r3, .L102
 1018 0006 DA68     		ldr	r2, [r3, #12]
 1019              		.loc 1 1893 10
 1020 0008 C023     		movs	r3, #192
 1021 000a 1B04     		lsls	r3, r3, #16
 1022 000c 1340     		ands	r3, r2
1894:../../dependencies/STM32CubeL0/Drivers/STM32L0xx_HAL_Driver/Inc/stm32l0xx_ll_rcc.h **** }
 1023              		.loc 1 1894 1
 1024 000e 1800     		movs	r0, r3
 1025 0010 BD46     		mov	sp, r7
 1026              		@ sp needed
 1027 0012 80BD     		pop	{r7, pc}
 1028              	.L103:
 1029              		.align	2
 1030              	.L102:
 1031 0014 00100240 		.word	1073876992
 1032              		.cfi_endproc
 1033              	.LFE127:
 1035              		.section	.text.LL_RCC_IsActiveFlag_HSIDIV,"ax",%progbits
 1036              		.align	1
 1037              		.syntax unified
 1038              		.code	16
 1039              		.thumb_func
 1040              		.fpu softvfp
 1042              	LL_RCC_IsActiveFlag_HSIDIV:
 1043              	.LFB146:
1895:../../dependencies/STM32CubeL0/Drivers/STM32L0xx_HAL_Driver/Inc/stm32l0xx_ll_rcc.h **** 
1896:../../dependencies/STM32CubeL0/Drivers/STM32L0xx_HAL_Driver/Inc/stm32l0xx_ll_rcc.h **** /**
1897:../../dependencies/STM32CubeL0/Drivers/STM32L0xx_HAL_Driver/Inc/stm32l0xx_ll_rcc.h ****   * @}
1898:../../dependencies/STM32CubeL0/Drivers/STM32L0xx_HAL_Driver/Inc/stm32l0xx_ll_rcc.h ****   */
1899:../../dependencies/STM32CubeL0/Drivers/STM32L0xx_HAL_Driver/Inc/stm32l0xx_ll_rcc.h **** 
1900:../../dependencies/STM32CubeL0/Drivers/STM32L0xx_HAL_Driver/Inc/stm32l0xx_ll_rcc.h **** /** @defgroup RCC_LL_EF_FLAG_Management FLAG Management
1901:../../dependencies/STM32CubeL0/Drivers/STM32L0xx_HAL_Driver/Inc/stm32l0xx_ll_rcc.h ****   * @{
1902:../../dependencies/STM32CubeL0/Drivers/STM32L0xx_HAL_Driver/Inc/stm32l0xx_ll_rcc.h ****   */
1903:../../dependencies/STM32CubeL0/Drivers/STM32L0xx_HAL_Driver/Inc/stm32l0xx_ll_rcc.h **** 
1904:../../dependencies/STM32CubeL0/Drivers/STM32L0xx_HAL_Driver/Inc/stm32l0xx_ll_rcc.h **** /**
1905:../../dependencies/STM32CubeL0/Drivers/STM32L0xx_HAL_Driver/Inc/stm32l0xx_ll_rcc.h ****   * @brief  Clear LSI ready interrupt flag
1906:../../dependencies/STM32CubeL0/Drivers/STM32L0xx_HAL_Driver/Inc/stm32l0xx_ll_rcc.h ****   * @rmtoll CICR         LSIRDYC       LL_RCC_ClearFlag_LSIRDY
1907:../../dependencies/STM32CubeL0/Drivers/STM32L0xx_HAL_Driver/Inc/stm32l0xx_ll_rcc.h ****   * @retval None
1908:../../dependencies/STM32CubeL0/Drivers/STM32L0xx_HAL_Driver/Inc/stm32l0xx_ll_rcc.h ****   */
1909:../../dependencies/STM32CubeL0/Drivers/STM32L0xx_HAL_Driver/Inc/stm32l0xx_ll_rcc.h **** __STATIC_INLINE void LL_RCC_ClearFlag_LSIRDY(void)
1910:../../dependencies/STM32CubeL0/Drivers/STM32L0xx_HAL_Driver/Inc/stm32l0xx_ll_rcc.h **** {
1911:../../dependencies/STM32CubeL0/Drivers/STM32L0xx_HAL_Driver/Inc/stm32l0xx_ll_rcc.h ****   SET_BIT(RCC->CICR, RCC_CICR_LSIRDYC);
1912:../../dependencies/STM32CubeL0/Drivers/STM32L0xx_HAL_Driver/Inc/stm32l0xx_ll_rcc.h **** }
1913:../../dependencies/STM32CubeL0/Drivers/STM32L0xx_HAL_Driver/Inc/stm32l0xx_ll_rcc.h **** 
ARM GAS  /var/folders/fs/dxwfnrqj18z860lwl3d6f5t00000gn/T//ccl6Jv28.s 			page 52


1914:../../dependencies/STM32CubeL0/Drivers/STM32L0xx_HAL_Driver/Inc/stm32l0xx_ll_rcc.h **** /**
1915:../../dependencies/STM32CubeL0/Drivers/STM32L0xx_HAL_Driver/Inc/stm32l0xx_ll_rcc.h ****   * @brief  Clear LSE ready interrupt flag
1916:../../dependencies/STM32CubeL0/Drivers/STM32L0xx_HAL_Driver/Inc/stm32l0xx_ll_rcc.h ****   * @rmtoll CICR         LSERDYC       LL_RCC_ClearFlag_LSERDY
1917:../../dependencies/STM32CubeL0/Drivers/STM32L0xx_HAL_Driver/Inc/stm32l0xx_ll_rcc.h ****   * @retval None
1918:../../dependencies/STM32CubeL0/Drivers/STM32L0xx_HAL_Driver/Inc/stm32l0xx_ll_rcc.h ****   */
1919:../../dependencies/STM32CubeL0/Drivers/STM32L0xx_HAL_Driver/Inc/stm32l0xx_ll_rcc.h **** __STATIC_INLINE void LL_RCC_ClearFlag_LSERDY(void)
1920:../../dependencies/STM32CubeL0/Drivers/STM32L0xx_HAL_Driver/Inc/stm32l0xx_ll_rcc.h **** {
1921:../../dependencies/STM32CubeL0/Drivers/STM32L0xx_HAL_Driver/Inc/stm32l0xx_ll_rcc.h ****   SET_BIT(RCC->CICR, RCC_CICR_LSERDYC);
1922:../../dependencies/STM32CubeL0/Drivers/STM32L0xx_HAL_Driver/Inc/stm32l0xx_ll_rcc.h **** }
1923:../../dependencies/STM32CubeL0/Drivers/STM32L0xx_HAL_Driver/Inc/stm32l0xx_ll_rcc.h **** 
1924:../../dependencies/STM32CubeL0/Drivers/STM32L0xx_HAL_Driver/Inc/stm32l0xx_ll_rcc.h **** /**
1925:../../dependencies/STM32CubeL0/Drivers/STM32L0xx_HAL_Driver/Inc/stm32l0xx_ll_rcc.h ****   * @brief  Clear MSI ready interrupt flag
1926:../../dependencies/STM32CubeL0/Drivers/STM32L0xx_HAL_Driver/Inc/stm32l0xx_ll_rcc.h ****   * @rmtoll CICR         MSIRDYC       LL_RCC_ClearFlag_MSIRDY
1927:../../dependencies/STM32CubeL0/Drivers/STM32L0xx_HAL_Driver/Inc/stm32l0xx_ll_rcc.h ****   * @retval None
1928:../../dependencies/STM32CubeL0/Drivers/STM32L0xx_HAL_Driver/Inc/stm32l0xx_ll_rcc.h ****   */
1929:../../dependencies/STM32CubeL0/Drivers/STM32L0xx_HAL_Driver/Inc/stm32l0xx_ll_rcc.h **** __STATIC_INLINE void LL_RCC_ClearFlag_MSIRDY(void)
1930:../../dependencies/STM32CubeL0/Drivers/STM32L0xx_HAL_Driver/Inc/stm32l0xx_ll_rcc.h **** {
1931:../../dependencies/STM32CubeL0/Drivers/STM32L0xx_HAL_Driver/Inc/stm32l0xx_ll_rcc.h ****   SET_BIT(RCC->CICR, RCC_CICR_MSIRDYC);
1932:../../dependencies/STM32CubeL0/Drivers/STM32L0xx_HAL_Driver/Inc/stm32l0xx_ll_rcc.h **** }
1933:../../dependencies/STM32CubeL0/Drivers/STM32L0xx_HAL_Driver/Inc/stm32l0xx_ll_rcc.h **** 
1934:../../dependencies/STM32CubeL0/Drivers/STM32L0xx_HAL_Driver/Inc/stm32l0xx_ll_rcc.h **** /**
1935:../../dependencies/STM32CubeL0/Drivers/STM32L0xx_HAL_Driver/Inc/stm32l0xx_ll_rcc.h ****   * @brief  Clear HSI ready interrupt flag
1936:../../dependencies/STM32CubeL0/Drivers/STM32L0xx_HAL_Driver/Inc/stm32l0xx_ll_rcc.h ****   * @rmtoll CICR         HSIRDYC       LL_RCC_ClearFlag_HSIRDY
1937:../../dependencies/STM32CubeL0/Drivers/STM32L0xx_HAL_Driver/Inc/stm32l0xx_ll_rcc.h ****   * @retval None
1938:../../dependencies/STM32CubeL0/Drivers/STM32L0xx_HAL_Driver/Inc/stm32l0xx_ll_rcc.h ****   */
1939:../../dependencies/STM32CubeL0/Drivers/STM32L0xx_HAL_Driver/Inc/stm32l0xx_ll_rcc.h **** __STATIC_INLINE void LL_RCC_ClearFlag_HSIRDY(void)
1940:../../dependencies/STM32CubeL0/Drivers/STM32L0xx_HAL_Driver/Inc/stm32l0xx_ll_rcc.h **** {
1941:../../dependencies/STM32CubeL0/Drivers/STM32L0xx_HAL_Driver/Inc/stm32l0xx_ll_rcc.h ****   SET_BIT(RCC->CICR, RCC_CICR_HSIRDYC);
1942:../../dependencies/STM32CubeL0/Drivers/STM32L0xx_HAL_Driver/Inc/stm32l0xx_ll_rcc.h **** }
1943:../../dependencies/STM32CubeL0/Drivers/STM32L0xx_HAL_Driver/Inc/stm32l0xx_ll_rcc.h **** 
1944:../../dependencies/STM32CubeL0/Drivers/STM32L0xx_HAL_Driver/Inc/stm32l0xx_ll_rcc.h **** /**
1945:../../dependencies/STM32CubeL0/Drivers/STM32L0xx_HAL_Driver/Inc/stm32l0xx_ll_rcc.h ****   * @brief  Clear HSE ready interrupt flag
1946:../../dependencies/STM32CubeL0/Drivers/STM32L0xx_HAL_Driver/Inc/stm32l0xx_ll_rcc.h ****   * @rmtoll CICR         HSERDYC       LL_RCC_ClearFlag_HSERDY
1947:../../dependencies/STM32CubeL0/Drivers/STM32L0xx_HAL_Driver/Inc/stm32l0xx_ll_rcc.h ****   * @retval None
1948:../../dependencies/STM32CubeL0/Drivers/STM32L0xx_HAL_Driver/Inc/stm32l0xx_ll_rcc.h ****   */
1949:../../dependencies/STM32CubeL0/Drivers/STM32L0xx_HAL_Driver/Inc/stm32l0xx_ll_rcc.h **** __STATIC_INLINE void LL_RCC_ClearFlag_HSERDY(void)
1950:../../dependencies/STM32CubeL0/Drivers/STM32L0xx_HAL_Driver/Inc/stm32l0xx_ll_rcc.h **** {
1951:../../dependencies/STM32CubeL0/Drivers/STM32L0xx_HAL_Driver/Inc/stm32l0xx_ll_rcc.h ****   SET_BIT(RCC->CICR, RCC_CICR_HSERDYC);
1952:../../dependencies/STM32CubeL0/Drivers/STM32L0xx_HAL_Driver/Inc/stm32l0xx_ll_rcc.h **** }
1953:../../dependencies/STM32CubeL0/Drivers/STM32L0xx_HAL_Driver/Inc/stm32l0xx_ll_rcc.h **** 
1954:../../dependencies/STM32CubeL0/Drivers/STM32L0xx_HAL_Driver/Inc/stm32l0xx_ll_rcc.h **** /**
1955:../../dependencies/STM32CubeL0/Drivers/STM32L0xx_HAL_Driver/Inc/stm32l0xx_ll_rcc.h ****   * @brief  Clear PLL ready interrupt flag
1956:../../dependencies/STM32CubeL0/Drivers/STM32L0xx_HAL_Driver/Inc/stm32l0xx_ll_rcc.h ****   * @rmtoll CICR         PLLRDYC       LL_RCC_ClearFlag_PLLRDY
1957:../../dependencies/STM32CubeL0/Drivers/STM32L0xx_HAL_Driver/Inc/stm32l0xx_ll_rcc.h ****   * @retval None
1958:../../dependencies/STM32CubeL0/Drivers/STM32L0xx_HAL_Driver/Inc/stm32l0xx_ll_rcc.h ****   */
1959:../../dependencies/STM32CubeL0/Drivers/STM32L0xx_HAL_Driver/Inc/stm32l0xx_ll_rcc.h **** __STATIC_INLINE void LL_RCC_ClearFlag_PLLRDY(void)
1960:../../dependencies/STM32CubeL0/Drivers/STM32L0xx_HAL_Driver/Inc/stm32l0xx_ll_rcc.h **** {
1961:../../dependencies/STM32CubeL0/Drivers/STM32L0xx_HAL_Driver/Inc/stm32l0xx_ll_rcc.h ****   SET_BIT(RCC->CICR, RCC_CICR_PLLRDYC);
1962:../../dependencies/STM32CubeL0/Drivers/STM32L0xx_HAL_Driver/Inc/stm32l0xx_ll_rcc.h **** }
1963:../../dependencies/STM32CubeL0/Drivers/STM32L0xx_HAL_Driver/Inc/stm32l0xx_ll_rcc.h **** 
1964:../../dependencies/STM32CubeL0/Drivers/STM32L0xx_HAL_Driver/Inc/stm32l0xx_ll_rcc.h **** #if defined(RCC_HSI48_SUPPORT)
1965:../../dependencies/STM32CubeL0/Drivers/STM32L0xx_HAL_Driver/Inc/stm32l0xx_ll_rcc.h **** /**
1966:../../dependencies/STM32CubeL0/Drivers/STM32L0xx_HAL_Driver/Inc/stm32l0xx_ll_rcc.h ****   * @brief  Clear HSI48 ready interrupt flag
1967:../../dependencies/STM32CubeL0/Drivers/STM32L0xx_HAL_Driver/Inc/stm32l0xx_ll_rcc.h ****   * @rmtoll CICR          HSI48RDYC     LL_RCC_ClearFlag_HSI48RDY
1968:../../dependencies/STM32CubeL0/Drivers/STM32L0xx_HAL_Driver/Inc/stm32l0xx_ll_rcc.h ****   * @retval None
1969:../../dependencies/STM32CubeL0/Drivers/STM32L0xx_HAL_Driver/Inc/stm32l0xx_ll_rcc.h ****   */
1970:../../dependencies/STM32CubeL0/Drivers/STM32L0xx_HAL_Driver/Inc/stm32l0xx_ll_rcc.h **** __STATIC_INLINE void LL_RCC_ClearFlag_HSI48RDY(void)
ARM GAS  /var/folders/fs/dxwfnrqj18z860lwl3d6f5t00000gn/T//ccl6Jv28.s 			page 53


1971:../../dependencies/STM32CubeL0/Drivers/STM32L0xx_HAL_Driver/Inc/stm32l0xx_ll_rcc.h **** {
1972:../../dependencies/STM32CubeL0/Drivers/STM32L0xx_HAL_Driver/Inc/stm32l0xx_ll_rcc.h ****   SET_BIT(RCC->CICR, RCC_CICR_HSI48RDYC);
1973:../../dependencies/STM32CubeL0/Drivers/STM32L0xx_HAL_Driver/Inc/stm32l0xx_ll_rcc.h **** }
1974:../../dependencies/STM32CubeL0/Drivers/STM32L0xx_HAL_Driver/Inc/stm32l0xx_ll_rcc.h **** #endif /* RCC_HSI48_SUPPORT */
1975:../../dependencies/STM32CubeL0/Drivers/STM32L0xx_HAL_Driver/Inc/stm32l0xx_ll_rcc.h **** 
1976:../../dependencies/STM32CubeL0/Drivers/STM32L0xx_HAL_Driver/Inc/stm32l0xx_ll_rcc.h **** #if defined(RCC_HSECSS_SUPPORT)
1977:../../dependencies/STM32CubeL0/Drivers/STM32L0xx_HAL_Driver/Inc/stm32l0xx_ll_rcc.h **** /**
1978:../../dependencies/STM32CubeL0/Drivers/STM32L0xx_HAL_Driver/Inc/stm32l0xx_ll_rcc.h ****   * @brief  Clear Clock security system interrupt flag
1979:../../dependencies/STM32CubeL0/Drivers/STM32L0xx_HAL_Driver/Inc/stm32l0xx_ll_rcc.h ****   * @rmtoll CICR         CSSC          LL_RCC_ClearFlag_HSECSS
1980:../../dependencies/STM32CubeL0/Drivers/STM32L0xx_HAL_Driver/Inc/stm32l0xx_ll_rcc.h ****   * @retval None
1981:../../dependencies/STM32CubeL0/Drivers/STM32L0xx_HAL_Driver/Inc/stm32l0xx_ll_rcc.h ****   */
1982:../../dependencies/STM32CubeL0/Drivers/STM32L0xx_HAL_Driver/Inc/stm32l0xx_ll_rcc.h **** __STATIC_INLINE void LL_RCC_ClearFlag_HSECSS(void)
1983:../../dependencies/STM32CubeL0/Drivers/STM32L0xx_HAL_Driver/Inc/stm32l0xx_ll_rcc.h **** {
1984:../../dependencies/STM32CubeL0/Drivers/STM32L0xx_HAL_Driver/Inc/stm32l0xx_ll_rcc.h ****   SET_BIT(RCC->CICR, RCC_CICR_CSSC);
1985:../../dependencies/STM32CubeL0/Drivers/STM32L0xx_HAL_Driver/Inc/stm32l0xx_ll_rcc.h **** }
1986:../../dependencies/STM32CubeL0/Drivers/STM32L0xx_HAL_Driver/Inc/stm32l0xx_ll_rcc.h **** #endif /* RCC_HSECSS_SUPPORT */
1987:../../dependencies/STM32CubeL0/Drivers/STM32L0xx_HAL_Driver/Inc/stm32l0xx_ll_rcc.h **** 
1988:../../dependencies/STM32CubeL0/Drivers/STM32L0xx_HAL_Driver/Inc/stm32l0xx_ll_rcc.h **** /**
1989:../../dependencies/STM32CubeL0/Drivers/STM32L0xx_HAL_Driver/Inc/stm32l0xx_ll_rcc.h ****   * @brief  Clear LSE Clock security system interrupt flag
1990:../../dependencies/STM32CubeL0/Drivers/STM32L0xx_HAL_Driver/Inc/stm32l0xx_ll_rcc.h ****   * @rmtoll CICR         LSECSSC       LL_RCC_ClearFlag_LSECSS
1991:../../dependencies/STM32CubeL0/Drivers/STM32L0xx_HAL_Driver/Inc/stm32l0xx_ll_rcc.h ****   * @retval None
1992:../../dependencies/STM32CubeL0/Drivers/STM32L0xx_HAL_Driver/Inc/stm32l0xx_ll_rcc.h ****   */
1993:../../dependencies/STM32CubeL0/Drivers/STM32L0xx_HAL_Driver/Inc/stm32l0xx_ll_rcc.h **** __STATIC_INLINE void LL_RCC_ClearFlag_LSECSS(void)
1994:../../dependencies/STM32CubeL0/Drivers/STM32L0xx_HAL_Driver/Inc/stm32l0xx_ll_rcc.h **** {
1995:../../dependencies/STM32CubeL0/Drivers/STM32L0xx_HAL_Driver/Inc/stm32l0xx_ll_rcc.h ****   SET_BIT(RCC->CICR, RCC_CICR_LSECSSC);
1996:../../dependencies/STM32CubeL0/Drivers/STM32L0xx_HAL_Driver/Inc/stm32l0xx_ll_rcc.h **** }
1997:../../dependencies/STM32CubeL0/Drivers/STM32L0xx_HAL_Driver/Inc/stm32l0xx_ll_rcc.h **** 
1998:../../dependencies/STM32CubeL0/Drivers/STM32L0xx_HAL_Driver/Inc/stm32l0xx_ll_rcc.h **** /**
1999:../../dependencies/STM32CubeL0/Drivers/STM32L0xx_HAL_Driver/Inc/stm32l0xx_ll_rcc.h ****   * @brief  Check if LSI ready interrupt occurred or not
2000:../../dependencies/STM32CubeL0/Drivers/STM32L0xx_HAL_Driver/Inc/stm32l0xx_ll_rcc.h ****   * @rmtoll CIFR         LSIRDYF       LL_RCC_IsActiveFlag_LSIRDY
2001:../../dependencies/STM32CubeL0/Drivers/STM32L0xx_HAL_Driver/Inc/stm32l0xx_ll_rcc.h ****   * @retval State of bit (1 or 0).
2002:../../dependencies/STM32CubeL0/Drivers/STM32L0xx_HAL_Driver/Inc/stm32l0xx_ll_rcc.h ****   */
2003:../../dependencies/STM32CubeL0/Drivers/STM32L0xx_HAL_Driver/Inc/stm32l0xx_ll_rcc.h **** __STATIC_INLINE uint32_t LL_RCC_IsActiveFlag_LSIRDY(void)
2004:../../dependencies/STM32CubeL0/Drivers/STM32L0xx_HAL_Driver/Inc/stm32l0xx_ll_rcc.h **** {
2005:../../dependencies/STM32CubeL0/Drivers/STM32L0xx_HAL_Driver/Inc/stm32l0xx_ll_rcc.h ****   return ((READ_BIT(RCC->CIFR, RCC_CIFR_LSIRDYF) == RCC_CIFR_LSIRDYF) ? 1UL : 0UL);
2006:../../dependencies/STM32CubeL0/Drivers/STM32L0xx_HAL_Driver/Inc/stm32l0xx_ll_rcc.h **** }
2007:../../dependencies/STM32CubeL0/Drivers/STM32L0xx_HAL_Driver/Inc/stm32l0xx_ll_rcc.h **** 
2008:../../dependencies/STM32CubeL0/Drivers/STM32L0xx_HAL_Driver/Inc/stm32l0xx_ll_rcc.h **** /**
2009:../../dependencies/STM32CubeL0/Drivers/STM32L0xx_HAL_Driver/Inc/stm32l0xx_ll_rcc.h ****   * @brief  Check if LSE ready interrupt occurred or not
2010:../../dependencies/STM32CubeL0/Drivers/STM32L0xx_HAL_Driver/Inc/stm32l0xx_ll_rcc.h ****   * @rmtoll CIFR         LSERDYF       LL_RCC_IsActiveFlag_LSERDY
2011:../../dependencies/STM32CubeL0/Drivers/STM32L0xx_HAL_Driver/Inc/stm32l0xx_ll_rcc.h ****   * @retval State of bit (1 or 0).
2012:../../dependencies/STM32CubeL0/Drivers/STM32L0xx_HAL_Driver/Inc/stm32l0xx_ll_rcc.h ****   */
2013:../../dependencies/STM32CubeL0/Drivers/STM32L0xx_HAL_Driver/Inc/stm32l0xx_ll_rcc.h **** __STATIC_INLINE uint32_t LL_RCC_IsActiveFlag_LSERDY(void)
2014:../../dependencies/STM32CubeL0/Drivers/STM32L0xx_HAL_Driver/Inc/stm32l0xx_ll_rcc.h **** {
2015:../../dependencies/STM32CubeL0/Drivers/STM32L0xx_HAL_Driver/Inc/stm32l0xx_ll_rcc.h ****   return ((READ_BIT(RCC->CIFR, RCC_CIFR_LSERDYF) == RCC_CIFR_LSERDYF) ? 1UL : 0UL);
2016:../../dependencies/STM32CubeL0/Drivers/STM32L0xx_HAL_Driver/Inc/stm32l0xx_ll_rcc.h **** }
2017:../../dependencies/STM32CubeL0/Drivers/STM32L0xx_HAL_Driver/Inc/stm32l0xx_ll_rcc.h **** 
2018:../../dependencies/STM32CubeL0/Drivers/STM32L0xx_HAL_Driver/Inc/stm32l0xx_ll_rcc.h **** /**
2019:../../dependencies/STM32CubeL0/Drivers/STM32L0xx_HAL_Driver/Inc/stm32l0xx_ll_rcc.h ****   * @brief  Check if MSI ready interrupt occurred or not
2020:../../dependencies/STM32CubeL0/Drivers/STM32L0xx_HAL_Driver/Inc/stm32l0xx_ll_rcc.h ****   * @rmtoll CIFR         MSIRDYF       LL_RCC_IsActiveFlag_MSIRDY
2021:../../dependencies/STM32CubeL0/Drivers/STM32L0xx_HAL_Driver/Inc/stm32l0xx_ll_rcc.h ****   * @retval State of bit (1 or 0).
2022:../../dependencies/STM32CubeL0/Drivers/STM32L0xx_HAL_Driver/Inc/stm32l0xx_ll_rcc.h ****   */
2023:../../dependencies/STM32CubeL0/Drivers/STM32L0xx_HAL_Driver/Inc/stm32l0xx_ll_rcc.h **** __STATIC_INLINE uint32_t LL_RCC_IsActiveFlag_MSIRDY(void)
2024:../../dependencies/STM32CubeL0/Drivers/STM32L0xx_HAL_Driver/Inc/stm32l0xx_ll_rcc.h **** {
2025:../../dependencies/STM32CubeL0/Drivers/STM32L0xx_HAL_Driver/Inc/stm32l0xx_ll_rcc.h ****   return ((READ_BIT(RCC->CIFR, RCC_CIFR_MSIRDYF) == RCC_CIFR_MSIRDYF) ? 1UL : 0UL);
2026:../../dependencies/STM32CubeL0/Drivers/STM32L0xx_HAL_Driver/Inc/stm32l0xx_ll_rcc.h **** }
2027:../../dependencies/STM32CubeL0/Drivers/STM32L0xx_HAL_Driver/Inc/stm32l0xx_ll_rcc.h **** 
ARM GAS  /var/folders/fs/dxwfnrqj18z860lwl3d6f5t00000gn/T//ccl6Jv28.s 			page 54


2028:../../dependencies/STM32CubeL0/Drivers/STM32L0xx_HAL_Driver/Inc/stm32l0xx_ll_rcc.h **** /**
2029:../../dependencies/STM32CubeL0/Drivers/STM32L0xx_HAL_Driver/Inc/stm32l0xx_ll_rcc.h ****   * @brief  Check if HSI ready interrupt occurred or not
2030:../../dependencies/STM32CubeL0/Drivers/STM32L0xx_HAL_Driver/Inc/stm32l0xx_ll_rcc.h ****   * @rmtoll CIFR         HSIRDYF       LL_RCC_IsActiveFlag_HSIRDY
2031:../../dependencies/STM32CubeL0/Drivers/STM32L0xx_HAL_Driver/Inc/stm32l0xx_ll_rcc.h ****   * @retval State of bit (1 or 0).
2032:../../dependencies/STM32CubeL0/Drivers/STM32L0xx_HAL_Driver/Inc/stm32l0xx_ll_rcc.h ****   */
2033:../../dependencies/STM32CubeL0/Drivers/STM32L0xx_HAL_Driver/Inc/stm32l0xx_ll_rcc.h **** __STATIC_INLINE uint32_t LL_RCC_IsActiveFlag_HSIRDY(void)
2034:../../dependencies/STM32CubeL0/Drivers/STM32L0xx_HAL_Driver/Inc/stm32l0xx_ll_rcc.h **** {
2035:../../dependencies/STM32CubeL0/Drivers/STM32L0xx_HAL_Driver/Inc/stm32l0xx_ll_rcc.h ****   return ((READ_BIT(RCC->CIFR, RCC_CIFR_HSIRDYF) == RCC_CIFR_HSIRDYF) ? 1UL : 0UL);
2036:../../dependencies/STM32CubeL0/Drivers/STM32L0xx_HAL_Driver/Inc/stm32l0xx_ll_rcc.h **** }
2037:../../dependencies/STM32CubeL0/Drivers/STM32L0xx_HAL_Driver/Inc/stm32l0xx_ll_rcc.h **** 
2038:../../dependencies/STM32CubeL0/Drivers/STM32L0xx_HAL_Driver/Inc/stm32l0xx_ll_rcc.h **** /**
2039:../../dependencies/STM32CubeL0/Drivers/STM32L0xx_HAL_Driver/Inc/stm32l0xx_ll_rcc.h ****   * @brief  Check if HSE ready interrupt occurred or not
2040:../../dependencies/STM32CubeL0/Drivers/STM32L0xx_HAL_Driver/Inc/stm32l0xx_ll_rcc.h ****   * @rmtoll CIFR         HSERDYF       LL_RCC_IsActiveFlag_HSERDY
2041:../../dependencies/STM32CubeL0/Drivers/STM32L0xx_HAL_Driver/Inc/stm32l0xx_ll_rcc.h ****   * @retval State of bit (1 or 0).
2042:../../dependencies/STM32CubeL0/Drivers/STM32L0xx_HAL_Driver/Inc/stm32l0xx_ll_rcc.h ****   */
2043:../../dependencies/STM32CubeL0/Drivers/STM32L0xx_HAL_Driver/Inc/stm32l0xx_ll_rcc.h **** __STATIC_INLINE uint32_t LL_RCC_IsActiveFlag_HSERDY(void)
2044:../../dependencies/STM32CubeL0/Drivers/STM32L0xx_HAL_Driver/Inc/stm32l0xx_ll_rcc.h **** {
2045:../../dependencies/STM32CubeL0/Drivers/STM32L0xx_HAL_Driver/Inc/stm32l0xx_ll_rcc.h ****   return ((READ_BIT(RCC->CIFR, RCC_CIFR_HSERDYF) == RCC_CIFR_HSERDYF) ? 1UL : 0UL);
2046:../../dependencies/STM32CubeL0/Drivers/STM32L0xx_HAL_Driver/Inc/stm32l0xx_ll_rcc.h **** }
2047:../../dependencies/STM32CubeL0/Drivers/STM32L0xx_HAL_Driver/Inc/stm32l0xx_ll_rcc.h **** 
2048:../../dependencies/STM32CubeL0/Drivers/STM32L0xx_HAL_Driver/Inc/stm32l0xx_ll_rcc.h **** /**
2049:../../dependencies/STM32CubeL0/Drivers/STM32L0xx_HAL_Driver/Inc/stm32l0xx_ll_rcc.h ****   * @brief  Check if PLL ready interrupt occurred or not
2050:../../dependencies/STM32CubeL0/Drivers/STM32L0xx_HAL_Driver/Inc/stm32l0xx_ll_rcc.h ****   * @rmtoll CIFR         PLLRDYF       LL_RCC_IsActiveFlag_PLLRDY
2051:../../dependencies/STM32CubeL0/Drivers/STM32L0xx_HAL_Driver/Inc/stm32l0xx_ll_rcc.h ****   * @retval State of bit (1 or 0).
2052:../../dependencies/STM32CubeL0/Drivers/STM32L0xx_HAL_Driver/Inc/stm32l0xx_ll_rcc.h ****   */
2053:../../dependencies/STM32CubeL0/Drivers/STM32L0xx_HAL_Driver/Inc/stm32l0xx_ll_rcc.h **** __STATIC_INLINE uint32_t LL_RCC_IsActiveFlag_PLLRDY(void)
2054:../../dependencies/STM32CubeL0/Drivers/STM32L0xx_HAL_Driver/Inc/stm32l0xx_ll_rcc.h **** {
2055:../../dependencies/STM32CubeL0/Drivers/STM32L0xx_HAL_Driver/Inc/stm32l0xx_ll_rcc.h ****   return ((READ_BIT(RCC->CIFR, RCC_CIFR_PLLRDYF) == RCC_CIFR_PLLRDYF) ? 1UL : 0UL);
2056:../../dependencies/STM32CubeL0/Drivers/STM32L0xx_HAL_Driver/Inc/stm32l0xx_ll_rcc.h **** }
2057:../../dependencies/STM32CubeL0/Drivers/STM32L0xx_HAL_Driver/Inc/stm32l0xx_ll_rcc.h **** 
2058:../../dependencies/STM32CubeL0/Drivers/STM32L0xx_HAL_Driver/Inc/stm32l0xx_ll_rcc.h **** #if defined(RCC_HSI48_SUPPORT)
2059:../../dependencies/STM32CubeL0/Drivers/STM32L0xx_HAL_Driver/Inc/stm32l0xx_ll_rcc.h **** /**
2060:../../dependencies/STM32CubeL0/Drivers/STM32L0xx_HAL_Driver/Inc/stm32l0xx_ll_rcc.h ****   * @brief  Check if HSI48 ready interrupt occurred or not
2061:../../dependencies/STM32CubeL0/Drivers/STM32L0xx_HAL_Driver/Inc/stm32l0xx_ll_rcc.h ****   * @rmtoll CIFR          HSI48RDYF     LL_RCC_IsActiveFlag_HSI48RDY
2062:../../dependencies/STM32CubeL0/Drivers/STM32L0xx_HAL_Driver/Inc/stm32l0xx_ll_rcc.h ****   * @retval State of bit (1 or 0).
2063:../../dependencies/STM32CubeL0/Drivers/STM32L0xx_HAL_Driver/Inc/stm32l0xx_ll_rcc.h ****   */
2064:../../dependencies/STM32CubeL0/Drivers/STM32L0xx_HAL_Driver/Inc/stm32l0xx_ll_rcc.h **** __STATIC_INLINE uint32_t LL_RCC_IsActiveFlag_HSI48RDY(void)
2065:../../dependencies/STM32CubeL0/Drivers/STM32L0xx_HAL_Driver/Inc/stm32l0xx_ll_rcc.h **** {
2066:../../dependencies/STM32CubeL0/Drivers/STM32L0xx_HAL_Driver/Inc/stm32l0xx_ll_rcc.h ****   return ((READ_BIT(RCC->CIFR, RCC_CIFR_HSI48RDYF) == RCC_CIFR_HSI48RDYF) ? 1UL : 0UL);
2067:../../dependencies/STM32CubeL0/Drivers/STM32L0xx_HAL_Driver/Inc/stm32l0xx_ll_rcc.h **** }
2068:../../dependencies/STM32CubeL0/Drivers/STM32L0xx_HAL_Driver/Inc/stm32l0xx_ll_rcc.h **** #endif /* RCC_HSI48_SUPPORT */
2069:../../dependencies/STM32CubeL0/Drivers/STM32L0xx_HAL_Driver/Inc/stm32l0xx_ll_rcc.h **** 
2070:../../dependencies/STM32CubeL0/Drivers/STM32L0xx_HAL_Driver/Inc/stm32l0xx_ll_rcc.h **** #if defined(RCC_HSECSS_SUPPORT)
2071:../../dependencies/STM32CubeL0/Drivers/STM32L0xx_HAL_Driver/Inc/stm32l0xx_ll_rcc.h **** /**
2072:../../dependencies/STM32CubeL0/Drivers/STM32L0xx_HAL_Driver/Inc/stm32l0xx_ll_rcc.h ****   * @brief  Check if Clock security system interrupt occurred or not
2073:../../dependencies/STM32CubeL0/Drivers/STM32L0xx_HAL_Driver/Inc/stm32l0xx_ll_rcc.h ****   * @rmtoll CIFR         CSSF          LL_RCC_IsActiveFlag_HSECSS
2074:../../dependencies/STM32CubeL0/Drivers/STM32L0xx_HAL_Driver/Inc/stm32l0xx_ll_rcc.h ****   * @retval State of bit (1 or 0).
2075:../../dependencies/STM32CubeL0/Drivers/STM32L0xx_HAL_Driver/Inc/stm32l0xx_ll_rcc.h ****   */
2076:../../dependencies/STM32CubeL0/Drivers/STM32L0xx_HAL_Driver/Inc/stm32l0xx_ll_rcc.h **** __STATIC_INLINE uint32_t LL_RCC_IsActiveFlag_HSECSS(void)
2077:../../dependencies/STM32CubeL0/Drivers/STM32L0xx_HAL_Driver/Inc/stm32l0xx_ll_rcc.h **** {
2078:../../dependencies/STM32CubeL0/Drivers/STM32L0xx_HAL_Driver/Inc/stm32l0xx_ll_rcc.h ****   return ((READ_BIT(RCC->CIFR, RCC_CIFR_CSSF) == RCC_CIFR_CSSF) ? 1UL : 0UL);
2079:../../dependencies/STM32CubeL0/Drivers/STM32L0xx_HAL_Driver/Inc/stm32l0xx_ll_rcc.h **** }
2080:../../dependencies/STM32CubeL0/Drivers/STM32L0xx_HAL_Driver/Inc/stm32l0xx_ll_rcc.h **** #endif /* RCC_HSECSS_SUPPORT */
2081:../../dependencies/STM32CubeL0/Drivers/STM32L0xx_HAL_Driver/Inc/stm32l0xx_ll_rcc.h **** 
2082:../../dependencies/STM32CubeL0/Drivers/STM32L0xx_HAL_Driver/Inc/stm32l0xx_ll_rcc.h **** /**
2083:../../dependencies/STM32CubeL0/Drivers/STM32L0xx_HAL_Driver/Inc/stm32l0xx_ll_rcc.h ****   * @brief  Check if LSE Clock security system interrupt occurred or not
2084:../../dependencies/STM32CubeL0/Drivers/STM32L0xx_HAL_Driver/Inc/stm32l0xx_ll_rcc.h ****   * @rmtoll CIFR         LSECSSF       LL_RCC_IsActiveFlag_LSECSS
ARM GAS  /var/folders/fs/dxwfnrqj18z860lwl3d6f5t00000gn/T//ccl6Jv28.s 			page 55


2085:../../dependencies/STM32CubeL0/Drivers/STM32L0xx_HAL_Driver/Inc/stm32l0xx_ll_rcc.h ****   * @retval State of bit (1 or 0).
2086:../../dependencies/STM32CubeL0/Drivers/STM32L0xx_HAL_Driver/Inc/stm32l0xx_ll_rcc.h ****   */
2087:../../dependencies/STM32CubeL0/Drivers/STM32L0xx_HAL_Driver/Inc/stm32l0xx_ll_rcc.h **** __STATIC_INLINE uint32_t LL_RCC_IsActiveFlag_LSECSS(void)
2088:../../dependencies/STM32CubeL0/Drivers/STM32L0xx_HAL_Driver/Inc/stm32l0xx_ll_rcc.h **** {
2089:../../dependencies/STM32CubeL0/Drivers/STM32L0xx_HAL_Driver/Inc/stm32l0xx_ll_rcc.h ****   return ((READ_BIT(RCC->CIFR, RCC_CIFR_LSECSSF) == RCC_CIFR_LSECSSF) ? 1UL : 0UL);
2090:../../dependencies/STM32CubeL0/Drivers/STM32L0xx_HAL_Driver/Inc/stm32l0xx_ll_rcc.h **** }
2091:../../dependencies/STM32CubeL0/Drivers/STM32L0xx_HAL_Driver/Inc/stm32l0xx_ll_rcc.h **** 
2092:../../dependencies/STM32CubeL0/Drivers/STM32L0xx_HAL_Driver/Inc/stm32l0xx_ll_rcc.h **** /**
2093:../../dependencies/STM32CubeL0/Drivers/STM32L0xx_HAL_Driver/Inc/stm32l0xx_ll_rcc.h ****   * @brief  Check if HSI Divider is enabled (it divides by 4)
2094:../../dependencies/STM32CubeL0/Drivers/STM32L0xx_HAL_Driver/Inc/stm32l0xx_ll_rcc.h ****   * @rmtoll CR        HSIDIVF        LL_RCC_IsActiveFlag_HSIDIV
2095:../../dependencies/STM32CubeL0/Drivers/STM32L0xx_HAL_Driver/Inc/stm32l0xx_ll_rcc.h ****   * @retval State of bit (1 or 0).
2096:../../dependencies/STM32CubeL0/Drivers/STM32L0xx_HAL_Driver/Inc/stm32l0xx_ll_rcc.h ****   */
2097:../../dependencies/STM32CubeL0/Drivers/STM32L0xx_HAL_Driver/Inc/stm32l0xx_ll_rcc.h **** __STATIC_INLINE uint32_t LL_RCC_IsActiveFlag_HSIDIV(void)
2098:../../dependencies/STM32CubeL0/Drivers/STM32L0xx_HAL_Driver/Inc/stm32l0xx_ll_rcc.h **** {
 1044              		.loc 1 2098 1
 1045              		.cfi_startproc
 1046              		@ args = 0, pretend = 0, frame = 0
 1047              		@ frame_needed = 1, uses_anonymous_args = 0
 1048 0000 80B5     		push	{r7, lr}
 1049              		.cfi_def_cfa_offset 8
 1050              		.cfi_offset 7, -8
 1051              		.cfi_offset 14, -4
 1052 0002 00AF     		add	r7, sp, #0
 1053              		.cfi_def_cfa_register 7
2099:../../dependencies/STM32CubeL0/Drivers/STM32L0xx_HAL_Driver/Inc/stm32l0xx_ll_rcc.h ****   return ((READ_BIT(RCC->CR, RCC_CR_HSIDIVF) == RCC_CR_HSIDIVF) ? 1UL : 0UL);
 1054              		.loc 1 2099 12
 1055 0004 054B     		ldr	r3, .L108
 1056 0006 1B68     		ldr	r3, [r3]
 1057 0008 1022     		movs	r2, #16
 1058 000a 1340     		ands	r3, r2
 1059              		.loc 1 2099 71
 1060 000c 102B     		cmp	r3, #16
 1061 000e 01D1     		bne	.L105
 1062              		.loc 1 2099 71 is_stmt 0 discriminator 1
 1063 0010 0123     		movs	r3, #1
 1064 0012 00E0     		b	.L107
 1065              	.L105:
 1066              		.loc 1 2099 71 discriminator 2
 1067 0014 0023     		movs	r3, #0
 1068              	.L107:
2100:../../dependencies/STM32CubeL0/Drivers/STM32L0xx_HAL_Driver/Inc/stm32l0xx_ll_rcc.h **** }
 1069              		.loc 1 2100 1 is_stmt 1 discriminator 5
 1070 0016 1800     		movs	r0, r3
 1071 0018 BD46     		mov	sp, r7
 1072              		@ sp needed
 1073 001a 80BD     		pop	{r7, pc}
 1074              	.L109:
 1075              		.align	2
 1076              	.L108:
 1077 001c 00100240 		.word	1073876992
 1078              		.cfi_endproc
 1079              	.LFE146:
 1081              		.section	.text.LL_RCC_ClearResetFlags,"ax",%progbits
 1082              		.align	1
 1083              		.syntax unified
 1084              		.code	16
 1085              		.thumb_func
ARM GAS  /var/folders/fs/dxwfnrqj18z860lwl3d6f5t00000gn/T//ccl6Jv28.s 			page 56


 1086              		.fpu softvfp
 1088              	LL_RCC_ClearResetFlags:
 1089              	.LFB155:
2101:../../dependencies/STM32CubeL0/Drivers/STM32L0xx_HAL_Driver/Inc/stm32l0xx_ll_rcc.h **** 
2102:../../dependencies/STM32CubeL0/Drivers/STM32L0xx_HAL_Driver/Inc/stm32l0xx_ll_rcc.h **** #if defined(RCC_CSR_FWRSTF)
2103:../../dependencies/STM32CubeL0/Drivers/STM32L0xx_HAL_Driver/Inc/stm32l0xx_ll_rcc.h **** /**
2104:../../dependencies/STM32CubeL0/Drivers/STM32L0xx_HAL_Driver/Inc/stm32l0xx_ll_rcc.h ****   * @brief  Check if RCC flag FW reset is set or not.
2105:../../dependencies/STM32CubeL0/Drivers/STM32L0xx_HAL_Driver/Inc/stm32l0xx_ll_rcc.h ****   * @rmtoll CSR          FWRSTF        LL_RCC_IsActiveFlag_FWRST
2106:../../dependencies/STM32CubeL0/Drivers/STM32L0xx_HAL_Driver/Inc/stm32l0xx_ll_rcc.h ****   * @retval State of bit (1 or 0).
2107:../../dependencies/STM32CubeL0/Drivers/STM32L0xx_HAL_Driver/Inc/stm32l0xx_ll_rcc.h ****   */
2108:../../dependencies/STM32CubeL0/Drivers/STM32L0xx_HAL_Driver/Inc/stm32l0xx_ll_rcc.h **** __STATIC_INLINE uint32_t LL_RCC_IsActiveFlag_FWRST(void)
2109:../../dependencies/STM32CubeL0/Drivers/STM32L0xx_HAL_Driver/Inc/stm32l0xx_ll_rcc.h **** {
2110:../../dependencies/STM32CubeL0/Drivers/STM32L0xx_HAL_Driver/Inc/stm32l0xx_ll_rcc.h ****   return ((READ_BIT(RCC->CSR, RCC_CSR_FWRSTF) == RCC_CSR_FWRSTF) ? 1UL : 0UL);
2111:../../dependencies/STM32CubeL0/Drivers/STM32L0xx_HAL_Driver/Inc/stm32l0xx_ll_rcc.h **** }
2112:../../dependencies/STM32CubeL0/Drivers/STM32L0xx_HAL_Driver/Inc/stm32l0xx_ll_rcc.h **** #endif /* RCC_CSR_FWRSTF */
2113:../../dependencies/STM32CubeL0/Drivers/STM32L0xx_HAL_Driver/Inc/stm32l0xx_ll_rcc.h **** 
2114:../../dependencies/STM32CubeL0/Drivers/STM32L0xx_HAL_Driver/Inc/stm32l0xx_ll_rcc.h **** /**
2115:../../dependencies/STM32CubeL0/Drivers/STM32L0xx_HAL_Driver/Inc/stm32l0xx_ll_rcc.h ****   * @brief  Check if RCC flag Independent Watchdog reset is set or not.
2116:../../dependencies/STM32CubeL0/Drivers/STM32L0xx_HAL_Driver/Inc/stm32l0xx_ll_rcc.h ****   * @rmtoll CSR          IWDGRSTF      LL_RCC_IsActiveFlag_IWDGRST
2117:../../dependencies/STM32CubeL0/Drivers/STM32L0xx_HAL_Driver/Inc/stm32l0xx_ll_rcc.h ****   * @retval State of bit (1 or 0).
2118:../../dependencies/STM32CubeL0/Drivers/STM32L0xx_HAL_Driver/Inc/stm32l0xx_ll_rcc.h ****   */
2119:../../dependencies/STM32CubeL0/Drivers/STM32L0xx_HAL_Driver/Inc/stm32l0xx_ll_rcc.h **** __STATIC_INLINE uint32_t LL_RCC_IsActiveFlag_IWDGRST(void)
2120:../../dependencies/STM32CubeL0/Drivers/STM32L0xx_HAL_Driver/Inc/stm32l0xx_ll_rcc.h **** {
2121:../../dependencies/STM32CubeL0/Drivers/STM32L0xx_HAL_Driver/Inc/stm32l0xx_ll_rcc.h ****   return ((READ_BIT(RCC->CSR, RCC_CSR_IWDGRSTF) == RCC_CSR_IWDGRSTF) ? 1UL : 0UL);
2122:../../dependencies/STM32CubeL0/Drivers/STM32L0xx_HAL_Driver/Inc/stm32l0xx_ll_rcc.h **** }
2123:../../dependencies/STM32CubeL0/Drivers/STM32L0xx_HAL_Driver/Inc/stm32l0xx_ll_rcc.h **** 
2124:../../dependencies/STM32CubeL0/Drivers/STM32L0xx_HAL_Driver/Inc/stm32l0xx_ll_rcc.h **** /**
2125:../../dependencies/STM32CubeL0/Drivers/STM32L0xx_HAL_Driver/Inc/stm32l0xx_ll_rcc.h ****   * @brief  Check if RCC flag Low Power reset is set or not.
2126:../../dependencies/STM32CubeL0/Drivers/STM32L0xx_HAL_Driver/Inc/stm32l0xx_ll_rcc.h ****   * @rmtoll CSR          LPWRRSTF      LL_RCC_IsActiveFlag_LPWRRST
2127:../../dependencies/STM32CubeL0/Drivers/STM32L0xx_HAL_Driver/Inc/stm32l0xx_ll_rcc.h ****   * @retval State of bit (1 or 0).
2128:../../dependencies/STM32CubeL0/Drivers/STM32L0xx_HAL_Driver/Inc/stm32l0xx_ll_rcc.h ****   */
2129:../../dependencies/STM32CubeL0/Drivers/STM32L0xx_HAL_Driver/Inc/stm32l0xx_ll_rcc.h **** __STATIC_INLINE uint32_t LL_RCC_IsActiveFlag_LPWRRST(void)
2130:../../dependencies/STM32CubeL0/Drivers/STM32L0xx_HAL_Driver/Inc/stm32l0xx_ll_rcc.h **** {
2131:../../dependencies/STM32CubeL0/Drivers/STM32L0xx_HAL_Driver/Inc/stm32l0xx_ll_rcc.h ****   return ((READ_BIT(RCC->CSR, RCC_CSR_LPWRRSTF) == RCC_CSR_LPWRRSTF) ? 1UL : 0UL);
2132:../../dependencies/STM32CubeL0/Drivers/STM32L0xx_HAL_Driver/Inc/stm32l0xx_ll_rcc.h **** }
2133:../../dependencies/STM32CubeL0/Drivers/STM32L0xx_HAL_Driver/Inc/stm32l0xx_ll_rcc.h **** 
2134:../../dependencies/STM32CubeL0/Drivers/STM32L0xx_HAL_Driver/Inc/stm32l0xx_ll_rcc.h **** /**
2135:../../dependencies/STM32CubeL0/Drivers/STM32L0xx_HAL_Driver/Inc/stm32l0xx_ll_rcc.h ****   * @brief  Check if RCC flag is set or not.
2136:../../dependencies/STM32CubeL0/Drivers/STM32L0xx_HAL_Driver/Inc/stm32l0xx_ll_rcc.h ****   * @rmtoll CSR          OBLRSTF       LL_RCC_IsActiveFlag_OBLRST
2137:../../dependencies/STM32CubeL0/Drivers/STM32L0xx_HAL_Driver/Inc/stm32l0xx_ll_rcc.h ****   * @retval State of bit (1 or 0).
2138:../../dependencies/STM32CubeL0/Drivers/STM32L0xx_HAL_Driver/Inc/stm32l0xx_ll_rcc.h ****   */
2139:../../dependencies/STM32CubeL0/Drivers/STM32L0xx_HAL_Driver/Inc/stm32l0xx_ll_rcc.h **** __STATIC_INLINE uint32_t LL_RCC_IsActiveFlag_OBLRST(void)
2140:../../dependencies/STM32CubeL0/Drivers/STM32L0xx_HAL_Driver/Inc/stm32l0xx_ll_rcc.h **** {
2141:../../dependencies/STM32CubeL0/Drivers/STM32L0xx_HAL_Driver/Inc/stm32l0xx_ll_rcc.h ****   return ((READ_BIT(RCC->CSR, RCC_CSR_OBLRSTF) == RCC_CSR_OBLRSTF) ? 1UL : 0UL);
2142:../../dependencies/STM32CubeL0/Drivers/STM32L0xx_HAL_Driver/Inc/stm32l0xx_ll_rcc.h **** }
2143:../../dependencies/STM32CubeL0/Drivers/STM32L0xx_HAL_Driver/Inc/stm32l0xx_ll_rcc.h **** 
2144:../../dependencies/STM32CubeL0/Drivers/STM32L0xx_HAL_Driver/Inc/stm32l0xx_ll_rcc.h **** /**
2145:../../dependencies/STM32CubeL0/Drivers/STM32L0xx_HAL_Driver/Inc/stm32l0xx_ll_rcc.h ****   * @brief  Check if RCC flag Pin reset is set or not.
2146:../../dependencies/STM32CubeL0/Drivers/STM32L0xx_HAL_Driver/Inc/stm32l0xx_ll_rcc.h ****   * @rmtoll CSR          PINRSTF       LL_RCC_IsActiveFlag_PINRST
2147:../../dependencies/STM32CubeL0/Drivers/STM32L0xx_HAL_Driver/Inc/stm32l0xx_ll_rcc.h ****   * @retval State of bit (1 or 0).
2148:../../dependencies/STM32CubeL0/Drivers/STM32L0xx_HAL_Driver/Inc/stm32l0xx_ll_rcc.h ****   */
2149:../../dependencies/STM32CubeL0/Drivers/STM32L0xx_HAL_Driver/Inc/stm32l0xx_ll_rcc.h **** __STATIC_INLINE uint32_t LL_RCC_IsActiveFlag_PINRST(void)
2150:../../dependencies/STM32CubeL0/Drivers/STM32L0xx_HAL_Driver/Inc/stm32l0xx_ll_rcc.h **** {
2151:../../dependencies/STM32CubeL0/Drivers/STM32L0xx_HAL_Driver/Inc/stm32l0xx_ll_rcc.h ****   return ((READ_BIT(RCC->CSR, RCC_CSR_PINRSTF) == RCC_CSR_PINRSTF) ? 1UL : 0UL);
2152:../../dependencies/STM32CubeL0/Drivers/STM32L0xx_HAL_Driver/Inc/stm32l0xx_ll_rcc.h **** }
2153:../../dependencies/STM32CubeL0/Drivers/STM32L0xx_HAL_Driver/Inc/stm32l0xx_ll_rcc.h **** 
2154:../../dependencies/STM32CubeL0/Drivers/STM32L0xx_HAL_Driver/Inc/stm32l0xx_ll_rcc.h **** /**
ARM GAS  /var/folders/fs/dxwfnrqj18z860lwl3d6f5t00000gn/T//ccl6Jv28.s 			page 57


2155:../../dependencies/STM32CubeL0/Drivers/STM32L0xx_HAL_Driver/Inc/stm32l0xx_ll_rcc.h ****   * @brief  Check if RCC flag POR/PDR reset is set or not.
2156:../../dependencies/STM32CubeL0/Drivers/STM32L0xx_HAL_Driver/Inc/stm32l0xx_ll_rcc.h ****   * @rmtoll CSR          PORRSTF       LL_RCC_IsActiveFlag_PORRST
2157:../../dependencies/STM32CubeL0/Drivers/STM32L0xx_HAL_Driver/Inc/stm32l0xx_ll_rcc.h ****   * @retval State of bit (1 or 0).
2158:../../dependencies/STM32CubeL0/Drivers/STM32L0xx_HAL_Driver/Inc/stm32l0xx_ll_rcc.h ****   */
2159:../../dependencies/STM32CubeL0/Drivers/STM32L0xx_HAL_Driver/Inc/stm32l0xx_ll_rcc.h **** __STATIC_INLINE uint32_t LL_RCC_IsActiveFlag_PORRST(void)
2160:../../dependencies/STM32CubeL0/Drivers/STM32L0xx_HAL_Driver/Inc/stm32l0xx_ll_rcc.h **** {
2161:../../dependencies/STM32CubeL0/Drivers/STM32L0xx_HAL_Driver/Inc/stm32l0xx_ll_rcc.h ****   return ((READ_BIT(RCC->CSR, RCC_CSR_PORRSTF) == RCC_CSR_PORRSTF) ? 1UL : 0UL);
2162:../../dependencies/STM32CubeL0/Drivers/STM32L0xx_HAL_Driver/Inc/stm32l0xx_ll_rcc.h **** }
2163:../../dependencies/STM32CubeL0/Drivers/STM32L0xx_HAL_Driver/Inc/stm32l0xx_ll_rcc.h **** 
2164:../../dependencies/STM32CubeL0/Drivers/STM32L0xx_HAL_Driver/Inc/stm32l0xx_ll_rcc.h **** /**
2165:../../dependencies/STM32CubeL0/Drivers/STM32L0xx_HAL_Driver/Inc/stm32l0xx_ll_rcc.h ****   * @brief  Check if RCC flag Software reset is set or not.
2166:../../dependencies/STM32CubeL0/Drivers/STM32L0xx_HAL_Driver/Inc/stm32l0xx_ll_rcc.h ****   * @rmtoll CSR          SFTRSTF       LL_RCC_IsActiveFlag_SFTRST
2167:../../dependencies/STM32CubeL0/Drivers/STM32L0xx_HAL_Driver/Inc/stm32l0xx_ll_rcc.h ****   * @retval State of bit (1 or 0).
2168:../../dependencies/STM32CubeL0/Drivers/STM32L0xx_HAL_Driver/Inc/stm32l0xx_ll_rcc.h ****   */
2169:../../dependencies/STM32CubeL0/Drivers/STM32L0xx_HAL_Driver/Inc/stm32l0xx_ll_rcc.h **** __STATIC_INLINE uint32_t LL_RCC_IsActiveFlag_SFTRST(void)
2170:../../dependencies/STM32CubeL0/Drivers/STM32L0xx_HAL_Driver/Inc/stm32l0xx_ll_rcc.h **** {
2171:../../dependencies/STM32CubeL0/Drivers/STM32L0xx_HAL_Driver/Inc/stm32l0xx_ll_rcc.h ****   return ((READ_BIT(RCC->CSR, RCC_CSR_SFTRSTF) == RCC_CSR_SFTRSTF) ? 1UL : 0UL);
2172:../../dependencies/STM32CubeL0/Drivers/STM32L0xx_HAL_Driver/Inc/stm32l0xx_ll_rcc.h **** }
2173:../../dependencies/STM32CubeL0/Drivers/STM32L0xx_HAL_Driver/Inc/stm32l0xx_ll_rcc.h **** 
2174:../../dependencies/STM32CubeL0/Drivers/STM32L0xx_HAL_Driver/Inc/stm32l0xx_ll_rcc.h **** /**
2175:../../dependencies/STM32CubeL0/Drivers/STM32L0xx_HAL_Driver/Inc/stm32l0xx_ll_rcc.h ****   * @brief  Check if RCC flag Window Watchdog reset is set or not.
2176:../../dependencies/STM32CubeL0/Drivers/STM32L0xx_HAL_Driver/Inc/stm32l0xx_ll_rcc.h ****   * @rmtoll CSR          WWDGRSTF      LL_RCC_IsActiveFlag_WWDGRST
2177:../../dependencies/STM32CubeL0/Drivers/STM32L0xx_HAL_Driver/Inc/stm32l0xx_ll_rcc.h ****   * @retval State of bit (1 or 0).
2178:../../dependencies/STM32CubeL0/Drivers/STM32L0xx_HAL_Driver/Inc/stm32l0xx_ll_rcc.h ****   */
2179:../../dependencies/STM32CubeL0/Drivers/STM32L0xx_HAL_Driver/Inc/stm32l0xx_ll_rcc.h **** __STATIC_INLINE uint32_t LL_RCC_IsActiveFlag_WWDGRST(void)
2180:../../dependencies/STM32CubeL0/Drivers/STM32L0xx_HAL_Driver/Inc/stm32l0xx_ll_rcc.h **** {
2181:../../dependencies/STM32CubeL0/Drivers/STM32L0xx_HAL_Driver/Inc/stm32l0xx_ll_rcc.h ****   return ((READ_BIT(RCC->CSR, RCC_CSR_WWDGRSTF) == RCC_CSR_WWDGRSTF) ? 1UL : 0UL);
2182:../../dependencies/STM32CubeL0/Drivers/STM32L0xx_HAL_Driver/Inc/stm32l0xx_ll_rcc.h **** }
2183:../../dependencies/STM32CubeL0/Drivers/STM32L0xx_HAL_Driver/Inc/stm32l0xx_ll_rcc.h **** 
2184:../../dependencies/STM32CubeL0/Drivers/STM32L0xx_HAL_Driver/Inc/stm32l0xx_ll_rcc.h **** /**
2185:../../dependencies/STM32CubeL0/Drivers/STM32L0xx_HAL_Driver/Inc/stm32l0xx_ll_rcc.h ****   * @brief  Set RMVF bit to clear the reset flags.
2186:../../dependencies/STM32CubeL0/Drivers/STM32L0xx_HAL_Driver/Inc/stm32l0xx_ll_rcc.h ****   * @rmtoll CSR          RMVF          LL_RCC_ClearResetFlags
2187:../../dependencies/STM32CubeL0/Drivers/STM32L0xx_HAL_Driver/Inc/stm32l0xx_ll_rcc.h ****   * @retval None
2188:../../dependencies/STM32CubeL0/Drivers/STM32L0xx_HAL_Driver/Inc/stm32l0xx_ll_rcc.h ****   */
2189:../../dependencies/STM32CubeL0/Drivers/STM32L0xx_HAL_Driver/Inc/stm32l0xx_ll_rcc.h **** __STATIC_INLINE void LL_RCC_ClearResetFlags(void)
2190:../../dependencies/STM32CubeL0/Drivers/STM32L0xx_HAL_Driver/Inc/stm32l0xx_ll_rcc.h **** {
 1090              		.loc 1 2190 1
 1091              		.cfi_startproc
 1092              		@ args = 0, pretend = 0, frame = 0
 1093              		@ frame_needed = 1, uses_anonymous_args = 0
 1094 0000 80B5     		push	{r7, lr}
 1095              		.cfi_def_cfa_offset 8
 1096              		.cfi_offset 7, -8
 1097              		.cfi_offset 14, -4
 1098 0002 00AF     		add	r7, sp, #0
 1099              		.cfi_def_cfa_register 7
2191:../../dependencies/STM32CubeL0/Drivers/STM32L0xx_HAL_Driver/Inc/stm32l0xx_ll_rcc.h ****   SET_BIT(RCC->CSR, RCC_CSR_RMVF);
 1100              		.loc 1 2191 3
 1101 0004 044B     		ldr	r3, .L111
 1102 0006 1A6D     		ldr	r2, [r3, #80]
 1103 0008 034B     		ldr	r3, .L111
 1104 000a 8021     		movs	r1, #128
 1105 000c 0904     		lsls	r1, r1, #16
 1106 000e 0A43     		orrs	r2, r1
 1107 0010 1A65     		str	r2, [r3, #80]
2192:../../dependencies/STM32CubeL0/Drivers/STM32L0xx_HAL_Driver/Inc/stm32l0xx_ll_rcc.h **** }
 1108              		.loc 1 2192 1
ARM GAS  /var/folders/fs/dxwfnrqj18z860lwl3d6f5t00000gn/T//ccl6Jv28.s 			page 58


 1109 0012 C046     		nop
 1110 0014 BD46     		mov	sp, r7
 1111              		@ sp needed
 1112 0016 80BD     		pop	{r7, pc}
 1113              	.L112:
 1114              		.align	2
 1115              	.L111:
 1116 0018 00100240 		.word	1073876992
 1117              		.cfi_endproc
 1118              	.LFE155:
 1120              		.section	.text.LL_RCC_DeInit,"ax",%progbits
 1121              		.align	1
 1122              		.global	LL_RCC_DeInit
 1123              		.syntax unified
 1124              		.code	16
 1125              		.thumb_func
 1126              		.fpu softvfp
 1128              	LL_RCC_DeInit:
 1129              	.LFB180:
 1130              		.file 2 "../../dependencies/STM32CubeL0/Drivers/STM32L0xx_HAL_Driver/Src/stm32l0xx_ll_rcc.c"
   1:../../dependencies/STM32CubeL0/Drivers/STM32L0xx_HAL_Driver/Src/stm32l0xx_ll_rcc.c **** /**
   2:../../dependencies/STM32CubeL0/Drivers/STM32L0xx_HAL_Driver/Src/stm32l0xx_ll_rcc.c ****   ******************************************************************************
   3:../../dependencies/STM32CubeL0/Drivers/STM32L0xx_HAL_Driver/Src/stm32l0xx_ll_rcc.c ****   * @file    stm32l0xx_ll_rcc.c
   4:../../dependencies/STM32CubeL0/Drivers/STM32L0xx_HAL_Driver/Src/stm32l0xx_ll_rcc.c ****   * @author  MCD Application Team
   5:../../dependencies/STM32CubeL0/Drivers/STM32L0xx_HAL_Driver/Src/stm32l0xx_ll_rcc.c ****   * @brief   RCC LL module driver.
   6:../../dependencies/STM32CubeL0/Drivers/STM32L0xx_HAL_Driver/Src/stm32l0xx_ll_rcc.c ****   ******************************************************************************
   7:../../dependencies/STM32CubeL0/Drivers/STM32L0xx_HAL_Driver/Src/stm32l0xx_ll_rcc.c ****   * @attention
   8:../../dependencies/STM32CubeL0/Drivers/STM32L0xx_HAL_Driver/Src/stm32l0xx_ll_rcc.c ****   *
   9:../../dependencies/STM32CubeL0/Drivers/STM32L0xx_HAL_Driver/Src/stm32l0xx_ll_rcc.c ****   * <h2><center>&copy; Copyright(c) 2016 STMicroelectronics.
  10:../../dependencies/STM32CubeL0/Drivers/STM32L0xx_HAL_Driver/Src/stm32l0xx_ll_rcc.c ****   * All rights reserved.</center></h2>
  11:../../dependencies/STM32CubeL0/Drivers/STM32L0xx_HAL_Driver/Src/stm32l0xx_ll_rcc.c ****   *
  12:../../dependencies/STM32CubeL0/Drivers/STM32L0xx_HAL_Driver/Src/stm32l0xx_ll_rcc.c ****   * This software component is licensed by ST under BSD 3-Clause license,
  13:../../dependencies/STM32CubeL0/Drivers/STM32L0xx_HAL_Driver/Src/stm32l0xx_ll_rcc.c ****   * the "License"; You may not use this file except in compliance with the
  14:../../dependencies/STM32CubeL0/Drivers/STM32L0xx_HAL_Driver/Src/stm32l0xx_ll_rcc.c ****   * License. You may obtain a copy of the License at:
  15:../../dependencies/STM32CubeL0/Drivers/STM32L0xx_HAL_Driver/Src/stm32l0xx_ll_rcc.c ****   *                        opensource.org/licenses/BSD-3-Clause
  16:../../dependencies/STM32CubeL0/Drivers/STM32L0xx_HAL_Driver/Src/stm32l0xx_ll_rcc.c ****   *
  17:../../dependencies/STM32CubeL0/Drivers/STM32L0xx_HAL_Driver/Src/stm32l0xx_ll_rcc.c ****   ******************************************************************************
  18:../../dependencies/STM32CubeL0/Drivers/STM32L0xx_HAL_Driver/Src/stm32l0xx_ll_rcc.c ****   */
  19:../../dependencies/STM32CubeL0/Drivers/STM32L0xx_HAL_Driver/Src/stm32l0xx_ll_rcc.c **** #if defined(USE_FULL_LL_DRIVER)
  20:../../dependencies/STM32CubeL0/Drivers/STM32L0xx_HAL_Driver/Src/stm32l0xx_ll_rcc.c **** 
  21:../../dependencies/STM32CubeL0/Drivers/STM32L0xx_HAL_Driver/Src/stm32l0xx_ll_rcc.c **** /* Includes ------------------------------------------------------------------*/
  22:../../dependencies/STM32CubeL0/Drivers/STM32L0xx_HAL_Driver/Src/stm32l0xx_ll_rcc.c **** #include "stm32l0xx_ll_rcc.h"
  23:../../dependencies/STM32CubeL0/Drivers/STM32L0xx_HAL_Driver/Src/stm32l0xx_ll_rcc.c **** #ifdef  USE_FULL_ASSERT
  24:../../dependencies/STM32CubeL0/Drivers/STM32L0xx_HAL_Driver/Src/stm32l0xx_ll_rcc.c ****   #include "stm32_assert.h"
  25:../../dependencies/STM32CubeL0/Drivers/STM32L0xx_HAL_Driver/Src/stm32l0xx_ll_rcc.c **** #else
  26:../../dependencies/STM32CubeL0/Drivers/STM32L0xx_HAL_Driver/Src/stm32l0xx_ll_rcc.c ****   #define assert_param(expr) ((void)0U)
  27:../../dependencies/STM32CubeL0/Drivers/STM32L0xx_HAL_Driver/Src/stm32l0xx_ll_rcc.c **** #endif /* USE_FULL_ASSERT */
  28:../../dependencies/STM32CubeL0/Drivers/STM32L0xx_HAL_Driver/Src/stm32l0xx_ll_rcc.c **** /** @addtogroup STM32L0xx_LL_Driver
  29:../../dependencies/STM32CubeL0/Drivers/STM32L0xx_HAL_Driver/Src/stm32l0xx_ll_rcc.c ****   * @{
  30:../../dependencies/STM32CubeL0/Drivers/STM32L0xx_HAL_Driver/Src/stm32l0xx_ll_rcc.c ****   */
  31:../../dependencies/STM32CubeL0/Drivers/STM32L0xx_HAL_Driver/Src/stm32l0xx_ll_rcc.c **** 
  32:../../dependencies/STM32CubeL0/Drivers/STM32L0xx_HAL_Driver/Src/stm32l0xx_ll_rcc.c **** #if defined(RCC)
  33:../../dependencies/STM32CubeL0/Drivers/STM32L0xx_HAL_Driver/Src/stm32l0xx_ll_rcc.c **** 
  34:../../dependencies/STM32CubeL0/Drivers/STM32L0xx_HAL_Driver/Src/stm32l0xx_ll_rcc.c **** /** @defgroup RCC_LL RCC
  35:../../dependencies/STM32CubeL0/Drivers/STM32L0xx_HAL_Driver/Src/stm32l0xx_ll_rcc.c ****   * @{
  36:../../dependencies/STM32CubeL0/Drivers/STM32L0xx_HAL_Driver/Src/stm32l0xx_ll_rcc.c ****   */
  37:../../dependencies/STM32CubeL0/Drivers/STM32L0xx_HAL_Driver/Src/stm32l0xx_ll_rcc.c **** 
ARM GAS  /var/folders/fs/dxwfnrqj18z860lwl3d6f5t00000gn/T//ccl6Jv28.s 			page 59


  38:../../dependencies/STM32CubeL0/Drivers/STM32L0xx_HAL_Driver/Src/stm32l0xx_ll_rcc.c **** /* Private types -------------------------------------------------------------*/
  39:../../dependencies/STM32CubeL0/Drivers/STM32L0xx_HAL_Driver/Src/stm32l0xx_ll_rcc.c **** /* Private variables ---------------------------------------------------------*/
  40:../../dependencies/STM32CubeL0/Drivers/STM32L0xx_HAL_Driver/Src/stm32l0xx_ll_rcc.c **** 
  41:../../dependencies/STM32CubeL0/Drivers/STM32L0xx_HAL_Driver/Src/stm32l0xx_ll_rcc.c **** /* Private constants ---------------------------------------------------------*/
  42:../../dependencies/STM32CubeL0/Drivers/STM32L0xx_HAL_Driver/Src/stm32l0xx_ll_rcc.c **** /* Private macros ------------------------------------------------------------*/
  43:../../dependencies/STM32CubeL0/Drivers/STM32L0xx_HAL_Driver/Src/stm32l0xx_ll_rcc.c **** /** @addtogroup RCC_LL_Private_Macros
  44:../../dependencies/STM32CubeL0/Drivers/STM32L0xx_HAL_Driver/Src/stm32l0xx_ll_rcc.c ****   * @{
  45:../../dependencies/STM32CubeL0/Drivers/STM32L0xx_HAL_Driver/Src/stm32l0xx_ll_rcc.c ****   */
  46:../../dependencies/STM32CubeL0/Drivers/STM32L0xx_HAL_Driver/Src/stm32l0xx_ll_rcc.c **** #if defined(RCC_CCIPR_USART1SEL) && defined(RCC_CCIPR_USART2SEL)
  47:../../dependencies/STM32CubeL0/Drivers/STM32L0xx_HAL_Driver/Src/stm32l0xx_ll_rcc.c **** #define IS_LL_RCC_USART_CLKSOURCE(__VALUE__)  (((__VALUE__) == LL_RCC_USART1_CLKSOURCE) \
  48:../../dependencies/STM32CubeL0/Drivers/STM32L0xx_HAL_Driver/Src/stm32l0xx_ll_rcc.c ****                                             || ((__VALUE__) == LL_RCC_USART2_CLKSOURCE))
  49:../../dependencies/STM32CubeL0/Drivers/STM32L0xx_HAL_Driver/Src/stm32l0xx_ll_rcc.c **** #elif defined(RCC_CCIPR_USART1SEL) && !defined(RCC_CCIPR_USART2SEL)
  50:../../dependencies/STM32CubeL0/Drivers/STM32L0xx_HAL_Driver/Src/stm32l0xx_ll_rcc.c **** #define IS_LL_RCC_USART_CLKSOURCE(__VALUE__)  (((__VALUE__) == LL_RCC_USART1_CLKSOURCE))
  51:../../dependencies/STM32CubeL0/Drivers/STM32L0xx_HAL_Driver/Src/stm32l0xx_ll_rcc.c **** #else
  52:../../dependencies/STM32CubeL0/Drivers/STM32L0xx_HAL_Driver/Src/stm32l0xx_ll_rcc.c **** #define IS_LL_RCC_USART_CLKSOURCE(__VALUE__)  (((__VALUE__) == LL_RCC_USART2_CLKSOURCE))
  53:../../dependencies/STM32CubeL0/Drivers/STM32L0xx_HAL_Driver/Src/stm32l0xx_ll_rcc.c **** #endif /* RCC_CCIPR_USART1SEL && RCC_CCIPR_USART2SEL */
  54:../../dependencies/STM32CubeL0/Drivers/STM32L0xx_HAL_Driver/Src/stm32l0xx_ll_rcc.c **** 
  55:../../dependencies/STM32CubeL0/Drivers/STM32L0xx_HAL_Driver/Src/stm32l0xx_ll_rcc.c **** #define IS_LL_RCC_LPUART_CLKSOURCE(__VALUE__) (((__VALUE__) == LL_RCC_LPUART1_CLKSOURCE))
  56:../../dependencies/STM32CubeL0/Drivers/STM32L0xx_HAL_Driver/Src/stm32l0xx_ll_rcc.c **** 
  57:../../dependencies/STM32CubeL0/Drivers/STM32L0xx_HAL_Driver/Src/stm32l0xx_ll_rcc.c **** #if defined(RCC_CCIPR_I2C3SEL)
  58:../../dependencies/STM32CubeL0/Drivers/STM32L0xx_HAL_Driver/Src/stm32l0xx_ll_rcc.c **** #define IS_LL_RCC_I2C_CLKSOURCE(__VALUE__)    (((__VALUE__) == LL_RCC_I2C1_CLKSOURCE) \
  59:../../dependencies/STM32CubeL0/Drivers/STM32L0xx_HAL_Driver/Src/stm32l0xx_ll_rcc.c ****                                             || ((__VALUE__) == LL_RCC_I2C3_CLKSOURCE))
  60:../../dependencies/STM32CubeL0/Drivers/STM32L0xx_HAL_Driver/Src/stm32l0xx_ll_rcc.c **** #else
  61:../../dependencies/STM32CubeL0/Drivers/STM32L0xx_HAL_Driver/Src/stm32l0xx_ll_rcc.c **** #define IS_LL_RCC_I2C_CLKSOURCE(__VALUE__)     ((__VALUE__) == LL_RCC_I2C1_CLKSOURCE)
  62:../../dependencies/STM32CubeL0/Drivers/STM32L0xx_HAL_Driver/Src/stm32l0xx_ll_rcc.c **** #endif /* RCC_CCIPR_I2C3SEL */
  63:../../dependencies/STM32CubeL0/Drivers/STM32L0xx_HAL_Driver/Src/stm32l0xx_ll_rcc.c **** 
  64:../../dependencies/STM32CubeL0/Drivers/STM32L0xx_HAL_Driver/Src/stm32l0xx_ll_rcc.c **** #define IS_LL_RCC_LPTIM_CLKSOURCE(__VALUE__)  ((__VALUE__) == LL_RCC_LPTIM1_CLKSOURCE)
  65:../../dependencies/STM32CubeL0/Drivers/STM32L0xx_HAL_Driver/Src/stm32l0xx_ll_rcc.c **** 
  66:../../dependencies/STM32CubeL0/Drivers/STM32L0xx_HAL_Driver/Src/stm32l0xx_ll_rcc.c **** #if defined(USB)
  67:../../dependencies/STM32CubeL0/Drivers/STM32L0xx_HAL_Driver/Src/stm32l0xx_ll_rcc.c **** #define IS_LL_RCC_USB_CLKSOURCE(__VALUE__)    (((__VALUE__) == LL_RCC_USB_CLKSOURCE))
  68:../../dependencies/STM32CubeL0/Drivers/STM32L0xx_HAL_Driver/Src/stm32l0xx_ll_rcc.c **** #endif /* USB */
  69:../../dependencies/STM32CubeL0/Drivers/STM32L0xx_HAL_Driver/Src/stm32l0xx_ll_rcc.c **** 
  70:../../dependencies/STM32CubeL0/Drivers/STM32L0xx_HAL_Driver/Src/stm32l0xx_ll_rcc.c **** /**
  71:../../dependencies/STM32CubeL0/Drivers/STM32L0xx_HAL_Driver/Src/stm32l0xx_ll_rcc.c ****   * @}
  72:../../dependencies/STM32CubeL0/Drivers/STM32L0xx_HAL_Driver/Src/stm32l0xx_ll_rcc.c ****   */
  73:../../dependencies/STM32CubeL0/Drivers/STM32L0xx_HAL_Driver/Src/stm32l0xx_ll_rcc.c **** 
  74:../../dependencies/STM32CubeL0/Drivers/STM32L0xx_HAL_Driver/Src/stm32l0xx_ll_rcc.c **** /* Private function prototypes -----------------------------------------------*/
  75:../../dependencies/STM32CubeL0/Drivers/STM32L0xx_HAL_Driver/Src/stm32l0xx_ll_rcc.c **** /** @defgroup RCC_LL_Private_Functions RCC Private functions
  76:../../dependencies/STM32CubeL0/Drivers/STM32L0xx_HAL_Driver/Src/stm32l0xx_ll_rcc.c ****   * @{
  77:../../dependencies/STM32CubeL0/Drivers/STM32L0xx_HAL_Driver/Src/stm32l0xx_ll_rcc.c ****   */
  78:../../dependencies/STM32CubeL0/Drivers/STM32L0xx_HAL_Driver/Src/stm32l0xx_ll_rcc.c **** static uint32_t RCC_GetSystemClockFreq(void);
  79:../../dependencies/STM32CubeL0/Drivers/STM32L0xx_HAL_Driver/Src/stm32l0xx_ll_rcc.c **** static uint32_t RCC_GetHCLKClockFreq(uint32_t SYSCLK_Frequency);
  80:../../dependencies/STM32CubeL0/Drivers/STM32L0xx_HAL_Driver/Src/stm32l0xx_ll_rcc.c **** static uint32_t RCC_GetPCLK1ClockFreq(uint32_t HCLK_Frequency);
  81:../../dependencies/STM32CubeL0/Drivers/STM32L0xx_HAL_Driver/Src/stm32l0xx_ll_rcc.c **** static uint32_t RCC_GetPCLK2ClockFreq(uint32_t HCLK_Frequency);
  82:../../dependencies/STM32CubeL0/Drivers/STM32L0xx_HAL_Driver/Src/stm32l0xx_ll_rcc.c **** static uint32_t RCC_PLL_GetFreqDomain_SYS(void);
  83:../../dependencies/STM32CubeL0/Drivers/STM32L0xx_HAL_Driver/Src/stm32l0xx_ll_rcc.c **** /**
  84:../../dependencies/STM32CubeL0/Drivers/STM32L0xx_HAL_Driver/Src/stm32l0xx_ll_rcc.c ****   * @}
  85:../../dependencies/STM32CubeL0/Drivers/STM32L0xx_HAL_Driver/Src/stm32l0xx_ll_rcc.c ****   */
  86:../../dependencies/STM32CubeL0/Drivers/STM32L0xx_HAL_Driver/Src/stm32l0xx_ll_rcc.c **** 
  87:../../dependencies/STM32CubeL0/Drivers/STM32L0xx_HAL_Driver/Src/stm32l0xx_ll_rcc.c **** 
  88:../../dependencies/STM32CubeL0/Drivers/STM32L0xx_HAL_Driver/Src/stm32l0xx_ll_rcc.c **** /* Exported functions --------------------------------------------------------*/
  89:../../dependencies/STM32CubeL0/Drivers/STM32L0xx_HAL_Driver/Src/stm32l0xx_ll_rcc.c **** /** @addtogroup RCC_LL_Exported_Functions
  90:../../dependencies/STM32CubeL0/Drivers/STM32L0xx_HAL_Driver/Src/stm32l0xx_ll_rcc.c ****   * @{
  91:../../dependencies/STM32CubeL0/Drivers/STM32L0xx_HAL_Driver/Src/stm32l0xx_ll_rcc.c ****   */
  92:../../dependencies/STM32CubeL0/Drivers/STM32L0xx_HAL_Driver/Src/stm32l0xx_ll_rcc.c **** 
  93:../../dependencies/STM32CubeL0/Drivers/STM32L0xx_HAL_Driver/Src/stm32l0xx_ll_rcc.c **** /** @addtogroup RCC_LL_EF_Init
  94:../../dependencies/STM32CubeL0/Drivers/STM32L0xx_HAL_Driver/Src/stm32l0xx_ll_rcc.c ****   * @{
ARM GAS  /var/folders/fs/dxwfnrqj18z860lwl3d6f5t00000gn/T//ccl6Jv28.s 			page 60


  95:../../dependencies/STM32CubeL0/Drivers/STM32L0xx_HAL_Driver/Src/stm32l0xx_ll_rcc.c ****   */
  96:../../dependencies/STM32CubeL0/Drivers/STM32L0xx_HAL_Driver/Src/stm32l0xx_ll_rcc.c **** 
  97:../../dependencies/STM32CubeL0/Drivers/STM32L0xx_HAL_Driver/Src/stm32l0xx_ll_rcc.c **** /**
  98:../../dependencies/STM32CubeL0/Drivers/STM32L0xx_HAL_Driver/Src/stm32l0xx_ll_rcc.c ****   * @brief  Reset the RCC clock configuration to the default reset state.
  99:../../dependencies/STM32CubeL0/Drivers/STM32L0xx_HAL_Driver/Src/stm32l0xx_ll_rcc.c ****   * @note   The default reset state of the clock configuration is given below:
 100:../../dependencies/STM32CubeL0/Drivers/STM32L0xx_HAL_Driver/Src/stm32l0xx_ll_rcc.c ****   *         - MSI  ON and used as system clock source
 101:../../dependencies/STM32CubeL0/Drivers/STM32L0xx_HAL_Driver/Src/stm32l0xx_ll_rcc.c ****   *         - HSE, HSI and PLL OFF
 102:../../dependencies/STM32CubeL0/Drivers/STM32L0xx_HAL_Driver/Src/stm32l0xx_ll_rcc.c ****   *         - AHB, APB1 and APB2 prescaler set to 1.
 103:../../dependencies/STM32CubeL0/Drivers/STM32L0xx_HAL_Driver/Src/stm32l0xx_ll_rcc.c ****   *         - CSS, MCO OFF
 104:../../dependencies/STM32CubeL0/Drivers/STM32L0xx_HAL_Driver/Src/stm32l0xx_ll_rcc.c ****   *         - All interrupts disabled
 105:../../dependencies/STM32CubeL0/Drivers/STM32L0xx_HAL_Driver/Src/stm32l0xx_ll_rcc.c ****   * @note   This function doesn't modify the configuration of the
 106:../../dependencies/STM32CubeL0/Drivers/STM32L0xx_HAL_Driver/Src/stm32l0xx_ll_rcc.c ****   *         - Peripheral clocks
 107:../../dependencies/STM32CubeL0/Drivers/STM32L0xx_HAL_Driver/Src/stm32l0xx_ll_rcc.c ****   *         - LSI, LSE and RTC clocks
 108:../../dependencies/STM32CubeL0/Drivers/STM32L0xx_HAL_Driver/Src/stm32l0xx_ll_rcc.c ****   * @retval An ErrorStatus enumeration value:
 109:../../dependencies/STM32CubeL0/Drivers/STM32L0xx_HAL_Driver/Src/stm32l0xx_ll_rcc.c ****   *          - SUCCESS: RCC registers are de-initialized
 110:../../dependencies/STM32CubeL0/Drivers/STM32L0xx_HAL_Driver/Src/stm32l0xx_ll_rcc.c ****   *          - ERROR: not applicable
 111:../../dependencies/STM32CubeL0/Drivers/STM32L0xx_HAL_Driver/Src/stm32l0xx_ll_rcc.c ****   */
 112:../../dependencies/STM32CubeL0/Drivers/STM32L0xx_HAL_Driver/Src/stm32l0xx_ll_rcc.c **** ErrorStatus LL_RCC_DeInit(void)
 113:../../dependencies/STM32CubeL0/Drivers/STM32L0xx_HAL_Driver/Src/stm32l0xx_ll_rcc.c **** {
 1131              		.loc 2 113 1
 1132              		.cfi_startproc
 1133              		@ args = 0, pretend = 0, frame = 8
 1134              		@ frame_needed = 1, uses_anonymous_args = 0
 1135 0000 80B5     		push	{r7, lr}
 1136              		.cfi_def_cfa_offset 8
 1137              		.cfi_offset 7, -8
 1138              		.cfi_offset 14, -4
 1139 0002 82B0     		sub	sp, sp, #8
 1140              		.cfi_def_cfa_offset 16
 1141 0004 00AF     		add	r7, sp, #0
 1142              		.cfi_def_cfa_register 7
 114:../../dependencies/STM32CubeL0/Drivers/STM32L0xx_HAL_Driver/Src/stm32l0xx_ll_rcc.c ****   __IO uint32_t vl_mask;
 115:../../dependencies/STM32CubeL0/Drivers/STM32L0xx_HAL_Driver/Src/stm32l0xx_ll_rcc.c **** 
 116:../../dependencies/STM32CubeL0/Drivers/STM32L0xx_HAL_Driver/Src/stm32l0xx_ll_rcc.c ****   /* Set MSION bit */
 117:../../dependencies/STM32CubeL0/Drivers/STM32L0xx_HAL_Driver/Src/stm32l0xx_ll_rcc.c ****   LL_RCC_MSI_Enable();
 1143              		.loc 2 117 3
 1144 0006 FFF7FEFF 		bl	LL_RCC_MSI_Enable
 118:../../dependencies/STM32CubeL0/Drivers/STM32L0xx_HAL_Driver/Src/stm32l0xx_ll_rcc.c **** 
 119:../../dependencies/STM32CubeL0/Drivers/STM32L0xx_HAL_Driver/Src/stm32l0xx_ll_rcc.c ****   /* Insure MSIRDY bit is set before writing default MSIRANGE value */
 120:../../dependencies/STM32CubeL0/Drivers/STM32L0xx_HAL_Driver/Src/stm32l0xx_ll_rcc.c ****   while (LL_RCC_MSI_IsReady() == 0U)
 1145              		.loc 2 120 9
 1146 000a 00E0     		b	.L114
 1147              	.L115:
 121:../../dependencies/STM32CubeL0/Drivers/STM32L0xx_HAL_Driver/Src/stm32l0xx_ll_rcc.c ****   {
 122:../../dependencies/STM32CubeL0/Drivers/STM32L0xx_HAL_Driver/Src/stm32l0xx_ll_rcc.c ****     __NOP();
 1148              		.loc 2 122 5
 1149              		.syntax divided
 1150              	@ 122 "../../dependencies/STM32CubeL0/Drivers/STM32L0xx_HAL_Driver/Src/stm32l0xx_ll_rcc.c" 1
 1151 000c C046     		nop
 1152              	@ 0 "" 2
 1153              		.thumb
 1154              		.syntax unified
 1155              	.L114:
 120:../../dependencies/STM32CubeL0/Drivers/STM32L0xx_HAL_Driver/Src/stm32l0xx_ll_rcc.c ****   {
 1156              		.loc 2 120 10
 1157 000e FFF7FEFF 		bl	LL_RCC_MSI_IsReady
 1158 0012 031E     		subs	r3, r0, #0
ARM GAS  /var/folders/fs/dxwfnrqj18z860lwl3d6f5t00000gn/T//ccl6Jv28.s 			page 61


 120:../../dependencies/STM32CubeL0/Drivers/STM32L0xx_HAL_Driver/Src/stm32l0xx_ll_rcc.c ****   {
 1159              		.loc 2 120 9
 1160 0014 FAD0     		beq	.L115
 123:../../dependencies/STM32CubeL0/Drivers/STM32L0xx_HAL_Driver/Src/stm32l0xx_ll_rcc.c ****   }
 124:../../dependencies/STM32CubeL0/Drivers/STM32L0xx_HAL_Driver/Src/stm32l0xx_ll_rcc.c **** 
 125:../../dependencies/STM32CubeL0/Drivers/STM32L0xx_HAL_Driver/Src/stm32l0xx_ll_rcc.c ****   /* Set MSIRANGE default value */
 126:../../dependencies/STM32CubeL0/Drivers/STM32L0xx_HAL_Driver/Src/stm32l0xx_ll_rcc.c ****   LL_RCC_MSI_SetRange(LL_RCC_MSIRANGE_5);
 1161              		.loc 2 126 3
 1162 0016 A023     		movs	r3, #160
 1163 0018 1B02     		lsls	r3, r3, #8
 1164 001a 1800     		movs	r0, r3
 1165 001c FFF7FEFF 		bl	LL_RCC_MSI_SetRange
 127:../../dependencies/STM32CubeL0/Drivers/STM32L0xx_HAL_Driver/Src/stm32l0xx_ll_rcc.c ****   /* Set MSITRIM bits to the reset value*/
 128:../../dependencies/STM32CubeL0/Drivers/STM32L0xx_HAL_Driver/Src/stm32l0xx_ll_rcc.c ****   LL_RCC_MSI_SetCalibTrimming(0U);
 1166              		.loc 2 128 3
 1167 0020 0020     		movs	r0, #0
 1168 0022 FFF7FEFF 		bl	LL_RCC_MSI_SetCalibTrimming
 129:../../dependencies/STM32CubeL0/Drivers/STM32L0xx_HAL_Driver/Src/stm32l0xx_ll_rcc.c **** 
 130:../../dependencies/STM32CubeL0/Drivers/STM32L0xx_HAL_Driver/Src/stm32l0xx_ll_rcc.c ****   /* Set HSITRIM bits to the reset value*/
 131:../../dependencies/STM32CubeL0/Drivers/STM32L0xx_HAL_Driver/Src/stm32l0xx_ll_rcc.c ****   LL_RCC_HSI_SetCalibTrimming(0x10U);
 1169              		.loc 2 131 3
 1170 0026 1020     		movs	r0, #16
 1171 0028 FFF7FEFF 		bl	LL_RCC_HSI_SetCalibTrimming
 132:../../dependencies/STM32CubeL0/Drivers/STM32L0xx_HAL_Driver/Src/stm32l0xx_ll_rcc.c **** 
 133:../../dependencies/STM32CubeL0/Drivers/STM32L0xx_HAL_Driver/Src/stm32l0xx_ll_rcc.c ****   /* Reset SW, HPRE, PPRE1, PPRE2, MCOSEL and MCOPRE bits */
 134:../../dependencies/STM32CubeL0/Drivers/STM32L0xx_HAL_Driver/Src/stm32l0xx_ll_rcc.c ****   vl_mask = 0xFFFFFFFFU;
 1172              		.loc 2 134 11
 1173 002c 0123     		movs	r3, #1
 1174 002e 5B42     		rsbs	r3, r3, #0
 1175 0030 7B60     		str	r3, [r7, #4]
 135:../../dependencies/STM32CubeL0/Drivers/STM32L0xx_HAL_Driver/Src/stm32l0xx_ll_rcc.c ****   CLEAR_BIT(vl_mask, RCC_CFGR_SW | RCC_CFGR_HPRE | RCC_CFGR_PPRE1 | RCC_CFGR_PPRE2 | \
 1176              		.loc 2 135 3
 1177 0032 7B68     		ldr	r3, [r7, #4]
 1178 0034 1B4A     		ldr	r2, .L118
 1179 0036 1340     		ands	r3, r2
 1180 0038 7B60     		str	r3, [r7, #4]
 136:../../dependencies/STM32CubeL0/Drivers/STM32L0xx_HAL_Driver/Src/stm32l0xx_ll_rcc.c ****                      RCC_CFGR_MCOSEL | RCC_CFGR_MCOPRE);
 137:../../dependencies/STM32CubeL0/Drivers/STM32L0xx_HAL_Driver/Src/stm32l0xx_ll_rcc.c ****   LL_RCC_WriteReg(CFGR, vl_mask);
 1181              		.loc 2 137 3
 1182 003a 1B4B     		ldr	r3, .L118+4
 1183 003c 7A68     		ldr	r2, [r7, #4]
 1184 003e DA60     		str	r2, [r3, #12]
 138:../../dependencies/STM32CubeL0/Drivers/STM32L0xx_HAL_Driver/Src/stm32l0xx_ll_rcc.c **** 
 139:../../dependencies/STM32CubeL0/Drivers/STM32L0xx_HAL_Driver/Src/stm32l0xx_ll_rcc.c ****   /* Reset HSI, HSE, PLL */
 140:../../dependencies/STM32CubeL0/Drivers/STM32L0xx_HAL_Driver/Src/stm32l0xx_ll_rcc.c ****   vl_mask = LL_RCC_ReadReg(CR);
 1185              		.loc 2 140 13
 1186 0040 194B     		ldr	r3, .L118+4
 1187 0042 1B68     		ldr	r3, [r3]
 1188              		.loc 2 140 11
 1189 0044 7B60     		str	r3, [r7, #4]
 141:../../dependencies/STM32CubeL0/Drivers/STM32L0xx_HAL_Driver/Src/stm32l0xx_ll_rcc.c **** #if defined(RCC_CR_HSIOUTEN)
 142:../../dependencies/STM32CubeL0/Drivers/STM32L0xx_HAL_Driver/Src/stm32l0xx_ll_rcc.c ****   CLEAR_BIT(vl_mask, RCC_CR_HSION| RCC_CR_HSIKERON| RCC_CR_HSIDIVEN | RCC_CR_HSIOUTEN | \
 143:../../dependencies/STM32CubeL0/Drivers/STM32L0xx_HAL_Driver/Src/stm32l0xx_ll_rcc.c ****                      RCC_CR_HSEON | RCC_CR_PLLON);
 144:../../dependencies/STM32CubeL0/Drivers/STM32L0xx_HAL_Driver/Src/stm32l0xx_ll_rcc.c **** #else
 145:../../dependencies/STM32CubeL0/Drivers/STM32L0xx_HAL_Driver/Src/stm32l0xx_ll_rcc.c ****   CLEAR_BIT(vl_mask, RCC_CR_HSION| RCC_CR_HSIKERON| RCC_CR_HSIDIVEN | \
 1190              		.loc 2 145 3
 1191 0046 7B68     		ldr	r3, [r7, #4]
ARM GAS  /var/folders/fs/dxwfnrqj18z860lwl3d6f5t00000gn/T//ccl6Jv28.s 			page 62


 1192 0048 184A     		ldr	r2, .L118+8
 1193 004a 1340     		ands	r3, r2
 1194 004c 7B60     		str	r3, [r7, #4]
 146:../../dependencies/STM32CubeL0/Drivers/STM32L0xx_HAL_Driver/Src/stm32l0xx_ll_rcc.c ****                      RCC_CR_HSEON | RCC_CR_PLLON);
 147:../../dependencies/STM32CubeL0/Drivers/STM32L0xx_HAL_Driver/Src/stm32l0xx_ll_rcc.c **** #endif
 148:../../dependencies/STM32CubeL0/Drivers/STM32L0xx_HAL_Driver/Src/stm32l0xx_ll_rcc.c ****   LL_RCC_WriteReg(CR, vl_mask);
 1195              		.loc 2 148 3
 1196 004e 164B     		ldr	r3, .L118+4
 1197 0050 7A68     		ldr	r2, [r7, #4]
 1198 0052 1A60     		str	r2, [r3]
 149:../../dependencies/STM32CubeL0/Drivers/STM32L0xx_HAL_Driver/Src/stm32l0xx_ll_rcc.c ****   /* Delay after an RCC peripheral clock */
 150:../../dependencies/STM32CubeL0/Drivers/STM32L0xx_HAL_Driver/Src/stm32l0xx_ll_rcc.c ****   vl_mask = LL_RCC_ReadReg(CR);
 1199              		.loc 2 150 13
 1200 0054 144B     		ldr	r3, .L118+4
 1201 0056 1B68     		ldr	r3, [r3]
 1202              		.loc 2 150 11
 1203 0058 7B60     		str	r3, [r7, #4]
 151:../../dependencies/STM32CubeL0/Drivers/STM32L0xx_HAL_Driver/Src/stm32l0xx_ll_rcc.c **** 
 152:../../dependencies/STM32CubeL0/Drivers/STM32L0xx_HAL_Driver/Src/stm32l0xx_ll_rcc.c ****   /* Reset HSEBYP bit */
 153:../../dependencies/STM32CubeL0/Drivers/STM32L0xx_HAL_Driver/Src/stm32l0xx_ll_rcc.c ****   LL_RCC_HSE_DisableBypass();
 1204              		.loc 2 153 3
 1205 005a FFF7FEFF 		bl	LL_RCC_HSE_DisableBypass
 154:../../dependencies/STM32CubeL0/Drivers/STM32L0xx_HAL_Driver/Src/stm32l0xx_ll_rcc.c **** 
 155:../../dependencies/STM32CubeL0/Drivers/STM32L0xx_HAL_Driver/Src/stm32l0xx_ll_rcc.c ****   /* Set RCC_CR_RTCPRE to 0b00*/
 156:../../dependencies/STM32CubeL0/Drivers/STM32L0xx_HAL_Driver/Src/stm32l0xx_ll_rcc.c ****   CLEAR_BIT(vl_mask, RCC_CR_RTCPRE);
 1206              		.loc 2 156 3
 1207 005e 7B68     		ldr	r3, [r7, #4]
 1208 0060 134A     		ldr	r2, .L118+12
 1209 0062 1340     		ands	r3, r2
 1210 0064 7B60     		str	r3, [r7, #4]
 157:../../dependencies/STM32CubeL0/Drivers/STM32L0xx_HAL_Driver/Src/stm32l0xx_ll_rcc.c ****   LL_RCC_WriteReg(CR, vl_mask);
 1211              		.loc 2 157 3
 1212 0066 104B     		ldr	r3, .L118+4
 1213 0068 7A68     		ldr	r2, [r7, #4]
 1214 006a 1A60     		str	r2, [r3]
 158:../../dependencies/STM32CubeL0/Drivers/STM32L0xx_HAL_Driver/Src/stm32l0xx_ll_rcc.c **** 
 159:../../dependencies/STM32CubeL0/Drivers/STM32L0xx_HAL_Driver/Src/stm32l0xx_ll_rcc.c ****   /* Insure PLL is disabled before to reset PLLSRC/PLLMUL/PLLDIV in CFGR register */
 160:../../dependencies/STM32CubeL0/Drivers/STM32L0xx_HAL_Driver/Src/stm32l0xx_ll_rcc.c ****   while(LL_RCC_PLL_IsReady() != 0U) {};
 1215              		.loc 2 160 8
 1216 006c C046     		nop
 1217              	.L116:
 1218              		.loc 2 160 9 discriminator 1
 1219 006e FFF7FEFF 		bl	LL_RCC_PLL_IsReady
 1220 0072 031E     		subs	r3, r0, #0
 1221              		.loc 2 160 8 discriminator 1
 1222 0074 FBD1     		bne	.L116
 161:../../dependencies/STM32CubeL0/Drivers/STM32L0xx_HAL_Driver/Src/stm32l0xx_ll_rcc.c **** 
 162:../../dependencies/STM32CubeL0/Drivers/STM32L0xx_HAL_Driver/Src/stm32l0xx_ll_rcc.c ****   /* Reset CFGR register */
 163:../../dependencies/STM32CubeL0/Drivers/STM32L0xx_HAL_Driver/Src/stm32l0xx_ll_rcc.c ****   LL_RCC_WriteReg(CFGR, 0x00000000U);
 1223              		.loc 2 163 3
 1224 0076 0C4B     		ldr	r3, .L118+4
 1225 0078 0022     		movs	r2, #0
 1226 007a DA60     		str	r2, [r3, #12]
 164:../../dependencies/STM32CubeL0/Drivers/STM32L0xx_HAL_Driver/Src/stm32l0xx_ll_rcc.c **** 
 165:../../dependencies/STM32CubeL0/Drivers/STM32L0xx_HAL_Driver/Src/stm32l0xx_ll_rcc.c **** #if defined(RCC_HSI48_SUPPORT)
 166:../../dependencies/STM32CubeL0/Drivers/STM32L0xx_HAL_Driver/Src/stm32l0xx_ll_rcc.c **** 
 167:../../dependencies/STM32CubeL0/Drivers/STM32L0xx_HAL_Driver/Src/stm32l0xx_ll_rcc.c ****   /* Reset CRRCR register to disable HSI48 */
ARM GAS  /var/folders/fs/dxwfnrqj18z860lwl3d6f5t00000gn/T//ccl6Jv28.s 			page 63


 168:../../dependencies/STM32CubeL0/Drivers/STM32L0xx_HAL_Driver/Src/stm32l0xx_ll_rcc.c **** #if defined(RCC_CRRCR_HSI48DIV6OUTEN)
 169:../../dependencies/STM32CubeL0/Drivers/STM32L0xx_HAL_Driver/Src/stm32l0xx_ll_rcc.c ****   CLEAR_BIT(RCC->CRRCR, (RCC_CRRCR_HSI48ON | RCC_CRRCR_HSI48DIV6OUTEN));
 170:../../dependencies/STM32CubeL0/Drivers/STM32L0xx_HAL_Driver/Src/stm32l0xx_ll_rcc.c **** #else
 171:../../dependencies/STM32CubeL0/Drivers/STM32L0xx_HAL_Driver/Src/stm32l0xx_ll_rcc.c ****   CLEAR_BIT(RCC->CRRCR, RCC_CRRCR_HSI48ON);
 1227              		.loc 2 171 3
 1228 007c 0A4B     		ldr	r3, .L118+4
 1229 007e 9A68     		ldr	r2, [r3, #8]
 1230 0080 094B     		ldr	r3, .L118+4
 1231 0082 0121     		movs	r1, #1
 1232 0084 8A43     		bics	r2, r1
 1233 0086 9A60     		str	r2, [r3, #8]
 172:../../dependencies/STM32CubeL0/Drivers/STM32L0xx_HAL_Driver/Src/stm32l0xx_ll_rcc.c **** #endif
 173:../../dependencies/STM32CubeL0/Drivers/STM32L0xx_HAL_Driver/Src/stm32l0xx_ll_rcc.c **** 
 174:../../dependencies/STM32CubeL0/Drivers/STM32L0xx_HAL_Driver/Src/stm32l0xx_ll_rcc.c **** #endif /*RCC_HSI48_SUPPORT*/
 175:../../dependencies/STM32CubeL0/Drivers/STM32L0xx_HAL_Driver/Src/stm32l0xx_ll_rcc.c **** 
 176:../../dependencies/STM32CubeL0/Drivers/STM32L0xx_HAL_Driver/Src/stm32l0xx_ll_rcc.c ****   /* Disable all interrupts */
 177:../../dependencies/STM32CubeL0/Drivers/STM32L0xx_HAL_Driver/Src/stm32l0xx_ll_rcc.c ****   LL_RCC_WriteReg(CIER, 0x00000000U);
 1234              		.loc 2 177 3
 1235 0088 074B     		ldr	r3, .L118+4
 1236 008a 0022     		movs	r2, #0
 1237 008c 1A61     		str	r2, [r3, #16]
 178:../../dependencies/STM32CubeL0/Drivers/STM32L0xx_HAL_Driver/Src/stm32l0xx_ll_rcc.c **** 
 179:../../dependencies/STM32CubeL0/Drivers/STM32L0xx_HAL_Driver/Src/stm32l0xx_ll_rcc.c ****   /* Disable all interrupt flags */
 180:../../dependencies/STM32CubeL0/Drivers/STM32L0xx_HAL_Driver/Src/stm32l0xx_ll_rcc.c ****   LL_RCC_WriteReg(CICR, 0xFFFFFFFFU);
 1238              		.loc 2 180 3
 1239 008e 064B     		ldr	r3, .L118+4
 1240 0090 0122     		movs	r2, #1
 1241 0092 5242     		rsbs	r2, r2, #0
 1242 0094 9A61     		str	r2, [r3, #24]
 181:../../dependencies/STM32CubeL0/Drivers/STM32L0xx_HAL_Driver/Src/stm32l0xx_ll_rcc.c **** 
 182:../../dependencies/STM32CubeL0/Drivers/STM32L0xx_HAL_Driver/Src/stm32l0xx_ll_rcc.c ****   /* Clear reset flags */
 183:../../dependencies/STM32CubeL0/Drivers/STM32L0xx_HAL_Driver/Src/stm32l0xx_ll_rcc.c ****   LL_RCC_ClearResetFlags();
 1243              		.loc 2 183 3
 1244 0096 FFF7FEFF 		bl	LL_RCC_ClearResetFlags
 184:../../dependencies/STM32CubeL0/Drivers/STM32L0xx_HAL_Driver/Src/stm32l0xx_ll_rcc.c **** 
 185:../../dependencies/STM32CubeL0/Drivers/STM32L0xx_HAL_Driver/Src/stm32l0xx_ll_rcc.c ****   return SUCCESS;
 1245              		.loc 2 185 10
 1246 009a 0023     		movs	r3, #0
 186:../../dependencies/STM32CubeL0/Drivers/STM32L0xx_HAL_Driver/Src/stm32l0xx_ll_rcc.c **** }
 1247              		.loc 2 186 1
 1248 009c 1800     		movs	r0, r3
 1249 009e BD46     		mov	sp, r7
 1250 00a0 02B0     		add	sp, sp, #8
 1251              		@ sp needed
 1252 00a2 80BD     		pop	{r7, pc}
 1253              	.L119:
 1254              		.align	2
 1255              	.L118:
 1256 00a4 0CC0FF80 		.word	-2130722804
 1257 00a8 00100240 		.word	1073876992
 1258 00ac F4FFFEFE 		.word	-16842764
 1259 00b0 FFFFCFFF 		.word	-3145729
 1260              		.cfi_endproc
 1261              	.LFE180:
 1263              		.section	.text.LL_RCC_GetSystemClocksFreq,"ax",%progbits
 1264              		.align	1
 1265              		.global	LL_RCC_GetSystemClocksFreq
ARM GAS  /var/folders/fs/dxwfnrqj18z860lwl3d6f5t00000gn/T//ccl6Jv28.s 			page 64


 1266              		.syntax unified
 1267              		.code	16
 1268              		.thumb_func
 1269              		.fpu softvfp
 1271              	LL_RCC_GetSystemClocksFreq:
 1272              	.LFB181:
 187:../../dependencies/STM32CubeL0/Drivers/STM32L0xx_HAL_Driver/Src/stm32l0xx_ll_rcc.c **** 
 188:../../dependencies/STM32CubeL0/Drivers/STM32L0xx_HAL_Driver/Src/stm32l0xx_ll_rcc.c **** /**
 189:../../dependencies/STM32CubeL0/Drivers/STM32L0xx_HAL_Driver/Src/stm32l0xx_ll_rcc.c ****   * @}
 190:../../dependencies/STM32CubeL0/Drivers/STM32L0xx_HAL_Driver/Src/stm32l0xx_ll_rcc.c ****   */
 191:../../dependencies/STM32CubeL0/Drivers/STM32L0xx_HAL_Driver/Src/stm32l0xx_ll_rcc.c **** 
 192:../../dependencies/STM32CubeL0/Drivers/STM32L0xx_HAL_Driver/Src/stm32l0xx_ll_rcc.c **** /** @addtogroup RCC_LL_EF_Get_Freq
 193:../../dependencies/STM32CubeL0/Drivers/STM32L0xx_HAL_Driver/Src/stm32l0xx_ll_rcc.c ****   * @brief  Return the frequencies of different on chip clocks;  System, AHB, APB1 and APB2 buses c
 194:../../dependencies/STM32CubeL0/Drivers/STM32L0xx_HAL_Driver/Src/stm32l0xx_ll_rcc.c ****   *         and different peripheral clocks available on the device.
 195:../../dependencies/STM32CubeL0/Drivers/STM32L0xx_HAL_Driver/Src/stm32l0xx_ll_rcc.c ****   * @note   If SYSCLK source is MSI, function returns values based on MSI clock(*)
 196:../../dependencies/STM32CubeL0/Drivers/STM32L0xx_HAL_Driver/Src/stm32l0xx_ll_rcc.c ****   * @note   If SYSCLK source is HSI, function returns values based on HSI_VALUE(**)
 197:../../dependencies/STM32CubeL0/Drivers/STM32L0xx_HAL_Driver/Src/stm32l0xx_ll_rcc.c ****   * @note   If SYSCLK source is HSE, function returns values based on HSE_VALUE(***)
 198:../../dependencies/STM32CubeL0/Drivers/STM32L0xx_HAL_Driver/Src/stm32l0xx_ll_rcc.c ****   * @note   If SYSCLK source is PLL, function returns values based on
 199:../../dependencies/STM32CubeL0/Drivers/STM32L0xx_HAL_Driver/Src/stm32l0xx_ll_rcc.c ****   *         HSI_VALUE(**) or HSE_VALUE(***) multiplied/divided by the PLL factors.
 200:../../dependencies/STM32CubeL0/Drivers/STM32L0xx_HAL_Driver/Src/stm32l0xx_ll_rcc.c ****   * @note   (*) MSI clock depends on the selected MSI range but the real value
 201:../../dependencies/STM32CubeL0/Drivers/STM32L0xx_HAL_Driver/Src/stm32l0xx_ll_rcc.c ****   *             may vary depending on the variations in voltage and temperature.
 202:../../dependencies/STM32CubeL0/Drivers/STM32L0xx_HAL_Driver/Src/stm32l0xx_ll_rcc.c ****   * @note   (**) HSI_VALUE is a defined constant but the real value may vary
 203:../../dependencies/STM32CubeL0/Drivers/STM32L0xx_HAL_Driver/Src/stm32l0xx_ll_rcc.c ****   *              depending on the variations in voltage and temperature.
 204:../../dependencies/STM32CubeL0/Drivers/STM32L0xx_HAL_Driver/Src/stm32l0xx_ll_rcc.c ****   * @note   (***) HSE_VALUE is a defined constant, user has to ensure that
 205:../../dependencies/STM32CubeL0/Drivers/STM32L0xx_HAL_Driver/Src/stm32l0xx_ll_rcc.c ****   *               HSE_VALUE is same as the real frequency of the crystal used.
 206:../../dependencies/STM32CubeL0/Drivers/STM32L0xx_HAL_Driver/Src/stm32l0xx_ll_rcc.c ****   *               Otherwise, this function may have wrong result.
 207:../../dependencies/STM32CubeL0/Drivers/STM32L0xx_HAL_Driver/Src/stm32l0xx_ll_rcc.c ****   * @note   The result of this function could be incorrect when using fractional
 208:../../dependencies/STM32CubeL0/Drivers/STM32L0xx_HAL_Driver/Src/stm32l0xx_ll_rcc.c ****   *         value for HSE crystal.
 209:../../dependencies/STM32CubeL0/Drivers/STM32L0xx_HAL_Driver/Src/stm32l0xx_ll_rcc.c ****   * @note   This function can be used by the user application to compute the
 210:../../dependencies/STM32CubeL0/Drivers/STM32L0xx_HAL_Driver/Src/stm32l0xx_ll_rcc.c ****   *         baud-rate for the communication peripherals or configure other parameters.
 211:../../dependencies/STM32CubeL0/Drivers/STM32L0xx_HAL_Driver/Src/stm32l0xx_ll_rcc.c ****   * @{
 212:../../dependencies/STM32CubeL0/Drivers/STM32L0xx_HAL_Driver/Src/stm32l0xx_ll_rcc.c ****   */
 213:../../dependencies/STM32CubeL0/Drivers/STM32L0xx_HAL_Driver/Src/stm32l0xx_ll_rcc.c **** 
 214:../../dependencies/STM32CubeL0/Drivers/STM32L0xx_HAL_Driver/Src/stm32l0xx_ll_rcc.c **** /**
 215:../../dependencies/STM32CubeL0/Drivers/STM32L0xx_HAL_Driver/Src/stm32l0xx_ll_rcc.c ****   * @brief  Return the frequencies of different on chip clocks;  System, AHB, APB1 and APB2 buses c
 216:../../dependencies/STM32CubeL0/Drivers/STM32L0xx_HAL_Driver/Src/stm32l0xx_ll_rcc.c ****   * @note   Each time SYSCLK, HCLK, PCLK1 and/or PCLK2 clock changes, this function
 217:../../dependencies/STM32CubeL0/Drivers/STM32L0xx_HAL_Driver/Src/stm32l0xx_ll_rcc.c ****   *         must be called to update structure fields. Otherwise, any
 218:../../dependencies/STM32CubeL0/Drivers/STM32L0xx_HAL_Driver/Src/stm32l0xx_ll_rcc.c ****   *         configuration based on this function will be incorrect.
 219:../../dependencies/STM32CubeL0/Drivers/STM32L0xx_HAL_Driver/Src/stm32l0xx_ll_rcc.c ****   * @param  RCC_Clocks pointer to a @ref LL_RCC_ClocksTypeDef structure which will hold the clocks 
 220:../../dependencies/STM32CubeL0/Drivers/STM32L0xx_HAL_Driver/Src/stm32l0xx_ll_rcc.c ****   * @retval None
 221:../../dependencies/STM32CubeL0/Drivers/STM32L0xx_HAL_Driver/Src/stm32l0xx_ll_rcc.c ****   */
 222:../../dependencies/STM32CubeL0/Drivers/STM32L0xx_HAL_Driver/Src/stm32l0xx_ll_rcc.c **** void LL_RCC_GetSystemClocksFreq(LL_RCC_ClocksTypeDef *RCC_Clocks)
 223:../../dependencies/STM32CubeL0/Drivers/STM32L0xx_HAL_Driver/Src/stm32l0xx_ll_rcc.c **** {
 1273              		.loc 2 223 1
 1274              		.cfi_startproc
 1275              		@ args = 0, pretend = 0, frame = 8
 1276              		@ frame_needed = 1, uses_anonymous_args = 0
 1277 0000 80B5     		push	{r7, lr}
 1278              		.cfi_def_cfa_offset 8
 1279              		.cfi_offset 7, -8
 1280              		.cfi_offset 14, -4
 1281 0002 82B0     		sub	sp, sp, #8
 1282              		.cfi_def_cfa_offset 16
 1283 0004 00AF     		add	r7, sp, #0
 1284              		.cfi_def_cfa_register 7
 1285 0006 7860     		str	r0, [r7, #4]
 224:../../dependencies/STM32CubeL0/Drivers/STM32L0xx_HAL_Driver/Src/stm32l0xx_ll_rcc.c ****   /* Get SYSCLK frequency */
ARM GAS  /var/folders/fs/dxwfnrqj18z860lwl3d6f5t00000gn/T//ccl6Jv28.s 			page 65


 225:../../dependencies/STM32CubeL0/Drivers/STM32L0xx_HAL_Driver/Src/stm32l0xx_ll_rcc.c ****   RCC_Clocks->SYSCLK_Frequency = RCC_GetSystemClockFreq();
 1286              		.loc 2 225 34
 1287 0008 FFF7FEFF 		bl	RCC_GetSystemClockFreq
 1288 000c 0200     		movs	r2, r0
 1289              		.loc 2 225 32
 1290 000e 7B68     		ldr	r3, [r7, #4]
 1291 0010 1A60     		str	r2, [r3]
 226:../../dependencies/STM32CubeL0/Drivers/STM32L0xx_HAL_Driver/Src/stm32l0xx_ll_rcc.c **** 
 227:../../dependencies/STM32CubeL0/Drivers/STM32L0xx_HAL_Driver/Src/stm32l0xx_ll_rcc.c ****   /* HCLK clock frequency */
 228:../../dependencies/STM32CubeL0/Drivers/STM32L0xx_HAL_Driver/Src/stm32l0xx_ll_rcc.c ****   RCC_Clocks->HCLK_Frequency   = RCC_GetHCLKClockFreq(RCC_Clocks->SYSCLK_Frequency);
 1292              		.loc 2 228 34
 1293 0012 7B68     		ldr	r3, [r7, #4]
 1294 0014 1B68     		ldr	r3, [r3]
 1295 0016 1800     		movs	r0, r3
 1296 0018 FFF7FEFF 		bl	RCC_GetHCLKClockFreq
 1297 001c 0200     		movs	r2, r0
 1298              		.loc 2 228 32
 1299 001e 7B68     		ldr	r3, [r7, #4]
 1300 0020 5A60     		str	r2, [r3, #4]
 229:../../dependencies/STM32CubeL0/Drivers/STM32L0xx_HAL_Driver/Src/stm32l0xx_ll_rcc.c **** 
 230:../../dependencies/STM32CubeL0/Drivers/STM32L0xx_HAL_Driver/Src/stm32l0xx_ll_rcc.c ****   /* PCLK1 clock frequency */
 231:../../dependencies/STM32CubeL0/Drivers/STM32L0xx_HAL_Driver/Src/stm32l0xx_ll_rcc.c ****   RCC_Clocks->PCLK1_Frequency  = RCC_GetPCLK1ClockFreq(RCC_Clocks->HCLK_Frequency);
 1301              		.loc 2 231 34
 1302 0022 7B68     		ldr	r3, [r7, #4]
 1303 0024 5B68     		ldr	r3, [r3, #4]
 1304 0026 1800     		movs	r0, r3
 1305 0028 FFF7FEFF 		bl	RCC_GetPCLK1ClockFreq
 1306 002c 0200     		movs	r2, r0
 1307              		.loc 2 231 32
 1308 002e 7B68     		ldr	r3, [r7, #4]
 1309 0030 9A60     		str	r2, [r3, #8]
 232:../../dependencies/STM32CubeL0/Drivers/STM32L0xx_HAL_Driver/Src/stm32l0xx_ll_rcc.c **** 
 233:../../dependencies/STM32CubeL0/Drivers/STM32L0xx_HAL_Driver/Src/stm32l0xx_ll_rcc.c ****   /* PCLK2 clock frequency */
 234:../../dependencies/STM32CubeL0/Drivers/STM32L0xx_HAL_Driver/Src/stm32l0xx_ll_rcc.c ****   RCC_Clocks->PCLK2_Frequency  = RCC_GetPCLK2ClockFreq(RCC_Clocks->HCLK_Frequency);
 1310              		.loc 2 234 34
 1311 0032 7B68     		ldr	r3, [r7, #4]
 1312 0034 5B68     		ldr	r3, [r3, #4]
 1313 0036 1800     		movs	r0, r3
 1314 0038 FFF7FEFF 		bl	RCC_GetPCLK2ClockFreq
 1315 003c 0200     		movs	r2, r0
 1316              		.loc 2 234 32
 1317 003e 7B68     		ldr	r3, [r7, #4]
 1318 0040 DA60     		str	r2, [r3, #12]
 235:../../dependencies/STM32CubeL0/Drivers/STM32L0xx_HAL_Driver/Src/stm32l0xx_ll_rcc.c **** }
 1319              		.loc 2 235 1
 1320 0042 C046     		nop
 1321 0044 BD46     		mov	sp, r7
 1322 0046 02B0     		add	sp, sp, #8
 1323              		@ sp needed
 1324 0048 80BD     		pop	{r7, pc}
 1325              		.cfi_endproc
 1326              	.LFE181:
 1328              		.section	.text.LL_RCC_GetUSARTClockFreq,"ax",%progbits
 1329              		.align	1
 1330              		.global	LL_RCC_GetUSARTClockFreq
 1331              		.syntax unified
 1332              		.code	16
ARM GAS  /var/folders/fs/dxwfnrqj18z860lwl3d6f5t00000gn/T//ccl6Jv28.s 			page 66


 1333              		.thumb_func
 1334              		.fpu softvfp
 1336              	LL_RCC_GetUSARTClockFreq:
 1337              	.LFB182:
 236:../../dependencies/STM32CubeL0/Drivers/STM32L0xx_HAL_Driver/Src/stm32l0xx_ll_rcc.c **** 
 237:../../dependencies/STM32CubeL0/Drivers/STM32L0xx_HAL_Driver/Src/stm32l0xx_ll_rcc.c **** /**
 238:../../dependencies/STM32CubeL0/Drivers/STM32L0xx_HAL_Driver/Src/stm32l0xx_ll_rcc.c ****   * @brief  Return USARTx clock frequency
 239:../../dependencies/STM32CubeL0/Drivers/STM32L0xx_HAL_Driver/Src/stm32l0xx_ll_rcc.c ****   * @param  USARTxSource This parameter can be one of the following values:
 240:../../dependencies/STM32CubeL0/Drivers/STM32L0xx_HAL_Driver/Src/stm32l0xx_ll_rcc.c ****   *         @arg @ref LL_RCC_USART1_CLKSOURCE
 241:../../dependencies/STM32CubeL0/Drivers/STM32L0xx_HAL_Driver/Src/stm32l0xx_ll_rcc.c ****   *         @arg @ref LL_RCC_USART2_CLKSOURCE (*)
 242:../../dependencies/STM32CubeL0/Drivers/STM32L0xx_HAL_Driver/Src/stm32l0xx_ll_rcc.c ****   *
 243:../../dependencies/STM32CubeL0/Drivers/STM32L0xx_HAL_Driver/Src/stm32l0xx_ll_rcc.c ****   *         (*) value not defined in all devices.
 244:../../dependencies/STM32CubeL0/Drivers/STM32L0xx_HAL_Driver/Src/stm32l0xx_ll_rcc.c ****   * @retval USART clock frequency (in Hz)
 245:../../dependencies/STM32CubeL0/Drivers/STM32L0xx_HAL_Driver/Src/stm32l0xx_ll_rcc.c ****   *         @arg @ref LL_RCC_PERIPH_FREQUENCY_NO indicates that oscillator (HSI or LSE) is not read
 246:../../dependencies/STM32CubeL0/Drivers/STM32L0xx_HAL_Driver/Src/stm32l0xx_ll_rcc.c ****   */
 247:../../dependencies/STM32CubeL0/Drivers/STM32L0xx_HAL_Driver/Src/stm32l0xx_ll_rcc.c **** uint32_t LL_RCC_GetUSARTClockFreq(uint32_t USARTxSource)
 248:../../dependencies/STM32CubeL0/Drivers/STM32L0xx_HAL_Driver/Src/stm32l0xx_ll_rcc.c **** {
 1338              		.loc 2 248 1
 1339              		.cfi_startproc
 1340              		@ args = 0, pretend = 0, frame = 16
 1341              		@ frame_needed = 1, uses_anonymous_args = 0
 1342 0000 80B5     		push	{r7, lr}
 1343              		.cfi_def_cfa_offset 8
 1344              		.cfi_offset 7, -8
 1345              		.cfi_offset 14, -4
 1346 0002 84B0     		sub	sp, sp, #16
 1347              		.cfi_def_cfa_offset 24
 1348 0004 00AF     		add	r7, sp, #0
 1349              		.cfi_def_cfa_register 7
 1350 0006 7860     		str	r0, [r7, #4]
 249:../../dependencies/STM32CubeL0/Drivers/STM32L0xx_HAL_Driver/Src/stm32l0xx_ll_rcc.c ****   uint32_t usart_frequency = LL_RCC_PERIPH_FREQUENCY_NO;
 1351              		.loc 2 249 12
 1352 0008 0023     		movs	r3, #0
 1353 000a FB60     		str	r3, [r7, #12]
 250:../../dependencies/STM32CubeL0/Drivers/STM32L0xx_HAL_Driver/Src/stm32l0xx_ll_rcc.c **** 
 251:../../dependencies/STM32CubeL0/Drivers/STM32L0xx_HAL_Driver/Src/stm32l0xx_ll_rcc.c ****   /* Check parameter */
 252:../../dependencies/STM32CubeL0/Drivers/STM32L0xx_HAL_Driver/Src/stm32l0xx_ll_rcc.c ****   assert_param(IS_LL_RCC_USART_CLKSOURCE(USARTxSource));
 253:../../dependencies/STM32CubeL0/Drivers/STM32L0xx_HAL_Driver/Src/stm32l0xx_ll_rcc.c **** #if defined(RCC_CCIPR_USART1SEL)
 254:../../dependencies/STM32CubeL0/Drivers/STM32L0xx_HAL_Driver/Src/stm32l0xx_ll_rcc.c ****   if (USARTxSource == LL_RCC_USART1_CLKSOURCE)
 1354              		.loc 2 254 6
 1355 000c 7B68     		ldr	r3, [r7, #4]
 1356 000e 032B     		cmp	r3, #3
 1357 0010 39D1     		bne	.L139
 255:../../dependencies/STM32CubeL0/Drivers/STM32L0xx_HAL_Driver/Src/stm32l0xx_ll_rcc.c ****   {
 256:../../dependencies/STM32CubeL0/Drivers/STM32L0xx_HAL_Driver/Src/stm32l0xx_ll_rcc.c ****     /* USART1CLK clock frequency */
 257:../../dependencies/STM32CubeL0/Drivers/STM32L0xx_HAL_Driver/Src/stm32l0xx_ll_rcc.c ****     switch (LL_RCC_GetUSARTClockSource(USARTxSource))
 1358              		.loc 2 257 13
 1359 0012 7B68     		ldr	r3, [r7, #4]
 1360 0014 1800     		movs	r0, r3
 1361 0016 FFF7FEFF 		bl	LL_RCC_GetUSARTClockSource
 1362 001a 0300     		movs	r3, r0
 1363              		.loc 2 257 5
 1364 001c 404A     		ldr	r2, .L145
 1365 001e 9342     		cmp	r3, r2
 1366 0020 1CD0     		beq	.L123
 1367 0022 3F4A     		ldr	r2, .L145
 1368 0024 9342     		cmp	r3, r2
ARM GAS  /var/folders/fs/dxwfnrqj18z860lwl3d6f5t00000gn/T//ccl6Jv28.s 			page 67


 1369 0026 21D8     		bhi	.L124
 1370 0028 3E4A     		ldr	r2, .L145+4
 1371 002a 9342     		cmp	r3, r2
 1372 002c 03D0     		beq	.L125
 1373 002e 3E4A     		ldr	r2, .L145+8
 1374 0030 9342     		cmp	r3, r2
 1375 0032 05D0     		beq	.L126
 1376 0034 1AE0     		b	.L124
 1377              	.L125:
 258:../../dependencies/STM32CubeL0/Drivers/STM32L0xx_HAL_Driver/Src/stm32l0xx_ll_rcc.c ****     {
 259:../../dependencies/STM32CubeL0/Drivers/STM32L0xx_HAL_Driver/Src/stm32l0xx_ll_rcc.c ****       case LL_RCC_USART1_CLKSOURCE_SYSCLK: /* USART1 Clock is System Clock */
 260:../../dependencies/STM32CubeL0/Drivers/STM32L0xx_HAL_Driver/Src/stm32l0xx_ll_rcc.c ****         usart_frequency = RCC_GetSystemClockFreq();
 1378              		.loc 2 260 27
 1379 0036 FFF7FEFF 		bl	RCC_GetSystemClockFreq
 1380 003a 0300     		movs	r3, r0
 1381 003c FB60     		str	r3, [r7, #12]
 261:../../dependencies/STM32CubeL0/Drivers/STM32L0xx_HAL_Driver/Src/stm32l0xx_ll_rcc.c ****         break;
 1382              		.loc 2 261 9
 1383 003e 27E0     		b	.L122
 1384              	.L126:
 262:../../dependencies/STM32CubeL0/Drivers/STM32L0xx_HAL_Driver/Src/stm32l0xx_ll_rcc.c **** 
 263:../../dependencies/STM32CubeL0/Drivers/STM32L0xx_HAL_Driver/Src/stm32l0xx_ll_rcc.c ****       case LL_RCC_USART1_CLKSOURCE_HSI:    /* USART1 Clock is HSI Osc. */
 264:../../dependencies/STM32CubeL0/Drivers/STM32L0xx_HAL_Driver/Src/stm32l0xx_ll_rcc.c ****         if (LL_RCC_HSI_IsReady() != 0U)
 1385              		.loc 2 264 13
 1386 0040 FFF7FEFF 		bl	LL_RCC_HSI_IsReady
 1387 0044 031E     		subs	r3, r0, #0
 1388              		.loc 2 264 12
 1389 0046 20D0     		beq	.L140
 265:../../dependencies/STM32CubeL0/Drivers/STM32L0xx_HAL_Driver/Src/stm32l0xx_ll_rcc.c ****         {
 266:../../dependencies/STM32CubeL0/Drivers/STM32L0xx_HAL_Driver/Src/stm32l0xx_ll_rcc.c ****           if (LL_RCC_IsActiveFlag_HSIDIV() != 0U)
 1390              		.loc 2 266 15
 1391 0048 FFF7FEFF 		bl	LL_RCC_IsActiveFlag_HSIDIV
 1392 004c 031E     		subs	r3, r0, #0
 1393              		.loc 2 266 14
 1394 004e 02D0     		beq	.L128
 267:../../dependencies/STM32CubeL0/Drivers/STM32L0xx_HAL_Driver/Src/stm32l0xx_ll_rcc.c ****           {
 268:../../dependencies/STM32CubeL0/Drivers/STM32L0xx_HAL_Driver/Src/stm32l0xx_ll_rcc.c ****             usart_frequency = (HSI_VALUE >> 2U);
 1395              		.loc 2 268 29
 1396 0050 364B     		ldr	r3, .L145+12
 1397 0052 FB60     		str	r3, [r7, #12]
 269:../../dependencies/STM32CubeL0/Drivers/STM32L0xx_HAL_Driver/Src/stm32l0xx_ll_rcc.c ****           }
 270:../../dependencies/STM32CubeL0/Drivers/STM32L0xx_HAL_Driver/Src/stm32l0xx_ll_rcc.c ****           else
 271:../../dependencies/STM32CubeL0/Drivers/STM32L0xx_HAL_Driver/Src/stm32l0xx_ll_rcc.c ****           {
 272:../../dependencies/STM32CubeL0/Drivers/STM32L0xx_HAL_Driver/Src/stm32l0xx_ll_rcc.c ****             usart_frequency = HSI_VALUE;
 273:../../dependencies/STM32CubeL0/Drivers/STM32L0xx_HAL_Driver/Src/stm32l0xx_ll_rcc.c ****           }
 274:../../dependencies/STM32CubeL0/Drivers/STM32L0xx_HAL_Driver/Src/stm32l0xx_ll_rcc.c ****         }
 275:../../dependencies/STM32CubeL0/Drivers/STM32L0xx_HAL_Driver/Src/stm32l0xx_ll_rcc.c ****         break;
 1398              		.loc 2 275 9
 1399 0054 19E0     		b	.L140
 1400              	.L128:
 272:../../dependencies/STM32CubeL0/Drivers/STM32L0xx_HAL_Driver/Src/stm32l0xx_ll_rcc.c ****           }
 1401              		.loc 2 272 29
 1402 0056 364B     		ldr	r3, .L145+16
 1403 0058 FB60     		str	r3, [r7, #12]
 1404              		.loc 2 275 9
 1405 005a 16E0     		b	.L140
 1406              	.L123:
ARM GAS  /var/folders/fs/dxwfnrqj18z860lwl3d6f5t00000gn/T//ccl6Jv28.s 			page 68


 276:../../dependencies/STM32CubeL0/Drivers/STM32L0xx_HAL_Driver/Src/stm32l0xx_ll_rcc.c **** 
 277:../../dependencies/STM32CubeL0/Drivers/STM32L0xx_HAL_Driver/Src/stm32l0xx_ll_rcc.c ****       case LL_RCC_USART1_CLKSOURCE_LSE:    /* USART1 Clock is LSE Osc. */
 278:../../dependencies/STM32CubeL0/Drivers/STM32L0xx_HAL_Driver/Src/stm32l0xx_ll_rcc.c ****         if (LL_RCC_LSE_IsReady() != 0U)
 1407              		.loc 2 278 13
 1408 005c FFF7FEFF 		bl	LL_RCC_LSE_IsReady
 1409 0060 031E     		subs	r3, r0, #0
 1410              		.loc 2 278 12
 1411 0062 14D0     		beq	.L141
 279:../../dependencies/STM32CubeL0/Drivers/STM32L0xx_HAL_Driver/Src/stm32l0xx_ll_rcc.c ****         {
 280:../../dependencies/STM32CubeL0/Drivers/STM32L0xx_HAL_Driver/Src/stm32l0xx_ll_rcc.c ****           usart_frequency = LSE_VALUE;
 1412              		.loc 2 280 27
 1413 0064 8023     		movs	r3, #128
 1414 0066 1B02     		lsls	r3, r3, #8
 1415 0068 FB60     		str	r3, [r7, #12]
 281:../../dependencies/STM32CubeL0/Drivers/STM32L0xx_HAL_Driver/Src/stm32l0xx_ll_rcc.c ****         }
 282:../../dependencies/STM32CubeL0/Drivers/STM32L0xx_HAL_Driver/Src/stm32l0xx_ll_rcc.c ****         break;
 1416              		.loc 2 282 9
 1417 006a 10E0     		b	.L141
 1418              	.L124:
 283:../../dependencies/STM32CubeL0/Drivers/STM32L0xx_HAL_Driver/Src/stm32l0xx_ll_rcc.c **** 
 284:../../dependencies/STM32CubeL0/Drivers/STM32L0xx_HAL_Driver/Src/stm32l0xx_ll_rcc.c ****       case LL_RCC_USART1_CLKSOURCE_PCLK2:  /* USART1 Clock is PCLK2 */
 285:../../dependencies/STM32CubeL0/Drivers/STM32L0xx_HAL_Driver/Src/stm32l0xx_ll_rcc.c ****       default:
 286:../../dependencies/STM32CubeL0/Drivers/STM32L0xx_HAL_Driver/Src/stm32l0xx_ll_rcc.c ****         usart_frequency = RCC_GetPCLK2ClockFreq(RCC_GetHCLKClockFreq(RCC_GetSystemClockFreq()));
 1419              		.loc 2 286 27
 1420 006c FFF7FEFF 		bl	RCC_GetSystemClockFreq
 1421 0070 0300     		movs	r3, r0
 1422 0072 1800     		movs	r0, r3
 1423 0074 FFF7FEFF 		bl	RCC_GetHCLKClockFreq
 1424 0078 0300     		movs	r3, r0
 1425 007a 1800     		movs	r0, r3
 1426 007c FFF7FEFF 		bl	RCC_GetPCLK2ClockFreq
 1427 0080 0300     		movs	r3, r0
 1428 0082 FB60     		str	r3, [r7, #12]
 287:../../dependencies/STM32CubeL0/Drivers/STM32L0xx_HAL_Driver/Src/stm32l0xx_ll_rcc.c ****         break;
 1429              		.loc 2 287 9
 1430 0084 04E0     		b	.L122
 1431              	.L139:
 288:../../dependencies/STM32CubeL0/Drivers/STM32L0xx_HAL_Driver/Src/stm32l0xx_ll_rcc.c ****     }
 289:../../dependencies/STM32CubeL0/Drivers/STM32L0xx_HAL_Driver/Src/stm32l0xx_ll_rcc.c ****   }
 1432              		.loc 2 289 3
 1433 0086 C046     		nop
 1434 0088 02E0     		b	.L122
 1435              	.L140:
 275:../../dependencies/STM32CubeL0/Drivers/STM32L0xx_HAL_Driver/Src/stm32l0xx_ll_rcc.c **** 
 1436              		.loc 2 275 9
 1437 008a C046     		nop
 1438 008c 00E0     		b	.L122
 1439              	.L141:
 282:../../dependencies/STM32CubeL0/Drivers/STM32L0xx_HAL_Driver/Src/stm32l0xx_ll_rcc.c **** 
 1440              		.loc 2 282 9
 1441 008e C046     		nop
 1442              	.L122:
 290:../../dependencies/STM32CubeL0/Drivers/STM32L0xx_HAL_Driver/Src/stm32l0xx_ll_rcc.c **** #endif /* RCC_CCIPR_USART1SEL  */
 291:../../dependencies/STM32CubeL0/Drivers/STM32L0xx_HAL_Driver/Src/stm32l0xx_ll_rcc.c **** 
 292:../../dependencies/STM32CubeL0/Drivers/STM32L0xx_HAL_Driver/Src/stm32l0xx_ll_rcc.c **** #if defined(RCC_CCIPR_USART2SEL)
 293:../../dependencies/STM32CubeL0/Drivers/STM32L0xx_HAL_Driver/Src/stm32l0xx_ll_rcc.c ****   if (USARTxSource == LL_RCC_USART2_CLKSOURCE)
 1443              		.loc 2 293 6
ARM GAS  /var/folders/fs/dxwfnrqj18z860lwl3d6f5t00000gn/T//ccl6Jv28.s 			page 69


 1444 0090 7B68     		ldr	r3, [r7, #4]
 1445 0092 0C2B     		cmp	r3, #12
 1446 0094 39D1     		bne	.L142
 294:../../dependencies/STM32CubeL0/Drivers/STM32L0xx_HAL_Driver/Src/stm32l0xx_ll_rcc.c ****   {
 295:../../dependencies/STM32CubeL0/Drivers/STM32L0xx_HAL_Driver/Src/stm32l0xx_ll_rcc.c ****     /* USART2CLK clock frequency */
 296:../../dependencies/STM32CubeL0/Drivers/STM32L0xx_HAL_Driver/Src/stm32l0xx_ll_rcc.c ****     switch (LL_RCC_GetUSARTClockSource(USARTxSource))
 1447              		.loc 2 296 13
 1448 0096 7B68     		ldr	r3, [r7, #4]
 1449 0098 1800     		movs	r0, r3
 1450 009a FFF7FEFF 		bl	LL_RCC_GetUSARTClockSource
 1451 009e 0300     		movs	r3, r0
 1452              		.loc 2 296 5
 1453 00a0 244A     		ldr	r2, .L145+20
 1454 00a2 9342     		cmp	r3, r2
 1455 00a4 1CD0     		beq	.L131
 1456 00a6 234A     		ldr	r2, .L145+20
 1457 00a8 9342     		cmp	r3, r2
 1458 00aa 21D8     		bhi	.L132
 1459 00ac 224A     		ldr	r2, .L145+24
 1460 00ae 9342     		cmp	r3, r2
 1461 00b0 03D0     		beq	.L133
 1462 00b2 224A     		ldr	r2, .L145+28
 1463 00b4 9342     		cmp	r3, r2
 1464 00b6 05D0     		beq	.L134
 1465 00b8 1AE0     		b	.L132
 1466              	.L133:
 297:../../dependencies/STM32CubeL0/Drivers/STM32L0xx_HAL_Driver/Src/stm32l0xx_ll_rcc.c ****     {
 298:../../dependencies/STM32CubeL0/Drivers/STM32L0xx_HAL_Driver/Src/stm32l0xx_ll_rcc.c ****       case LL_RCC_USART2_CLKSOURCE_SYSCLK: /* USART2 Clock is System Clock */
 299:../../dependencies/STM32CubeL0/Drivers/STM32L0xx_HAL_Driver/Src/stm32l0xx_ll_rcc.c ****         usart_frequency = RCC_GetSystemClockFreq();
 1467              		.loc 2 299 27
 1468 00ba FFF7FEFF 		bl	RCC_GetSystemClockFreq
 1469 00be 0300     		movs	r3, r0
 1470 00c0 FB60     		str	r3, [r7, #12]
 300:../../dependencies/STM32CubeL0/Drivers/STM32L0xx_HAL_Driver/Src/stm32l0xx_ll_rcc.c ****         break;
 1471              		.loc 2 300 9
 1472 00c2 27E0     		b	.L130
 1473              	.L134:
 301:../../dependencies/STM32CubeL0/Drivers/STM32L0xx_HAL_Driver/Src/stm32l0xx_ll_rcc.c **** 
 302:../../dependencies/STM32CubeL0/Drivers/STM32L0xx_HAL_Driver/Src/stm32l0xx_ll_rcc.c ****       case LL_RCC_USART2_CLKSOURCE_HSI:    /* USART2 Clock is HSI Osc. */
 303:../../dependencies/STM32CubeL0/Drivers/STM32L0xx_HAL_Driver/Src/stm32l0xx_ll_rcc.c ****         if (LL_RCC_HSI_IsReady() != 0U)
 1474              		.loc 2 303 13
 1475 00c4 FFF7FEFF 		bl	LL_RCC_HSI_IsReady
 1476 00c8 031E     		subs	r3, r0, #0
 1477              		.loc 2 303 12
 1478 00ca 20D0     		beq	.L143
 304:../../dependencies/STM32CubeL0/Drivers/STM32L0xx_HAL_Driver/Src/stm32l0xx_ll_rcc.c ****         {
 305:../../dependencies/STM32CubeL0/Drivers/STM32L0xx_HAL_Driver/Src/stm32l0xx_ll_rcc.c ****           if (LL_RCC_IsActiveFlag_HSIDIV() != 0U)
 1479              		.loc 2 305 15
 1480 00cc FFF7FEFF 		bl	LL_RCC_IsActiveFlag_HSIDIV
 1481 00d0 031E     		subs	r3, r0, #0
 1482              		.loc 2 305 14
 1483 00d2 02D0     		beq	.L136
 306:../../dependencies/STM32CubeL0/Drivers/STM32L0xx_HAL_Driver/Src/stm32l0xx_ll_rcc.c ****           {
 307:../../dependencies/STM32CubeL0/Drivers/STM32L0xx_HAL_Driver/Src/stm32l0xx_ll_rcc.c ****             usart_frequency = (HSI_VALUE >> 2U);
 1484              		.loc 2 307 29
 1485 00d4 154B     		ldr	r3, .L145+12
 1486 00d6 FB60     		str	r3, [r7, #12]
ARM GAS  /var/folders/fs/dxwfnrqj18z860lwl3d6f5t00000gn/T//ccl6Jv28.s 			page 70


 308:../../dependencies/STM32CubeL0/Drivers/STM32L0xx_HAL_Driver/Src/stm32l0xx_ll_rcc.c ****           }
 309:../../dependencies/STM32CubeL0/Drivers/STM32L0xx_HAL_Driver/Src/stm32l0xx_ll_rcc.c ****           else
 310:../../dependencies/STM32CubeL0/Drivers/STM32L0xx_HAL_Driver/Src/stm32l0xx_ll_rcc.c ****           {
 311:../../dependencies/STM32CubeL0/Drivers/STM32L0xx_HAL_Driver/Src/stm32l0xx_ll_rcc.c ****             usart_frequency = HSI_VALUE;
 312:../../dependencies/STM32CubeL0/Drivers/STM32L0xx_HAL_Driver/Src/stm32l0xx_ll_rcc.c ****           }
 313:../../dependencies/STM32CubeL0/Drivers/STM32L0xx_HAL_Driver/Src/stm32l0xx_ll_rcc.c ****         }
 314:../../dependencies/STM32CubeL0/Drivers/STM32L0xx_HAL_Driver/Src/stm32l0xx_ll_rcc.c ****         break;
 1487              		.loc 2 314 9
 1488 00d8 19E0     		b	.L143
 1489              	.L136:
 311:../../dependencies/STM32CubeL0/Drivers/STM32L0xx_HAL_Driver/Src/stm32l0xx_ll_rcc.c ****           }
 1490              		.loc 2 311 29
 1491 00da 154B     		ldr	r3, .L145+16
 1492 00dc FB60     		str	r3, [r7, #12]
 1493              		.loc 2 314 9
 1494 00de 16E0     		b	.L143
 1495              	.L131:
 315:../../dependencies/STM32CubeL0/Drivers/STM32L0xx_HAL_Driver/Src/stm32l0xx_ll_rcc.c **** 
 316:../../dependencies/STM32CubeL0/Drivers/STM32L0xx_HAL_Driver/Src/stm32l0xx_ll_rcc.c ****       case LL_RCC_USART2_CLKSOURCE_LSE:    /* USART2 Clock is LSE Osc. */
 317:../../dependencies/STM32CubeL0/Drivers/STM32L0xx_HAL_Driver/Src/stm32l0xx_ll_rcc.c ****         if (LL_RCC_LSE_IsReady() != 0U)
 1496              		.loc 2 317 13
 1497 00e0 FFF7FEFF 		bl	LL_RCC_LSE_IsReady
 1498 00e4 031E     		subs	r3, r0, #0
 1499              		.loc 2 317 12
 1500 00e6 14D0     		beq	.L144
 318:../../dependencies/STM32CubeL0/Drivers/STM32L0xx_HAL_Driver/Src/stm32l0xx_ll_rcc.c ****         {
 319:../../dependencies/STM32CubeL0/Drivers/STM32L0xx_HAL_Driver/Src/stm32l0xx_ll_rcc.c ****           usart_frequency = LSE_VALUE;
 1501              		.loc 2 319 27
 1502 00e8 8023     		movs	r3, #128
 1503 00ea 1B02     		lsls	r3, r3, #8
 1504 00ec FB60     		str	r3, [r7, #12]
 320:../../dependencies/STM32CubeL0/Drivers/STM32L0xx_HAL_Driver/Src/stm32l0xx_ll_rcc.c ****         }
 321:../../dependencies/STM32CubeL0/Drivers/STM32L0xx_HAL_Driver/Src/stm32l0xx_ll_rcc.c ****         break;
 1505              		.loc 2 321 9
 1506 00ee 10E0     		b	.L144
 1507              	.L132:
 322:../../dependencies/STM32CubeL0/Drivers/STM32L0xx_HAL_Driver/Src/stm32l0xx_ll_rcc.c **** 
 323:../../dependencies/STM32CubeL0/Drivers/STM32L0xx_HAL_Driver/Src/stm32l0xx_ll_rcc.c ****       case LL_RCC_USART2_CLKSOURCE_PCLK1:  /* USART2 Clock is PCLK1 */
 324:../../dependencies/STM32CubeL0/Drivers/STM32L0xx_HAL_Driver/Src/stm32l0xx_ll_rcc.c ****       default:
 325:../../dependencies/STM32CubeL0/Drivers/STM32L0xx_HAL_Driver/Src/stm32l0xx_ll_rcc.c ****         usart_frequency = RCC_GetPCLK1ClockFreq(RCC_GetHCLKClockFreq(RCC_GetSystemClockFreq()));
 1508              		.loc 2 325 27
 1509 00f0 FFF7FEFF 		bl	RCC_GetSystemClockFreq
 1510 00f4 0300     		movs	r3, r0
 1511 00f6 1800     		movs	r0, r3
 1512 00f8 FFF7FEFF 		bl	RCC_GetHCLKClockFreq
 1513 00fc 0300     		movs	r3, r0
 1514 00fe 1800     		movs	r0, r3
 1515 0100 FFF7FEFF 		bl	RCC_GetPCLK1ClockFreq
 1516 0104 0300     		movs	r3, r0
 1517 0106 FB60     		str	r3, [r7, #12]
 326:../../dependencies/STM32CubeL0/Drivers/STM32L0xx_HAL_Driver/Src/stm32l0xx_ll_rcc.c ****         break;
 1518              		.loc 2 326 9
 1519 0108 04E0     		b	.L130
 1520              	.L142:
 327:../../dependencies/STM32CubeL0/Drivers/STM32L0xx_HAL_Driver/Src/stm32l0xx_ll_rcc.c ****     }
 328:../../dependencies/STM32CubeL0/Drivers/STM32L0xx_HAL_Driver/Src/stm32l0xx_ll_rcc.c ****   }
 1521              		.loc 2 328 3
ARM GAS  /var/folders/fs/dxwfnrqj18z860lwl3d6f5t00000gn/T//ccl6Jv28.s 			page 71


 1522 010a C046     		nop
 1523 010c 02E0     		b	.L130
 1524              	.L143:
 314:../../dependencies/STM32CubeL0/Drivers/STM32L0xx_HAL_Driver/Src/stm32l0xx_ll_rcc.c **** 
 1525              		.loc 2 314 9
 1526 010e C046     		nop
 1527 0110 00E0     		b	.L130
 1528              	.L144:
 321:../../dependencies/STM32CubeL0/Drivers/STM32L0xx_HAL_Driver/Src/stm32l0xx_ll_rcc.c **** 
 1529              		.loc 2 321 9
 1530 0112 C046     		nop
 1531              	.L130:
 329:../../dependencies/STM32CubeL0/Drivers/STM32L0xx_HAL_Driver/Src/stm32l0xx_ll_rcc.c **** #endif /* RCC_CCIPR_USART2SEL */
 330:../../dependencies/STM32CubeL0/Drivers/STM32L0xx_HAL_Driver/Src/stm32l0xx_ll_rcc.c **** 
 331:../../dependencies/STM32CubeL0/Drivers/STM32L0xx_HAL_Driver/Src/stm32l0xx_ll_rcc.c ****   return usart_frequency;
 1532              		.loc 2 331 10
 1533 0114 FB68     		ldr	r3, [r7, #12]
 332:../../dependencies/STM32CubeL0/Drivers/STM32L0xx_HAL_Driver/Src/stm32l0xx_ll_rcc.c **** }
 1534              		.loc 2 332 1
 1535 0116 1800     		movs	r0, r3
 1536 0118 BD46     		mov	sp, r7
 1537 011a 04B0     		add	sp, sp, #16
 1538              		@ sp needed
 1539 011c 80BD     		pop	{r7, pc}
 1540              	.L146:
 1541 011e C046     		.align	2
 1542              	.L145:
 1543 0120 03000300 		.word	196611
 1544 0124 01000300 		.word	196609
 1545 0128 02000300 		.word	196610
 1546 012c 00093D00 		.word	4000000
 1547 0130 0024F400 		.word	16000000
 1548 0134 0C000C00 		.word	786444
 1549 0138 04000C00 		.word	786436
 1550 013c 08000C00 		.word	786440
 1551              		.cfi_endproc
 1552              	.LFE182:
 1554              		.section	.text.LL_RCC_GetI2CClockFreq,"ax",%progbits
 1555              		.align	1
 1556              		.global	LL_RCC_GetI2CClockFreq
 1557              		.syntax unified
 1558              		.code	16
 1559              		.thumb_func
 1560              		.fpu softvfp
 1562              	LL_RCC_GetI2CClockFreq:
 1563              	.LFB183:
 333:../../dependencies/STM32CubeL0/Drivers/STM32L0xx_HAL_Driver/Src/stm32l0xx_ll_rcc.c **** 
 334:../../dependencies/STM32CubeL0/Drivers/STM32L0xx_HAL_Driver/Src/stm32l0xx_ll_rcc.c **** /**
 335:../../dependencies/STM32CubeL0/Drivers/STM32L0xx_HAL_Driver/Src/stm32l0xx_ll_rcc.c ****   * @brief  Return I2Cx clock frequency
 336:../../dependencies/STM32CubeL0/Drivers/STM32L0xx_HAL_Driver/Src/stm32l0xx_ll_rcc.c ****   * @param  I2CxSource This parameter can be one of the following values:
 337:../../dependencies/STM32CubeL0/Drivers/STM32L0xx_HAL_Driver/Src/stm32l0xx_ll_rcc.c ****   *         @arg @ref LL_RCC_I2C1_CLKSOURCE
 338:../../dependencies/STM32CubeL0/Drivers/STM32L0xx_HAL_Driver/Src/stm32l0xx_ll_rcc.c ****   *         @arg @ref LL_RCC_I2C3_CLKSOURCE (*)
 339:../../dependencies/STM32CubeL0/Drivers/STM32L0xx_HAL_Driver/Src/stm32l0xx_ll_rcc.c ****   *
 340:../../dependencies/STM32CubeL0/Drivers/STM32L0xx_HAL_Driver/Src/stm32l0xx_ll_rcc.c ****   *         (*) value not defined in all devices
 341:../../dependencies/STM32CubeL0/Drivers/STM32L0xx_HAL_Driver/Src/stm32l0xx_ll_rcc.c ****   * @retval I2C clock frequency (in Hz)
 342:../../dependencies/STM32CubeL0/Drivers/STM32L0xx_HAL_Driver/Src/stm32l0xx_ll_rcc.c ****   *         @arg @ref LL_RCC_PERIPH_FREQUENCY_NO indicates that HSI oscillator is not ready
 343:../../dependencies/STM32CubeL0/Drivers/STM32L0xx_HAL_Driver/Src/stm32l0xx_ll_rcc.c ****   */
ARM GAS  /var/folders/fs/dxwfnrqj18z860lwl3d6f5t00000gn/T//ccl6Jv28.s 			page 72


 344:../../dependencies/STM32CubeL0/Drivers/STM32L0xx_HAL_Driver/Src/stm32l0xx_ll_rcc.c **** uint32_t LL_RCC_GetI2CClockFreq(uint32_t I2CxSource)
 345:../../dependencies/STM32CubeL0/Drivers/STM32L0xx_HAL_Driver/Src/stm32l0xx_ll_rcc.c **** {
 1564              		.loc 2 345 1
 1565              		.cfi_startproc
 1566              		@ args = 0, pretend = 0, frame = 16
 1567              		@ frame_needed = 1, uses_anonymous_args = 0
 1568 0000 80B5     		push	{r7, lr}
 1569              		.cfi_def_cfa_offset 8
 1570              		.cfi_offset 7, -8
 1571              		.cfi_offset 14, -4
 1572 0002 84B0     		sub	sp, sp, #16
 1573              		.cfi_def_cfa_offset 24
 1574 0004 00AF     		add	r7, sp, #0
 1575              		.cfi_def_cfa_register 7
 1576 0006 7860     		str	r0, [r7, #4]
 346:../../dependencies/STM32CubeL0/Drivers/STM32L0xx_HAL_Driver/Src/stm32l0xx_ll_rcc.c ****   uint32_t i2c_frequency = LL_RCC_PERIPH_FREQUENCY_NO;
 1577              		.loc 2 346 12
 1578 0008 0023     		movs	r3, #0
 1579 000a FB60     		str	r3, [r7, #12]
 347:../../dependencies/STM32CubeL0/Drivers/STM32L0xx_HAL_Driver/Src/stm32l0xx_ll_rcc.c **** 
 348:../../dependencies/STM32CubeL0/Drivers/STM32L0xx_HAL_Driver/Src/stm32l0xx_ll_rcc.c ****   /* Check parameter */
 349:../../dependencies/STM32CubeL0/Drivers/STM32L0xx_HAL_Driver/Src/stm32l0xx_ll_rcc.c ****   assert_param(IS_LL_RCC_I2C_CLKSOURCE(I2CxSource));
 350:../../dependencies/STM32CubeL0/Drivers/STM32L0xx_HAL_Driver/Src/stm32l0xx_ll_rcc.c **** 
 351:../../dependencies/STM32CubeL0/Drivers/STM32L0xx_HAL_Driver/Src/stm32l0xx_ll_rcc.c ****   /* I2C1 CLK clock frequency */
 352:../../dependencies/STM32CubeL0/Drivers/STM32L0xx_HAL_Driver/Src/stm32l0xx_ll_rcc.c ****   if (I2CxSource == LL_RCC_I2C1_CLKSOURCE)
 1580              		.loc 2 352 6
 1581 000c 7A68     		ldr	r2, [r7, #4]
 1582 000e C023     		movs	r3, #192
 1583 0010 9B01     		lsls	r3, r3, #6
 1584 0012 9A42     		cmp	r2, r3
 1585 0014 2BD1     		bne	.L156
 353:../../dependencies/STM32CubeL0/Drivers/STM32L0xx_HAL_Driver/Src/stm32l0xx_ll_rcc.c ****   {
 354:../../dependencies/STM32CubeL0/Drivers/STM32L0xx_HAL_Driver/Src/stm32l0xx_ll_rcc.c ****     switch (LL_RCC_GetI2CClockSource(I2CxSource))
 1586              		.loc 2 354 13
 1587 0016 7B68     		ldr	r3, [r7, #4]
 1588 0018 1800     		movs	r0, r3
 1589 001a FFF7FEFF 		bl	LL_RCC_GetI2CClockSource
 1590 001e 0300     		movs	r3, r0
 1591              		.loc 2 354 5
 1592 0020 174A     		ldr	r2, .L158
 1593 0022 9342     		cmp	r3, r2
 1594 0024 03D0     		beq	.L149
 1595 0026 174A     		ldr	r2, .L158+4
 1596 0028 9342     		cmp	r3, r2
 1597 002a 05D0     		beq	.L150
 1598 002c 12E0     		b	.L155
 1599              	.L149:
 355:../../dependencies/STM32CubeL0/Drivers/STM32L0xx_HAL_Driver/Src/stm32l0xx_ll_rcc.c ****     {
 356:../../dependencies/STM32CubeL0/Drivers/STM32L0xx_HAL_Driver/Src/stm32l0xx_ll_rcc.c ****       case LL_RCC_I2C1_CLKSOURCE_SYSCLK: /* I2C1 Clock is System Clock */
 357:../../dependencies/STM32CubeL0/Drivers/STM32L0xx_HAL_Driver/Src/stm32l0xx_ll_rcc.c ****         i2c_frequency = RCC_GetSystemClockFreq();
 1600              		.loc 2 357 25
 1601 002e FFF7FEFF 		bl	RCC_GetSystemClockFreq
 1602 0032 0300     		movs	r3, r0
 1603 0034 FB60     		str	r3, [r7, #12]
 358:../../dependencies/STM32CubeL0/Drivers/STM32L0xx_HAL_Driver/Src/stm32l0xx_ll_rcc.c ****         break;
 1604              		.loc 2 358 9
 1605 0036 1DE0     		b	.L148
ARM GAS  /var/folders/fs/dxwfnrqj18z860lwl3d6f5t00000gn/T//ccl6Jv28.s 			page 73


 1606              	.L150:
 359:../../dependencies/STM32CubeL0/Drivers/STM32L0xx_HAL_Driver/Src/stm32l0xx_ll_rcc.c **** 
 360:../../dependencies/STM32CubeL0/Drivers/STM32L0xx_HAL_Driver/Src/stm32l0xx_ll_rcc.c ****       case LL_RCC_I2C1_CLKSOURCE_HSI:    /* I2C1 Clock is HSI Osc. */
 361:../../dependencies/STM32CubeL0/Drivers/STM32L0xx_HAL_Driver/Src/stm32l0xx_ll_rcc.c ****         if (LL_RCC_HSI_IsReady() != 0U)
 1607              		.loc 2 361 13
 1608 0038 FFF7FEFF 		bl	LL_RCC_HSI_IsReady
 1609 003c 031E     		subs	r3, r0, #0
 1610              		.loc 2 361 12
 1611 003e 18D0     		beq	.L157
 362:../../dependencies/STM32CubeL0/Drivers/STM32L0xx_HAL_Driver/Src/stm32l0xx_ll_rcc.c ****         {
 363:../../dependencies/STM32CubeL0/Drivers/STM32L0xx_HAL_Driver/Src/stm32l0xx_ll_rcc.c ****           if (LL_RCC_IsActiveFlag_HSIDIV() != 0U)
 1612              		.loc 2 363 15
 1613 0040 FFF7FEFF 		bl	LL_RCC_IsActiveFlag_HSIDIV
 1614 0044 031E     		subs	r3, r0, #0
 1615              		.loc 2 363 14
 1616 0046 02D0     		beq	.L153
 364:../../dependencies/STM32CubeL0/Drivers/STM32L0xx_HAL_Driver/Src/stm32l0xx_ll_rcc.c ****           {
 365:../../dependencies/STM32CubeL0/Drivers/STM32L0xx_HAL_Driver/Src/stm32l0xx_ll_rcc.c ****             i2c_frequency = (HSI_VALUE >> 2U);
 1617              		.loc 2 365 27
 1618 0048 0F4B     		ldr	r3, .L158+8
 1619 004a FB60     		str	r3, [r7, #12]
 366:../../dependencies/STM32CubeL0/Drivers/STM32L0xx_HAL_Driver/Src/stm32l0xx_ll_rcc.c ****           }
 367:../../dependencies/STM32CubeL0/Drivers/STM32L0xx_HAL_Driver/Src/stm32l0xx_ll_rcc.c ****           else
 368:../../dependencies/STM32CubeL0/Drivers/STM32L0xx_HAL_Driver/Src/stm32l0xx_ll_rcc.c ****           {
 369:../../dependencies/STM32CubeL0/Drivers/STM32L0xx_HAL_Driver/Src/stm32l0xx_ll_rcc.c ****             i2c_frequency = HSI_VALUE;
 370:../../dependencies/STM32CubeL0/Drivers/STM32L0xx_HAL_Driver/Src/stm32l0xx_ll_rcc.c ****           }
 371:../../dependencies/STM32CubeL0/Drivers/STM32L0xx_HAL_Driver/Src/stm32l0xx_ll_rcc.c ****         }
 372:../../dependencies/STM32CubeL0/Drivers/STM32L0xx_HAL_Driver/Src/stm32l0xx_ll_rcc.c ****         break;
 1620              		.loc 2 372 9
 1621 004c 11E0     		b	.L157
 1622              	.L153:
 369:../../dependencies/STM32CubeL0/Drivers/STM32L0xx_HAL_Driver/Src/stm32l0xx_ll_rcc.c ****           }
 1623              		.loc 2 369 27
 1624 004e 0F4B     		ldr	r3, .L158+12
 1625 0050 FB60     		str	r3, [r7, #12]
 1626              		.loc 2 372 9
 1627 0052 0EE0     		b	.L157
 1628              	.L155:
 373:../../dependencies/STM32CubeL0/Drivers/STM32L0xx_HAL_Driver/Src/stm32l0xx_ll_rcc.c **** 
 374:../../dependencies/STM32CubeL0/Drivers/STM32L0xx_HAL_Driver/Src/stm32l0xx_ll_rcc.c ****       case LL_RCC_I2C1_CLKSOURCE_PCLK1:  /* I2C1 Clock is PCLK1 */
 375:../../dependencies/STM32CubeL0/Drivers/STM32L0xx_HAL_Driver/Src/stm32l0xx_ll_rcc.c ****       default:
 376:../../dependencies/STM32CubeL0/Drivers/STM32L0xx_HAL_Driver/Src/stm32l0xx_ll_rcc.c ****         i2c_frequency = RCC_GetPCLK1ClockFreq(RCC_GetHCLKClockFreq(RCC_GetSystemClockFreq()));
 1629              		.loc 2 376 25
 1630 0054 FFF7FEFF 		bl	RCC_GetSystemClockFreq
 1631 0058 0300     		movs	r3, r0
 1632 005a 1800     		movs	r0, r3
 1633 005c FFF7FEFF 		bl	RCC_GetHCLKClockFreq
 1634 0060 0300     		movs	r3, r0
 1635 0062 1800     		movs	r0, r3
 1636 0064 FFF7FEFF 		bl	RCC_GetPCLK1ClockFreq
 1637 0068 0300     		movs	r3, r0
 1638 006a FB60     		str	r3, [r7, #12]
 377:../../dependencies/STM32CubeL0/Drivers/STM32L0xx_HAL_Driver/Src/stm32l0xx_ll_rcc.c ****         break;
 1639              		.loc 2 377 9
 1640 006c 02E0     		b	.L148
 1641              	.L156:
 378:../../dependencies/STM32CubeL0/Drivers/STM32L0xx_HAL_Driver/Src/stm32l0xx_ll_rcc.c ****     }
ARM GAS  /var/folders/fs/dxwfnrqj18z860lwl3d6f5t00000gn/T//ccl6Jv28.s 			page 74


 379:../../dependencies/STM32CubeL0/Drivers/STM32L0xx_HAL_Driver/Src/stm32l0xx_ll_rcc.c ****   }
 1642              		.loc 2 379 3
 1643 006e C046     		nop
 1644 0070 00E0     		b	.L148
 1645              	.L157:
 372:../../dependencies/STM32CubeL0/Drivers/STM32L0xx_HAL_Driver/Src/stm32l0xx_ll_rcc.c **** 
 1646              		.loc 2 372 9
 1647 0072 C046     		nop
 1648              	.L148:
 380:../../dependencies/STM32CubeL0/Drivers/STM32L0xx_HAL_Driver/Src/stm32l0xx_ll_rcc.c **** 
 381:../../dependencies/STM32CubeL0/Drivers/STM32L0xx_HAL_Driver/Src/stm32l0xx_ll_rcc.c **** #if defined(RCC_CCIPR_I2C3SEL)
 382:../../dependencies/STM32CubeL0/Drivers/STM32L0xx_HAL_Driver/Src/stm32l0xx_ll_rcc.c ****   /* I2C3 CLK clock frequency */
 383:../../dependencies/STM32CubeL0/Drivers/STM32L0xx_HAL_Driver/Src/stm32l0xx_ll_rcc.c ****   if (I2CxSource == LL_RCC_I2C3_CLKSOURCE)
 384:../../dependencies/STM32CubeL0/Drivers/STM32L0xx_HAL_Driver/Src/stm32l0xx_ll_rcc.c ****   {
 385:../../dependencies/STM32CubeL0/Drivers/STM32L0xx_HAL_Driver/Src/stm32l0xx_ll_rcc.c ****     switch (LL_RCC_GetI2CClockSource(I2CxSource))
 386:../../dependencies/STM32CubeL0/Drivers/STM32L0xx_HAL_Driver/Src/stm32l0xx_ll_rcc.c ****     {
 387:../../dependencies/STM32CubeL0/Drivers/STM32L0xx_HAL_Driver/Src/stm32l0xx_ll_rcc.c ****       case LL_RCC_I2C3_CLKSOURCE_SYSCLK: /* I2C3 Clock is System Clock */
 388:../../dependencies/STM32CubeL0/Drivers/STM32L0xx_HAL_Driver/Src/stm32l0xx_ll_rcc.c ****         i2c_frequency = RCC_GetSystemClockFreq();
 389:../../dependencies/STM32CubeL0/Drivers/STM32L0xx_HAL_Driver/Src/stm32l0xx_ll_rcc.c ****         break;
 390:../../dependencies/STM32CubeL0/Drivers/STM32L0xx_HAL_Driver/Src/stm32l0xx_ll_rcc.c **** 
 391:../../dependencies/STM32CubeL0/Drivers/STM32L0xx_HAL_Driver/Src/stm32l0xx_ll_rcc.c ****       case LL_RCC_I2C3_CLKSOURCE_HSI:    /* I2C3 Clock is HSI Osc. */
 392:../../dependencies/STM32CubeL0/Drivers/STM32L0xx_HAL_Driver/Src/stm32l0xx_ll_rcc.c ****         if (LL_RCC_HSI_IsReady() != 0U)
 393:../../dependencies/STM32CubeL0/Drivers/STM32L0xx_HAL_Driver/Src/stm32l0xx_ll_rcc.c ****         {
 394:../../dependencies/STM32CubeL0/Drivers/STM32L0xx_HAL_Driver/Src/stm32l0xx_ll_rcc.c ****           if (LL_RCC_IsActiveFlag_HSIDIV() != 0U)
 395:../../dependencies/STM32CubeL0/Drivers/STM32L0xx_HAL_Driver/Src/stm32l0xx_ll_rcc.c ****           {
 396:../../dependencies/STM32CubeL0/Drivers/STM32L0xx_HAL_Driver/Src/stm32l0xx_ll_rcc.c ****             i2c_frequency = (HSI_VALUE >> 2U);
 397:../../dependencies/STM32CubeL0/Drivers/STM32L0xx_HAL_Driver/Src/stm32l0xx_ll_rcc.c ****           }
 398:../../dependencies/STM32CubeL0/Drivers/STM32L0xx_HAL_Driver/Src/stm32l0xx_ll_rcc.c ****           else
 399:../../dependencies/STM32CubeL0/Drivers/STM32L0xx_HAL_Driver/Src/stm32l0xx_ll_rcc.c ****           {
 400:../../dependencies/STM32CubeL0/Drivers/STM32L0xx_HAL_Driver/Src/stm32l0xx_ll_rcc.c ****             i2c_frequency = HSI_VALUE;
 401:../../dependencies/STM32CubeL0/Drivers/STM32L0xx_HAL_Driver/Src/stm32l0xx_ll_rcc.c ****           }
 402:../../dependencies/STM32CubeL0/Drivers/STM32L0xx_HAL_Driver/Src/stm32l0xx_ll_rcc.c ****         }
 403:../../dependencies/STM32CubeL0/Drivers/STM32L0xx_HAL_Driver/Src/stm32l0xx_ll_rcc.c ****         break;
 404:../../dependencies/STM32CubeL0/Drivers/STM32L0xx_HAL_Driver/Src/stm32l0xx_ll_rcc.c **** 
 405:../../dependencies/STM32CubeL0/Drivers/STM32L0xx_HAL_Driver/Src/stm32l0xx_ll_rcc.c ****       case LL_RCC_I2C3_CLKSOURCE_PCLK1:  /* I2C3 Clock is PCLK1 */
 406:../../dependencies/STM32CubeL0/Drivers/STM32L0xx_HAL_Driver/Src/stm32l0xx_ll_rcc.c ****       default:
 407:../../dependencies/STM32CubeL0/Drivers/STM32L0xx_HAL_Driver/Src/stm32l0xx_ll_rcc.c ****         i2c_frequency = RCC_GetPCLK1ClockFreq(RCC_GetHCLKClockFreq(RCC_GetSystemClockFreq()));
 408:../../dependencies/STM32CubeL0/Drivers/STM32L0xx_HAL_Driver/Src/stm32l0xx_ll_rcc.c ****         break;
 409:../../dependencies/STM32CubeL0/Drivers/STM32L0xx_HAL_Driver/Src/stm32l0xx_ll_rcc.c ****     }
 410:../../dependencies/STM32CubeL0/Drivers/STM32L0xx_HAL_Driver/Src/stm32l0xx_ll_rcc.c ****   }
 411:../../dependencies/STM32CubeL0/Drivers/STM32L0xx_HAL_Driver/Src/stm32l0xx_ll_rcc.c **** #endif /*RCC_CCIPR_I2C3SEL*/
 412:../../dependencies/STM32CubeL0/Drivers/STM32L0xx_HAL_Driver/Src/stm32l0xx_ll_rcc.c **** 
 413:../../dependencies/STM32CubeL0/Drivers/STM32L0xx_HAL_Driver/Src/stm32l0xx_ll_rcc.c ****   return i2c_frequency;
 1649              		.loc 2 413 10
 1650 0074 FB68     		ldr	r3, [r7, #12]
 414:../../dependencies/STM32CubeL0/Drivers/STM32L0xx_HAL_Driver/Src/stm32l0xx_ll_rcc.c **** }
 1651              		.loc 2 414 1
 1652 0076 1800     		movs	r0, r3
 1653 0078 BD46     		mov	sp, r7
 1654 007a 04B0     		add	sp, sp, #16
 1655              		@ sp needed
 1656 007c 80BD     		pop	{r7, pc}
 1657              	.L159:
 1658 007e C046     		.align	2
 1659              	.L158:
 1660 0080 00010300 		.word	196864
 1661 0084 00020300 		.word	197120
ARM GAS  /var/folders/fs/dxwfnrqj18z860lwl3d6f5t00000gn/T//ccl6Jv28.s 			page 75


 1662 0088 00093D00 		.word	4000000
 1663 008c 0024F400 		.word	16000000
 1664              		.cfi_endproc
 1665              	.LFE183:
 1667              		.section	.text.LL_RCC_GetLPUARTClockFreq,"ax",%progbits
 1668              		.align	1
 1669              		.global	LL_RCC_GetLPUARTClockFreq
 1670              		.syntax unified
 1671              		.code	16
 1672              		.thumb_func
 1673              		.fpu softvfp
 1675              	LL_RCC_GetLPUARTClockFreq:
 1676              	.LFB184:
 415:../../dependencies/STM32CubeL0/Drivers/STM32L0xx_HAL_Driver/Src/stm32l0xx_ll_rcc.c **** 
 416:../../dependencies/STM32CubeL0/Drivers/STM32L0xx_HAL_Driver/Src/stm32l0xx_ll_rcc.c **** /**
 417:../../dependencies/STM32CubeL0/Drivers/STM32L0xx_HAL_Driver/Src/stm32l0xx_ll_rcc.c ****   * @brief  Return LPUARTx clock frequency
 418:../../dependencies/STM32CubeL0/Drivers/STM32L0xx_HAL_Driver/Src/stm32l0xx_ll_rcc.c ****   * @param  LPUARTxSource This parameter can be one of the following values:
 419:../../dependencies/STM32CubeL0/Drivers/STM32L0xx_HAL_Driver/Src/stm32l0xx_ll_rcc.c ****   *         @arg @ref LL_RCC_LPUART1_CLKSOURCE
 420:../../dependencies/STM32CubeL0/Drivers/STM32L0xx_HAL_Driver/Src/stm32l0xx_ll_rcc.c ****   * @retval LPUART clock frequency (in Hz)
 421:../../dependencies/STM32CubeL0/Drivers/STM32L0xx_HAL_Driver/Src/stm32l0xx_ll_rcc.c ****   *         @arg @ref LL_RCC_PERIPH_FREQUENCY_NO indicates that oscillator (HSI or LSE) is not read
 422:../../dependencies/STM32CubeL0/Drivers/STM32L0xx_HAL_Driver/Src/stm32l0xx_ll_rcc.c ****   */
 423:../../dependencies/STM32CubeL0/Drivers/STM32L0xx_HAL_Driver/Src/stm32l0xx_ll_rcc.c **** uint32_t LL_RCC_GetLPUARTClockFreq(uint32_t LPUARTxSource)
 424:../../dependencies/STM32CubeL0/Drivers/STM32L0xx_HAL_Driver/Src/stm32l0xx_ll_rcc.c **** {
 1677              		.loc 2 424 1
 1678              		.cfi_startproc
 1679              		@ args = 0, pretend = 0, frame = 16
 1680              		@ frame_needed = 1, uses_anonymous_args = 0
 1681 0000 80B5     		push	{r7, lr}
 1682              		.cfi_def_cfa_offset 8
 1683              		.cfi_offset 7, -8
 1684              		.cfi_offset 14, -4
 1685 0002 84B0     		sub	sp, sp, #16
 1686              		.cfi_def_cfa_offset 24
 1687 0004 00AF     		add	r7, sp, #0
 1688              		.cfi_def_cfa_register 7
 1689 0006 7860     		str	r0, [r7, #4]
 425:../../dependencies/STM32CubeL0/Drivers/STM32L0xx_HAL_Driver/Src/stm32l0xx_ll_rcc.c ****   uint32_t lpuart_frequency = LL_RCC_PERIPH_FREQUENCY_NO;
 1690              		.loc 2 425 12
 1691 0008 0023     		movs	r3, #0
 1692 000a FB60     		str	r3, [r7, #12]
 426:../../dependencies/STM32CubeL0/Drivers/STM32L0xx_HAL_Driver/Src/stm32l0xx_ll_rcc.c **** 
 427:../../dependencies/STM32CubeL0/Drivers/STM32L0xx_HAL_Driver/Src/stm32l0xx_ll_rcc.c ****   /* Check parameter */
 428:../../dependencies/STM32CubeL0/Drivers/STM32L0xx_HAL_Driver/Src/stm32l0xx_ll_rcc.c ****   assert_param(IS_LL_RCC_LPUART_CLKSOURCE(LPUARTxSource));
 429:../../dependencies/STM32CubeL0/Drivers/STM32L0xx_HAL_Driver/Src/stm32l0xx_ll_rcc.c **** 
 430:../../dependencies/STM32CubeL0/Drivers/STM32L0xx_HAL_Driver/Src/stm32l0xx_ll_rcc.c ****   /* LPUART1CLK clock frequency */
 431:../../dependencies/STM32CubeL0/Drivers/STM32L0xx_HAL_Driver/Src/stm32l0xx_ll_rcc.c ****   switch (LL_RCC_GetLPUARTClockSource(LPUARTxSource))
 1693              		.loc 2 431 11
 1694 000c 7B68     		ldr	r3, [r7, #4]
 1695 000e 1800     		movs	r0, r3
 1696 0010 FFF7FEFF 		bl	LL_RCC_GetLPUARTClockSource
 1697 0014 0300     		movs	r3, r0
 1698              		.loc 2 431 3
 1699 0016 C022     		movs	r2, #192
 1700 0018 1201     		lsls	r2, r2, #4
 1701 001a 9342     		cmp	r3, r2
 1702 001c 1FD0     		beq	.L161
 1703 001e C022     		movs	r2, #192
ARM GAS  /var/folders/fs/dxwfnrqj18z860lwl3d6f5t00000gn/T//ccl6Jv28.s 			page 76


 1704 0020 1201     		lsls	r2, r2, #4
 1705 0022 9342     		cmp	r3, r2
 1706 0024 23D8     		bhi	.L162
 1707 0026 8022     		movs	r2, #128
 1708 0028 D200     		lsls	r2, r2, #3
 1709 002a 9342     		cmp	r3, r2
 1710 002c 04D0     		beq	.L163
 1711 002e 8022     		movs	r2, #128
 1712 0030 1201     		lsls	r2, r2, #4
 1713 0032 9342     		cmp	r3, r2
 1714 0034 05D0     		beq	.L164
 1715 0036 1AE0     		b	.L162
 1716              	.L163:
 432:../../dependencies/STM32CubeL0/Drivers/STM32L0xx_HAL_Driver/Src/stm32l0xx_ll_rcc.c ****   {
 433:../../dependencies/STM32CubeL0/Drivers/STM32L0xx_HAL_Driver/Src/stm32l0xx_ll_rcc.c ****     case LL_RCC_LPUART1_CLKSOURCE_SYSCLK: /* LPUART1 Clock is System Clock */
 434:../../dependencies/STM32CubeL0/Drivers/STM32L0xx_HAL_Driver/Src/stm32l0xx_ll_rcc.c ****       lpuart_frequency = RCC_GetSystemClockFreq();
 1717              		.loc 2 434 26
 1718 0038 FFF7FEFF 		bl	RCC_GetSystemClockFreq
 1719 003c 0300     		movs	r3, r0
 1720 003e FB60     		str	r3, [r7, #12]
 435:../../dependencies/STM32CubeL0/Drivers/STM32L0xx_HAL_Driver/Src/stm32l0xx_ll_rcc.c ****       break;
 1721              		.loc 2 435 7
 1722 0040 25E0     		b	.L165
 1723              	.L164:
 436:../../dependencies/STM32CubeL0/Drivers/STM32L0xx_HAL_Driver/Src/stm32l0xx_ll_rcc.c **** 
 437:../../dependencies/STM32CubeL0/Drivers/STM32L0xx_HAL_Driver/Src/stm32l0xx_ll_rcc.c ****     case LL_RCC_LPUART1_CLKSOURCE_HSI:    /* LPUART1 Clock is HSI Osc. */
 438:../../dependencies/STM32CubeL0/Drivers/STM32L0xx_HAL_Driver/Src/stm32l0xx_ll_rcc.c ****       if (LL_RCC_HSI_IsReady() != 0U)
 1724              		.loc 2 438 11
 1725 0042 FFF7FEFF 		bl	LL_RCC_HSI_IsReady
 1726 0046 031E     		subs	r3, r0, #0
 1727              		.loc 2 438 10
 1728 0048 1ED0     		beq	.L170
 439:../../dependencies/STM32CubeL0/Drivers/STM32L0xx_HAL_Driver/Src/stm32l0xx_ll_rcc.c ****       {
 440:../../dependencies/STM32CubeL0/Drivers/STM32L0xx_HAL_Driver/Src/stm32l0xx_ll_rcc.c ****         if (LL_RCC_IsActiveFlag_HSIDIV() != 0U)
 1729              		.loc 2 440 13
 1730 004a FFF7FEFF 		bl	LL_RCC_IsActiveFlag_HSIDIV
 1731 004e 031E     		subs	r3, r0, #0
 1732              		.loc 2 440 12
 1733 0050 02D0     		beq	.L167
 441:../../dependencies/STM32CubeL0/Drivers/STM32L0xx_HAL_Driver/Src/stm32l0xx_ll_rcc.c ****         {
 442:../../dependencies/STM32CubeL0/Drivers/STM32L0xx_HAL_Driver/Src/stm32l0xx_ll_rcc.c ****           lpuart_frequency = (HSI_VALUE >> 2U);
 1734              		.loc 2 442 28
 1735 0052 114B     		ldr	r3, .L172
 1736 0054 FB60     		str	r3, [r7, #12]
 443:../../dependencies/STM32CubeL0/Drivers/STM32L0xx_HAL_Driver/Src/stm32l0xx_ll_rcc.c ****         }
 444:../../dependencies/STM32CubeL0/Drivers/STM32L0xx_HAL_Driver/Src/stm32l0xx_ll_rcc.c ****         else
 445:../../dependencies/STM32CubeL0/Drivers/STM32L0xx_HAL_Driver/Src/stm32l0xx_ll_rcc.c ****         {
 446:../../dependencies/STM32CubeL0/Drivers/STM32L0xx_HAL_Driver/Src/stm32l0xx_ll_rcc.c ****           lpuart_frequency = HSI_VALUE;
 447:../../dependencies/STM32CubeL0/Drivers/STM32L0xx_HAL_Driver/Src/stm32l0xx_ll_rcc.c ****         }
 448:../../dependencies/STM32CubeL0/Drivers/STM32L0xx_HAL_Driver/Src/stm32l0xx_ll_rcc.c ****       }
 449:../../dependencies/STM32CubeL0/Drivers/STM32L0xx_HAL_Driver/Src/stm32l0xx_ll_rcc.c ****       break;
 1737              		.loc 2 449 7
 1738 0056 17E0     		b	.L170
 1739              	.L167:
 446:../../dependencies/STM32CubeL0/Drivers/STM32L0xx_HAL_Driver/Src/stm32l0xx_ll_rcc.c ****         }
 1740              		.loc 2 446 28
 1741 0058 104B     		ldr	r3, .L172+4
ARM GAS  /var/folders/fs/dxwfnrqj18z860lwl3d6f5t00000gn/T//ccl6Jv28.s 			page 77


 1742 005a FB60     		str	r3, [r7, #12]
 1743              		.loc 2 449 7
 1744 005c 14E0     		b	.L170
 1745              	.L161:
 450:../../dependencies/STM32CubeL0/Drivers/STM32L0xx_HAL_Driver/Src/stm32l0xx_ll_rcc.c **** 
 451:../../dependencies/STM32CubeL0/Drivers/STM32L0xx_HAL_Driver/Src/stm32l0xx_ll_rcc.c ****     case LL_RCC_LPUART1_CLKSOURCE_LSE:    /* LPUART1 Clock is LSE Osc. */
 452:../../dependencies/STM32CubeL0/Drivers/STM32L0xx_HAL_Driver/Src/stm32l0xx_ll_rcc.c ****       if (LL_RCC_LSE_IsReady() != 0U)
 1746              		.loc 2 452 11
 1747 005e FFF7FEFF 		bl	LL_RCC_LSE_IsReady
 1748 0062 031E     		subs	r3, r0, #0
 1749              		.loc 2 452 10
 1750 0064 12D0     		beq	.L171
 453:../../dependencies/STM32CubeL0/Drivers/STM32L0xx_HAL_Driver/Src/stm32l0xx_ll_rcc.c ****       {
 454:../../dependencies/STM32CubeL0/Drivers/STM32L0xx_HAL_Driver/Src/stm32l0xx_ll_rcc.c ****         lpuart_frequency = LSE_VALUE;
 1751              		.loc 2 454 26
 1752 0066 8023     		movs	r3, #128
 1753 0068 1B02     		lsls	r3, r3, #8
 1754 006a FB60     		str	r3, [r7, #12]
 455:../../dependencies/STM32CubeL0/Drivers/STM32L0xx_HAL_Driver/Src/stm32l0xx_ll_rcc.c ****       }
 456:../../dependencies/STM32CubeL0/Drivers/STM32L0xx_HAL_Driver/Src/stm32l0xx_ll_rcc.c ****       break;
 1755              		.loc 2 456 7
 1756 006c 0EE0     		b	.L171
 1757              	.L162:
 457:../../dependencies/STM32CubeL0/Drivers/STM32L0xx_HAL_Driver/Src/stm32l0xx_ll_rcc.c **** 
 458:../../dependencies/STM32CubeL0/Drivers/STM32L0xx_HAL_Driver/Src/stm32l0xx_ll_rcc.c ****     case LL_RCC_LPUART1_CLKSOURCE_PCLK1:  /* LPUART1 Clock is PCLK1 */
 459:../../dependencies/STM32CubeL0/Drivers/STM32L0xx_HAL_Driver/Src/stm32l0xx_ll_rcc.c ****     default:
 460:../../dependencies/STM32CubeL0/Drivers/STM32L0xx_HAL_Driver/Src/stm32l0xx_ll_rcc.c ****       lpuart_frequency = RCC_GetPCLK1ClockFreq(RCC_GetHCLKClockFreq(RCC_GetSystemClockFreq()));
 1758              		.loc 2 460 26
 1759 006e FFF7FEFF 		bl	RCC_GetSystemClockFreq
 1760 0072 0300     		movs	r3, r0
 1761 0074 1800     		movs	r0, r3
 1762 0076 FFF7FEFF 		bl	RCC_GetHCLKClockFreq
 1763 007a 0300     		movs	r3, r0
 1764 007c 1800     		movs	r0, r3
 1765 007e FFF7FEFF 		bl	RCC_GetPCLK1ClockFreq
 1766 0082 0300     		movs	r3, r0
 1767 0084 FB60     		str	r3, [r7, #12]
 461:../../dependencies/STM32CubeL0/Drivers/STM32L0xx_HAL_Driver/Src/stm32l0xx_ll_rcc.c ****       break;
 1768              		.loc 2 461 7
 1769 0086 02E0     		b	.L165
 1770              	.L170:
 449:../../dependencies/STM32CubeL0/Drivers/STM32L0xx_HAL_Driver/Src/stm32l0xx_ll_rcc.c **** 
 1771              		.loc 2 449 7
 1772 0088 C046     		nop
 1773 008a 00E0     		b	.L165
 1774              	.L171:
 456:../../dependencies/STM32CubeL0/Drivers/STM32L0xx_HAL_Driver/Src/stm32l0xx_ll_rcc.c **** 
 1775              		.loc 2 456 7
 1776 008c C046     		nop
 1777              	.L165:
 462:../../dependencies/STM32CubeL0/Drivers/STM32L0xx_HAL_Driver/Src/stm32l0xx_ll_rcc.c ****   }
 463:../../dependencies/STM32CubeL0/Drivers/STM32L0xx_HAL_Driver/Src/stm32l0xx_ll_rcc.c **** 
 464:../../dependencies/STM32CubeL0/Drivers/STM32L0xx_HAL_Driver/Src/stm32l0xx_ll_rcc.c ****   return lpuart_frequency;
 1778              		.loc 2 464 10
 1779 008e FB68     		ldr	r3, [r7, #12]
 465:../../dependencies/STM32CubeL0/Drivers/STM32L0xx_HAL_Driver/Src/stm32l0xx_ll_rcc.c **** }
 1780              		.loc 2 465 1
ARM GAS  /var/folders/fs/dxwfnrqj18z860lwl3d6f5t00000gn/T//ccl6Jv28.s 			page 78


 1781 0090 1800     		movs	r0, r3
 1782 0092 BD46     		mov	sp, r7
 1783 0094 04B0     		add	sp, sp, #16
 1784              		@ sp needed
 1785 0096 80BD     		pop	{r7, pc}
 1786              	.L173:
 1787              		.align	2
 1788              	.L172:
 1789 0098 00093D00 		.word	4000000
 1790 009c 0024F400 		.word	16000000
 1791              		.cfi_endproc
 1792              	.LFE184:
 1794              		.section	.text.LL_RCC_GetLPTIMClockFreq,"ax",%progbits
 1795              		.align	1
 1796              		.global	LL_RCC_GetLPTIMClockFreq
 1797              		.syntax unified
 1798              		.code	16
 1799              		.thumb_func
 1800              		.fpu softvfp
 1802              	LL_RCC_GetLPTIMClockFreq:
 1803              	.LFB185:
 466:../../dependencies/STM32CubeL0/Drivers/STM32L0xx_HAL_Driver/Src/stm32l0xx_ll_rcc.c **** 
 467:../../dependencies/STM32CubeL0/Drivers/STM32L0xx_HAL_Driver/Src/stm32l0xx_ll_rcc.c **** /**
 468:../../dependencies/STM32CubeL0/Drivers/STM32L0xx_HAL_Driver/Src/stm32l0xx_ll_rcc.c ****   * @brief  Return LPTIMx clock frequency
 469:../../dependencies/STM32CubeL0/Drivers/STM32L0xx_HAL_Driver/Src/stm32l0xx_ll_rcc.c ****   * @param  LPTIMxSource This parameter can be one of the following values:
 470:../../dependencies/STM32CubeL0/Drivers/STM32L0xx_HAL_Driver/Src/stm32l0xx_ll_rcc.c ****   *         @arg @ref LL_RCC_LPTIM1_CLKSOURCE
 471:../../dependencies/STM32CubeL0/Drivers/STM32L0xx_HAL_Driver/Src/stm32l0xx_ll_rcc.c ****   * @retval LPTIM clock frequency (in Hz)
 472:../../dependencies/STM32CubeL0/Drivers/STM32L0xx_HAL_Driver/Src/stm32l0xx_ll_rcc.c ****   *         @arg @ref LL_RCC_PERIPH_FREQUENCY_NO indicates that oscillator (HSI or LSE) is not read
 473:../../dependencies/STM32CubeL0/Drivers/STM32L0xx_HAL_Driver/Src/stm32l0xx_ll_rcc.c ****   */
 474:../../dependencies/STM32CubeL0/Drivers/STM32L0xx_HAL_Driver/Src/stm32l0xx_ll_rcc.c **** uint32_t LL_RCC_GetLPTIMClockFreq(uint32_t LPTIMxSource)
 475:../../dependencies/STM32CubeL0/Drivers/STM32L0xx_HAL_Driver/Src/stm32l0xx_ll_rcc.c **** {
 1804              		.loc 2 475 1
 1805              		.cfi_startproc
 1806              		@ args = 0, pretend = 0, frame = 16
 1807              		@ frame_needed = 1, uses_anonymous_args = 0
 1808 0000 80B5     		push	{r7, lr}
 1809              		.cfi_def_cfa_offset 8
 1810              		.cfi_offset 7, -8
 1811              		.cfi_offset 14, -4
 1812 0002 84B0     		sub	sp, sp, #16
 1813              		.cfi_def_cfa_offset 24
 1814 0004 00AF     		add	r7, sp, #0
 1815              		.cfi_def_cfa_register 7
 1816 0006 7860     		str	r0, [r7, #4]
 476:../../dependencies/STM32CubeL0/Drivers/STM32L0xx_HAL_Driver/Src/stm32l0xx_ll_rcc.c ****   uint32_t lptim_frequency = LL_RCC_PERIPH_FREQUENCY_NO;
 1817              		.loc 2 476 12
 1818 0008 0023     		movs	r3, #0
 1819 000a FB60     		str	r3, [r7, #12]
 477:../../dependencies/STM32CubeL0/Drivers/STM32L0xx_HAL_Driver/Src/stm32l0xx_ll_rcc.c **** 
 478:../../dependencies/STM32CubeL0/Drivers/STM32L0xx_HAL_Driver/Src/stm32l0xx_ll_rcc.c ****   /* Check parameter */
 479:../../dependencies/STM32CubeL0/Drivers/STM32L0xx_HAL_Driver/Src/stm32l0xx_ll_rcc.c ****   assert_param(IS_LL_RCC_LPTIM_CLKSOURCE(LPTIMxSource));
 480:../../dependencies/STM32CubeL0/Drivers/STM32L0xx_HAL_Driver/Src/stm32l0xx_ll_rcc.c **** 
 481:../../dependencies/STM32CubeL0/Drivers/STM32L0xx_HAL_Driver/Src/stm32l0xx_ll_rcc.c ****   if (LPTIMxSource == LL_RCC_LPTIM1_CLKSOURCE)
 1820              		.loc 2 481 6
 1821 000c 7A68     		ldr	r2, [r7, #4]
 1822 000e C023     		movs	r3, #192
 1823 0010 1B03     		lsls	r3, r3, #12
ARM GAS  /var/folders/fs/dxwfnrqj18z860lwl3d6f5t00000gn/T//ccl6Jv28.s 			page 79


 1824 0012 9A42     		cmp	r2, r3
 1825 0014 3FD1     		bne	.L185
 482:../../dependencies/STM32CubeL0/Drivers/STM32L0xx_HAL_Driver/Src/stm32l0xx_ll_rcc.c ****   {
 483:../../dependencies/STM32CubeL0/Drivers/STM32L0xx_HAL_Driver/Src/stm32l0xx_ll_rcc.c ****     /* LPTIM1CLK clock frequency */
 484:../../dependencies/STM32CubeL0/Drivers/STM32L0xx_HAL_Driver/Src/stm32l0xx_ll_rcc.c ****     switch (LL_RCC_GetLPTIMClockSource(LPTIMxSource))
 1826              		.loc 2 484 13
 1827 0016 7B68     		ldr	r3, [r7, #4]
 1828 0018 1800     		movs	r0, r3
 1829 001a FFF7FEFF 		bl	LL_RCC_GetLPTIMClockSource
 1830 001e 0300     		movs	r3, r0
 1831              		.loc 2 484 5
 1832 0020 C022     		movs	r2, #192
 1833 0022 1203     		lsls	r2, r2, #12
 1834 0024 9342     		cmp	r3, r2
 1835 0026 21D0     		beq	.L176
 1836 0028 C022     		movs	r2, #192
 1837 002a 1203     		lsls	r2, r2, #12
 1838 002c 9342     		cmp	r3, r2
 1839 002e 25D8     		bhi	.L177
 1840 0030 8022     		movs	r2, #128
 1841 0032 D202     		lsls	r2, r2, #11
 1842 0034 9342     		cmp	r3, r2
 1843 0036 04D0     		beq	.L178
 1844 0038 8022     		movs	r2, #128
 1845 003a 1203     		lsls	r2, r2, #12
 1846 003c 9342     		cmp	r3, r2
 1847 003e 07D0     		beq	.L179
 1848 0040 1CE0     		b	.L177
 1849              	.L178:
 485:../../dependencies/STM32CubeL0/Drivers/STM32L0xx_HAL_Driver/Src/stm32l0xx_ll_rcc.c ****     {
 486:../../dependencies/STM32CubeL0/Drivers/STM32L0xx_HAL_Driver/Src/stm32l0xx_ll_rcc.c ****       case LL_RCC_LPTIM1_CLKSOURCE_LSI:    /* LPTIM1 Clock is LSI Osc. */
 487:../../dependencies/STM32CubeL0/Drivers/STM32L0xx_HAL_Driver/Src/stm32l0xx_ll_rcc.c ****         if (LL_RCC_LSI_IsReady() != 0U)
 1850              		.loc 2 487 13
 1851 0042 FFF7FEFF 		bl	LL_RCC_LSI_IsReady
 1852 0046 031E     		subs	r3, r0, #0
 1853              		.loc 2 487 12
 1854 0048 27D0     		beq	.L186
 488:../../dependencies/STM32CubeL0/Drivers/STM32L0xx_HAL_Driver/Src/stm32l0xx_ll_rcc.c ****         {
 489:../../dependencies/STM32CubeL0/Drivers/STM32L0xx_HAL_Driver/Src/stm32l0xx_ll_rcc.c ****           lptim_frequency = LSI_VALUE;
 1855              		.loc 2 489 27
 1856 004a 194B     		ldr	r3, .L189
 1857 004c FB60     		str	r3, [r7, #12]
 490:../../dependencies/STM32CubeL0/Drivers/STM32L0xx_HAL_Driver/Src/stm32l0xx_ll_rcc.c ****         }
 491:../../dependencies/STM32CubeL0/Drivers/STM32L0xx_HAL_Driver/Src/stm32l0xx_ll_rcc.c ****         break;
 1858              		.loc 2 491 9
 1859 004e 24E0     		b	.L186
 1860              	.L179:
 492:../../dependencies/STM32CubeL0/Drivers/STM32L0xx_HAL_Driver/Src/stm32l0xx_ll_rcc.c **** 
 493:../../dependencies/STM32CubeL0/Drivers/STM32L0xx_HAL_Driver/Src/stm32l0xx_ll_rcc.c ****       case LL_RCC_LPTIM1_CLKSOURCE_HSI:    /* LPTIM1 Clock is HSI Osc. */
 494:../../dependencies/STM32CubeL0/Drivers/STM32L0xx_HAL_Driver/Src/stm32l0xx_ll_rcc.c ****         if (LL_RCC_HSI_IsReady() != 0U)
 1861              		.loc 2 494 13
 1862 0050 FFF7FEFF 		bl	LL_RCC_HSI_IsReady
 1863 0054 031E     		subs	r3, r0, #0
 1864              		.loc 2 494 12
 1865 0056 22D0     		beq	.L187
 495:../../dependencies/STM32CubeL0/Drivers/STM32L0xx_HAL_Driver/Src/stm32l0xx_ll_rcc.c ****         {
 496:../../dependencies/STM32CubeL0/Drivers/STM32L0xx_HAL_Driver/Src/stm32l0xx_ll_rcc.c ****           if (LL_RCC_IsActiveFlag_HSIDIV() != 0U)
ARM GAS  /var/folders/fs/dxwfnrqj18z860lwl3d6f5t00000gn/T//ccl6Jv28.s 			page 80


 1866              		.loc 2 496 15
 1867 0058 FFF7FEFF 		bl	LL_RCC_IsActiveFlag_HSIDIV
 1868 005c 031E     		subs	r3, r0, #0
 1869              		.loc 2 496 14
 1870 005e 02D0     		beq	.L182
 497:../../dependencies/STM32CubeL0/Drivers/STM32L0xx_HAL_Driver/Src/stm32l0xx_ll_rcc.c ****           {
 498:../../dependencies/STM32CubeL0/Drivers/STM32L0xx_HAL_Driver/Src/stm32l0xx_ll_rcc.c ****             lptim_frequency = (HSI_VALUE >> 2U);
 1871              		.loc 2 498 29
 1872 0060 144B     		ldr	r3, .L189+4
 1873 0062 FB60     		str	r3, [r7, #12]
 499:../../dependencies/STM32CubeL0/Drivers/STM32L0xx_HAL_Driver/Src/stm32l0xx_ll_rcc.c ****           }
 500:../../dependencies/STM32CubeL0/Drivers/STM32L0xx_HAL_Driver/Src/stm32l0xx_ll_rcc.c ****           else
 501:../../dependencies/STM32CubeL0/Drivers/STM32L0xx_HAL_Driver/Src/stm32l0xx_ll_rcc.c ****           {
 502:../../dependencies/STM32CubeL0/Drivers/STM32L0xx_HAL_Driver/Src/stm32l0xx_ll_rcc.c ****             lptim_frequency = HSI_VALUE;
 503:../../dependencies/STM32CubeL0/Drivers/STM32L0xx_HAL_Driver/Src/stm32l0xx_ll_rcc.c ****           }
 504:../../dependencies/STM32CubeL0/Drivers/STM32L0xx_HAL_Driver/Src/stm32l0xx_ll_rcc.c ****         }
 505:../../dependencies/STM32CubeL0/Drivers/STM32L0xx_HAL_Driver/Src/stm32l0xx_ll_rcc.c ****         break;
 1874              		.loc 2 505 9
 1875 0064 1BE0     		b	.L187
 1876              	.L182:
 502:../../dependencies/STM32CubeL0/Drivers/STM32L0xx_HAL_Driver/Src/stm32l0xx_ll_rcc.c ****           }
 1877              		.loc 2 502 29
 1878 0066 144B     		ldr	r3, .L189+8
 1879 0068 FB60     		str	r3, [r7, #12]
 1880              		.loc 2 505 9
 1881 006a 18E0     		b	.L187
 1882              	.L176:
 506:../../dependencies/STM32CubeL0/Drivers/STM32L0xx_HAL_Driver/Src/stm32l0xx_ll_rcc.c **** 
 507:../../dependencies/STM32CubeL0/Drivers/STM32L0xx_HAL_Driver/Src/stm32l0xx_ll_rcc.c ****       case LL_RCC_LPTIM1_CLKSOURCE_LSE:    /* LPTIM1 Clock is LSE Osc. */
 508:../../dependencies/STM32CubeL0/Drivers/STM32L0xx_HAL_Driver/Src/stm32l0xx_ll_rcc.c ****         if (LL_RCC_LSE_IsReady() != 0U)
 1883              		.loc 2 508 13
 1884 006c FFF7FEFF 		bl	LL_RCC_LSE_IsReady
 1885 0070 031E     		subs	r3, r0, #0
 1886              		.loc 2 508 12
 1887 0072 16D0     		beq	.L188
 509:../../dependencies/STM32CubeL0/Drivers/STM32L0xx_HAL_Driver/Src/stm32l0xx_ll_rcc.c ****         {
 510:../../dependencies/STM32CubeL0/Drivers/STM32L0xx_HAL_Driver/Src/stm32l0xx_ll_rcc.c ****           lptim_frequency = LSE_VALUE;
 1888              		.loc 2 510 27
 1889 0074 8023     		movs	r3, #128
 1890 0076 1B02     		lsls	r3, r3, #8
 1891 0078 FB60     		str	r3, [r7, #12]
 511:../../dependencies/STM32CubeL0/Drivers/STM32L0xx_HAL_Driver/Src/stm32l0xx_ll_rcc.c ****         }
 512:../../dependencies/STM32CubeL0/Drivers/STM32L0xx_HAL_Driver/Src/stm32l0xx_ll_rcc.c ****         break;
 1892              		.loc 2 512 9
 1893 007a 12E0     		b	.L188
 1894              	.L177:
 513:../../dependencies/STM32CubeL0/Drivers/STM32L0xx_HAL_Driver/Src/stm32l0xx_ll_rcc.c **** 
 514:../../dependencies/STM32CubeL0/Drivers/STM32L0xx_HAL_Driver/Src/stm32l0xx_ll_rcc.c ****       case LL_RCC_LPTIM1_CLKSOURCE_PCLK1:  /* LPTIM1 Clock is PCLK1 */
 515:../../dependencies/STM32CubeL0/Drivers/STM32L0xx_HAL_Driver/Src/stm32l0xx_ll_rcc.c ****       default:
 516:../../dependencies/STM32CubeL0/Drivers/STM32L0xx_HAL_Driver/Src/stm32l0xx_ll_rcc.c ****         lptim_frequency = RCC_GetPCLK1ClockFreq(RCC_GetHCLKClockFreq(RCC_GetSystemClockFreq()));
 1895              		.loc 2 516 27
 1896 007c FFF7FEFF 		bl	RCC_GetSystemClockFreq
 1897 0080 0300     		movs	r3, r0
 1898 0082 1800     		movs	r0, r3
 1899 0084 FFF7FEFF 		bl	RCC_GetHCLKClockFreq
 1900 0088 0300     		movs	r3, r0
 1901 008a 1800     		movs	r0, r3
ARM GAS  /var/folders/fs/dxwfnrqj18z860lwl3d6f5t00000gn/T//ccl6Jv28.s 			page 81


 1902 008c FFF7FEFF 		bl	RCC_GetPCLK1ClockFreq
 1903 0090 0300     		movs	r3, r0
 1904 0092 FB60     		str	r3, [r7, #12]
 517:../../dependencies/STM32CubeL0/Drivers/STM32L0xx_HAL_Driver/Src/stm32l0xx_ll_rcc.c ****         break;
 1905              		.loc 2 517 9
 1906 0094 06E0     		b	.L175
 1907              	.L185:
 518:../../dependencies/STM32CubeL0/Drivers/STM32L0xx_HAL_Driver/Src/stm32l0xx_ll_rcc.c ****     }
 519:../../dependencies/STM32CubeL0/Drivers/STM32L0xx_HAL_Driver/Src/stm32l0xx_ll_rcc.c ****   }
 1908              		.loc 2 519 3
 1909 0096 C046     		nop
 1910 0098 04E0     		b	.L175
 1911              	.L186:
 491:../../dependencies/STM32CubeL0/Drivers/STM32L0xx_HAL_Driver/Src/stm32l0xx_ll_rcc.c **** 
 1912              		.loc 2 491 9
 1913 009a C046     		nop
 1914 009c 02E0     		b	.L175
 1915              	.L187:
 505:../../dependencies/STM32CubeL0/Drivers/STM32L0xx_HAL_Driver/Src/stm32l0xx_ll_rcc.c **** 
 1916              		.loc 2 505 9
 1917 009e C046     		nop
 1918 00a0 00E0     		b	.L175
 1919              	.L188:
 512:../../dependencies/STM32CubeL0/Drivers/STM32L0xx_HAL_Driver/Src/stm32l0xx_ll_rcc.c **** 
 1920              		.loc 2 512 9
 1921 00a2 C046     		nop
 1922              	.L175:
 520:../../dependencies/STM32CubeL0/Drivers/STM32L0xx_HAL_Driver/Src/stm32l0xx_ll_rcc.c **** 
 521:../../dependencies/STM32CubeL0/Drivers/STM32L0xx_HAL_Driver/Src/stm32l0xx_ll_rcc.c ****   return lptim_frequency;
 1923              		.loc 2 521 10
 1924 00a4 FB68     		ldr	r3, [r7, #12]
 522:../../dependencies/STM32CubeL0/Drivers/STM32L0xx_HAL_Driver/Src/stm32l0xx_ll_rcc.c **** }
 1925              		.loc 2 522 1
 1926 00a6 1800     		movs	r0, r3
 1927 00a8 BD46     		mov	sp, r7
 1928 00aa 04B0     		add	sp, sp, #16
 1929              		@ sp needed
 1930 00ac 80BD     		pop	{r7, pc}
 1931              	.L190:
 1932 00ae C046     		.align	2
 1933              	.L189:
 1934 00b0 88900000 		.word	37000
 1935 00b4 00093D00 		.word	4000000
 1936 00b8 0024F400 		.word	16000000
 1937              		.cfi_endproc
 1938              	.LFE185:
 1940              		.section	.text.LL_RCC_GetUSBClockFreq,"ax",%progbits
 1941              		.align	1
 1942              		.global	LL_RCC_GetUSBClockFreq
 1943              		.syntax unified
 1944              		.code	16
 1945              		.thumb_func
 1946              		.fpu softvfp
 1948              	LL_RCC_GetUSBClockFreq:
 1949              	.LFB186:
 523:../../dependencies/STM32CubeL0/Drivers/STM32L0xx_HAL_Driver/Src/stm32l0xx_ll_rcc.c **** 
 524:../../dependencies/STM32CubeL0/Drivers/STM32L0xx_HAL_Driver/Src/stm32l0xx_ll_rcc.c **** #if defined(USB)
ARM GAS  /var/folders/fs/dxwfnrqj18z860lwl3d6f5t00000gn/T//ccl6Jv28.s 			page 82


 525:../../dependencies/STM32CubeL0/Drivers/STM32L0xx_HAL_Driver/Src/stm32l0xx_ll_rcc.c **** /**
 526:../../dependencies/STM32CubeL0/Drivers/STM32L0xx_HAL_Driver/Src/stm32l0xx_ll_rcc.c ****   * @brief  Return USBx clock frequency
 527:../../dependencies/STM32CubeL0/Drivers/STM32L0xx_HAL_Driver/Src/stm32l0xx_ll_rcc.c ****   * @param  USBxSource This parameter can be one of the following values:
 528:../../dependencies/STM32CubeL0/Drivers/STM32L0xx_HAL_Driver/Src/stm32l0xx_ll_rcc.c ****   *         @arg @ref LL_RCC_USB_CLKSOURCE
 529:../../dependencies/STM32CubeL0/Drivers/STM32L0xx_HAL_Driver/Src/stm32l0xx_ll_rcc.c ****   * @retval USB clock frequency (in Hz)
 530:../../dependencies/STM32CubeL0/Drivers/STM32L0xx_HAL_Driver/Src/stm32l0xx_ll_rcc.c ****   *         @arg @ref LL_RCC_PERIPH_FREQUENCY_NO indicates that oscillator (HSI48) or PLL is not re
 531:../../dependencies/STM32CubeL0/Drivers/STM32L0xx_HAL_Driver/Src/stm32l0xx_ll_rcc.c ****   *         @arg @ref LL_RCC_PERIPH_FREQUENCY_NA indicates that no clock source selected
 532:../../dependencies/STM32CubeL0/Drivers/STM32L0xx_HAL_Driver/Src/stm32l0xx_ll_rcc.c ****   */
 533:../../dependencies/STM32CubeL0/Drivers/STM32L0xx_HAL_Driver/Src/stm32l0xx_ll_rcc.c **** uint32_t LL_RCC_GetUSBClockFreq(uint32_t USBxSource)
 534:../../dependencies/STM32CubeL0/Drivers/STM32L0xx_HAL_Driver/Src/stm32l0xx_ll_rcc.c **** {
 1950              		.loc 2 534 1
 1951              		.cfi_startproc
 1952              		@ args = 0, pretend = 0, frame = 16
 1953              		@ frame_needed = 1, uses_anonymous_args = 0
 1954 0000 80B5     		push	{r7, lr}
 1955              		.cfi_def_cfa_offset 8
 1956              		.cfi_offset 7, -8
 1957              		.cfi_offset 14, -4
 1958 0002 84B0     		sub	sp, sp, #16
 1959              		.cfi_def_cfa_offset 24
 1960 0004 00AF     		add	r7, sp, #0
 1961              		.cfi_def_cfa_register 7
 1962 0006 7860     		str	r0, [r7, #4]
 535:../../dependencies/STM32CubeL0/Drivers/STM32L0xx_HAL_Driver/Src/stm32l0xx_ll_rcc.c ****   uint32_t usb_frequency = LL_RCC_PERIPH_FREQUENCY_NO;
 1963              		.loc 2 535 12
 1964 0008 0023     		movs	r3, #0
 1965 000a FB60     		str	r3, [r7, #12]
 536:../../dependencies/STM32CubeL0/Drivers/STM32L0xx_HAL_Driver/Src/stm32l0xx_ll_rcc.c **** 
 537:../../dependencies/STM32CubeL0/Drivers/STM32L0xx_HAL_Driver/Src/stm32l0xx_ll_rcc.c ****   /* Check parameter */
 538:../../dependencies/STM32CubeL0/Drivers/STM32L0xx_HAL_Driver/Src/stm32l0xx_ll_rcc.c ****   assert_param(IS_LL_RCC_USB_CLKSOURCE(USBxSource));
 539:../../dependencies/STM32CubeL0/Drivers/STM32L0xx_HAL_Driver/Src/stm32l0xx_ll_rcc.c **** 
 540:../../dependencies/STM32CubeL0/Drivers/STM32L0xx_HAL_Driver/Src/stm32l0xx_ll_rcc.c ****   /* USBCLK clock frequency */
 541:../../dependencies/STM32CubeL0/Drivers/STM32L0xx_HAL_Driver/Src/stm32l0xx_ll_rcc.c ****   switch (LL_RCC_GetUSBClockSource(USBxSource))
 1966              		.loc 2 541 11
 1967 000c 7B68     		ldr	r3, [r7, #4]
 1968 000e 1800     		movs	r0, r3
 1969 0010 FFF7FEFF 		bl	LL_RCC_GetUSBClockSource
 1970 0014 031E     		subs	r3, r0, #0
 1971              		.loc 2 541 3
 1972 0016 08D1     		bne	.L192
 542:../../dependencies/STM32CubeL0/Drivers/STM32L0xx_HAL_Driver/Src/stm32l0xx_ll_rcc.c ****   {
 543:../../dependencies/STM32CubeL0/Drivers/STM32L0xx_HAL_Driver/Src/stm32l0xx_ll_rcc.c ****     case LL_RCC_USB_CLKSOURCE_PLL:        /* PLL clock used as USB clock source */
 544:../../dependencies/STM32CubeL0/Drivers/STM32L0xx_HAL_Driver/Src/stm32l0xx_ll_rcc.c ****       if (LL_RCC_PLL_IsReady() != 0U)
 1973              		.loc 2 544 11
 1974 0018 FFF7FEFF 		bl	LL_RCC_PLL_IsReady
 1975 001c 031E     		subs	r3, r0, #0
 1976              		.loc 2 544 10
 1977 001e 0BD0     		beq	.L197
 545:../../dependencies/STM32CubeL0/Drivers/STM32L0xx_HAL_Driver/Src/stm32l0xx_ll_rcc.c ****       {
 546:../../dependencies/STM32CubeL0/Drivers/STM32L0xx_HAL_Driver/Src/stm32l0xx_ll_rcc.c ****         usb_frequency = RCC_PLL_GetFreqDomain_SYS();
 1978              		.loc 2 546 25
 1979 0020 FFF7FEFF 		bl	RCC_PLL_GetFreqDomain_SYS
 1980 0024 0300     		movs	r3, r0
 1981 0026 FB60     		str	r3, [r7, #12]
 547:../../dependencies/STM32CubeL0/Drivers/STM32L0xx_HAL_Driver/Src/stm32l0xx_ll_rcc.c ****       }
 548:../../dependencies/STM32CubeL0/Drivers/STM32L0xx_HAL_Driver/Src/stm32l0xx_ll_rcc.c ****       break;
 1982              		.loc 2 548 7
ARM GAS  /var/folders/fs/dxwfnrqj18z860lwl3d6f5t00000gn/T//ccl6Jv28.s 			page 83


 1983 0028 06E0     		b	.L197
 1984              	.L192:
 549:../../dependencies/STM32CubeL0/Drivers/STM32L0xx_HAL_Driver/Src/stm32l0xx_ll_rcc.c **** 
 550:../../dependencies/STM32CubeL0/Drivers/STM32L0xx_HAL_Driver/Src/stm32l0xx_ll_rcc.c ****     case LL_RCC_USB_CLKSOURCE_HSI48:      /* HSI48 clock used as USB clock source */
 551:../../dependencies/STM32CubeL0/Drivers/STM32L0xx_HAL_Driver/Src/stm32l0xx_ll_rcc.c ****     default:
 552:../../dependencies/STM32CubeL0/Drivers/STM32L0xx_HAL_Driver/Src/stm32l0xx_ll_rcc.c ****       if (LL_RCC_HSI48_IsReady() != 0U)
 1985              		.loc 2 552 11
 1986 002a FFF7FEFF 		bl	LL_RCC_HSI48_IsReady
 1987 002e 031E     		subs	r3, r0, #0
 1988              		.loc 2 552 10
 1989 0030 04D0     		beq	.L198
 553:../../dependencies/STM32CubeL0/Drivers/STM32L0xx_HAL_Driver/Src/stm32l0xx_ll_rcc.c ****       {
 554:../../dependencies/STM32CubeL0/Drivers/STM32L0xx_HAL_Driver/Src/stm32l0xx_ll_rcc.c ****         usb_frequency = HSI48_VALUE;
 1990              		.loc 2 554 23
 1991 0032 054B     		ldr	r3, .L199
 1992 0034 FB60     		str	r3, [r7, #12]
 555:../../dependencies/STM32CubeL0/Drivers/STM32L0xx_HAL_Driver/Src/stm32l0xx_ll_rcc.c ****       }
 556:../../dependencies/STM32CubeL0/Drivers/STM32L0xx_HAL_Driver/Src/stm32l0xx_ll_rcc.c ****       break;
 1993              		.loc 2 556 7
 1994 0036 01E0     		b	.L198
 1995              	.L197:
 548:../../dependencies/STM32CubeL0/Drivers/STM32L0xx_HAL_Driver/Src/stm32l0xx_ll_rcc.c **** 
 1996              		.loc 2 548 7
 1997 0038 C046     		nop
 1998 003a 00E0     		b	.L194
 1999              	.L198:
 2000              		.loc 2 556 7
 2001 003c C046     		nop
 2002              	.L194:
 557:../../dependencies/STM32CubeL0/Drivers/STM32L0xx_HAL_Driver/Src/stm32l0xx_ll_rcc.c ****   }
 558:../../dependencies/STM32CubeL0/Drivers/STM32L0xx_HAL_Driver/Src/stm32l0xx_ll_rcc.c **** 
 559:../../dependencies/STM32CubeL0/Drivers/STM32L0xx_HAL_Driver/Src/stm32l0xx_ll_rcc.c ****   return usb_frequency;
 2003              		.loc 2 559 10
 2004 003e FB68     		ldr	r3, [r7, #12]
 560:../../dependencies/STM32CubeL0/Drivers/STM32L0xx_HAL_Driver/Src/stm32l0xx_ll_rcc.c **** }
 2005              		.loc 2 560 1
 2006 0040 1800     		movs	r0, r3
 2007 0042 BD46     		mov	sp, r7
 2008 0044 04B0     		add	sp, sp, #16
 2009              		@ sp needed
 2010 0046 80BD     		pop	{r7, pc}
 2011              	.L200:
 2012              		.align	2
 2013              	.L199:
 2014 0048 006CDC02 		.word	48000000
 2015              		.cfi_endproc
 2016              	.LFE186:
 2018              		.section	.text.RCC_GetSystemClockFreq,"ax",%progbits
 2019              		.align	1
 2020              		.syntax unified
 2021              		.code	16
 2022              		.thumb_func
 2023              		.fpu softvfp
 2025              	RCC_GetSystemClockFreq:
 2026              	.LFB187:
 561:../../dependencies/STM32CubeL0/Drivers/STM32L0xx_HAL_Driver/Src/stm32l0xx_ll_rcc.c **** #endif /* USB */
 562:../../dependencies/STM32CubeL0/Drivers/STM32L0xx_HAL_Driver/Src/stm32l0xx_ll_rcc.c **** 
ARM GAS  /var/folders/fs/dxwfnrqj18z860lwl3d6f5t00000gn/T//ccl6Jv28.s 			page 84


 563:../../dependencies/STM32CubeL0/Drivers/STM32L0xx_HAL_Driver/Src/stm32l0xx_ll_rcc.c **** /**
 564:../../dependencies/STM32CubeL0/Drivers/STM32L0xx_HAL_Driver/Src/stm32l0xx_ll_rcc.c ****   * @}
 565:../../dependencies/STM32CubeL0/Drivers/STM32L0xx_HAL_Driver/Src/stm32l0xx_ll_rcc.c ****   */
 566:../../dependencies/STM32CubeL0/Drivers/STM32L0xx_HAL_Driver/Src/stm32l0xx_ll_rcc.c **** 
 567:../../dependencies/STM32CubeL0/Drivers/STM32L0xx_HAL_Driver/Src/stm32l0xx_ll_rcc.c **** /**
 568:../../dependencies/STM32CubeL0/Drivers/STM32L0xx_HAL_Driver/Src/stm32l0xx_ll_rcc.c ****   * @}
 569:../../dependencies/STM32CubeL0/Drivers/STM32L0xx_HAL_Driver/Src/stm32l0xx_ll_rcc.c ****   */
 570:../../dependencies/STM32CubeL0/Drivers/STM32L0xx_HAL_Driver/Src/stm32l0xx_ll_rcc.c **** 
 571:../../dependencies/STM32CubeL0/Drivers/STM32L0xx_HAL_Driver/Src/stm32l0xx_ll_rcc.c **** /** @addtogroup RCC_LL_Private_Functions
 572:../../dependencies/STM32CubeL0/Drivers/STM32L0xx_HAL_Driver/Src/stm32l0xx_ll_rcc.c ****   * @{
 573:../../dependencies/STM32CubeL0/Drivers/STM32L0xx_HAL_Driver/Src/stm32l0xx_ll_rcc.c ****   */
 574:../../dependencies/STM32CubeL0/Drivers/STM32L0xx_HAL_Driver/Src/stm32l0xx_ll_rcc.c **** 
 575:../../dependencies/STM32CubeL0/Drivers/STM32L0xx_HAL_Driver/Src/stm32l0xx_ll_rcc.c **** /**
 576:../../dependencies/STM32CubeL0/Drivers/STM32L0xx_HAL_Driver/Src/stm32l0xx_ll_rcc.c ****   * @brief  Return SYSTEM clock frequency
 577:../../dependencies/STM32CubeL0/Drivers/STM32L0xx_HAL_Driver/Src/stm32l0xx_ll_rcc.c ****   * @retval SYSTEM clock frequency (in Hz)
 578:../../dependencies/STM32CubeL0/Drivers/STM32L0xx_HAL_Driver/Src/stm32l0xx_ll_rcc.c ****   */
 579:../../dependencies/STM32CubeL0/Drivers/STM32L0xx_HAL_Driver/Src/stm32l0xx_ll_rcc.c **** static uint32_t RCC_GetSystemClockFreq(void)
 580:../../dependencies/STM32CubeL0/Drivers/STM32L0xx_HAL_Driver/Src/stm32l0xx_ll_rcc.c **** {
 2027              		.loc 2 580 1
 2028              		.cfi_startproc
 2029              		@ args = 0, pretend = 0, frame = 8
 2030              		@ frame_needed = 1, uses_anonymous_args = 0
 2031 0000 80B5     		push	{r7, lr}
 2032              		.cfi_def_cfa_offset 8
 2033              		.cfi_offset 7, -8
 2034              		.cfi_offset 14, -4
 2035 0002 82B0     		sub	sp, sp, #8
 2036              		.cfi_def_cfa_offset 16
 2037 0004 00AF     		add	r7, sp, #0
 2038              		.cfi_def_cfa_register 7
 581:../../dependencies/STM32CubeL0/Drivers/STM32L0xx_HAL_Driver/Src/stm32l0xx_ll_rcc.c ****   uint32_t frequency;
 582:../../dependencies/STM32CubeL0/Drivers/STM32L0xx_HAL_Driver/Src/stm32l0xx_ll_rcc.c **** 
 583:../../dependencies/STM32CubeL0/Drivers/STM32L0xx_HAL_Driver/Src/stm32l0xx_ll_rcc.c ****   /* Get SYSCLK source -------------------------------------------------------*/
 584:../../dependencies/STM32CubeL0/Drivers/STM32L0xx_HAL_Driver/Src/stm32l0xx_ll_rcc.c ****   switch (LL_RCC_GetSysClkSource())
 2039              		.loc 2 584 11
 2040 0006 FFF7FEFF 		bl	LL_RCC_GetSysClkSource
 2041 000a 0300     		movs	r3, r0
 2042              		.loc 2 584 3
 2043 000c 0C2B     		cmp	r3, #12
 2044 000e 20D0     		beq	.L202
 2045 0010 24D8     		bhi	.L203
 2046 0012 082B     		cmp	r3, #8
 2047 0014 1AD0     		beq	.L204
 2048 0016 21D8     		bhi	.L203
 2049 0018 002B     		cmp	r3, #0
 2050 001a 02D0     		beq	.L205
 2051 001c 042B     		cmp	r3, #4
 2052 001e 0BD0     		beq	.L206
 2053 0020 1CE0     		b	.L203
 2054              	.L205:
 585:../../dependencies/STM32CubeL0/Drivers/STM32L0xx_HAL_Driver/Src/stm32l0xx_ll_rcc.c ****   {
 586:../../dependencies/STM32CubeL0/Drivers/STM32L0xx_HAL_Driver/Src/stm32l0xx_ll_rcc.c ****     case LL_RCC_SYS_CLKSOURCE_STATUS_MSI:  /* MSI used as system clock source */
 587:../../dependencies/STM32CubeL0/Drivers/STM32L0xx_HAL_Driver/Src/stm32l0xx_ll_rcc.c ****       frequency = __LL_RCC_CALC_MSI_FREQ(LL_RCC_MSI_GetRange());
 2055              		.loc 2 587 19
 2056 0022 FFF7FEFF 		bl	LL_RCC_MSI_GetRange
 2057 0026 0300     		movs	r3, r0
 2058 0028 5B0B     		lsrs	r3, r3, #13
ARM GAS  /var/folders/fs/dxwfnrqj18z860lwl3d6f5t00000gn/T//ccl6Jv28.s 			page 85


 2059 002a 0133     		adds	r3, r3, #1
 2060              		.loc 2 587 17
 2061 002c 8022     		movs	r2, #128
 2062 002e 1202     		lsls	r2, r2, #8
 2063 0030 9A40     		lsls	r2, r2, r3
 2064 0032 1300     		movs	r3, r2
 2065 0034 7B60     		str	r3, [r7, #4]
 588:../../dependencies/STM32CubeL0/Drivers/STM32L0xx_HAL_Driver/Src/stm32l0xx_ll_rcc.c ****       break;
 2066              		.loc 2 588 7
 2067 0036 1CE0     		b	.L207
 2068              	.L206:
 589:../../dependencies/STM32CubeL0/Drivers/STM32L0xx_HAL_Driver/Src/stm32l0xx_ll_rcc.c **** 
 590:../../dependencies/STM32CubeL0/Drivers/STM32L0xx_HAL_Driver/Src/stm32l0xx_ll_rcc.c ****     case LL_RCC_SYS_CLKSOURCE_STATUS_HSI:  /* HSI used as system clock source */
 591:../../dependencies/STM32CubeL0/Drivers/STM32L0xx_HAL_Driver/Src/stm32l0xx_ll_rcc.c ****       if (LL_RCC_IsActiveFlag_HSIDIV() != 0U)
 2069              		.loc 2 591 11
 2070 0038 FFF7FEFF 		bl	LL_RCC_IsActiveFlag_HSIDIV
 2071 003c 031E     		subs	r3, r0, #0
 2072              		.loc 2 591 10
 2073 003e 02D0     		beq	.L208
 592:../../dependencies/STM32CubeL0/Drivers/STM32L0xx_HAL_Driver/Src/stm32l0xx_ll_rcc.c ****       {
 593:../../dependencies/STM32CubeL0/Drivers/STM32L0xx_HAL_Driver/Src/stm32l0xx_ll_rcc.c ****         frequency = (HSI_VALUE >> 2U);
 2074              		.loc 2 593 19
 2075 0040 0E4B     		ldr	r3, .L211
 2076 0042 7B60     		str	r3, [r7, #4]
 594:../../dependencies/STM32CubeL0/Drivers/STM32L0xx_HAL_Driver/Src/stm32l0xx_ll_rcc.c ****       }
 595:../../dependencies/STM32CubeL0/Drivers/STM32L0xx_HAL_Driver/Src/stm32l0xx_ll_rcc.c ****       else
 596:../../dependencies/STM32CubeL0/Drivers/STM32L0xx_HAL_Driver/Src/stm32l0xx_ll_rcc.c ****       {
 597:../../dependencies/STM32CubeL0/Drivers/STM32L0xx_HAL_Driver/Src/stm32l0xx_ll_rcc.c ****         frequency = HSI_VALUE;
 598:../../dependencies/STM32CubeL0/Drivers/STM32L0xx_HAL_Driver/Src/stm32l0xx_ll_rcc.c ****       }
 599:../../dependencies/STM32CubeL0/Drivers/STM32L0xx_HAL_Driver/Src/stm32l0xx_ll_rcc.c ****       break;
 2077              		.loc 2 599 7
 2078 0044 15E0     		b	.L207
 2079              	.L208:
 597:../../dependencies/STM32CubeL0/Drivers/STM32L0xx_HAL_Driver/Src/stm32l0xx_ll_rcc.c ****       }
 2080              		.loc 2 597 19
 2081 0046 0E4B     		ldr	r3, .L211+4
 2082 0048 7B60     		str	r3, [r7, #4]
 2083              		.loc 2 599 7
 2084 004a 12E0     		b	.L207
 2085              	.L204:
 600:../../dependencies/STM32CubeL0/Drivers/STM32L0xx_HAL_Driver/Src/stm32l0xx_ll_rcc.c **** 
 601:../../dependencies/STM32CubeL0/Drivers/STM32L0xx_HAL_Driver/Src/stm32l0xx_ll_rcc.c ****     case LL_RCC_SYS_CLKSOURCE_STATUS_HSE:  /* HSE used as system clock source */
 602:../../dependencies/STM32CubeL0/Drivers/STM32L0xx_HAL_Driver/Src/stm32l0xx_ll_rcc.c ****       frequency = HSE_VALUE;
 2086              		.loc 2 602 17
 2087 004c 0D4B     		ldr	r3, .L211+8
 2088 004e 7B60     		str	r3, [r7, #4]
 603:../../dependencies/STM32CubeL0/Drivers/STM32L0xx_HAL_Driver/Src/stm32l0xx_ll_rcc.c ****       break;
 2089              		.loc 2 603 7
 2090 0050 0FE0     		b	.L207
 2091              	.L202:
 604:../../dependencies/STM32CubeL0/Drivers/STM32L0xx_HAL_Driver/Src/stm32l0xx_ll_rcc.c **** 
 605:../../dependencies/STM32CubeL0/Drivers/STM32L0xx_HAL_Driver/Src/stm32l0xx_ll_rcc.c ****     case LL_RCC_SYS_CLKSOURCE_STATUS_PLL:  /* PLL used as system clock  source */
 606:../../dependencies/STM32CubeL0/Drivers/STM32L0xx_HAL_Driver/Src/stm32l0xx_ll_rcc.c ****       frequency = RCC_PLL_GetFreqDomain_SYS();
 2092              		.loc 2 606 19
 2093 0052 FFF7FEFF 		bl	RCC_PLL_GetFreqDomain_SYS
 2094 0056 0300     		movs	r3, r0
 2095 0058 7B60     		str	r3, [r7, #4]
ARM GAS  /var/folders/fs/dxwfnrqj18z860lwl3d6f5t00000gn/T//ccl6Jv28.s 			page 86


 607:../../dependencies/STM32CubeL0/Drivers/STM32L0xx_HAL_Driver/Src/stm32l0xx_ll_rcc.c ****       break;
 2096              		.loc 2 607 7
 2097 005a 0AE0     		b	.L207
 2098              	.L203:
 608:../../dependencies/STM32CubeL0/Drivers/STM32L0xx_HAL_Driver/Src/stm32l0xx_ll_rcc.c **** 
 609:../../dependencies/STM32CubeL0/Drivers/STM32L0xx_HAL_Driver/Src/stm32l0xx_ll_rcc.c ****     default:
 610:../../dependencies/STM32CubeL0/Drivers/STM32L0xx_HAL_Driver/Src/stm32l0xx_ll_rcc.c ****       frequency = __LL_RCC_CALC_MSI_FREQ(LL_RCC_MSI_GetRange());
 2099              		.loc 2 610 19
 2100 005c FFF7FEFF 		bl	LL_RCC_MSI_GetRange
 2101 0060 0300     		movs	r3, r0
 2102 0062 5B0B     		lsrs	r3, r3, #13
 2103 0064 0133     		adds	r3, r3, #1
 2104              		.loc 2 610 17
 2105 0066 8022     		movs	r2, #128
 2106 0068 1202     		lsls	r2, r2, #8
 2107 006a 9A40     		lsls	r2, r2, r3
 2108 006c 1300     		movs	r3, r2
 2109 006e 7B60     		str	r3, [r7, #4]
 611:../../dependencies/STM32CubeL0/Drivers/STM32L0xx_HAL_Driver/Src/stm32l0xx_ll_rcc.c ****       break;
 2110              		.loc 2 611 7
 2111 0070 C046     		nop
 2112              	.L207:
 612:../../dependencies/STM32CubeL0/Drivers/STM32L0xx_HAL_Driver/Src/stm32l0xx_ll_rcc.c ****   }
 613:../../dependencies/STM32CubeL0/Drivers/STM32L0xx_HAL_Driver/Src/stm32l0xx_ll_rcc.c **** 
 614:../../dependencies/STM32CubeL0/Drivers/STM32L0xx_HAL_Driver/Src/stm32l0xx_ll_rcc.c ****   return frequency;
 2113              		.loc 2 614 10
 2114 0072 7B68     		ldr	r3, [r7, #4]
 615:../../dependencies/STM32CubeL0/Drivers/STM32L0xx_HAL_Driver/Src/stm32l0xx_ll_rcc.c **** }
 2115              		.loc 2 615 1
 2116 0074 1800     		movs	r0, r3
 2117 0076 BD46     		mov	sp, r7
 2118 0078 02B0     		add	sp, sp, #8
 2119              		@ sp needed
 2120 007a 80BD     		pop	{r7, pc}
 2121              	.L212:
 2122              		.align	2
 2123              	.L211:
 2124 007c 00093D00 		.word	4000000
 2125 0080 0024F400 		.word	16000000
 2126 0084 00127A00 		.word	8000000
 2127              		.cfi_endproc
 2128              	.LFE187:
 2130              		.section	.text.RCC_GetHCLKClockFreq,"ax",%progbits
 2131              		.align	1
 2132              		.syntax unified
 2133              		.code	16
 2134              		.thumb_func
 2135              		.fpu softvfp
 2137              	RCC_GetHCLKClockFreq:
 2138              	.LFB188:
 616:../../dependencies/STM32CubeL0/Drivers/STM32L0xx_HAL_Driver/Src/stm32l0xx_ll_rcc.c **** 
 617:../../dependencies/STM32CubeL0/Drivers/STM32L0xx_HAL_Driver/Src/stm32l0xx_ll_rcc.c **** /**
 618:../../dependencies/STM32CubeL0/Drivers/STM32L0xx_HAL_Driver/Src/stm32l0xx_ll_rcc.c ****   * @brief  Return HCLK clock frequency
 619:../../dependencies/STM32CubeL0/Drivers/STM32L0xx_HAL_Driver/Src/stm32l0xx_ll_rcc.c ****   * @param  SYSCLK_Frequency SYSCLK clock frequency
 620:../../dependencies/STM32CubeL0/Drivers/STM32L0xx_HAL_Driver/Src/stm32l0xx_ll_rcc.c ****   * @retval HCLK clock frequency (in Hz)
 621:../../dependencies/STM32CubeL0/Drivers/STM32L0xx_HAL_Driver/Src/stm32l0xx_ll_rcc.c ****   */
 622:../../dependencies/STM32CubeL0/Drivers/STM32L0xx_HAL_Driver/Src/stm32l0xx_ll_rcc.c **** static uint32_t RCC_GetHCLKClockFreq(uint32_t SYSCLK_Frequency)
ARM GAS  /var/folders/fs/dxwfnrqj18z860lwl3d6f5t00000gn/T//ccl6Jv28.s 			page 87


 623:../../dependencies/STM32CubeL0/Drivers/STM32L0xx_HAL_Driver/Src/stm32l0xx_ll_rcc.c **** {
 2139              		.loc 2 623 1
 2140              		.cfi_startproc
 2141              		@ args = 0, pretend = 0, frame = 8
 2142              		@ frame_needed = 1, uses_anonymous_args = 0
 2143 0000 80B5     		push	{r7, lr}
 2144              		.cfi_def_cfa_offset 8
 2145              		.cfi_offset 7, -8
 2146              		.cfi_offset 14, -4
 2147 0002 82B0     		sub	sp, sp, #8
 2148              		.cfi_def_cfa_offset 16
 2149 0004 00AF     		add	r7, sp, #0
 2150              		.cfi_def_cfa_register 7
 2151 0006 7860     		str	r0, [r7, #4]
 624:../../dependencies/STM32CubeL0/Drivers/STM32L0xx_HAL_Driver/Src/stm32l0xx_ll_rcc.c ****   /* HCLK clock frequency */
 625:../../dependencies/STM32CubeL0/Drivers/STM32L0xx_HAL_Driver/Src/stm32l0xx_ll_rcc.c ****   return __LL_RCC_CALC_HCLK_FREQ(SYSCLK_Frequency, LL_RCC_GetAHBPrescaler());
 2152              		.loc 2 625 10
 2153 0008 FFF7FEFF 		bl	LL_RCC_GetAHBPrescaler
 2154 000c 0300     		movs	r3, r0
 2155 000e 1B09     		lsrs	r3, r3, #4
 2156 0010 0F22     		movs	r2, #15
 2157 0012 1340     		ands	r3, r2
 2158 0014 044A     		ldr	r2, .L215
 2159 0016 D35C     		ldrb	r3, [r2, r3]
 2160 0018 1A00     		movs	r2, r3
 2161 001a 7B68     		ldr	r3, [r7, #4]
 2162 001c D340     		lsrs	r3, r3, r2
 626:../../dependencies/STM32CubeL0/Drivers/STM32L0xx_HAL_Driver/Src/stm32l0xx_ll_rcc.c **** }
 2163              		.loc 2 626 1
 2164 001e 1800     		movs	r0, r3
 2165 0020 BD46     		mov	sp, r7
 2166 0022 02B0     		add	sp, sp, #8
 2167              		@ sp needed
 2168 0024 80BD     		pop	{r7, pc}
 2169              	.L216:
 2170 0026 C046     		.align	2
 2171              	.L215:
 2172 0028 00000000 		.word	AHBPrescTable
 2173              		.cfi_endproc
 2174              	.LFE188:
 2176              		.section	.text.RCC_GetPCLK1ClockFreq,"ax",%progbits
 2177              		.align	1
 2178              		.syntax unified
 2179              		.code	16
 2180              		.thumb_func
 2181              		.fpu softvfp
 2183              	RCC_GetPCLK1ClockFreq:
 2184              	.LFB189:
 627:../../dependencies/STM32CubeL0/Drivers/STM32L0xx_HAL_Driver/Src/stm32l0xx_ll_rcc.c **** 
 628:../../dependencies/STM32CubeL0/Drivers/STM32L0xx_HAL_Driver/Src/stm32l0xx_ll_rcc.c **** /**
 629:../../dependencies/STM32CubeL0/Drivers/STM32L0xx_HAL_Driver/Src/stm32l0xx_ll_rcc.c ****   * @brief  Return PCLK1 clock frequency
 630:../../dependencies/STM32CubeL0/Drivers/STM32L0xx_HAL_Driver/Src/stm32l0xx_ll_rcc.c ****   * @param  HCLK_Frequency HCLK clock frequency
 631:../../dependencies/STM32CubeL0/Drivers/STM32L0xx_HAL_Driver/Src/stm32l0xx_ll_rcc.c ****   * @retval PCLK1 clock frequency (in Hz)
 632:../../dependencies/STM32CubeL0/Drivers/STM32L0xx_HAL_Driver/Src/stm32l0xx_ll_rcc.c ****   */
 633:../../dependencies/STM32CubeL0/Drivers/STM32L0xx_HAL_Driver/Src/stm32l0xx_ll_rcc.c **** static uint32_t RCC_GetPCLK1ClockFreq(uint32_t HCLK_Frequency)
 634:../../dependencies/STM32CubeL0/Drivers/STM32L0xx_HAL_Driver/Src/stm32l0xx_ll_rcc.c **** {
 2185              		.loc 2 634 1
ARM GAS  /var/folders/fs/dxwfnrqj18z860lwl3d6f5t00000gn/T//ccl6Jv28.s 			page 88


 2186              		.cfi_startproc
 2187              		@ args = 0, pretend = 0, frame = 8
 2188              		@ frame_needed = 1, uses_anonymous_args = 0
 2189 0000 80B5     		push	{r7, lr}
 2190              		.cfi_def_cfa_offset 8
 2191              		.cfi_offset 7, -8
 2192              		.cfi_offset 14, -4
 2193 0002 82B0     		sub	sp, sp, #8
 2194              		.cfi_def_cfa_offset 16
 2195 0004 00AF     		add	r7, sp, #0
 2196              		.cfi_def_cfa_register 7
 2197 0006 7860     		str	r0, [r7, #4]
 635:../../dependencies/STM32CubeL0/Drivers/STM32L0xx_HAL_Driver/Src/stm32l0xx_ll_rcc.c ****   /* PCLK1 clock frequency */
 636:../../dependencies/STM32CubeL0/Drivers/STM32L0xx_HAL_Driver/Src/stm32l0xx_ll_rcc.c ****   return __LL_RCC_CALC_PCLK1_FREQ(HCLK_Frequency, LL_RCC_GetAPB1Prescaler());
 2198              		.loc 2 636 10
 2199 0008 FFF7FEFF 		bl	LL_RCC_GetAPB1Prescaler
 2200 000c 0300     		movs	r3, r0
 2201 000e 1B0A     		lsrs	r3, r3, #8
 2202 0010 044A     		ldr	r2, .L219
 2203 0012 D35C     		ldrb	r3, [r2, r3]
 2204 0014 1A00     		movs	r2, r3
 2205 0016 7B68     		ldr	r3, [r7, #4]
 2206 0018 D340     		lsrs	r3, r3, r2
 637:../../dependencies/STM32CubeL0/Drivers/STM32L0xx_HAL_Driver/Src/stm32l0xx_ll_rcc.c **** }
 2207              		.loc 2 637 1
 2208 001a 1800     		movs	r0, r3
 2209 001c BD46     		mov	sp, r7
 2210 001e 02B0     		add	sp, sp, #8
 2211              		@ sp needed
 2212 0020 80BD     		pop	{r7, pc}
 2213              	.L220:
 2214 0022 C046     		.align	2
 2215              	.L219:
 2216 0024 00000000 		.word	APBPrescTable
 2217              		.cfi_endproc
 2218              	.LFE189:
 2220              		.section	.text.RCC_GetPCLK2ClockFreq,"ax",%progbits
 2221              		.align	1
 2222              		.syntax unified
 2223              		.code	16
 2224              		.thumb_func
 2225              		.fpu softvfp
 2227              	RCC_GetPCLK2ClockFreq:
 2228              	.LFB190:
 638:../../dependencies/STM32CubeL0/Drivers/STM32L0xx_HAL_Driver/Src/stm32l0xx_ll_rcc.c **** 
 639:../../dependencies/STM32CubeL0/Drivers/STM32L0xx_HAL_Driver/Src/stm32l0xx_ll_rcc.c **** /**
 640:../../dependencies/STM32CubeL0/Drivers/STM32L0xx_HAL_Driver/Src/stm32l0xx_ll_rcc.c ****   * @brief  Return PCLK2 clock frequency
 641:../../dependencies/STM32CubeL0/Drivers/STM32L0xx_HAL_Driver/Src/stm32l0xx_ll_rcc.c ****   * @param  HCLK_Frequency HCLK clock frequency
 642:../../dependencies/STM32CubeL0/Drivers/STM32L0xx_HAL_Driver/Src/stm32l0xx_ll_rcc.c ****   * @retval PCLK2 clock frequency (in Hz)
 643:../../dependencies/STM32CubeL0/Drivers/STM32L0xx_HAL_Driver/Src/stm32l0xx_ll_rcc.c ****   */
 644:../../dependencies/STM32CubeL0/Drivers/STM32L0xx_HAL_Driver/Src/stm32l0xx_ll_rcc.c **** static uint32_t RCC_GetPCLK2ClockFreq(uint32_t HCLK_Frequency)
 645:../../dependencies/STM32CubeL0/Drivers/STM32L0xx_HAL_Driver/Src/stm32l0xx_ll_rcc.c **** {
 2229              		.loc 2 645 1
 2230              		.cfi_startproc
 2231              		@ args = 0, pretend = 0, frame = 8
 2232              		@ frame_needed = 1, uses_anonymous_args = 0
 2233 0000 80B5     		push	{r7, lr}
ARM GAS  /var/folders/fs/dxwfnrqj18z860lwl3d6f5t00000gn/T//ccl6Jv28.s 			page 89


 2234              		.cfi_def_cfa_offset 8
 2235              		.cfi_offset 7, -8
 2236              		.cfi_offset 14, -4
 2237 0002 82B0     		sub	sp, sp, #8
 2238              		.cfi_def_cfa_offset 16
 2239 0004 00AF     		add	r7, sp, #0
 2240              		.cfi_def_cfa_register 7
 2241 0006 7860     		str	r0, [r7, #4]
 646:../../dependencies/STM32CubeL0/Drivers/STM32L0xx_HAL_Driver/Src/stm32l0xx_ll_rcc.c ****   /* PCLK2 clock frequency */
 647:../../dependencies/STM32CubeL0/Drivers/STM32L0xx_HAL_Driver/Src/stm32l0xx_ll_rcc.c ****   return __LL_RCC_CALC_PCLK2_FREQ(HCLK_Frequency, LL_RCC_GetAPB2Prescaler());
 2242              		.loc 2 647 10
 2243 0008 FFF7FEFF 		bl	LL_RCC_GetAPB2Prescaler
 2244 000c 0300     		movs	r3, r0
 2245 000e DB0A     		lsrs	r3, r3, #11
 2246 0010 044A     		ldr	r2, .L223
 2247 0012 D35C     		ldrb	r3, [r2, r3]
 2248 0014 1A00     		movs	r2, r3
 2249 0016 7B68     		ldr	r3, [r7, #4]
 2250 0018 D340     		lsrs	r3, r3, r2
 648:../../dependencies/STM32CubeL0/Drivers/STM32L0xx_HAL_Driver/Src/stm32l0xx_ll_rcc.c **** }
 2251              		.loc 2 648 1
 2252 001a 1800     		movs	r0, r3
 2253 001c BD46     		mov	sp, r7
 2254 001e 02B0     		add	sp, sp, #8
 2255              		@ sp needed
 2256 0020 80BD     		pop	{r7, pc}
 2257              	.L224:
 2258 0022 C046     		.align	2
 2259              	.L223:
 2260 0024 00000000 		.word	APBPrescTable
 2261              		.cfi_endproc
 2262              	.LFE190:
 2264              		.global	__aeabi_uidiv
 2265              		.section	.text.RCC_PLL_GetFreqDomain_SYS,"ax",%progbits
 2266              		.align	1
 2267              		.syntax unified
 2268              		.code	16
 2269              		.thumb_func
 2270              		.fpu softvfp
 2272              	RCC_PLL_GetFreqDomain_SYS:
 2273              	.LFB191:
 649:../../dependencies/STM32CubeL0/Drivers/STM32L0xx_HAL_Driver/Src/stm32l0xx_ll_rcc.c **** 
 650:../../dependencies/STM32CubeL0/Drivers/STM32L0xx_HAL_Driver/Src/stm32l0xx_ll_rcc.c **** /**
 651:../../dependencies/STM32CubeL0/Drivers/STM32L0xx_HAL_Driver/Src/stm32l0xx_ll_rcc.c ****   * @brief  Return PLL clock frequency used for system domain
 652:../../dependencies/STM32CubeL0/Drivers/STM32L0xx_HAL_Driver/Src/stm32l0xx_ll_rcc.c ****   * @retval PLL clock frequency (in Hz)
 653:../../dependencies/STM32CubeL0/Drivers/STM32L0xx_HAL_Driver/Src/stm32l0xx_ll_rcc.c ****   */
 654:../../dependencies/STM32CubeL0/Drivers/STM32L0xx_HAL_Driver/Src/stm32l0xx_ll_rcc.c **** static uint32_t RCC_PLL_GetFreqDomain_SYS(void)
 655:../../dependencies/STM32CubeL0/Drivers/STM32L0xx_HAL_Driver/Src/stm32l0xx_ll_rcc.c **** {
 2274              		.loc 2 655 1
 2275              		.cfi_startproc
 2276              		@ args = 0, pretend = 0, frame = 8
 2277              		@ frame_needed = 1, uses_anonymous_args = 0
 2278 0000 90B5     		push	{r4, r7, lr}
 2279              		.cfi_def_cfa_offset 12
 2280              		.cfi_offset 4, -12
 2281              		.cfi_offset 7, -8
 2282              		.cfi_offset 14, -4
ARM GAS  /var/folders/fs/dxwfnrqj18z860lwl3d6f5t00000gn/T//ccl6Jv28.s 			page 90


 2283 0002 83B0     		sub	sp, sp, #12
 2284              		.cfi_def_cfa_offset 24
 2285 0004 00AF     		add	r7, sp, #0
 2286              		.cfi_def_cfa_register 7
 656:../../dependencies/STM32CubeL0/Drivers/STM32L0xx_HAL_Driver/Src/stm32l0xx_ll_rcc.c ****   uint32_t pllinputfreq, pllsource;
 657:../../dependencies/STM32CubeL0/Drivers/STM32L0xx_HAL_Driver/Src/stm32l0xx_ll_rcc.c **** 
 658:../../dependencies/STM32CubeL0/Drivers/STM32L0xx_HAL_Driver/Src/stm32l0xx_ll_rcc.c ****   /* PLL_VCO = (HSE_VALUE or HSI_VALUE / PLL divider) * PLL Multiplicator */
 659:../../dependencies/STM32CubeL0/Drivers/STM32L0xx_HAL_Driver/Src/stm32l0xx_ll_rcc.c **** 
 660:../../dependencies/STM32CubeL0/Drivers/STM32L0xx_HAL_Driver/Src/stm32l0xx_ll_rcc.c ****   /* Get PLL source */
 661:../../dependencies/STM32CubeL0/Drivers/STM32L0xx_HAL_Driver/Src/stm32l0xx_ll_rcc.c ****   pllsource = LL_RCC_PLL_GetMainSource();
 2287              		.loc 2 661 15
 2288 0006 FFF7FEFF 		bl	LL_RCC_PLL_GetMainSource
 2289 000a 0300     		movs	r3, r0
 2290 000c 3B60     		str	r3, [r7]
 662:../../dependencies/STM32CubeL0/Drivers/STM32L0xx_HAL_Driver/Src/stm32l0xx_ll_rcc.c **** 
 663:../../dependencies/STM32CubeL0/Drivers/STM32L0xx_HAL_Driver/Src/stm32l0xx_ll_rcc.c ****   switch (pllsource)
 2291              		.loc 2 663 3
 2292 000e 3B68     		ldr	r3, [r7]
 2293 0010 002B     		cmp	r3, #0
 2294 0012 09D1     		bne	.L226
 664:../../dependencies/STM32CubeL0/Drivers/STM32L0xx_HAL_Driver/Src/stm32l0xx_ll_rcc.c ****   {
 665:../../dependencies/STM32CubeL0/Drivers/STM32L0xx_HAL_Driver/Src/stm32l0xx_ll_rcc.c ****     case LL_RCC_PLLSOURCE_HSI:       /* HSI used as PLL clock source */
 666:../../dependencies/STM32CubeL0/Drivers/STM32L0xx_HAL_Driver/Src/stm32l0xx_ll_rcc.c ****       if (LL_RCC_IsActiveFlag_HSIDIV() != 0U)
 2295              		.loc 2 666 11
 2296 0014 FFF7FEFF 		bl	LL_RCC_IsActiveFlag_HSIDIV
 2297 0018 031E     		subs	r3, r0, #0
 2298              		.loc 2 666 10
 2299 001a 02D0     		beq	.L227
 667:../../dependencies/STM32CubeL0/Drivers/STM32L0xx_HAL_Driver/Src/stm32l0xx_ll_rcc.c ****       {
 668:../../dependencies/STM32CubeL0/Drivers/STM32L0xx_HAL_Driver/Src/stm32l0xx_ll_rcc.c ****         pllinputfreq = (HSI_VALUE >> 2U);
 2300              		.loc 2 668 22
 2301 001c 104B     		ldr	r3, .L231
 2302 001e 7B60     		str	r3, [r7, #4]
 669:../../dependencies/STM32CubeL0/Drivers/STM32L0xx_HAL_Driver/Src/stm32l0xx_ll_rcc.c ****       }
 670:../../dependencies/STM32CubeL0/Drivers/STM32L0xx_HAL_Driver/Src/stm32l0xx_ll_rcc.c ****       else
 671:../../dependencies/STM32CubeL0/Drivers/STM32L0xx_HAL_Driver/Src/stm32l0xx_ll_rcc.c ****       {
 672:../../dependencies/STM32CubeL0/Drivers/STM32L0xx_HAL_Driver/Src/stm32l0xx_ll_rcc.c ****         pllinputfreq = HSI_VALUE;
 673:../../dependencies/STM32CubeL0/Drivers/STM32L0xx_HAL_Driver/Src/stm32l0xx_ll_rcc.c ****       }
 674:../../dependencies/STM32CubeL0/Drivers/STM32L0xx_HAL_Driver/Src/stm32l0xx_ll_rcc.c ****       break;
 2303              		.loc 2 674 7
 2304 0020 05E0     		b	.L229
 2305              	.L227:
 672:../../dependencies/STM32CubeL0/Drivers/STM32L0xx_HAL_Driver/Src/stm32l0xx_ll_rcc.c ****       }
 2306              		.loc 2 672 22
 2307 0022 104B     		ldr	r3, .L231+4
 2308 0024 7B60     		str	r3, [r7, #4]
 2309              		.loc 2 674 7
 2310 0026 02E0     		b	.L229
 2311              	.L226:
 675:../../dependencies/STM32CubeL0/Drivers/STM32L0xx_HAL_Driver/Src/stm32l0xx_ll_rcc.c **** 
 676:../../dependencies/STM32CubeL0/Drivers/STM32L0xx_HAL_Driver/Src/stm32l0xx_ll_rcc.c ****     default:       /* HSE used as PLL clock source */
 677:../../dependencies/STM32CubeL0/Drivers/STM32L0xx_HAL_Driver/Src/stm32l0xx_ll_rcc.c ****       pllinputfreq = HSE_VALUE;
 2312              		.loc 2 677 20
 2313 0028 0F4B     		ldr	r3, .L231+8
 2314 002a 7B60     		str	r3, [r7, #4]
 678:../../dependencies/STM32CubeL0/Drivers/STM32L0xx_HAL_Driver/Src/stm32l0xx_ll_rcc.c ****       break;
 2315              		.loc 2 678 7
ARM GAS  /var/folders/fs/dxwfnrqj18z860lwl3d6f5t00000gn/T//ccl6Jv28.s 			page 91


 2316 002c C046     		nop
 2317              	.L229:
 679:../../dependencies/STM32CubeL0/Drivers/STM32L0xx_HAL_Driver/Src/stm32l0xx_ll_rcc.c ****   }
 680:../../dependencies/STM32CubeL0/Drivers/STM32L0xx_HAL_Driver/Src/stm32l0xx_ll_rcc.c ****   return __LL_RCC_CALC_PLLCLK_FREQ(pllinputfreq, LL_RCC_PLL_GetMultiplicator(), LL_RCC_PLL_GetDivid
 2318              		.loc 2 680 10
 2319 002e FFF7FEFF 		bl	LL_RCC_PLL_GetMultiplicator
 2320 0032 0300     		movs	r3, r0
 2321 0034 9B0C     		lsrs	r3, r3, #18
 2322 0036 0D4A     		ldr	r2, .L231+12
 2323 0038 D35C     		ldrb	r3, [r2, r3]
 2324 003a 1A00     		movs	r2, r3
 2325 003c 7B68     		ldr	r3, [r7, #4]
 2326 003e 5343     		muls	r3, r2
 2327 0040 1C00     		movs	r4, r3
 2328 0042 FFF7FEFF 		bl	LL_RCC_PLL_GetDivider
 2329 0046 0300     		movs	r3, r0
 2330 0048 9B0D     		lsrs	r3, r3, #22
 2331 004a 0133     		adds	r3, r3, #1
 2332 004c 1900     		movs	r1, r3
 2333 004e 2000     		movs	r0, r4
 2334 0050 FFF7FEFF 		bl	__aeabi_uidiv
 2335 0054 0300     		movs	r3, r0
 681:../../dependencies/STM32CubeL0/Drivers/STM32L0xx_HAL_Driver/Src/stm32l0xx_ll_rcc.c **** }
 2336              		.loc 2 681 1
 2337 0056 1800     		movs	r0, r3
 2338 0058 BD46     		mov	sp, r7
 2339 005a 03B0     		add	sp, sp, #12
 2340              		@ sp needed
 2341 005c 90BD     		pop	{r4, r7, pc}
 2342              	.L232:
 2343 005e C046     		.align	2
 2344              	.L231:
 2345 0060 00093D00 		.word	4000000
 2346 0064 0024F400 		.word	16000000
 2347 0068 00127A00 		.word	8000000
 2348 006c 00000000 		.word	PLLMulTable
 2349              		.cfi_endproc
 2350              	.LFE191:
 2352              		.text
 2353              	.Letext0:
 2354              		.file 3 "/Applications/ARM/arm-none-eabi/include/machine/_default_types.h"
 2355              		.file 4 "/Applications/ARM/arm-none-eabi/include/sys/_stdint.h"
 2356              		.file 5 "../../dependencies/STM32CubeL0/Drivers/CMSIS/Device/ST/STM32L0xx/Include/system_stm32l0xx
 2357              		.file 6 "../../dependencies/STM32CubeL0/Drivers/CMSIS/Device/ST/STM32L0xx/Include/stm32l053xx.h"
 2358              		.file 7 "../../dependencies/STM32CubeL0/Drivers/CMSIS/Device/ST/STM32L0xx/Include/stm32l0xx.h"
ARM GAS  /var/folders/fs/dxwfnrqj18z860lwl3d6f5t00000gn/T//ccl6Jv28.s 			page 92


DEFINED SYMBOLS
                            *ABS*:0000000000000000 stm32l0xx_ll_rcc.c
/var/folders/fs/dxwfnrqj18z860lwl3d6f5t00000gn/T//ccl6Jv28.s:16     .text.LL_RCC_HSE_DisableBypass:0000000000000000 $t
/var/folders/fs/dxwfnrqj18z860lwl3d6f5t00000gn/T//ccl6Jv28.s:23     .text.LL_RCC_HSE_DisableBypass:0000000000000000 LL_RCC_HSE_DisableBypass
/var/folders/fs/dxwfnrqj18z860lwl3d6f5t00000gn/T//ccl6Jv28.s:51     .text.LL_RCC_HSE_DisableBypass:0000000000000018 $d
/var/folders/fs/dxwfnrqj18z860lwl3d6f5t00000gn/T//ccl6Jv28.s:57     .text.LL_RCC_HSI_IsReady:0000000000000000 $t
/var/folders/fs/dxwfnrqj18z860lwl3d6f5t00000gn/T//ccl6Jv28.s:63     .text.LL_RCC_HSI_IsReady:0000000000000000 LL_RCC_HSI_IsReady
/var/folders/fs/dxwfnrqj18z860lwl3d6f5t00000gn/T//ccl6Jv28.s:98     .text.LL_RCC_HSI_IsReady:000000000000001c $d
/var/folders/fs/dxwfnrqj18z860lwl3d6f5t00000gn/T//ccl6Jv28.s:103    .text.LL_RCC_HSI_SetCalibTrimming:0000000000000000 $t
/var/folders/fs/dxwfnrqj18z860lwl3d6f5t00000gn/T//ccl6Jv28.s:109    .text.LL_RCC_HSI_SetCalibTrimming:0000000000000000 LL_RCC_HSI_SetCalibTrimming
/var/folders/fs/dxwfnrqj18z860lwl3d6f5t00000gn/T//ccl6Jv28.s:144    .text.LL_RCC_HSI_SetCalibTrimming:0000000000000024 $d
/var/folders/fs/dxwfnrqj18z860lwl3d6f5t00000gn/T//ccl6Jv28.s:150    .text.LL_RCC_HSI48_IsReady:0000000000000000 $t
/var/folders/fs/dxwfnrqj18z860lwl3d6f5t00000gn/T//ccl6Jv28.s:156    .text.LL_RCC_HSI48_IsReady:0000000000000000 LL_RCC_HSI48_IsReady
/var/folders/fs/dxwfnrqj18z860lwl3d6f5t00000gn/T//ccl6Jv28.s:191    .text.LL_RCC_HSI48_IsReady:000000000000001c $d
/var/folders/fs/dxwfnrqj18z860lwl3d6f5t00000gn/T//ccl6Jv28.s:196    .text.LL_RCC_LSE_IsReady:0000000000000000 $t
/var/folders/fs/dxwfnrqj18z860lwl3d6f5t00000gn/T//ccl6Jv28.s:202    .text.LL_RCC_LSE_IsReady:0000000000000000 LL_RCC_LSE_IsReady
/var/folders/fs/dxwfnrqj18z860lwl3d6f5t00000gn/T//ccl6Jv28.s:240    .text.LL_RCC_LSE_IsReady:0000000000000024 $d
/var/folders/fs/dxwfnrqj18z860lwl3d6f5t00000gn/T//ccl6Jv28.s:245    .text.LL_RCC_LSI_IsReady:0000000000000000 $t
/var/folders/fs/dxwfnrqj18z860lwl3d6f5t00000gn/T//ccl6Jv28.s:251    .text.LL_RCC_LSI_IsReady:0000000000000000 LL_RCC_LSI_IsReady
/var/folders/fs/dxwfnrqj18z860lwl3d6f5t00000gn/T//ccl6Jv28.s:286    .text.LL_RCC_LSI_IsReady:000000000000001c $d
/var/folders/fs/dxwfnrqj18z860lwl3d6f5t00000gn/T//ccl6Jv28.s:291    .text.LL_RCC_MSI_Enable:0000000000000000 $t
/var/folders/fs/dxwfnrqj18z860lwl3d6f5t00000gn/T//ccl6Jv28.s:297    .text.LL_RCC_MSI_Enable:0000000000000000 LL_RCC_MSI_Enable
/var/folders/fs/dxwfnrqj18z860lwl3d6f5t00000gn/T//ccl6Jv28.s:325    .text.LL_RCC_MSI_Enable:0000000000000018 $d
/var/folders/fs/dxwfnrqj18z860lwl3d6f5t00000gn/T//ccl6Jv28.s:330    .text.LL_RCC_MSI_IsReady:0000000000000000 $t
/var/folders/fs/dxwfnrqj18z860lwl3d6f5t00000gn/T//ccl6Jv28.s:336    .text.LL_RCC_MSI_IsReady:0000000000000000 LL_RCC_MSI_IsReady
/var/folders/fs/dxwfnrqj18z860lwl3d6f5t00000gn/T//ccl6Jv28.s:374    .text.LL_RCC_MSI_IsReady:0000000000000024 $d
/var/folders/fs/dxwfnrqj18z860lwl3d6f5t00000gn/T//ccl6Jv28.s:379    .text.LL_RCC_MSI_SetRange:0000000000000000 $t
/var/folders/fs/dxwfnrqj18z860lwl3d6f5t00000gn/T//ccl6Jv28.s:385    .text.LL_RCC_MSI_SetRange:0000000000000000 LL_RCC_MSI_SetRange
/var/folders/fs/dxwfnrqj18z860lwl3d6f5t00000gn/T//ccl6Jv28.s:419    .text.LL_RCC_MSI_SetRange:0000000000000024 $d
/var/folders/fs/dxwfnrqj18z860lwl3d6f5t00000gn/T//ccl6Jv28.s:425    .text.LL_RCC_MSI_GetRange:0000000000000000 $t
/var/folders/fs/dxwfnrqj18z860lwl3d6f5t00000gn/T//ccl6Jv28.s:431    .text.LL_RCC_MSI_GetRange:0000000000000000 LL_RCC_MSI_GetRange
/var/folders/fs/dxwfnrqj18z860lwl3d6f5t00000gn/T//ccl6Jv28.s:458    .text.LL_RCC_MSI_GetRange:0000000000000014 $d
/var/folders/fs/dxwfnrqj18z860lwl3d6f5t00000gn/T//ccl6Jv28.s:463    .text.LL_RCC_MSI_SetCalibTrimming:0000000000000000 $t
/var/folders/fs/dxwfnrqj18z860lwl3d6f5t00000gn/T//ccl6Jv28.s:469    .text.LL_RCC_MSI_SetCalibTrimming:0000000000000000 LL_RCC_MSI_SetCalibTrimming
/var/folders/fs/dxwfnrqj18z860lwl3d6f5t00000gn/T//ccl6Jv28.s:503    .text.LL_RCC_MSI_SetCalibTrimming:0000000000000024 $d
/var/folders/fs/dxwfnrqj18z860lwl3d6f5t00000gn/T//ccl6Jv28.s:508    .text.LL_RCC_GetSysClkSource:0000000000000000 $t
/var/folders/fs/dxwfnrqj18z860lwl3d6f5t00000gn/T//ccl6Jv28.s:514    .text.LL_RCC_GetSysClkSource:0000000000000000 LL_RCC_GetSysClkSource
/var/folders/fs/dxwfnrqj18z860lwl3d6f5t00000gn/T//ccl6Jv28.s:540    .text.LL_RCC_GetSysClkSource:0000000000000014 $d
/var/folders/fs/dxwfnrqj18z860lwl3d6f5t00000gn/T//ccl6Jv28.s:545    .text.LL_RCC_GetAHBPrescaler:0000000000000000 $t
/var/folders/fs/dxwfnrqj18z860lwl3d6f5t00000gn/T//ccl6Jv28.s:551    .text.LL_RCC_GetAHBPrescaler:0000000000000000 LL_RCC_GetAHBPrescaler
/var/folders/fs/dxwfnrqj18z860lwl3d6f5t00000gn/T//ccl6Jv28.s:577    .text.LL_RCC_GetAHBPrescaler:0000000000000014 $d
/var/folders/fs/dxwfnrqj18z860lwl3d6f5t00000gn/T//ccl6Jv28.s:582    .text.LL_RCC_GetAPB1Prescaler:0000000000000000 $t
/var/folders/fs/dxwfnrqj18z860lwl3d6f5t00000gn/T//ccl6Jv28.s:588    .text.LL_RCC_GetAPB1Prescaler:0000000000000000 LL_RCC_GetAPB1Prescaler
/var/folders/fs/dxwfnrqj18z860lwl3d6f5t00000gn/T//ccl6Jv28.s:615    .text.LL_RCC_GetAPB1Prescaler:0000000000000014 $d
/var/folders/fs/dxwfnrqj18z860lwl3d6f5t00000gn/T//ccl6Jv28.s:620    .text.LL_RCC_GetAPB2Prescaler:0000000000000000 $t
/var/folders/fs/dxwfnrqj18z860lwl3d6f5t00000gn/T//ccl6Jv28.s:626    .text.LL_RCC_GetAPB2Prescaler:0000000000000000 LL_RCC_GetAPB2Prescaler
/var/folders/fs/dxwfnrqj18z860lwl3d6f5t00000gn/T//ccl6Jv28.s:653    .text.LL_RCC_GetAPB2Prescaler:0000000000000014 $d
/var/folders/fs/dxwfnrqj18z860lwl3d6f5t00000gn/T//ccl6Jv28.s:658    .text.LL_RCC_GetUSARTClockSource:0000000000000000 $t
/var/folders/fs/dxwfnrqj18z860lwl3d6f5t00000gn/T//ccl6Jv28.s:664    .text.LL_RCC_GetUSARTClockSource:0000000000000000 LL_RCC_GetUSARTClockSource
/var/folders/fs/dxwfnrqj18z860lwl3d6f5t00000gn/T//ccl6Jv28.s:698    .text.LL_RCC_GetUSARTClockSource:0000000000000020 $d
/var/folders/fs/dxwfnrqj18z860lwl3d6f5t00000gn/T//ccl6Jv28.s:703    .text.LL_RCC_GetLPUARTClockSource:0000000000000000 $t
/var/folders/fs/dxwfnrqj18z860lwl3d6f5t00000gn/T//ccl6Jv28.s:709    .text.LL_RCC_GetLPUARTClockSource:0000000000000000 LL_RCC_GetLPUARTClockSource
/var/folders/fs/dxwfnrqj18z860lwl3d6f5t00000gn/T//ccl6Jv28.s:739    .text.LL_RCC_GetLPUARTClockSource:0000000000000018 $d
/var/folders/fs/dxwfnrqj18z860lwl3d6f5t00000gn/T//ccl6Jv28.s:744    .text.LL_RCC_GetI2CClockSource:0000000000000000 $t
/var/folders/fs/dxwfnrqj18z860lwl3d6f5t00000gn/T//ccl6Jv28.s:750    .text.LL_RCC_GetI2CClockSource:0000000000000000 LL_RCC_GetI2CClockSource
/var/folders/fs/dxwfnrqj18z860lwl3d6f5t00000gn/T//ccl6Jv28.s:786    .text.LL_RCC_GetI2CClockSource:0000000000000020 $d
/var/folders/fs/dxwfnrqj18z860lwl3d6f5t00000gn/T//ccl6Jv28.s:791    .text.LL_RCC_GetLPTIMClockSource:0000000000000000 $t
ARM GAS  /var/folders/fs/dxwfnrqj18z860lwl3d6f5t00000gn/T//ccl6Jv28.s 			page 93


/var/folders/fs/dxwfnrqj18z860lwl3d6f5t00000gn/T//ccl6Jv28.s:797    .text.LL_RCC_GetLPTIMClockSource:0000000000000000 LL_RCC_GetLPTIMClockSource
/var/folders/fs/dxwfnrqj18z860lwl3d6f5t00000gn/T//ccl6Jv28.s:827    .text.LL_RCC_GetLPTIMClockSource:0000000000000018 $d
/var/folders/fs/dxwfnrqj18z860lwl3d6f5t00000gn/T//ccl6Jv28.s:832    .text.LL_RCC_GetUSBClockSource:0000000000000000 $t
/var/folders/fs/dxwfnrqj18z860lwl3d6f5t00000gn/T//ccl6Jv28.s:838    .text.LL_RCC_GetUSBClockSource:0000000000000000 LL_RCC_GetUSBClockSource
/var/folders/fs/dxwfnrqj18z860lwl3d6f5t00000gn/T//ccl6Jv28.s:868    .text.LL_RCC_GetUSBClockSource:0000000000000018 $d
/var/folders/fs/dxwfnrqj18z860lwl3d6f5t00000gn/T//ccl6Jv28.s:873    .text.LL_RCC_PLL_IsReady:0000000000000000 $t
/var/folders/fs/dxwfnrqj18z860lwl3d6f5t00000gn/T//ccl6Jv28.s:879    .text.LL_RCC_PLL_IsReady:0000000000000000 LL_RCC_PLL_IsReady
/var/folders/fs/dxwfnrqj18z860lwl3d6f5t00000gn/T//ccl6Jv28.s:917    .text.LL_RCC_PLL_IsReady:0000000000000024 $d
/var/folders/fs/dxwfnrqj18z860lwl3d6f5t00000gn/T//ccl6Jv28.s:922    .text.LL_RCC_PLL_GetMainSource:0000000000000000 $t
/var/folders/fs/dxwfnrqj18z860lwl3d6f5t00000gn/T//ccl6Jv28.s:928    .text.LL_RCC_PLL_GetMainSource:0000000000000000 LL_RCC_PLL_GetMainSource
/var/folders/fs/dxwfnrqj18z860lwl3d6f5t00000gn/T//ccl6Jv28.s:955    .text.LL_RCC_PLL_GetMainSource:0000000000000014 $d
/var/folders/fs/dxwfnrqj18z860lwl3d6f5t00000gn/T//ccl6Jv28.s:960    .text.LL_RCC_PLL_GetMultiplicator:0000000000000000 $t
/var/folders/fs/dxwfnrqj18z860lwl3d6f5t00000gn/T//ccl6Jv28.s:966    .text.LL_RCC_PLL_GetMultiplicator:0000000000000000 LL_RCC_PLL_GetMultiplicator
/var/folders/fs/dxwfnrqj18z860lwl3d6f5t00000gn/T//ccl6Jv28.s:993    .text.LL_RCC_PLL_GetMultiplicator:0000000000000014 $d
/var/folders/fs/dxwfnrqj18z860lwl3d6f5t00000gn/T//ccl6Jv28.s:998    .text.LL_RCC_PLL_GetDivider:0000000000000000 $t
/var/folders/fs/dxwfnrqj18z860lwl3d6f5t00000gn/T//ccl6Jv28.s:1004   .text.LL_RCC_PLL_GetDivider:0000000000000000 LL_RCC_PLL_GetDivider
/var/folders/fs/dxwfnrqj18z860lwl3d6f5t00000gn/T//ccl6Jv28.s:1031   .text.LL_RCC_PLL_GetDivider:0000000000000014 $d
/var/folders/fs/dxwfnrqj18z860lwl3d6f5t00000gn/T//ccl6Jv28.s:1036   .text.LL_RCC_IsActiveFlag_HSIDIV:0000000000000000 $t
/var/folders/fs/dxwfnrqj18z860lwl3d6f5t00000gn/T//ccl6Jv28.s:1042   .text.LL_RCC_IsActiveFlag_HSIDIV:0000000000000000 LL_RCC_IsActiveFlag_HSIDIV
/var/folders/fs/dxwfnrqj18z860lwl3d6f5t00000gn/T//ccl6Jv28.s:1077   .text.LL_RCC_IsActiveFlag_HSIDIV:000000000000001c $d
/var/folders/fs/dxwfnrqj18z860lwl3d6f5t00000gn/T//ccl6Jv28.s:1082   .text.LL_RCC_ClearResetFlags:0000000000000000 $t
/var/folders/fs/dxwfnrqj18z860lwl3d6f5t00000gn/T//ccl6Jv28.s:1088   .text.LL_RCC_ClearResetFlags:0000000000000000 LL_RCC_ClearResetFlags
/var/folders/fs/dxwfnrqj18z860lwl3d6f5t00000gn/T//ccl6Jv28.s:1116   .text.LL_RCC_ClearResetFlags:0000000000000018 $d
/var/folders/fs/dxwfnrqj18z860lwl3d6f5t00000gn/T//ccl6Jv28.s:1121   .text.LL_RCC_DeInit:0000000000000000 $t
/var/folders/fs/dxwfnrqj18z860lwl3d6f5t00000gn/T//ccl6Jv28.s:1128   .text.LL_RCC_DeInit:0000000000000000 LL_RCC_DeInit
/var/folders/fs/dxwfnrqj18z860lwl3d6f5t00000gn/T//ccl6Jv28.s:1256   .text.LL_RCC_DeInit:00000000000000a4 $d
/var/folders/fs/dxwfnrqj18z860lwl3d6f5t00000gn/T//ccl6Jv28.s:1264   .text.LL_RCC_GetSystemClocksFreq:0000000000000000 $t
/var/folders/fs/dxwfnrqj18z860lwl3d6f5t00000gn/T//ccl6Jv28.s:1271   .text.LL_RCC_GetSystemClocksFreq:0000000000000000 LL_RCC_GetSystemClocksFreq
/var/folders/fs/dxwfnrqj18z860lwl3d6f5t00000gn/T//ccl6Jv28.s:2025   .text.RCC_GetSystemClockFreq:0000000000000000 RCC_GetSystemClockFreq
/var/folders/fs/dxwfnrqj18z860lwl3d6f5t00000gn/T//ccl6Jv28.s:2137   .text.RCC_GetHCLKClockFreq:0000000000000000 RCC_GetHCLKClockFreq
/var/folders/fs/dxwfnrqj18z860lwl3d6f5t00000gn/T//ccl6Jv28.s:2183   .text.RCC_GetPCLK1ClockFreq:0000000000000000 RCC_GetPCLK1ClockFreq
/var/folders/fs/dxwfnrqj18z860lwl3d6f5t00000gn/T//ccl6Jv28.s:2227   .text.RCC_GetPCLK2ClockFreq:0000000000000000 RCC_GetPCLK2ClockFreq
/var/folders/fs/dxwfnrqj18z860lwl3d6f5t00000gn/T//ccl6Jv28.s:1329   .text.LL_RCC_GetUSARTClockFreq:0000000000000000 $t
/var/folders/fs/dxwfnrqj18z860lwl3d6f5t00000gn/T//ccl6Jv28.s:1336   .text.LL_RCC_GetUSARTClockFreq:0000000000000000 LL_RCC_GetUSARTClockFreq
/var/folders/fs/dxwfnrqj18z860lwl3d6f5t00000gn/T//ccl6Jv28.s:1543   .text.LL_RCC_GetUSARTClockFreq:0000000000000120 $d
/var/folders/fs/dxwfnrqj18z860lwl3d6f5t00000gn/T//ccl6Jv28.s:1555   .text.LL_RCC_GetI2CClockFreq:0000000000000000 $t
/var/folders/fs/dxwfnrqj18z860lwl3d6f5t00000gn/T//ccl6Jv28.s:1562   .text.LL_RCC_GetI2CClockFreq:0000000000000000 LL_RCC_GetI2CClockFreq
/var/folders/fs/dxwfnrqj18z860lwl3d6f5t00000gn/T//ccl6Jv28.s:1660   .text.LL_RCC_GetI2CClockFreq:0000000000000080 $d
/var/folders/fs/dxwfnrqj18z860lwl3d6f5t00000gn/T//ccl6Jv28.s:1668   .text.LL_RCC_GetLPUARTClockFreq:0000000000000000 $t
/var/folders/fs/dxwfnrqj18z860lwl3d6f5t00000gn/T//ccl6Jv28.s:1675   .text.LL_RCC_GetLPUARTClockFreq:0000000000000000 LL_RCC_GetLPUARTClockFreq
/var/folders/fs/dxwfnrqj18z860lwl3d6f5t00000gn/T//ccl6Jv28.s:1789   .text.LL_RCC_GetLPUARTClockFreq:0000000000000098 $d
/var/folders/fs/dxwfnrqj18z860lwl3d6f5t00000gn/T//ccl6Jv28.s:1795   .text.LL_RCC_GetLPTIMClockFreq:0000000000000000 $t
/var/folders/fs/dxwfnrqj18z860lwl3d6f5t00000gn/T//ccl6Jv28.s:1802   .text.LL_RCC_GetLPTIMClockFreq:0000000000000000 LL_RCC_GetLPTIMClockFreq
/var/folders/fs/dxwfnrqj18z860lwl3d6f5t00000gn/T//ccl6Jv28.s:1934   .text.LL_RCC_GetLPTIMClockFreq:00000000000000b0 $d
/var/folders/fs/dxwfnrqj18z860lwl3d6f5t00000gn/T//ccl6Jv28.s:1941   .text.LL_RCC_GetUSBClockFreq:0000000000000000 $t
/var/folders/fs/dxwfnrqj18z860lwl3d6f5t00000gn/T//ccl6Jv28.s:1948   .text.LL_RCC_GetUSBClockFreq:0000000000000000 LL_RCC_GetUSBClockFreq
/var/folders/fs/dxwfnrqj18z860lwl3d6f5t00000gn/T//ccl6Jv28.s:2272   .text.RCC_PLL_GetFreqDomain_SYS:0000000000000000 RCC_PLL_GetFreqDomain_SYS
/var/folders/fs/dxwfnrqj18z860lwl3d6f5t00000gn/T//ccl6Jv28.s:2014   .text.LL_RCC_GetUSBClockFreq:0000000000000048 $d
/var/folders/fs/dxwfnrqj18z860lwl3d6f5t00000gn/T//ccl6Jv28.s:2019   .text.RCC_GetSystemClockFreq:0000000000000000 $t
/var/folders/fs/dxwfnrqj18z860lwl3d6f5t00000gn/T//ccl6Jv28.s:2124   .text.RCC_GetSystemClockFreq:000000000000007c $d
/var/folders/fs/dxwfnrqj18z860lwl3d6f5t00000gn/T//ccl6Jv28.s:2131   .text.RCC_GetHCLKClockFreq:0000000000000000 $t
/var/folders/fs/dxwfnrqj18z860lwl3d6f5t00000gn/T//ccl6Jv28.s:2172   .text.RCC_GetHCLKClockFreq:0000000000000028 $d
/var/folders/fs/dxwfnrqj18z860lwl3d6f5t00000gn/T//ccl6Jv28.s:2177   .text.RCC_GetPCLK1ClockFreq:0000000000000000 $t
/var/folders/fs/dxwfnrqj18z860lwl3d6f5t00000gn/T//ccl6Jv28.s:2216   .text.RCC_GetPCLK1ClockFreq:0000000000000024 $d
/var/folders/fs/dxwfnrqj18z860lwl3d6f5t00000gn/T//ccl6Jv28.s:2221   .text.RCC_GetPCLK2ClockFreq:0000000000000000 $t
/var/folders/fs/dxwfnrqj18z860lwl3d6f5t00000gn/T//ccl6Jv28.s:2260   .text.RCC_GetPCLK2ClockFreq:0000000000000024 $d
/var/folders/fs/dxwfnrqj18z860lwl3d6f5t00000gn/T//ccl6Jv28.s:2266   .text.RCC_PLL_GetFreqDomain_SYS:0000000000000000 $t
ARM GAS  /var/folders/fs/dxwfnrqj18z860lwl3d6f5t00000gn/T//ccl6Jv28.s 			page 94


/var/folders/fs/dxwfnrqj18z860lwl3d6f5t00000gn/T//ccl6Jv28.s:2345   .text.RCC_PLL_GetFreqDomain_SYS:0000000000000060 $d
                           .group:0000000000000000 wm4.0.a3d41f74abc56016cdc4c153f9dbdba1
                           .group:0000000000000000 wm4.stm32l0xx.h.41.7b64cc93e03e8878c239b019b0203858
                           .group:0000000000000000 wm4.stm32l053xx.h.37.ca2b7421d255c88f6356eb3a3a2ee1bf
                           .group:0000000000000000 wm4._newlib_version.h.4.1ef4e12f167f8b69d7c30054be56050d
                           .group:0000000000000000 wm4.features.h.33.318b64d71e0957639cfb30f1db1f7ec8
                           .group:0000000000000000 wm4._default_types.h.15.247e5cd201eca3442cbf5404108c4935
                           .group:0000000000000000 wm4._intsup.h.10.48bafbb683905c4daa4565a85aeeb264
                           .group:0000000000000000 wm4._stdint.h.10.c24fa3af3bc1706662bb5593a907e841
                           .group:0000000000000000 wm4.stdint.h.23.d53047a68f4a85177f80b422d52785ed
                           .group:0000000000000000 wm4.cmsis_version.h.32.4d5822004c01a829a975260e854b5f8e
                           .group:0000000000000000 wm4.core_cm0plus.h.66.bb83319bcb10b4c5f12c477f85f2aa51
                           .group:0000000000000000 wm4.cmsis_gcc.h.26.60b910ef2cf8eb62703f669ce6a864b2
                           .group:0000000000000000 wm4.core_cm0plus.h.127.cfee784d07c850b645554dc8add78e69
                           .group:0000000000000000 wm4.mpu_armv7.h.32.27b4593cb2f8d3152ca5d97a9d72b321
                           .group:0000000000000000 wm4.stm32l053xx.h.614.694649dd621f0085702f358f34f2e881
                           .group:0000000000000000 wm4.stm32l0xx.h.181.12fc143042e31117baaa7481c9b3a4da
                           .group:0000000000000000 wm4.stm32l0xx_ll_rcc.h.111.7d74665a1aa868e09a11881e7a55fb00

UNDEFINED SYMBOLS
AHBPrescTable
APBPrescTable
__aeabi_uidiv
PLLMulTable
