ARM GAS  /var/folders/fs/dxwfnrqj18z860lwl3d6f5t00000gn/T//ccbTeCNC.s 			page 1


   1              		.cpu cortex-m0plus
   2              		.eabi_attribute 20, 1
   3              		.eabi_attribute 21, 1
   4              		.eabi_attribute 23, 3
   5              		.eabi_attribute 24, 1
   6              		.eabi_attribute 25, 1
   7              		.eabi_attribute 26, 1
   8              		.eabi_attribute 30, 6
   9              		.eabi_attribute 34, 0
  10              		.eabi_attribute 18, 4
  11              		.file	"system_time.c"
  12              		.text
  13              	.Ltext0:
  14              		.cfi_sections	.debug_frame
  15              		.section	.text.__NVIC_EnableIRQ,"ax",%progbits
  16              		.align	1
  17              		.arch armv6s-m
  18              		.syntax unified
  19              		.code	16
  20              		.thumb_func
  21              		.fpu softvfp
  23              	__NVIC_EnableIRQ:
  24              	.LFB25:
  25              		.file 1 "../../dependencies/STM32CubeL0/Drivers/CMSIS/Include/core_cm0plus.h"
   1:../../dependencies/STM32CubeL0/Drivers/CMSIS/Include/core_cm0plus.h **** /**************************************************************************//**
   2:../../dependencies/STM32CubeL0/Drivers/CMSIS/Include/core_cm0plus.h ****  * @file     core_cm0plus.h
   3:../../dependencies/STM32CubeL0/Drivers/CMSIS/Include/core_cm0plus.h ****  * @brief    CMSIS Cortex-M0+ Core Peripheral Access Layer Header File
   4:../../dependencies/STM32CubeL0/Drivers/CMSIS/Include/core_cm0plus.h ****  * @version  V5.0.6
   5:../../dependencies/STM32CubeL0/Drivers/CMSIS/Include/core_cm0plus.h ****  * @date     28. May 2018
   6:../../dependencies/STM32CubeL0/Drivers/CMSIS/Include/core_cm0plus.h ****  ******************************************************************************/
   7:../../dependencies/STM32CubeL0/Drivers/CMSIS/Include/core_cm0plus.h **** /*
   8:../../dependencies/STM32CubeL0/Drivers/CMSIS/Include/core_cm0plus.h ****  * Copyright (c) 2009-2018 Arm Limited. All rights reserved.
   9:../../dependencies/STM32CubeL0/Drivers/CMSIS/Include/core_cm0plus.h ****  *
  10:../../dependencies/STM32CubeL0/Drivers/CMSIS/Include/core_cm0plus.h ****  * SPDX-License-Identifier: Apache-2.0
  11:../../dependencies/STM32CubeL0/Drivers/CMSIS/Include/core_cm0plus.h ****  *
  12:../../dependencies/STM32CubeL0/Drivers/CMSIS/Include/core_cm0plus.h ****  * Licensed under the Apache License, Version 2.0 (the License); you may
  13:../../dependencies/STM32CubeL0/Drivers/CMSIS/Include/core_cm0plus.h ****  * not use this file except in compliance with the License.
  14:../../dependencies/STM32CubeL0/Drivers/CMSIS/Include/core_cm0plus.h ****  * You may obtain a copy of the License at
  15:../../dependencies/STM32CubeL0/Drivers/CMSIS/Include/core_cm0plus.h ****  *
  16:../../dependencies/STM32CubeL0/Drivers/CMSIS/Include/core_cm0plus.h ****  * www.apache.org/licenses/LICENSE-2.0
  17:../../dependencies/STM32CubeL0/Drivers/CMSIS/Include/core_cm0plus.h ****  *
  18:../../dependencies/STM32CubeL0/Drivers/CMSIS/Include/core_cm0plus.h ****  * Unless required by applicable law or agreed to in writing, software
  19:../../dependencies/STM32CubeL0/Drivers/CMSIS/Include/core_cm0plus.h ****  * distributed under the License is distributed on an AS IS BASIS, WITHOUT
  20:../../dependencies/STM32CubeL0/Drivers/CMSIS/Include/core_cm0plus.h ****  * WARRANTIES OR CONDITIONS OF ANY KIND, either express or implied.
  21:../../dependencies/STM32CubeL0/Drivers/CMSIS/Include/core_cm0plus.h ****  * See the License for the specific language governing permissions and
  22:../../dependencies/STM32CubeL0/Drivers/CMSIS/Include/core_cm0plus.h ****  * limitations under the License.
  23:../../dependencies/STM32CubeL0/Drivers/CMSIS/Include/core_cm0plus.h ****  */
  24:../../dependencies/STM32CubeL0/Drivers/CMSIS/Include/core_cm0plus.h **** 
  25:../../dependencies/STM32CubeL0/Drivers/CMSIS/Include/core_cm0plus.h **** #if   defined ( __ICCARM__ )
  26:../../dependencies/STM32CubeL0/Drivers/CMSIS/Include/core_cm0plus.h ****   #pragma system_include         /* treat file as system include file for MISRA check */
  27:../../dependencies/STM32CubeL0/Drivers/CMSIS/Include/core_cm0plus.h **** #elif defined (__clang__)
  28:../../dependencies/STM32CubeL0/Drivers/CMSIS/Include/core_cm0plus.h ****   #pragma clang system_header   /* treat file as system include file */
  29:../../dependencies/STM32CubeL0/Drivers/CMSIS/Include/core_cm0plus.h **** #endif
  30:../../dependencies/STM32CubeL0/Drivers/CMSIS/Include/core_cm0plus.h **** 
  31:../../dependencies/STM32CubeL0/Drivers/CMSIS/Include/core_cm0plus.h **** #ifndef __CORE_CM0PLUS_H_GENERIC
  32:../../dependencies/STM32CubeL0/Drivers/CMSIS/Include/core_cm0plus.h **** #define __CORE_CM0PLUS_H_GENERIC
  33:../../dependencies/STM32CubeL0/Drivers/CMSIS/Include/core_cm0plus.h **** 
ARM GAS  /var/folders/fs/dxwfnrqj18z860lwl3d6f5t00000gn/T//ccbTeCNC.s 			page 2


  34:../../dependencies/STM32CubeL0/Drivers/CMSIS/Include/core_cm0plus.h **** #include <stdint.h>
  35:../../dependencies/STM32CubeL0/Drivers/CMSIS/Include/core_cm0plus.h **** 
  36:../../dependencies/STM32CubeL0/Drivers/CMSIS/Include/core_cm0plus.h **** #ifdef __cplusplus
  37:../../dependencies/STM32CubeL0/Drivers/CMSIS/Include/core_cm0plus.h ****  extern "C" {
  38:../../dependencies/STM32CubeL0/Drivers/CMSIS/Include/core_cm0plus.h **** #endif
  39:../../dependencies/STM32CubeL0/Drivers/CMSIS/Include/core_cm0plus.h **** 
  40:../../dependencies/STM32CubeL0/Drivers/CMSIS/Include/core_cm0plus.h **** /**
  41:../../dependencies/STM32CubeL0/Drivers/CMSIS/Include/core_cm0plus.h ****   \page CMSIS_MISRA_Exceptions  MISRA-C:2004 Compliance Exceptions
  42:../../dependencies/STM32CubeL0/Drivers/CMSIS/Include/core_cm0plus.h ****   CMSIS violates the following MISRA-C:2004 rules:
  43:../../dependencies/STM32CubeL0/Drivers/CMSIS/Include/core_cm0plus.h **** 
  44:../../dependencies/STM32CubeL0/Drivers/CMSIS/Include/core_cm0plus.h ****    \li Required Rule 8.5, object/function definition in header file.<br>
  45:../../dependencies/STM32CubeL0/Drivers/CMSIS/Include/core_cm0plus.h ****      Function definitions in header files are used to allow 'inlining'.
  46:../../dependencies/STM32CubeL0/Drivers/CMSIS/Include/core_cm0plus.h **** 
  47:../../dependencies/STM32CubeL0/Drivers/CMSIS/Include/core_cm0plus.h ****    \li Required Rule 18.4, declaration of union type or object of union type: '{...}'.<br>
  48:../../dependencies/STM32CubeL0/Drivers/CMSIS/Include/core_cm0plus.h ****      Unions are used for effective representation of core registers.
  49:../../dependencies/STM32CubeL0/Drivers/CMSIS/Include/core_cm0plus.h **** 
  50:../../dependencies/STM32CubeL0/Drivers/CMSIS/Include/core_cm0plus.h ****    \li Advisory Rule 19.7, Function-like macro defined.<br>
  51:../../dependencies/STM32CubeL0/Drivers/CMSIS/Include/core_cm0plus.h ****      Function-like macros are used to allow more efficient code.
  52:../../dependencies/STM32CubeL0/Drivers/CMSIS/Include/core_cm0plus.h ****  */
  53:../../dependencies/STM32CubeL0/Drivers/CMSIS/Include/core_cm0plus.h **** 
  54:../../dependencies/STM32CubeL0/Drivers/CMSIS/Include/core_cm0plus.h **** 
  55:../../dependencies/STM32CubeL0/Drivers/CMSIS/Include/core_cm0plus.h **** /*******************************************************************************
  56:../../dependencies/STM32CubeL0/Drivers/CMSIS/Include/core_cm0plus.h ****  *                 CMSIS definitions
  57:../../dependencies/STM32CubeL0/Drivers/CMSIS/Include/core_cm0plus.h ****  ******************************************************************************/
  58:../../dependencies/STM32CubeL0/Drivers/CMSIS/Include/core_cm0plus.h **** /**
  59:../../dependencies/STM32CubeL0/Drivers/CMSIS/Include/core_cm0plus.h ****   \ingroup Cortex-M0+
  60:../../dependencies/STM32CubeL0/Drivers/CMSIS/Include/core_cm0plus.h ****   @{
  61:../../dependencies/STM32CubeL0/Drivers/CMSIS/Include/core_cm0plus.h ****  */
  62:../../dependencies/STM32CubeL0/Drivers/CMSIS/Include/core_cm0plus.h **** 
  63:../../dependencies/STM32CubeL0/Drivers/CMSIS/Include/core_cm0plus.h **** #include "cmsis_version.h"
  64:../../dependencies/STM32CubeL0/Drivers/CMSIS/Include/core_cm0plus.h ****  
  65:../../dependencies/STM32CubeL0/Drivers/CMSIS/Include/core_cm0plus.h **** /*  CMSIS CM0+ definitions */
  66:../../dependencies/STM32CubeL0/Drivers/CMSIS/Include/core_cm0plus.h **** #define __CM0PLUS_CMSIS_VERSION_MAIN (__CM_CMSIS_VERSION_MAIN)                  /*!< \deprecated [3
  67:../../dependencies/STM32CubeL0/Drivers/CMSIS/Include/core_cm0plus.h **** #define __CM0PLUS_CMSIS_VERSION_SUB  (__CM_CMSIS_VERSION_SUB)                   /*!< \deprecated [1
  68:../../dependencies/STM32CubeL0/Drivers/CMSIS/Include/core_cm0plus.h **** #define __CM0PLUS_CMSIS_VERSION      ((__CM0PLUS_CMSIS_VERSION_MAIN << 16U) | \
  69:../../dependencies/STM32CubeL0/Drivers/CMSIS/Include/core_cm0plus.h ****                                        __CM0PLUS_CMSIS_VERSION_SUB           )  /*!< \deprecated CM
  70:../../dependencies/STM32CubeL0/Drivers/CMSIS/Include/core_cm0plus.h **** 
  71:../../dependencies/STM32CubeL0/Drivers/CMSIS/Include/core_cm0plus.h **** #define __CORTEX_M                   (0U)                                       /*!< Cortex-M Core 
  72:../../dependencies/STM32CubeL0/Drivers/CMSIS/Include/core_cm0plus.h **** 
  73:../../dependencies/STM32CubeL0/Drivers/CMSIS/Include/core_cm0plus.h **** /** __FPU_USED indicates whether an FPU is used or not.
  74:../../dependencies/STM32CubeL0/Drivers/CMSIS/Include/core_cm0plus.h ****     This core does not support an FPU at all
  75:../../dependencies/STM32CubeL0/Drivers/CMSIS/Include/core_cm0plus.h **** */
  76:../../dependencies/STM32CubeL0/Drivers/CMSIS/Include/core_cm0plus.h **** #define __FPU_USED       0U
  77:../../dependencies/STM32CubeL0/Drivers/CMSIS/Include/core_cm0plus.h **** 
  78:../../dependencies/STM32CubeL0/Drivers/CMSIS/Include/core_cm0plus.h **** #if defined ( __CC_ARM )
  79:../../dependencies/STM32CubeL0/Drivers/CMSIS/Include/core_cm0plus.h ****   #if defined __TARGET_FPU_VFP
  80:../../dependencies/STM32CubeL0/Drivers/CMSIS/Include/core_cm0plus.h ****     #error "Compiler generates FPU instructions for a device without an FPU (check __FPU_PRESENT)"
  81:../../dependencies/STM32CubeL0/Drivers/CMSIS/Include/core_cm0plus.h ****   #endif
  82:../../dependencies/STM32CubeL0/Drivers/CMSIS/Include/core_cm0plus.h **** 
  83:../../dependencies/STM32CubeL0/Drivers/CMSIS/Include/core_cm0plus.h **** #elif defined (__ARMCC_VERSION) && (__ARMCC_VERSION >= 6010050)
  84:../../dependencies/STM32CubeL0/Drivers/CMSIS/Include/core_cm0plus.h ****   #if defined __ARM_PCS_VFP
  85:../../dependencies/STM32CubeL0/Drivers/CMSIS/Include/core_cm0plus.h ****     #error "Compiler generates FPU instructions for a device without an FPU (check __FPU_PRESENT)"
  86:../../dependencies/STM32CubeL0/Drivers/CMSIS/Include/core_cm0plus.h ****   #endif
  87:../../dependencies/STM32CubeL0/Drivers/CMSIS/Include/core_cm0plus.h **** 
  88:../../dependencies/STM32CubeL0/Drivers/CMSIS/Include/core_cm0plus.h **** #elif defined ( __GNUC__ )
  89:../../dependencies/STM32CubeL0/Drivers/CMSIS/Include/core_cm0plus.h ****   #if defined (__VFP_FP__) && !defined(__SOFTFP__)
  90:../../dependencies/STM32CubeL0/Drivers/CMSIS/Include/core_cm0plus.h ****     #error "Compiler generates FPU instructions for a device without an FPU (check __FPU_PRESENT)"
ARM GAS  /var/folders/fs/dxwfnrqj18z860lwl3d6f5t00000gn/T//ccbTeCNC.s 			page 3


  91:../../dependencies/STM32CubeL0/Drivers/CMSIS/Include/core_cm0plus.h ****   #endif
  92:../../dependencies/STM32CubeL0/Drivers/CMSIS/Include/core_cm0plus.h **** 
  93:../../dependencies/STM32CubeL0/Drivers/CMSIS/Include/core_cm0plus.h **** #elif defined ( __ICCARM__ )
  94:../../dependencies/STM32CubeL0/Drivers/CMSIS/Include/core_cm0plus.h ****   #if defined __ARMVFP__
  95:../../dependencies/STM32CubeL0/Drivers/CMSIS/Include/core_cm0plus.h ****     #error "Compiler generates FPU instructions for a device without an FPU (check __FPU_PRESENT)"
  96:../../dependencies/STM32CubeL0/Drivers/CMSIS/Include/core_cm0plus.h ****   #endif
  97:../../dependencies/STM32CubeL0/Drivers/CMSIS/Include/core_cm0plus.h **** 
  98:../../dependencies/STM32CubeL0/Drivers/CMSIS/Include/core_cm0plus.h **** #elif defined ( __TI_ARM__ )
  99:../../dependencies/STM32CubeL0/Drivers/CMSIS/Include/core_cm0plus.h ****   #if defined __TI_VFP_SUPPORT__
 100:../../dependencies/STM32CubeL0/Drivers/CMSIS/Include/core_cm0plus.h ****     #error "Compiler generates FPU instructions for a device without an FPU (check __FPU_PRESENT)"
 101:../../dependencies/STM32CubeL0/Drivers/CMSIS/Include/core_cm0plus.h ****   #endif
 102:../../dependencies/STM32CubeL0/Drivers/CMSIS/Include/core_cm0plus.h **** 
 103:../../dependencies/STM32CubeL0/Drivers/CMSIS/Include/core_cm0plus.h **** #elif defined ( __TASKING__ )
 104:../../dependencies/STM32CubeL0/Drivers/CMSIS/Include/core_cm0plus.h ****   #if defined __FPU_VFP__
 105:../../dependencies/STM32CubeL0/Drivers/CMSIS/Include/core_cm0plus.h ****     #error "Compiler generates FPU instructions for a device without an FPU (check __FPU_PRESENT)"
 106:../../dependencies/STM32CubeL0/Drivers/CMSIS/Include/core_cm0plus.h ****   #endif
 107:../../dependencies/STM32CubeL0/Drivers/CMSIS/Include/core_cm0plus.h **** 
 108:../../dependencies/STM32CubeL0/Drivers/CMSIS/Include/core_cm0plus.h **** #elif defined ( __CSMC__ )
 109:../../dependencies/STM32CubeL0/Drivers/CMSIS/Include/core_cm0plus.h ****   #if ( __CSMC__ & 0x400U)
 110:../../dependencies/STM32CubeL0/Drivers/CMSIS/Include/core_cm0plus.h ****     #error "Compiler generates FPU instructions for a device without an FPU (check __FPU_PRESENT)"
 111:../../dependencies/STM32CubeL0/Drivers/CMSIS/Include/core_cm0plus.h ****   #endif
 112:../../dependencies/STM32CubeL0/Drivers/CMSIS/Include/core_cm0plus.h **** 
 113:../../dependencies/STM32CubeL0/Drivers/CMSIS/Include/core_cm0plus.h **** #endif
 114:../../dependencies/STM32CubeL0/Drivers/CMSIS/Include/core_cm0plus.h **** 
 115:../../dependencies/STM32CubeL0/Drivers/CMSIS/Include/core_cm0plus.h **** #include "cmsis_compiler.h"               /* CMSIS compiler specific defines */
 116:../../dependencies/STM32CubeL0/Drivers/CMSIS/Include/core_cm0plus.h **** 
 117:../../dependencies/STM32CubeL0/Drivers/CMSIS/Include/core_cm0plus.h **** 
 118:../../dependencies/STM32CubeL0/Drivers/CMSIS/Include/core_cm0plus.h **** #ifdef __cplusplus
 119:../../dependencies/STM32CubeL0/Drivers/CMSIS/Include/core_cm0plus.h **** }
 120:../../dependencies/STM32CubeL0/Drivers/CMSIS/Include/core_cm0plus.h **** #endif
 121:../../dependencies/STM32CubeL0/Drivers/CMSIS/Include/core_cm0plus.h **** 
 122:../../dependencies/STM32CubeL0/Drivers/CMSIS/Include/core_cm0plus.h **** #endif /* __CORE_CM0PLUS_H_GENERIC */
 123:../../dependencies/STM32CubeL0/Drivers/CMSIS/Include/core_cm0plus.h **** 
 124:../../dependencies/STM32CubeL0/Drivers/CMSIS/Include/core_cm0plus.h **** #ifndef __CMSIS_GENERIC
 125:../../dependencies/STM32CubeL0/Drivers/CMSIS/Include/core_cm0plus.h **** 
 126:../../dependencies/STM32CubeL0/Drivers/CMSIS/Include/core_cm0plus.h **** #ifndef __CORE_CM0PLUS_H_DEPENDANT
 127:../../dependencies/STM32CubeL0/Drivers/CMSIS/Include/core_cm0plus.h **** #define __CORE_CM0PLUS_H_DEPENDANT
 128:../../dependencies/STM32CubeL0/Drivers/CMSIS/Include/core_cm0plus.h **** 
 129:../../dependencies/STM32CubeL0/Drivers/CMSIS/Include/core_cm0plus.h **** #ifdef __cplusplus
 130:../../dependencies/STM32CubeL0/Drivers/CMSIS/Include/core_cm0plus.h ****  extern "C" {
 131:../../dependencies/STM32CubeL0/Drivers/CMSIS/Include/core_cm0plus.h **** #endif
 132:../../dependencies/STM32CubeL0/Drivers/CMSIS/Include/core_cm0plus.h **** 
 133:../../dependencies/STM32CubeL0/Drivers/CMSIS/Include/core_cm0plus.h **** /* check device defines and use defaults */
 134:../../dependencies/STM32CubeL0/Drivers/CMSIS/Include/core_cm0plus.h **** #if defined __CHECK_DEVICE_DEFINES
 135:../../dependencies/STM32CubeL0/Drivers/CMSIS/Include/core_cm0plus.h ****   #ifndef __CM0PLUS_REV
 136:../../dependencies/STM32CubeL0/Drivers/CMSIS/Include/core_cm0plus.h ****     #define __CM0PLUS_REV             0x0000U
 137:../../dependencies/STM32CubeL0/Drivers/CMSIS/Include/core_cm0plus.h ****     #warning "__CM0PLUS_REV not defined in device header file; using default!"
 138:../../dependencies/STM32CubeL0/Drivers/CMSIS/Include/core_cm0plus.h ****   #endif
 139:../../dependencies/STM32CubeL0/Drivers/CMSIS/Include/core_cm0plus.h **** 
 140:../../dependencies/STM32CubeL0/Drivers/CMSIS/Include/core_cm0plus.h ****   #ifndef __MPU_PRESENT
 141:../../dependencies/STM32CubeL0/Drivers/CMSIS/Include/core_cm0plus.h ****     #define __MPU_PRESENT             0U
 142:../../dependencies/STM32CubeL0/Drivers/CMSIS/Include/core_cm0plus.h ****     #warning "__MPU_PRESENT not defined in device header file; using default!"
 143:../../dependencies/STM32CubeL0/Drivers/CMSIS/Include/core_cm0plus.h ****   #endif
 144:../../dependencies/STM32CubeL0/Drivers/CMSIS/Include/core_cm0plus.h **** 
 145:../../dependencies/STM32CubeL0/Drivers/CMSIS/Include/core_cm0plus.h ****   #ifndef __VTOR_PRESENT
 146:../../dependencies/STM32CubeL0/Drivers/CMSIS/Include/core_cm0plus.h ****     #define __VTOR_PRESENT            0U
 147:../../dependencies/STM32CubeL0/Drivers/CMSIS/Include/core_cm0plus.h ****     #warning "__VTOR_PRESENT not defined in device header file; using default!"
ARM GAS  /var/folders/fs/dxwfnrqj18z860lwl3d6f5t00000gn/T//ccbTeCNC.s 			page 4


 148:../../dependencies/STM32CubeL0/Drivers/CMSIS/Include/core_cm0plus.h ****   #endif
 149:../../dependencies/STM32CubeL0/Drivers/CMSIS/Include/core_cm0plus.h **** 
 150:../../dependencies/STM32CubeL0/Drivers/CMSIS/Include/core_cm0plus.h ****   #ifndef __NVIC_PRIO_BITS
 151:../../dependencies/STM32CubeL0/Drivers/CMSIS/Include/core_cm0plus.h ****     #define __NVIC_PRIO_BITS          2U
 152:../../dependencies/STM32CubeL0/Drivers/CMSIS/Include/core_cm0plus.h ****     #warning "__NVIC_PRIO_BITS not defined in device header file; using default!"
 153:../../dependencies/STM32CubeL0/Drivers/CMSIS/Include/core_cm0plus.h ****   #endif
 154:../../dependencies/STM32CubeL0/Drivers/CMSIS/Include/core_cm0plus.h **** 
 155:../../dependencies/STM32CubeL0/Drivers/CMSIS/Include/core_cm0plus.h ****   #ifndef __Vendor_SysTickConfig
 156:../../dependencies/STM32CubeL0/Drivers/CMSIS/Include/core_cm0plus.h ****     #define __Vendor_SysTickConfig    0U
 157:../../dependencies/STM32CubeL0/Drivers/CMSIS/Include/core_cm0plus.h ****     #warning "__Vendor_SysTickConfig not defined in device header file; using default!"
 158:../../dependencies/STM32CubeL0/Drivers/CMSIS/Include/core_cm0plus.h ****   #endif
 159:../../dependencies/STM32CubeL0/Drivers/CMSIS/Include/core_cm0plus.h **** #endif
 160:../../dependencies/STM32CubeL0/Drivers/CMSIS/Include/core_cm0plus.h **** 
 161:../../dependencies/STM32CubeL0/Drivers/CMSIS/Include/core_cm0plus.h **** /* IO definitions (access restrictions to peripheral registers) */
 162:../../dependencies/STM32CubeL0/Drivers/CMSIS/Include/core_cm0plus.h **** /**
 163:../../dependencies/STM32CubeL0/Drivers/CMSIS/Include/core_cm0plus.h ****     \defgroup CMSIS_glob_defs CMSIS Global Defines
 164:../../dependencies/STM32CubeL0/Drivers/CMSIS/Include/core_cm0plus.h **** 
 165:../../dependencies/STM32CubeL0/Drivers/CMSIS/Include/core_cm0plus.h ****     <strong>IO Type Qualifiers</strong> are used
 166:../../dependencies/STM32CubeL0/Drivers/CMSIS/Include/core_cm0plus.h ****     \li to specify the access to peripheral variables.
 167:../../dependencies/STM32CubeL0/Drivers/CMSIS/Include/core_cm0plus.h ****     \li for automatic generation of peripheral register debug information.
 168:../../dependencies/STM32CubeL0/Drivers/CMSIS/Include/core_cm0plus.h **** */
 169:../../dependencies/STM32CubeL0/Drivers/CMSIS/Include/core_cm0plus.h **** #ifdef __cplusplus
 170:../../dependencies/STM32CubeL0/Drivers/CMSIS/Include/core_cm0plus.h ****   #define   __I     volatile             /*!< Defines 'read only' permissions */
 171:../../dependencies/STM32CubeL0/Drivers/CMSIS/Include/core_cm0plus.h **** #else
 172:../../dependencies/STM32CubeL0/Drivers/CMSIS/Include/core_cm0plus.h ****   #define   __I     volatile const       /*!< Defines 'read only' permissions */
 173:../../dependencies/STM32CubeL0/Drivers/CMSIS/Include/core_cm0plus.h **** #endif
 174:../../dependencies/STM32CubeL0/Drivers/CMSIS/Include/core_cm0plus.h **** #define     __O     volatile             /*!< Defines 'write only' permissions */
 175:../../dependencies/STM32CubeL0/Drivers/CMSIS/Include/core_cm0plus.h **** #define     __IO    volatile             /*!< Defines 'read / write' permissions */
 176:../../dependencies/STM32CubeL0/Drivers/CMSIS/Include/core_cm0plus.h **** 
 177:../../dependencies/STM32CubeL0/Drivers/CMSIS/Include/core_cm0plus.h **** /* following defines should be used for structure members */
 178:../../dependencies/STM32CubeL0/Drivers/CMSIS/Include/core_cm0plus.h **** #define     __IM     volatile const      /*! Defines 'read only' structure member permissions */
 179:../../dependencies/STM32CubeL0/Drivers/CMSIS/Include/core_cm0plus.h **** #define     __OM     volatile            /*! Defines 'write only' structure member permissions */
 180:../../dependencies/STM32CubeL0/Drivers/CMSIS/Include/core_cm0plus.h **** #define     __IOM    volatile            /*! Defines 'read / write' structure member permissions */
 181:../../dependencies/STM32CubeL0/Drivers/CMSIS/Include/core_cm0plus.h **** 
 182:../../dependencies/STM32CubeL0/Drivers/CMSIS/Include/core_cm0plus.h **** /*@} end of group Cortex-M0+ */
 183:../../dependencies/STM32CubeL0/Drivers/CMSIS/Include/core_cm0plus.h **** 
 184:../../dependencies/STM32CubeL0/Drivers/CMSIS/Include/core_cm0plus.h **** 
 185:../../dependencies/STM32CubeL0/Drivers/CMSIS/Include/core_cm0plus.h **** 
 186:../../dependencies/STM32CubeL0/Drivers/CMSIS/Include/core_cm0plus.h **** /*******************************************************************************
 187:../../dependencies/STM32CubeL0/Drivers/CMSIS/Include/core_cm0plus.h ****  *                 Register Abstraction
 188:../../dependencies/STM32CubeL0/Drivers/CMSIS/Include/core_cm0plus.h ****   Core Register contain:
 189:../../dependencies/STM32CubeL0/Drivers/CMSIS/Include/core_cm0plus.h ****   - Core Register
 190:../../dependencies/STM32CubeL0/Drivers/CMSIS/Include/core_cm0plus.h ****   - Core NVIC Register
 191:../../dependencies/STM32CubeL0/Drivers/CMSIS/Include/core_cm0plus.h ****   - Core SCB Register
 192:../../dependencies/STM32CubeL0/Drivers/CMSIS/Include/core_cm0plus.h ****   - Core SysTick Register
 193:../../dependencies/STM32CubeL0/Drivers/CMSIS/Include/core_cm0plus.h ****   - Core MPU Register
 194:../../dependencies/STM32CubeL0/Drivers/CMSIS/Include/core_cm0plus.h ****  ******************************************************************************/
 195:../../dependencies/STM32CubeL0/Drivers/CMSIS/Include/core_cm0plus.h **** /**
 196:../../dependencies/STM32CubeL0/Drivers/CMSIS/Include/core_cm0plus.h ****   \defgroup CMSIS_core_register Defines and Type Definitions
 197:../../dependencies/STM32CubeL0/Drivers/CMSIS/Include/core_cm0plus.h ****   \brief Type definitions and defines for Cortex-M processor based devices.
 198:../../dependencies/STM32CubeL0/Drivers/CMSIS/Include/core_cm0plus.h **** */
 199:../../dependencies/STM32CubeL0/Drivers/CMSIS/Include/core_cm0plus.h **** 
 200:../../dependencies/STM32CubeL0/Drivers/CMSIS/Include/core_cm0plus.h **** /**
 201:../../dependencies/STM32CubeL0/Drivers/CMSIS/Include/core_cm0plus.h ****   \ingroup    CMSIS_core_register
 202:../../dependencies/STM32CubeL0/Drivers/CMSIS/Include/core_cm0plus.h ****   \defgroup   CMSIS_CORE  Status and Control Registers
 203:../../dependencies/STM32CubeL0/Drivers/CMSIS/Include/core_cm0plus.h ****   \brief      Core Register type definitions.
 204:../../dependencies/STM32CubeL0/Drivers/CMSIS/Include/core_cm0plus.h ****   @{
ARM GAS  /var/folders/fs/dxwfnrqj18z860lwl3d6f5t00000gn/T//ccbTeCNC.s 			page 5


 205:../../dependencies/STM32CubeL0/Drivers/CMSIS/Include/core_cm0plus.h ****  */
 206:../../dependencies/STM32CubeL0/Drivers/CMSIS/Include/core_cm0plus.h **** 
 207:../../dependencies/STM32CubeL0/Drivers/CMSIS/Include/core_cm0plus.h **** /**
 208:../../dependencies/STM32CubeL0/Drivers/CMSIS/Include/core_cm0plus.h ****   \brief  Union type to access the Application Program Status Register (APSR).
 209:../../dependencies/STM32CubeL0/Drivers/CMSIS/Include/core_cm0plus.h ****  */
 210:../../dependencies/STM32CubeL0/Drivers/CMSIS/Include/core_cm0plus.h **** typedef union
 211:../../dependencies/STM32CubeL0/Drivers/CMSIS/Include/core_cm0plus.h **** {
 212:../../dependencies/STM32CubeL0/Drivers/CMSIS/Include/core_cm0plus.h ****   struct
 213:../../dependencies/STM32CubeL0/Drivers/CMSIS/Include/core_cm0plus.h ****   {
 214:../../dependencies/STM32CubeL0/Drivers/CMSIS/Include/core_cm0plus.h ****     uint32_t _reserved0:28;              /*!< bit:  0..27  Reserved */
 215:../../dependencies/STM32CubeL0/Drivers/CMSIS/Include/core_cm0plus.h ****     uint32_t V:1;                        /*!< bit:     28  Overflow condition code flag */
 216:../../dependencies/STM32CubeL0/Drivers/CMSIS/Include/core_cm0plus.h ****     uint32_t C:1;                        /*!< bit:     29  Carry condition code flag */
 217:../../dependencies/STM32CubeL0/Drivers/CMSIS/Include/core_cm0plus.h ****     uint32_t Z:1;                        /*!< bit:     30  Zero condition code flag */
 218:../../dependencies/STM32CubeL0/Drivers/CMSIS/Include/core_cm0plus.h ****     uint32_t N:1;                        /*!< bit:     31  Negative condition code flag */
 219:../../dependencies/STM32CubeL0/Drivers/CMSIS/Include/core_cm0plus.h ****   } b;                                   /*!< Structure used for bit  access */
 220:../../dependencies/STM32CubeL0/Drivers/CMSIS/Include/core_cm0plus.h ****   uint32_t w;                            /*!< Type      used for word access */
 221:../../dependencies/STM32CubeL0/Drivers/CMSIS/Include/core_cm0plus.h **** } APSR_Type;
 222:../../dependencies/STM32CubeL0/Drivers/CMSIS/Include/core_cm0plus.h **** 
 223:../../dependencies/STM32CubeL0/Drivers/CMSIS/Include/core_cm0plus.h **** /* APSR Register Definitions */
 224:../../dependencies/STM32CubeL0/Drivers/CMSIS/Include/core_cm0plus.h **** #define APSR_N_Pos                         31U                                            /*!< APSR
 225:../../dependencies/STM32CubeL0/Drivers/CMSIS/Include/core_cm0plus.h **** #define APSR_N_Msk                         (1UL << APSR_N_Pos)                            /*!< APSR
 226:../../dependencies/STM32CubeL0/Drivers/CMSIS/Include/core_cm0plus.h **** 
 227:../../dependencies/STM32CubeL0/Drivers/CMSIS/Include/core_cm0plus.h **** #define APSR_Z_Pos                         30U                                            /*!< APSR
 228:../../dependencies/STM32CubeL0/Drivers/CMSIS/Include/core_cm0plus.h **** #define APSR_Z_Msk                         (1UL << APSR_Z_Pos)                            /*!< APSR
 229:../../dependencies/STM32CubeL0/Drivers/CMSIS/Include/core_cm0plus.h **** 
 230:../../dependencies/STM32CubeL0/Drivers/CMSIS/Include/core_cm0plus.h **** #define APSR_C_Pos                         29U                                            /*!< APSR
 231:../../dependencies/STM32CubeL0/Drivers/CMSIS/Include/core_cm0plus.h **** #define APSR_C_Msk                         (1UL << APSR_C_Pos)                            /*!< APSR
 232:../../dependencies/STM32CubeL0/Drivers/CMSIS/Include/core_cm0plus.h **** 
 233:../../dependencies/STM32CubeL0/Drivers/CMSIS/Include/core_cm0plus.h **** #define APSR_V_Pos                         28U                                            /*!< APSR
 234:../../dependencies/STM32CubeL0/Drivers/CMSIS/Include/core_cm0plus.h **** #define APSR_V_Msk                         (1UL << APSR_V_Pos)                            /*!< APSR
 235:../../dependencies/STM32CubeL0/Drivers/CMSIS/Include/core_cm0plus.h **** 
 236:../../dependencies/STM32CubeL0/Drivers/CMSIS/Include/core_cm0plus.h **** 
 237:../../dependencies/STM32CubeL0/Drivers/CMSIS/Include/core_cm0plus.h **** /**
 238:../../dependencies/STM32CubeL0/Drivers/CMSIS/Include/core_cm0plus.h ****   \brief  Union type to access the Interrupt Program Status Register (IPSR).
 239:../../dependencies/STM32CubeL0/Drivers/CMSIS/Include/core_cm0plus.h ****  */
 240:../../dependencies/STM32CubeL0/Drivers/CMSIS/Include/core_cm0plus.h **** typedef union
 241:../../dependencies/STM32CubeL0/Drivers/CMSIS/Include/core_cm0plus.h **** {
 242:../../dependencies/STM32CubeL0/Drivers/CMSIS/Include/core_cm0plus.h ****   struct
 243:../../dependencies/STM32CubeL0/Drivers/CMSIS/Include/core_cm0plus.h ****   {
 244:../../dependencies/STM32CubeL0/Drivers/CMSIS/Include/core_cm0plus.h ****     uint32_t ISR:9;                      /*!< bit:  0.. 8  Exception number */
 245:../../dependencies/STM32CubeL0/Drivers/CMSIS/Include/core_cm0plus.h ****     uint32_t _reserved0:23;              /*!< bit:  9..31  Reserved */
 246:../../dependencies/STM32CubeL0/Drivers/CMSIS/Include/core_cm0plus.h ****   } b;                                   /*!< Structure used for bit  access */
 247:../../dependencies/STM32CubeL0/Drivers/CMSIS/Include/core_cm0plus.h ****   uint32_t w;                            /*!< Type      used for word access */
 248:../../dependencies/STM32CubeL0/Drivers/CMSIS/Include/core_cm0plus.h **** } IPSR_Type;
 249:../../dependencies/STM32CubeL0/Drivers/CMSIS/Include/core_cm0plus.h **** 
 250:../../dependencies/STM32CubeL0/Drivers/CMSIS/Include/core_cm0plus.h **** /* IPSR Register Definitions */
 251:../../dependencies/STM32CubeL0/Drivers/CMSIS/Include/core_cm0plus.h **** #define IPSR_ISR_Pos                        0U                                            /*!< IPSR
 252:../../dependencies/STM32CubeL0/Drivers/CMSIS/Include/core_cm0plus.h **** #define IPSR_ISR_Msk                       (0x1FFUL /*<< IPSR_ISR_Pos*/)                  /*!< IPSR
 253:../../dependencies/STM32CubeL0/Drivers/CMSIS/Include/core_cm0plus.h **** 
 254:../../dependencies/STM32CubeL0/Drivers/CMSIS/Include/core_cm0plus.h **** 
 255:../../dependencies/STM32CubeL0/Drivers/CMSIS/Include/core_cm0plus.h **** /**
 256:../../dependencies/STM32CubeL0/Drivers/CMSIS/Include/core_cm0plus.h ****   \brief  Union type to access the Special-Purpose Program Status Registers (xPSR).
 257:../../dependencies/STM32CubeL0/Drivers/CMSIS/Include/core_cm0plus.h ****  */
 258:../../dependencies/STM32CubeL0/Drivers/CMSIS/Include/core_cm0plus.h **** typedef union
 259:../../dependencies/STM32CubeL0/Drivers/CMSIS/Include/core_cm0plus.h **** {
 260:../../dependencies/STM32CubeL0/Drivers/CMSIS/Include/core_cm0plus.h ****   struct
 261:../../dependencies/STM32CubeL0/Drivers/CMSIS/Include/core_cm0plus.h ****   {
ARM GAS  /var/folders/fs/dxwfnrqj18z860lwl3d6f5t00000gn/T//ccbTeCNC.s 			page 6


 262:../../dependencies/STM32CubeL0/Drivers/CMSIS/Include/core_cm0plus.h ****     uint32_t ISR:9;                      /*!< bit:  0.. 8  Exception number */
 263:../../dependencies/STM32CubeL0/Drivers/CMSIS/Include/core_cm0plus.h ****     uint32_t _reserved0:15;              /*!< bit:  9..23  Reserved */
 264:../../dependencies/STM32CubeL0/Drivers/CMSIS/Include/core_cm0plus.h ****     uint32_t T:1;                        /*!< bit:     24  Thumb bit        (read 0) */
 265:../../dependencies/STM32CubeL0/Drivers/CMSIS/Include/core_cm0plus.h ****     uint32_t _reserved1:3;               /*!< bit: 25..27  Reserved */
 266:../../dependencies/STM32CubeL0/Drivers/CMSIS/Include/core_cm0plus.h ****     uint32_t V:1;                        /*!< bit:     28  Overflow condition code flag */
 267:../../dependencies/STM32CubeL0/Drivers/CMSIS/Include/core_cm0plus.h ****     uint32_t C:1;                        /*!< bit:     29  Carry condition code flag */
 268:../../dependencies/STM32CubeL0/Drivers/CMSIS/Include/core_cm0plus.h ****     uint32_t Z:1;                        /*!< bit:     30  Zero condition code flag */
 269:../../dependencies/STM32CubeL0/Drivers/CMSIS/Include/core_cm0plus.h ****     uint32_t N:1;                        /*!< bit:     31  Negative condition code flag */
 270:../../dependencies/STM32CubeL0/Drivers/CMSIS/Include/core_cm0plus.h ****   } b;                                   /*!< Structure used for bit  access */
 271:../../dependencies/STM32CubeL0/Drivers/CMSIS/Include/core_cm0plus.h ****   uint32_t w;                            /*!< Type      used for word access */
 272:../../dependencies/STM32CubeL0/Drivers/CMSIS/Include/core_cm0plus.h **** } xPSR_Type;
 273:../../dependencies/STM32CubeL0/Drivers/CMSIS/Include/core_cm0plus.h **** 
 274:../../dependencies/STM32CubeL0/Drivers/CMSIS/Include/core_cm0plus.h **** /* xPSR Register Definitions */
 275:../../dependencies/STM32CubeL0/Drivers/CMSIS/Include/core_cm0plus.h **** #define xPSR_N_Pos                         31U                                            /*!< xPSR
 276:../../dependencies/STM32CubeL0/Drivers/CMSIS/Include/core_cm0plus.h **** #define xPSR_N_Msk                         (1UL << xPSR_N_Pos)                            /*!< xPSR
 277:../../dependencies/STM32CubeL0/Drivers/CMSIS/Include/core_cm0plus.h **** 
 278:../../dependencies/STM32CubeL0/Drivers/CMSIS/Include/core_cm0plus.h **** #define xPSR_Z_Pos                         30U                                            /*!< xPSR
 279:../../dependencies/STM32CubeL0/Drivers/CMSIS/Include/core_cm0plus.h **** #define xPSR_Z_Msk                         (1UL << xPSR_Z_Pos)                            /*!< xPSR
 280:../../dependencies/STM32CubeL0/Drivers/CMSIS/Include/core_cm0plus.h **** 
 281:../../dependencies/STM32CubeL0/Drivers/CMSIS/Include/core_cm0plus.h **** #define xPSR_C_Pos                         29U                                            /*!< xPSR
 282:../../dependencies/STM32CubeL0/Drivers/CMSIS/Include/core_cm0plus.h **** #define xPSR_C_Msk                         (1UL << xPSR_C_Pos)                            /*!< xPSR
 283:../../dependencies/STM32CubeL0/Drivers/CMSIS/Include/core_cm0plus.h **** 
 284:../../dependencies/STM32CubeL0/Drivers/CMSIS/Include/core_cm0plus.h **** #define xPSR_V_Pos                         28U                                            /*!< xPSR
 285:../../dependencies/STM32CubeL0/Drivers/CMSIS/Include/core_cm0plus.h **** #define xPSR_V_Msk                         (1UL << xPSR_V_Pos)                            /*!< xPSR
 286:../../dependencies/STM32CubeL0/Drivers/CMSIS/Include/core_cm0plus.h **** 
 287:../../dependencies/STM32CubeL0/Drivers/CMSIS/Include/core_cm0plus.h **** #define xPSR_T_Pos                         24U                                            /*!< xPSR
 288:../../dependencies/STM32CubeL0/Drivers/CMSIS/Include/core_cm0plus.h **** #define xPSR_T_Msk                         (1UL << xPSR_T_Pos)                            /*!< xPSR
 289:../../dependencies/STM32CubeL0/Drivers/CMSIS/Include/core_cm0plus.h **** 
 290:../../dependencies/STM32CubeL0/Drivers/CMSIS/Include/core_cm0plus.h **** #define xPSR_ISR_Pos                        0U                                            /*!< xPSR
 291:../../dependencies/STM32CubeL0/Drivers/CMSIS/Include/core_cm0plus.h **** #define xPSR_ISR_Msk                       (0x1FFUL /*<< xPSR_ISR_Pos*/)                  /*!< xPSR
 292:../../dependencies/STM32CubeL0/Drivers/CMSIS/Include/core_cm0plus.h **** 
 293:../../dependencies/STM32CubeL0/Drivers/CMSIS/Include/core_cm0plus.h **** 
 294:../../dependencies/STM32CubeL0/Drivers/CMSIS/Include/core_cm0plus.h **** /**
 295:../../dependencies/STM32CubeL0/Drivers/CMSIS/Include/core_cm0plus.h ****   \brief  Union type to access the Control Registers (CONTROL).
 296:../../dependencies/STM32CubeL0/Drivers/CMSIS/Include/core_cm0plus.h ****  */
 297:../../dependencies/STM32CubeL0/Drivers/CMSIS/Include/core_cm0plus.h **** typedef union
 298:../../dependencies/STM32CubeL0/Drivers/CMSIS/Include/core_cm0plus.h **** {
 299:../../dependencies/STM32CubeL0/Drivers/CMSIS/Include/core_cm0plus.h ****   struct
 300:../../dependencies/STM32CubeL0/Drivers/CMSIS/Include/core_cm0plus.h ****   {
 301:../../dependencies/STM32CubeL0/Drivers/CMSIS/Include/core_cm0plus.h ****     uint32_t nPRIV:1;                    /*!< bit:      0  Execution privilege in Thread mode */
 302:../../dependencies/STM32CubeL0/Drivers/CMSIS/Include/core_cm0plus.h ****     uint32_t SPSEL:1;                    /*!< bit:      1  Stack to be used */
 303:../../dependencies/STM32CubeL0/Drivers/CMSIS/Include/core_cm0plus.h ****     uint32_t _reserved1:30;              /*!< bit:  2..31  Reserved */
 304:../../dependencies/STM32CubeL0/Drivers/CMSIS/Include/core_cm0plus.h ****   } b;                                   /*!< Structure used for bit  access */
 305:../../dependencies/STM32CubeL0/Drivers/CMSIS/Include/core_cm0plus.h ****   uint32_t w;                            /*!< Type      used for word access */
 306:../../dependencies/STM32CubeL0/Drivers/CMSIS/Include/core_cm0plus.h **** } CONTROL_Type;
 307:../../dependencies/STM32CubeL0/Drivers/CMSIS/Include/core_cm0plus.h **** 
 308:../../dependencies/STM32CubeL0/Drivers/CMSIS/Include/core_cm0plus.h **** /* CONTROL Register Definitions */
 309:../../dependencies/STM32CubeL0/Drivers/CMSIS/Include/core_cm0plus.h **** #define CONTROL_SPSEL_Pos                   1U                                            /*!< CONT
 310:../../dependencies/STM32CubeL0/Drivers/CMSIS/Include/core_cm0plus.h **** #define CONTROL_SPSEL_Msk                  (1UL << CONTROL_SPSEL_Pos)                     /*!< CONT
 311:../../dependencies/STM32CubeL0/Drivers/CMSIS/Include/core_cm0plus.h **** 
 312:../../dependencies/STM32CubeL0/Drivers/CMSIS/Include/core_cm0plus.h **** #define CONTROL_nPRIV_Pos                   0U                                            /*!< CONT
 313:../../dependencies/STM32CubeL0/Drivers/CMSIS/Include/core_cm0plus.h **** #define CONTROL_nPRIV_Msk                  (1UL /*<< CONTROL_nPRIV_Pos*/)                 /*!< CONT
 314:../../dependencies/STM32CubeL0/Drivers/CMSIS/Include/core_cm0plus.h **** 
 315:../../dependencies/STM32CubeL0/Drivers/CMSIS/Include/core_cm0plus.h **** /*@} end of group CMSIS_CORE */
 316:../../dependencies/STM32CubeL0/Drivers/CMSIS/Include/core_cm0plus.h **** 
 317:../../dependencies/STM32CubeL0/Drivers/CMSIS/Include/core_cm0plus.h **** 
 318:../../dependencies/STM32CubeL0/Drivers/CMSIS/Include/core_cm0plus.h **** /**
ARM GAS  /var/folders/fs/dxwfnrqj18z860lwl3d6f5t00000gn/T//ccbTeCNC.s 			page 7


 319:../../dependencies/STM32CubeL0/Drivers/CMSIS/Include/core_cm0plus.h ****   \ingroup    CMSIS_core_register
 320:../../dependencies/STM32CubeL0/Drivers/CMSIS/Include/core_cm0plus.h ****   \defgroup   CMSIS_NVIC  Nested Vectored Interrupt Controller (NVIC)
 321:../../dependencies/STM32CubeL0/Drivers/CMSIS/Include/core_cm0plus.h ****   \brief      Type definitions for the NVIC Registers
 322:../../dependencies/STM32CubeL0/Drivers/CMSIS/Include/core_cm0plus.h ****   @{
 323:../../dependencies/STM32CubeL0/Drivers/CMSIS/Include/core_cm0plus.h ****  */
 324:../../dependencies/STM32CubeL0/Drivers/CMSIS/Include/core_cm0plus.h **** 
 325:../../dependencies/STM32CubeL0/Drivers/CMSIS/Include/core_cm0plus.h **** /**
 326:../../dependencies/STM32CubeL0/Drivers/CMSIS/Include/core_cm0plus.h ****   \brief  Structure type to access the Nested Vectored Interrupt Controller (NVIC).
 327:../../dependencies/STM32CubeL0/Drivers/CMSIS/Include/core_cm0plus.h ****  */
 328:../../dependencies/STM32CubeL0/Drivers/CMSIS/Include/core_cm0plus.h **** typedef struct
 329:../../dependencies/STM32CubeL0/Drivers/CMSIS/Include/core_cm0plus.h **** {
 330:../../dependencies/STM32CubeL0/Drivers/CMSIS/Include/core_cm0plus.h ****   __IOM uint32_t ISER[1U];               /*!< Offset: 0x000 (R/W)  Interrupt Set Enable Register */
 331:../../dependencies/STM32CubeL0/Drivers/CMSIS/Include/core_cm0plus.h ****         uint32_t RESERVED0[31U];
 332:../../dependencies/STM32CubeL0/Drivers/CMSIS/Include/core_cm0plus.h ****   __IOM uint32_t ICER[1U];               /*!< Offset: 0x080 (R/W)  Interrupt Clear Enable Register 
 333:../../dependencies/STM32CubeL0/Drivers/CMSIS/Include/core_cm0plus.h ****         uint32_t RSERVED1[31U];
 334:../../dependencies/STM32CubeL0/Drivers/CMSIS/Include/core_cm0plus.h ****   __IOM uint32_t ISPR[1U];               /*!< Offset: 0x100 (R/W)  Interrupt Set Pending Register *
 335:../../dependencies/STM32CubeL0/Drivers/CMSIS/Include/core_cm0plus.h ****         uint32_t RESERVED2[31U];
 336:../../dependencies/STM32CubeL0/Drivers/CMSIS/Include/core_cm0plus.h ****   __IOM uint32_t ICPR[1U];               /*!< Offset: 0x180 (R/W)  Interrupt Clear Pending Register
 337:../../dependencies/STM32CubeL0/Drivers/CMSIS/Include/core_cm0plus.h ****         uint32_t RESERVED3[31U];
 338:../../dependencies/STM32CubeL0/Drivers/CMSIS/Include/core_cm0plus.h ****         uint32_t RESERVED4[64U];
 339:../../dependencies/STM32CubeL0/Drivers/CMSIS/Include/core_cm0plus.h ****   __IOM uint32_t IP[8U];                 /*!< Offset: 0x300 (R/W)  Interrupt Priority Register */
 340:../../dependencies/STM32CubeL0/Drivers/CMSIS/Include/core_cm0plus.h **** }  NVIC_Type;
 341:../../dependencies/STM32CubeL0/Drivers/CMSIS/Include/core_cm0plus.h **** 
 342:../../dependencies/STM32CubeL0/Drivers/CMSIS/Include/core_cm0plus.h **** /*@} end of group CMSIS_NVIC */
 343:../../dependencies/STM32CubeL0/Drivers/CMSIS/Include/core_cm0plus.h **** 
 344:../../dependencies/STM32CubeL0/Drivers/CMSIS/Include/core_cm0plus.h **** 
 345:../../dependencies/STM32CubeL0/Drivers/CMSIS/Include/core_cm0plus.h **** /**
 346:../../dependencies/STM32CubeL0/Drivers/CMSIS/Include/core_cm0plus.h ****   \ingroup  CMSIS_core_register
 347:../../dependencies/STM32CubeL0/Drivers/CMSIS/Include/core_cm0plus.h ****   \defgroup CMSIS_SCB     System Control Block (SCB)
 348:../../dependencies/STM32CubeL0/Drivers/CMSIS/Include/core_cm0plus.h ****   \brief    Type definitions for the System Control Block Registers
 349:../../dependencies/STM32CubeL0/Drivers/CMSIS/Include/core_cm0plus.h ****   @{
 350:../../dependencies/STM32CubeL0/Drivers/CMSIS/Include/core_cm0plus.h ****  */
 351:../../dependencies/STM32CubeL0/Drivers/CMSIS/Include/core_cm0plus.h **** 
 352:../../dependencies/STM32CubeL0/Drivers/CMSIS/Include/core_cm0plus.h **** /**
 353:../../dependencies/STM32CubeL0/Drivers/CMSIS/Include/core_cm0plus.h ****   \brief  Structure type to access the System Control Block (SCB).
 354:../../dependencies/STM32CubeL0/Drivers/CMSIS/Include/core_cm0plus.h ****  */
 355:../../dependencies/STM32CubeL0/Drivers/CMSIS/Include/core_cm0plus.h **** typedef struct
 356:../../dependencies/STM32CubeL0/Drivers/CMSIS/Include/core_cm0plus.h **** {
 357:../../dependencies/STM32CubeL0/Drivers/CMSIS/Include/core_cm0plus.h ****   __IM  uint32_t CPUID;                  /*!< Offset: 0x000 (R/ )  CPUID Base Register */
 358:../../dependencies/STM32CubeL0/Drivers/CMSIS/Include/core_cm0plus.h ****   __IOM uint32_t ICSR;                   /*!< Offset: 0x004 (R/W)  Interrupt Control and State Regi
 359:../../dependencies/STM32CubeL0/Drivers/CMSIS/Include/core_cm0plus.h **** #if defined (__VTOR_PRESENT) && (__VTOR_PRESENT == 1U)
 360:../../dependencies/STM32CubeL0/Drivers/CMSIS/Include/core_cm0plus.h ****   __IOM uint32_t VTOR;                   /*!< Offset: 0x008 (R/W)  Vector Table Offset Register */
 361:../../dependencies/STM32CubeL0/Drivers/CMSIS/Include/core_cm0plus.h **** #else
 362:../../dependencies/STM32CubeL0/Drivers/CMSIS/Include/core_cm0plus.h ****         uint32_t RESERVED0;
 363:../../dependencies/STM32CubeL0/Drivers/CMSIS/Include/core_cm0plus.h **** #endif
 364:../../dependencies/STM32CubeL0/Drivers/CMSIS/Include/core_cm0plus.h ****   __IOM uint32_t AIRCR;                  /*!< Offset: 0x00C (R/W)  Application Interrupt and Reset 
 365:../../dependencies/STM32CubeL0/Drivers/CMSIS/Include/core_cm0plus.h ****   __IOM uint32_t SCR;                    /*!< Offset: 0x010 (R/W)  System Control Register */
 366:../../dependencies/STM32CubeL0/Drivers/CMSIS/Include/core_cm0plus.h ****   __IOM uint32_t CCR;                    /*!< Offset: 0x014 (R/W)  Configuration Control Register *
 367:../../dependencies/STM32CubeL0/Drivers/CMSIS/Include/core_cm0plus.h ****         uint32_t RESERVED1;
 368:../../dependencies/STM32CubeL0/Drivers/CMSIS/Include/core_cm0plus.h ****   __IOM uint32_t SHP[2U];                /*!< Offset: 0x01C (R/W)  System Handlers Priority Registe
 369:../../dependencies/STM32CubeL0/Drivers/CMSIS/Include/core_cm0plus.h ****   __IOM uint32_t SHCSR;                  /*!< Offset: 0x024 (R/W)  System Handler Control and State
 370:../../dependencies/STM32CubeL0/Drivers/CMSIS/Include/core_cm0plus.h **** } SCB_Type;
 371:../../dependencies/STM32CubeL0/Drivers/CMSIS/Include/core_cm0plus.h **** 
 372:../../dependencies/STM32CubeL0/Drivers/CMSIS/Include/core_cm0plus.h **** /* SCB CPUID Register Definitions */
 373:../../dependencies/STM32CubeL0/Drivers/CMSIS/Include/core_cm0plus.h **** #define SCB_CPUID_IMPLEMENTER_Pos          24U                                            /*!< SCB 
 374:../../dependencies/STM32CubeL0/Drivers/CMSIS/Include/core_cm0plus.h **** #define SCB_CPUID_IMPLEMENTER_Msk          (0xFFUL << SCB_CPUID_IMPLEMENTER_Pos)          /*!< SCB 
 375:../../dependencies/STM32CubeL0/Drivers/CMSIS/Include/core_cm0plus.h **** 
ARM GAS  /var/folders/fs/dxwfnrqj18z860lwl3d6f5t00000gn/T//ccbTeCNC.s 			page 8


 376:../../dependencies/STM32CubeL0/Drivers/CMSIS/Include/core_cm0plus.h **** #define SCB_CPUID_VARIANT_Pos              20U                                            /*!< SCB 
 377:../../dependencies/STM32CubeL0/Drivers/CMSIS/Include/core_cm0plus.h **** #define SCB_CPUID_VARIANT_Msk              (0xFUL << SCB_CPUID_VARIANT_Pos)               /*!< SCB 
 378:../../dependencies/STM32CubeL0/Drivers/CMSIS/Include/core_cm0plus.h **** 
 379:../../dependencies/STM32CubeL0/Drivers/CMSIS/Include/core_cm0plus.h **** #define SCB_CPUID_ARCHITECTURE_Pos         16U                                            /*!< SCB 
 380:../../dependencies/STM32CubeL0/Drivers/CMSIS/Include/core_cm0plus.h **** #define SCB_CPUID_ARCHITECTURE_Msk         (0xFUL << SCB_CPUID_ARCHITECTURE_Pos)          /*!< SCB 
 381:../../dependencies/STM32CubeL0/Drivers/CMSIS/Include/core_cm0plus.h **** 
 382:../../dependencies/STM32CubeL0/Drivers/CMSIS/Include/core_cm0plus.h **** #define SCB_CPUID_PARTNO_Pos                4U                                            /*!< SCB 
 383:../../dependencies/STM32CubeL0/Drivers/CMSIS/Include/core_cm0plus.h **** #define SCB_CPUID_PARTNO_Msk               (0xFFFUL << SCB_CPUID_PARTNO_Pos)              /*!< SCB 
 384:../../dependencies/STM32CubeL0/Drivers/CMSIS/Include/core_cm0plus.h **** 
 385:../../dependencies/STM32CubeL0/Drivers/CMSIS/Include/core_cm0plus.h **** #define SCB_CPUID_REVISION_Pos              0U                                            /*!< SCB 
 386:../../dependencies/STM32CubeL0/Drivers/CMSIS/Include/core_cm0plus.h **** #define SCB_CPUID_REVISION_Msk             (0xFUL /*<< SCB_CPUID_REVISION_Pos*/)          /*!< SCB 
 387:../../dependencies/STM32CubeL0/Drivers/CMSIS/Include/core_cm0plus.h **** 
 388:../../dependencies/STM32CubeL0/Drivers/CMSIS/Include/core_cm0plus.h **** /* SCB Interrupt Control State Register Definitions */
 389:../../dependencies/STM32CubeL0/Drivers/CMSIS/Include/core_cm0plus.h **** #define SCB_ICSR_NMIPENDSET_Pos            31U                                            /*!< SCB 
 390:../../dependencies/STM32CubeL0/Drivers/CMSIS/Include/core_cm0plus.h **** #define SCB_ICSR_NMIPENDSET_Msk            (1UL << SCB_ICSR_NMIPENDSET_Pos)               /*!< SCB 
 391:../../dependencies/STM32CubeL0/Drivers/CMSIS/Include/core_cm0plus.h **** 
 392:../../dependencies/STM32CubeL0/Drivers/CMSIS/Include/core_cm0plus.h **** #define SCB_ICSR_PENDSVSET_Pos             28U                                            /*!< SCB 
 393:../../dependencies/STM32CubeL0/Drivers/CMSIS/Include/core_cm0plus.h **** #define SCB_ICSR_PENDSVSET_Msk             (1UL << SCB_ICSR_PENDSVSET_Pos)                /*!< SCB 
 394:../../dependencies/STM32CubeL0/Drivers/CMSIS/Include/core_cm0plus.h **** 
 395:../../dependencies/STM32CubeL0/Drivers/CMSIS/Include/core_cm0plus.h **** #define SCB_ICSR_PENDSVCLR_Pos             27U                                            /*!< SCB 
 396:../../dependencies/STM32CubeL0/Drivers/CMSIS/Include/core_cm0plus.h **** #define SCB_ICSR_PENDSVCLR_Msk             (1UL << SCB_ICSR_PENDSVCLR_Pos)                /*!< SCB 
 397:../../dependencies/STM32CubeL0/Drivers/CMSIS/Include/core_cm0plus.h **** 
 398:../../dependencies/STM32CubeL0/Drivers/CMSIS/Include/core_cm0plus.h **** #define SCB_ICSR_PENDSTSET_Pos             26U                                            /*!< SCB 
 399:../../dependencies/STM32CubeL0/Drivers/CMSIS/Include/core_cm0plus.h **** #define SCB_ICSR_PENDSTSET_Msk             (1UL << SCB_ICSR_PENDSTSET_Pos)                /*!< SCB 
 400:../../dependencies/STM32CubeL0/Drivers/CMSIS/Include/core_cm0plus.h **** 
 401:../../dependencies/STM32CubeL0/Drivers/CMSIS/Include/core_cm0plus.h **** #define SCB_ICSR_PENDSTCLR_Pos             25U                                            /*!< SCB 
 402:../../dependencies/STM32CubeL0/Drivers/CMSIS/Include/core_cm0plus.h **** #define SCB_ICSR_PENDSTCLR_Msk             (1UL << SCB_ICSR_PENDSTCLR_Pos)                /*!< SCB 
 403:../../dependencies/STM32CubeL0/Drivers/CMSIS/Include/core_cm0plus.h **** 
 404:../../dependencies/STM32CubeL0/Drivers/CMSIS/Include/core_cm0plus.h **** #define SCB_ICSR_ISRPREEMPT_Pos            23U                                            /*!< SCB 
 405:../../dependencies/STM32CubeL0/Drivers/CMSIS/Include/core_cm0plus.h **** #define SCB_ICSR_ISRPREEMPT_Msk            (1UL << SCB_ICSR_ISRPREEMPT_Pos)               /*!< SCB 
 406:../../dependencies/STM32CubeL0/Drivers/CMSIS/Include/core_cm0plus.h **** 
 407:../../dependencies/STM32CubeL0/Drivers/CMSIS/Include/core_cm0plus.h **** #define SCB_ICSR_ISRPENDING_Pos            22U                                            /*!< SCB 
 408:../../dependencies/STM32CubeL0/Drivers/CMSIS/Include/core_cm0plus.h **** #define SCB_ICSR_ISRPENDING_Msk            (1UL << SCB_ICSR_ISRPENDING_Pos)               /*!< SCB 
 409:../../dependencies/STM32CubeL0/Drivers/CMSIS/Include/core_cm0plus.h **** 
 410:../../dependencies/STM32CubeL0/Drivers/CMSIS/Include/core_cm0plus.h **** #define SCB_ICSR_VECTPENDING_Pos           12U                                            /*!< SCB 
 411:../../dependencies/STM32CubeL0/Drivers/CMSIS/Include/core_cm0plus.h **** #define SCB_ICSR_VECTPENDING_Msk           (0x1FFUL << SCB_ICSR_VECTPENDING_Pos)          /*!< SCB 
 412:../../dependencies/STM32CubeL0/Drivers/CMSIS/Include/core_cm0plus.h **** 
 413:../../dependencies/STM32CubeL0/Drivers/CMSIS/Include/core_cm0plus.h **** #define SCB_ICSR_VECTACTIVE_Pos             0U                                            /*!< SCB 
 414:../../dependencies/STM32CubeL0/Drivers/CMSIS/Include/core_cm0plus.h **** #define SCB_ICSR_VECTACTIVE_Msk            (0x1FFUL /*<< SCB_ICSR_VECTACTIVE_Pos*/)       /*!< SCB 
 415:../../dependencies/STM32CubeL0/Drivers/CMSIS/Include/core_cm0plus.h **** 
 416:../../dependencies/STM32CubeL0/Drivers/CMSIS/Include/core_cm0plus.h **** #if defined (__VTOR_PRESENT) && (__VTOR_PRESENT == 1U)
 417:../../dependencies/STM32CubeL0/Drivers/CMSIS/Include/core_cm0plus.h **** /* SCB Interrupt Control State Register Definitions */
 418:../../dependencies/STM32CubeL0/Drivers/CMSIS/Include/core_cm0plus.h **** #define SCB_VTOR_TBLOFF_Pos                 8U                                            /*!< SCB 
 419:../../dependencies/STM32CubeL0/Drivers/CMSIS/Include/core_cm0plus.h **** #define SCB_VTOR_TBLOFF_Msk                (0xFFFFFFUL << SCB_VTOR_TBLOFF_Pos)            /*!< SCB 
 420:../../dependencies/STM32CubeL0/Drivers/CMSIS/Include/core_cm0plus.h **** #endif
 421:../../dependencies/STM32CubeL0/Drivers/CMSIS/Include/core_cm0plus.h **** 
 422:../../dependencies/STM32CubeL0/Drivers/CMSIS/Include/core_cm0plus.h **** /* SCB Application Interrupt and Reset Control Register Definitions */
 423:../../dependencies/STM32CubeL0/Drivers/CMSIS/Include/core_cm0plus.h **** #define SCB_AIRCR_VECTKEY_Pos              16U                                            /*!< SCB 
 424:../../dependencies/STM32CubeL0/Drivers/CMSIS/Include/core_cm0plus.h **** #define SCB_AIRCR_VECTKEY_Msk              (0xFFFFUL << SCB_AIRCR_VECTKEY_Pos)            /*!< SCB 
 425:../../dependencies/STM32CubeL0/Drivers/CMSIS/Include/core_cm0plus.h **** 
 426:../../dependencies/STM32CubeL0/Drivers/CMSIS/Include/core_cm0plus.h **** #define SCB_AIRCR_VECTKEYSTAT_Pos          16U                                            /*!< SCB 
 427:../../dependencies/STM32CubeL0/Drivers/CMSIS/Include/core_cm0plus.h **** #define SCB_AIRCR_VECTKEYSTAT_Msk          (0xFFFFUL << SCB_AIRCR_VECTKEYSTAT_Pos)        /*!< SCB 
 428:../../dependencies/STM32CubeL0/Drivers/CMSIS/Include/core_cm0plus.h **** 
 429:../../dependencies/STM32CubeL0/Drivers/CMSIS/Include/core_cm0plus.h **** #define SCB_AIRCR_ENDIANESS_Pos            15U                                            /*!< SCB 
 430:../../dependencies/STM32CubeL0/Drivers/CMSIS/Include/core_cm0plus.h **** #define SCB_AIRCR_ENDIANESS_Msk            (1UL << SCB_AIRCR_ENDIANESS_Pos)               /*!< SCB 
 431:../../dependencies/STM32CubeL0/Drivers/CMSIS/Include/core_cm0plus.h **** 
 432:../../dependencies/STM32CubeL0/Drivers/CMSIS/Include/core_cm0plus.h **** #define SCB_AIRCR_SYSRESETREQ_Pos           2U                                            /*!< SCB 
ARM GAS  /var/folders/fs/dxwfnrqj18z860lwl3d6f5t00000gn/T//ccbTeCNC.s 			page 9


 433:../../dependencies/STM32CubeL0/Drivers/CMSIS/Include/core_cm0plus.h **** #define SCB_AIRCR_SYSRESETREQ_Msk          (1UL << SCB_AIRCR_SYSRESETREQ_Pos)             /*!< SCB 
 434:../../dependencies/STM32CubeL0/Drivers/CMSIS/Include/core_cm0plus.h **** 
 435:../../dependencies/STM32CubeL0/Drivers/CMSIS/Include/core_cm0plus.h **** #define SCB_AIRCR_VECTCLRACTIVE_Pos         1U                                            /*!< SCB 
 436:../../dependencies/STM32CubeL0/Drivers/CMSIS/Include/core_cm0plus.h **** #define SCB_AIRCR_VECTCLRACTIVE_Msk        (1UL << SCB_AIRCR_VECTCLRACTIVE_Pos)           /*!< SCB 
 437:../../dependencies/STM32CubeL0/Drivers/CMSIS/Include/core_cm0plus.h **** 
 438:../../dependencies/STM32CubeL0/Drivers/CMSIS/Include/core_cm0plus.h **** /* SCB System Control Register Definitions */
 439:../../dependencies/STM32CubeL0/Drivers/CMSIS/Include/core_cm0plus.h **** #define SCB_SCR_SEVONPEND_Pos               4U                                            /*!< SCB 
 440:../../dependencies/STM32CubeL0/Drivers/CMSIS/Include/core_cm0plus.h **** #define SCB_SCR_SEVONPEND_Msk              (1UL << SCB_SCR_SEVONPEND_Pos)                 /*!< SCB 
 441:../../dependencies/STM32CubeL0/Drivers/CMSIS/Include/core_cm0plus.h **** 
 442:../../dependencies/STM32CubeL0/Drivers/CMSIS/Include/core_cm0plus.h **** #define SCB_SCR_SLEEPDEEP_Pos               2U                                            /*!< SCB 
 443:../../dependencies/STM32CubeL0/Drivers/CMSIS/Include/core_cm0plus.h **** #define SCB_SCR_SLEEPDEEP_Msk              (1UL << SCB_SCR_SLEEPDEEP_Pos)                 /*!< SCB 
 444:../../dependencies/STM32CubeL0/Drivers/CMSIS/Include/core_cm0plus.h **** 
 445:../../dependencies/STM32CubeL0/Drivers/CMSIS/Include/core_cm0plus.h **** #define SCB_SCR_SLEEPONEXIT_Pos             1U                                            /*!< SCB 
 446:../../dependencies/STM32CubeL0/Drivers/CMSIS/Include/core_cm0plus.h **** #define SCB_SCR_SLEEPONEXIT_Msk            (1UL << SCB_SCR_SLEEPONEXIT_Pos)               /*!< SCB 
 447:../../dependencies/STM32CubeL0/Drivers/CMSIS/Include/core_cm0plus.h **** 
 448:../../dependencies/STM32CubeL0/Drivers/CMSIS/Include/core_cm0plus.h **** /* SCB Configuration Control Register Definitions */
 449:../../dependencies/STM32CubeL0/Drivers/CMSIS/Include/core_cm0plus.h **** #define SCB_CCR_STKALIGN_Pos                9U                                            /*!< SCB 
 450:../../dependencies/STM32CubeL0/Drivers/CMSIS/Include/core_cm0plus.h **** #define SCB_CCR_STKALIGN_Msk               (1UL << SCB_CCR_STKALIGN_Pos)                  /*!< SCB 
 451:../../dependencies/STM32CubeL0/Drivers/CMSIS/Include/core_cm0plus.h **** 
 452:../../dependencies/STM32CubeL0/Drivers/CMSIS/Include/core_cm0plus.h **** #define SCB_CCR_UNALIGN_TRP_Pos             3U                                            /*!< SCB 
 453:../../dependencies/STM32CubeL0/Drivers/CMSIS/Include/core_cm0plus.h **** #define SCB_CCR_UNALIGN_TRP_Msk            (1UL << SCB_CCR_UNALIGN_TRP_Pos)               /*!< SCB 
 454:../../dependencies/STM32CubeL0/Drivers/CMSIS/Include/core_cm0plus.h **** 
 455:../../dependencies/STM32CubeL0/Drivers/CMSIS/Include/core_cm0plus.h **** /* SCB System Handler Control and State Register Definitions */
 456:../../dependencies/STM32CubeL0/Drivers/CMSIS/Include/core_cm0plus.h **** #define SCB_SHCSR_SVCALLPENDED_Pos         15U                                            /*!< SCB 
 457:../../dependencies/STM32CubeL0/Drivers/CMSIS/Include/core_cm0plus.h **** #define SCB_SHCSR_SVCALLPENDED_Msk         (1UL << SCB_SHCSR_SVCALLPENDED_Pos)            /*!< SCB 
 458:../../dependencies/STM32CubeL0/Drivers/CMSIS/Include/core_cm0plus.h **** 
 459:../../dependencies/STM32CubeL0/Drivers/CMSIS/Include/core_cm0plus.h **** /*@} end of group CMSIS_SCB */
 460:../../dependencies/STM32CubeL0/Drivers/CMSIS/Include/core_cm0plus.h **** 
 461:../../dependencies/STM32CubeL0/Drivers/CMSIS/Include/core_cm0plus.h **** 
 462:../../dependencies/STM32CubeL0/Drivers/CMSIS/Include/core_cm0plus.h **** /**
 463:../../dependencies/STM32CubeL0/Drivers/CMSIS/Include/core_cm0plus.h ****   \ingroup  CMSIS_core_register
 464:../../dependencies/STM32CubeL0/Drivers/CMSIS/Include/core_cm0plus.h ****   \defgroup CMSIS_SysTick     System Tick Timer (SysTick)
 465:../../dependencies/STM32CubeL0/Drivers/CMSIS/Include/core_cm0plus.h ****   \brief    Type definitions for the System Timer Registers.
 466:../../dependencies/STM32CubeL0/Drivers/CMSIS/Include/core_cm0plus.h ****   @{
 467:../../dependencies/STM32CubeL0/Drivers/CMSIS/Include/core_cm0plus.h ****  */
 468:../../dependencies/STM32CubeL0/Drivers/CMSIS/Include/core_cm0plus.h **** 
 469:../../dependencies/STM32CubeL0/Drivers/CMSIS/Include/core_cm0plus.h **** /**
 470:../../dependencies/STM32CubeL0/Drivers/CMSIS/Include/core_cm0plus.h ****   \brief  Structure type to access the System Timer (SysTick).
 471:../../dependencies/STM32CubeL0/Drivers/CMSIS/Include/core_cm0plus.h ****  */
 472:../../dependencies/STM32CubeL0/Drivers/CMSIS/Include/core_cm0plus.h **** typedef struct
 473:../../dependencies/STM32CubeL0/Drivers/CMSIS/Include/core_cm0plus.h **** {
 474:../../dependencies/STM32CubeL0/Drivers/CMSIS/Include/core_cm0plus.h ****   __IOM uint32_t CTRL;                   /*!< Offset: 0x000 (R/W)  SysTick Control and Status Regis
 475:../../dependencies/STM32CubeL0/Drivers/CMSIS/Include/core_cm0plus.h ****   __IOM uint32_t LOAD;                   /*!< Offset: 0x004 (R/W)  SysTick Reload Value Register */
 476:../../dependencies/STM32CubeL0/Drivers/CMSIS/Include/core_cm0plus.h ****   __IOM uint32_t VAL;                    /*!< Offset: 0x008 (R/W)  SysTick Current Value Register *
 477:../../dependencies/STM32CubeL0/Drivers/CMSIS/Include/core_cm0plus.h ****   __IM  uint32_t CALIB;                  /*!< Offset: 0x00C (R/ )  SysTick Calibration Register */
 478:../../dependencies/STM32CubeL0/Drivers/CMSIS/Include/core_cm0plus.h **** } SysTick_Type;
 479:../../dependencies/STM32CubeL0/Drivers/CMSIS/Include/core_cm0plus.h **** 
 480:../../dependencies/STM32CubeL0/Drivers/CMSIS/Include/core_cm0plus.h **** /* SysTick Control / Status Register Definitions */
 481:../../dependencies/STM32CubeL0/Drivers/CMSIS/Include/core_cm0plus.h **** #define SysTick_CTRL_COUNTFLAG_Pos         16U                                            /*!< SysT
 482:../../dependencies/STM32CubeL0/Drivers/CMSIS/Include/core_cm0plus.h **** #define SysTick_CTRL_COUNTFLAG_Msk         (1UL << SysTick_CTRL_COUNTFLAG_Pos)            /*!< SysT
 483:../../dependencies/STM32CubeL0/Drivers/CMSIS/Include/core_cm0plus.h **** 
 484:../../dependencies/STM32CubeL0/Drivers/CMSIS/Include/core_cm0plus.h **** #define SysTick_CTRL_CLKSOURCE_Pos          2U                                            /*!< SysT
 485:../../dependencies/STM32CubeL0/Drivers/CMSIS/Include/core_cm0plus.h **** #define SysTick_CTRL_CLKSOURCE_Msk         (1UL << SysTick_CTRL_CLKSOURCE_Pos)            /*!< SysT
 486:../../dependencies/STM32CubeL0/Drivers/CMSIS/Include/core_cm0plus.h **** 
 487:../../dependencies/STM32CubeL0/Drivers/CMSIS/Include/core_cm0plus.h **** #define SysTick_CTRL_TICKINT_Pos            1U                                            /*!< SysT
 488:../../dependencies/STM32CubeL0/Drivers/CMSIS/Include/core_cm0plus.h **** #define SysTick_CTRL_TICKINT_Msk           (1UL << SysTick_CTRL_TICKINT_Pos)              /*!< SysT
 489:../../dependencies/STM32CubeL0/Drivers/CMSIS/Include/core_cm0plus.h **** 
ARM GAS  /var/folders/fs/dxwfnrqj18z860lwl3d6f5t00000gn/T//ccbTeCNC.s 			page 10


 490:../../dependencies/STM32CubeL0/Drivers/CMSIS/Include/core_cm0plus.h **** #define SysTick_CTRL_ENABLE_Pos             0U                                            /*!< SysT
 491:../../dependencies/STM32CubeL0/Drivers/CMSIS/Include/core_cm0plus.h **** #define SysTick_CTRL_ENABLE_Msk            (1UL /*<< SysTick_CTRL_ENABLE_Pos*/)           /*!< SysT
 492:../../dependencies/STM32CubeL0/Drivers/CMSIS/Include/core_cm0plus.h **** 
 493:../../dependencies/STM32CubeL0/Drivers/CMSIS/Include/core_cm0plus.h **** /* SysTick Reload Register Definitions */
 494:../../dependencies/STM32CubeL0/Drivers/CMSIS/Include/core_cm0plus.h **** #define SysTick_LOAD_RELOAD_Pos             0U                                            /*!< SysT
 495:../../dependencies/STM32CubeL0/Drivers/CMSIS/Include/core_cm0plus.h **** #define SysTick_LOAD_RELOAD_Msk            (0xFFFFFFUL /*<< SysTick_LOAD_RELOAD_Pos*/)    /*!< SysT
 496:../../dependencies/STM32CubeL0/Drivers/CMSIS/Include/core_cm0plus.h **** 
 497:../../dependencies/STM32CubeL0/Drivers/CMSIS/Include/core_cm0plus.h **** /* SysTick Current Register Definitions */
 498:../../dependencies/STM32CubeL0/Drivers/CMSIS/Include/core_cm0plus.h **** #define SysTick_VAL_CURRENT_Pos             0U                                            /*!< SysT
 499:../../dependencies/STM32CubeL0/Drivers/CMSIS/Include/core_cm0plus.h **** #define SysTick_VAL_CURRENT_Msk            (0xFFFFFFUL /*<< SysTick_VAL_CURRENT_Pos*/)    /*!< SysT
 500:../../dependencies/STM32CubeL0/Drivers/CMSIS/Include/core_cm0plus.h **** 
 501:../../dependencies/STM32CubeL0/Drivers/CMSIS/Include/core_cm0plus.h **** /* SysTick Calibration Register Definitions */
 502:../../dependencies/STM32CubeL0/Drivers/CMSIS/Include/core_cm0plus.h **** #define SysTick_CALIB_NOREF_Pos            31U                                            /*!< SysT
 503:../../dependencies/STM32CubeL0/Drivers/CMSIS/Include/core_cm0plus.h **** #define SysTick_CALIB_NOREF_Msk            (1UL << SysTick_CALIB_NOREF_Pos)               /*!< SysT
 504:../../dependencies/STM32CubeL0/Drivers/CMSIS/Include/core_cm0plus.h **** 
 505:../../dependencies/STM32CubeL0/Drivers/CMSIS/Include/core_cm0plus.h **** #define SysTick_CALIB_SKEW_Pos             30U                                            /*!< SysT
 506:../../dependencies/STM32CubeL0/Drivers/CMSIS/Include/core_cm0plus.h **** #define SysTick_CALIB_SKEW_Msk             (1UL << SysTick_CALIB_SKEW_Pos)                /*!< SysT
 507:../../dependencies/STM32CubeL0/Drivers/CMSIS/Include/core_cm0plus.h **** 
 508:../../dependencies/STM32CubeL0/Drivers/CMSIS/Include/core_cm0plus.h **** #define SysTick_CALIB_TENMS_Pos             0U                                            /*!< SysT
 509:../../dependencies/STM32CubeL0/Drivers/CMSIS/Include/core_cm0plus.h **** #define SysTick_CALIB_TENMS_Msk            (0xFFFFFFUL /*<< SysTick_CALIB_TENMS_Pos*/)    /*!< SysT
 510:../../dependencies/STM32CubeL0/Drivers/CMSIS/Include/core_cm0plus.h **** 
 511:../../dependencies/STM32CubeL0/Drivers/CMSIS/Include/core_cm0plus.h **** /*@} end of group CMSIS_SysTick */
 512:../../dependencies/STM32CubeL0/Drivers/CMSIS/Include/core_cm0plus.h **** 
 513:../../dependencies/STM32CubeL0/Drivers/CMSIS/Include/core_cm0plus.h **** #if defined (__MPU_PRESENT) && (__MPU_PRESENT == 1U)
 514:../../dependencies/STM32CubeL0/Drivers/CMSIS/Include/core_cm0plus.h **** /**
 515:../../dependencies/STM32CubeL0/Drivers/CMSIS/Include/core_cm0plus.h ****   \ingroup  CMSIS_core_register
 516:../../dependencies/STM32CubeL0/Drivers/CMSIS/Include/core_cm0plus.h ****   \defgroup CMSIS_MPU     Memory Protection Unit (MPU)
 517:../../dependencies/STM32CubeL0/Drivers/CMSIS/Include/core_cm0plus.h ****   \brief    Type definitions for the Memory Protection Unit (MPU)
 518:../../dependencies/STM32CubeL0/Drivers/CMSIS/Include/core_cm0plus.h ****   @{
 519:../../dependencies/STM32CubeL0/Drivers/CMSIS/Include/core_cm0plus.h ****  */
 520:../../dependencies/STM32CubeL0/Drivers/CMSIS/Include/core_cm0plus.h **** 
 521:../../dependencies/STM32CubeL0/Drivers/CMSIS/Include/core_cm0plus.h **** /**
 522:../../dependencies/STM32CubeL0/Drivers/CMSIS/Include/core_cm0plus.h ****   \brief  Structure type to access the Memory Protection Unit (MPU).
 523:../../dependencies/STM32CubeL0/Drivers/CMSIS/Include/core_cm0plus.h ****  */
 524:../../dependencies/STM32CubeL0/Drivers/CMSIS/Include/core_cm0plus.h **** typedef struct
 525:../../dependencies/STM32CubeL0/Drivers/CMSIS/Include/core_cm0plus.h **** {
 526:../../dependencies/STM32CubeL0/Drivers/CMSIS/Include/core_cm0plus.h ****   __IM  uint32_t TYPE;                   /*!< Offset: 0x000 (R/ )  MPU Type Register */
 527:../../dependencies/STM32CubeL0/Drivers/CMSIS/Include/core_cm0plus.h ****   __IOM uint32_t CTRL;                   /*!< Offset: 0x004 (R/W)  MPU Control Register */
 528:../../dependencies/STM32CubeL0/Drivers/CMSIS/Include/core_cm0plus.h ****   __IOM uint32_t RNR;                    /*!< Offset: 0x008 (R/W)  MPU Region RNRber Register */
 529:../../dependencies/STM32CubeL0/Drivers/CMSIS/Include/core_cm0plus.h ****   __IOM uint32_t RBAR;                   /*!< Offset: 0x00C (R/W)  MPU Region Base Address Register
 530:../../dependencies/STM32CubeL0/Drivers/CMSIS/Include/core_cm0plus.h ****   __IOM uint32_t RASR;                   /*!< Offset: 0x010 (R/W)  MPU Region Attribute and Size Re
 531:../../dependencies/STM32CubeL0/Drivers/CMSIS/Include/core_cm0plus.h **** } MPU_Type;
 532:../../dependencies/STM32CubeL0/Drivers/CMSIS/Include/core_cm0plus.h **** 
 533:../../dependencies/STM32CubeL0/Drivers/CMSIS/Include/core_cm0plus.h **** #define MPU_TYPE_RALIASES                  1U
 534:../../dependencies/STM32CubeL0/Drivers/CMSIS/Include/core_cm0plus.h **** 
 535:../../dependencies/STM32CubeL0/Drivers/CMSIS/Include/core_cm0plus.h **** /* MPU Type Register Definitions */
 536:../../dependencies/STM32CubeL0/Drivers/CMSIS/Include/core_cm0plus.h **** #define MPU_TYPE_IREGION_Pos               16U                                            /*!< MPU 
 537:../../dependencies/STM32CubeL0/Drivers/CMSIS/Include/core_cm0plus.h **** #define MPU_TYPE_IREGION_Msk               (0xFFUL << MPU_TYPE_IREGION_Pos)               /*!< MPU 
 538:../../dependencies/STM32CubeL0/Drivers/CMSIS/Include/core_cm0plus.h **** 
 539:../../dependencies/STM32CubeL0/Drivers/CMSIS/Include/core_cm0plus.h **** #define MPU_TYPE_DREGION_Pos                8U                                            /*!< MPU 
 540:../../dependencies/STM32CubeL0/Drivers/CMSIS/Include/core_cm0plus.h **** #define MPU_TYPE_DREGION_Msk               (0xFFUL << MPU_TYPE_DREGION_Pos)               /*!< MPU 
 541:../../dependencies/STM32CubeL0/Drivers/CMSIS/Include/core_cm0plus.h **** 
 542:../../dependencies/STM32CubeL0/Drivers/CMSIS/Include/core_cm0plus.h **** #define MPU_TYPE_SEPARATE_Pos               0U                                            /*!< MPU 
 543:../../dependencies/STM32CubeL0/Drivers/CMSIS/Include/core_cm0plus.h **** #define MPU_TYPE_SEPARATE_Msk              (1UL /*<< MPU_TYPE_SEPARATE_Pos*/)             /*!< MPU 
 544:../../dependencies/STM32CubeL0/Drivers/CMSIS/Include/core_cm0plus.h **** 
 545:../../dependencies/STM32CubeL0/Drivers/CMSIS/Include/core_cm0plus.h **** /* MPU Control Register Definitions */
 546:../../dependencies/STM32CubeL0/Drivers/CMSIS/Include/core_cm0plus.h **** #define MPU_CTRL_PRIVDEFENA_Pos             2U                                            /*!< MPU 
ARM GAS  /var/folders/fs/dxwfnrqj18z860lwl3d6f5t00000gn/T//ccbTeCNC.s 			page 11


 547:../../dependencies/STM32CubeL0/Drivers/CMSIS/Include/core_cm0plus.h **** #define MPU_CTRL_PRIVDEFENA_Msk            (1UL << MPU_CTRL_PRIVDEFENA_Pos)               /*!< MPU 
 548:../../dependencies/STM32CubeL0/Drivers/CMSIS/Include/core_cm0plus.h **** 
 549:../../dependencies/STM32CubeL0/Drivers/CMSIS/Include/core_cm0plus.h **** #define MPU_CTRL_HFNMIENA_Pos               1U                                            /*!< MPU 
 550:../../dependencies/STM32CubeL0/Drivers/CMSIS/Include/core_cm0plus.h **** #define MPU_CTRL_HFNMIENA_Msk              (1UL << MPU_CTRL_HFNMIENA_Pos)                 /*!< MPU 
 551:../../dependencies/STM32CubeL0/Drivers/CMSIS/Include/core_cm0plus.h **** 
 552:../../dependencies/STM32CubeL0/Drivers/CMSIS/Include/core_cm0plus.h **** #define MPU_CTRL_ENABLE_Pos                 0U                                            /*!< MPU 
 553:../../dependencies/STM32CubeL0/Drivers/CMSIS/Include/core_cm0plus.h **** #define MPU_CTRL_ENABLE_Msk                (1UL /*<< MPU_CTRL_ENABLE_Pos*/)               /*!< MPU 
 554:../../dependencies/STM32CubeL0/Drivers/CMSIS/Include/core_cm0plus.h **** 
 555:../../dependencies/STM32CubeL0/Drivers/CMSIS/Include/core_cm0plus.h **** /* MPU Region Number Register Definitions */
 556:../../dependencies/STM32CubeL0/Drivers/CMSIS/Include/core_cm0plus.h **** #define MPU_RNR_REGION_Pos                  0U                                            /*!< MPU 
 557:../../dependencies/STM32CubeL0/Drivers/CMSIS/Include/core_cm0plus.h **** #define MPU_RNR_REGION_Msk                 (0xFFUL /*<< MPU_RNR_REGION_Pos*/)             /*!< MPU 
 558:../../dependencies/STM32CubeL0/Drivers/CMSIS/Include/core_cm0plus.h **** 
 559:../../dependencies/STM32CubeL0/Drivers/CMSIS/Include/core_cm0plus.h **** /* MPU Region Base Address Register Definitions */
 560:../../dependencies/STM32CubeL0/Drivers/CMSIS/Include/core_cm0plus.h **** #define MPU_RBAR_ADDR_Pos                   8U                                            /*!< MPU 
 561:../../dependencies/STM32CubeL0/Drivers/CMSIS/Include/core_cm0plus.h **** #define MPU_RBAR_ADDR_Msk                  (0xFFFFFFUL << MPU_RBAR_ADDR_Pos)              /*!< MPU 
 562:../../dependencies/STM32CubeL0/Drivers/CMSIS/Include/core_cm0plus.h **** 
 563:../../dependencies/STM32CubeL0/Drivers/CMSIS/Include/core_cm0plus.h **** #define MPU_RBAR_VALID_Pos                  4U                                            /*!< MPU 
 564:../../dependencies/STM32CubeL0/Drivers/CMSIS/Include/core_cm0plus.h **** #define MPU_RBAR_VALID_Msk                 (1UL << MPU_RBAR_VALID_Pos)                    /*!< MPU 
 565:../../dependencies/STM32CubeL0/Drivers/CMSIS/Include/core_cm0plus.h **** 
 566:../../dependencies/STM32CubeL0/Drivers/CMSIS/Include/core_cm0plus.h **** #define MPU_RBAR_REGION_Pos                 0U                                            /*!< MPU 
 567:../../dependencies/STM32CubeL0/Drivers/CMSIS/Include/core_cm0plus.h **** #define MPU_RBAR_REGION_Msk                (0xFUL /*<< MPU_RBAR_REGION_Pos*/)             /*!< MPU 
 568:../../dependencies/STM32CubeL0/Drivers/CMSIS/Include/core_cm0plus.h **** 
 569:../../dependencies/STM32CubeL0/Drivers/CMSIS/Include/core_cm0plus.h **** /* MPU Region Attribute and Size Register Definitions */
 570:../../dependencies/STM32CubeL0/Drivers/CMSIS/Include/core_cm0plus.h **** #define MPU_RASR_ATTRS_Pos                 16U                                            /*!< MPU 
 571:../../dependencies/STM32CubeL0/Drivers/CMSIS/Include/core_cm0plus.h **** #define MPU_RASR_ATTRS_Msk                 (0xFFFFUL << MPU_RASR_ATTRS_Pos)               /*!< MPU 
 572:../../dependencies/STM32CubeL0/Drivers/CMSIS/Include/core_cm0plus.h **** 
 573:../../dependencies/STM32CubeL0/Drivers/CMSIS/Include/core_cm0plus.h **** #define MPU_RASR_XN_Pos                    28U                                            /*!< MPU 
 574:../../dependencies/STM32CubeL0/Drivers/CMSIS/Include/core_cm0plus.h **** #define MPU_RASR_XN_Msk                    (1UL << MPU_RASR_XN_Pos)                       /*!< MPU 
 575:../../dependencies/STM32CubeL0/Drivers/CMSIS/Include/core_cm0plus.h **** 
 576:../../dependencies/STM32CubeL0/Drivers/CMSIS/Include/core_cm0plus.h **** #define MPU_RASR_AP_Pos                    24U                                            /*!< MPU 
 577:../../dependencies/STM32CubeL0/Drivers/CMSIS/Include/core_cm0plus.h **** #define MPU_RASR_AP_Msk                    (0x7UL << MPU_RASR_AP_Pos)                     /*!< MPU 
 578:../../dependencies/STM32CubeL0/Drivers/CMSIS/Include/core_cm0plus.h **** 
 579:../../dependencies/STM32CubeL0/Drivers/CMSIS/Include/core_cm0plus.h **** #define MPU_RASR_TEX_Pos                   19U                                            /*!< MPU 
 580:../../dependencies/STM32CubeL0/Drivers/CMSIS/Include/core_cm0plus.h **** #define MPU_RASR_TEX_Msk                   (0x7UL << MPU_RASR_TEX_Pos)                    /*!< MPU 
 581:../../dependencies/STM32CubeL0/Drivers/CMSIS/Include/core_cm0plus.h **** 
 582:../../dependencies/STM32CubeL0/Drivers/CMSIS/Include/core_cm0plus.h **** #define MPU_RASR_S_Pos                     18U                                            /*!< MPU 
 583:../../dependencies/STM32CubeL0/Drivers/CMSIS/Include/core_cm0plus.h **** #define MPU_RASR_S_Msk                     (1UL << MPU_RASR_S_Pos)                        /*!< MPU 
 584:../../dependencies/STM32CubeL0/Drivers/CMSIS/Include/core_cm0plus.h **** 
 585:../../dependencies/STM32CubeL0/Drivers/CMSIS/Include/core_cm0plus.h **** #define MPU_RASR_C_Pos                     17U                                            /*!< MPU 
 586:../../dependencies/STM32CubeL0/Drivers/CMSIS/Include/core_cm0plus.h **** #define MPU_RASR_C_Msk                     (1UL << MPU_RASR_C_Pos)                        /*!< MPU 
 587:../../dependencies/STM32CubeL0/Drivers/CMSIS/Include/core_cm0plus.h **** 
 588:../../dependencies/STM32CubeL0/Drivers/CMSIS/Include/core_cm0plus.h **** #define MPU_RASR_B_Pos                     16U                                            /*!< MPU 
 589:../../dependencies/STM32CubeL0/Drivers/CMSIS/Include/core_cm0plus.h **** #define MPU_RASR_B_Msk                     (1UL << MPU_RASR_B_Pos)                        /*!< MPU 
 590:../../dependencies/STM32CubeL0/Drivers/CMSIS/Include/core_cm0plus.h **** 
 591:../../dependencies/STM32CubeL0/Drivers/CMSIS/Include/core_cm0plus.h **** #define MPU_RASR_SRD_Pos                    8U                                            /*!< MPU 
 592:../../dependencies/STM32CubeL0/Drivers/CMSIS/Include/core_cm0plus.h **** #define MPU_RASR_SRD_Msk                   (0xFFUL << MPU_RASR_SRD_Pos)                   /*!< MPU 
 593:../../dependencies/STM32CubeL0/Drivers/CMSIS/Include/core_cm0plus.h **** 
 594:../../dependencies/STM32CubeL0/Drivers/CMSIS/Include/core_cm0plus.h **** #define MPU_RASR_SIZE_Pos                   1U                                            /*!< MPU 
 595:../../dependencies/STM32CubeL0/Drivers/CMSIS/Include/core_cm0plus.h **** #define MPU_RASR_SIZE_Msk                  (0x1FUL << MPU_RASR_SIZE_Pos)                  /*!< MPU 
 596:../../dependencies/STM32CubeL0/Drivers/CMSIS/Include/core_cm0plus.h **** 
 597:../../dependencies/STM32CubeL0/Drivers/CMSIS/Include/core_cm0plus.h **** #define MPU_RASR_ENABLE_Pos                 0U                                            /*!< MPU 
 598:../../dependencies/STM32CubeL0/Drivers/CMSIS/Include/core_cm0plus.h **** #define MPU_RASR_ENABLE_Msk                (1UL /*<< MPU_RASR_ENABLE_Pos*/)               /*!< MPU 
 599:../../dependencies/STM32CubeL0/Drivers/CMSIS/Include/core_cm0plus.h **** 
 600:../../dependencies/STM32CubeL0/Drivers/CMSIS/Include/core_cm0plus.h **** /*@} end of group CMSIS_MPU */
 601:../../dependencies/STM32CubeL0/Drivers/CMSIS/Include/core_cm0plus.h **** #endif
 602:../../dependencies/STM32CubeL0/Drivers/CMSIS/Include/core_cm0plus.h **** 
 603:../../dependencies/STM32CubeL0/Drivers/CMSIS/Include/core_cm0plus.h **** 
ARM GAS  /var/folders/fs/dxwfnrqj18z860lwl3d6f5t00000gn/T//ccbTeCNC.s 			page 12


 604:../../dependencies/STM32CubeL0/Drivers/CMSIS/Include/core_cm0plus.h **** /**
 605:../../dependencies/STM32CubeL0/Drivers/CMSIS/Include/core_cm0plus.h ****   \ingroup  CMSIS_core_register
 606:../../dependencies/STM32CubeL0/Drivers/CMSIS/Include/core_cm0plus.h ****   \defgroup CMSIS_CoreDebug       Core Debug Registers (CoreDebug)
 607:../../dependencies/STM32CubeL0/Drivers/CMSIS/Include/core_cm0plus.h ****   \brief    Cortex-M0+ Core Debug Registers (DCB registers, SHCSR, and DFSR) are only accessible ov
 608:../../dependencies/STM32CubeL0/Drivers/CMSIS/Include/core_cm0plus.h ****             Therefore they are not covered by the Cortex-M0+ header file.
 609:../../dependencies/STM32CubeL0/Drivers/CMSIS/Include/core_cm0plus.h ****   @{
 610:../../dependencies/STM32CubeL0/Drivers/CMSIS/Include/core_cm0plus.h ****  */
 611:../../dependencies/STM32CubeL0/Drivers/CMSIS/Include/core_cm0plus.h **** /*@} end of group CMSIS_CoreDebug */
 612:../../dependencies/STM32CubeL0/Drivers/CMSIS/Include/core_cm0plus.h **** 
 613:../../dependencies/STM32CubeL0/Drivers/CMSIS/Include/core_cm0plus.h **** 
 614:../../dependencies/STM32CubeL0/Drivers/CMSIS/Include/core_cm0plus.h **** /**
 615:../../dependencies/STM32CubeL0/Drivers/CMSIS/Include/core_cm0plus.h ****   \ingroup    CMSIS_core_register
 616:../../dependencies/STM32CubeL0/Drivers/CMSIS/Include/core_cm0plus.h ****   \defgroup   CMSIS_core_bitfield     Core register bit field macros
 617:../../dependencies/STM32CubeL0/Drivers/CMSIS/Include/core_cm0plus.h ****   \brief      Macros for use with bit field definitions (xxx_Pos, xxx_Msk).
 618:../../dependencies/STM32CubeL0/Drivers/CMSIS/Include/core_cm0plus.h ****   @{
 619:../../dependencies/STM32CubeL0/Drivers/CMSIS/Include/core_cm0plus.h ****  */
 620:../../dependencies/STM32CubeL0/Drivers/CMSIS/Include/core_cm0plus.h **** 
 621:../../dependencies/STM32CubeL0/Drivers/CMSIS/Include/core_cm0plus.h **** /**
 622:../../dependencies/STM32CubeL0/Drivers/CMSIS/Include/core_cm0plus.h ****   \brief   Mask and shift a bit field value for use in a register bit range.
 623:../../dependencies/STM32CubeL0/Drivers/CMSIS/Include/core_cm0plus.h ****   \param[in] field  Name of the register bit field.
 624:../../dependencies/STM32CubeL0/Drivers/CMSIS/Include/core_cm0plus.h ****   \param[in] value  Value of the bit field. This parameter is interpreted as an uint32_t type.
 625:../../dependencies/STM32CubeL0/Drivers/CMSIS/Include/core_cm0plus.h ****   \return           Masked and shifted value.
 626:../../dependencies/STM32CubeL0/Drivers/CMSIS/Include/core_cm0plus.h **** */
 627:../../dependencies/STM32CubeL0/Drivers/CMSIS/Include/core_cm0plus.h **** #define _VAL2FLD(field, value)    (((uint32_t)(value) << field ## _Pos) & field ## _Msk)
 628:../../dependencies/STM32CubeL0/Drivers/CMSIS/Include/core_cm0plus.h **** 
 629:../../dependencies/STM32CubeL0/Drivers/CMSIS/Include/core_cm0plus.h **** /**
 630:../../dependencies/STM32CubeL0/Drivers/CMSIS/Include/core_cm0plus.h ****   \brief     Mask and shift a register value to extract a bit filed value.
 631:../../dependencies/STM32CubeL0/Drivers/CMSIS/Include/core_cm0plus.h ****   \param[in] field  Name of the register bit field.
 632:../../dependencies/STM32CubeL0/Drivers/CMSIS/Include/core_cm0plus.h ****   \param[in] value  Value of register. This parameter is interpreted as an uint32_t type.
 633:../../dependencies/STM32CubeL0/Drivers/CMSIS/Include/core_cm0plus.h ****   \return           Masked and shifted bit field value.
 634:../../dependencies/STM32CubeL0/Drivers/CMSIS/Include/core_cm0plus.h **** */
 635:../../dependencies/STM32CubeL0/Drivers/CMSIS/Include/core_cm0plus.h **** #define _FLD2VAL(field, value)    (((uint32_t)(value) & field ## _Msk) >> field ## _Pos)
 636:../../dependencies/STM32CubeL0/Drivers/CMSIS/Include/core_cm0plus.h **** 
 637:../../dependencies/STM32CubeL0/Drivers/CMSIS/Include/core_cm0plus.h **** /*@} end of group CMSIS_core_bitfield */
 638:../../dependencies/STM32CubeL0/Drivers/CMSIS/Include/core_cm0plus.h **** 
 639:../../dependencies/STM32CubeL0/Drivers/CMSIS/Include/core_cm0plus.h **** 
 640:../../dependencies/STM32CubeL0/Drivers/CMSIS/Include/core_cm0plus.h **** /**
 641:../../dependencies/STM32CubeL0/Drivers/CMSIS/Include/core_cm0plus.h ****   \ingroup    CMSIS_core_register
 642:../../dependencies/STM32CubeL0/Drivers/CMSIS/Include/core_cm0plus.h ****   \defgroup   CMSIS_core_base     Core Definitions
 643:../../dependencies/STM32CubeL0/Drivers/CMSIS/Include/core_cm0plus.h ****   \brief      Definitions for base addresses, unions, and structures.
 644:../../dependencies/STM32CubeL0/Drivers/CMSIS/Include/core_cm0plus.h ****   @{
 645:../../dependencies/STM32CubeL0/Drivers/CMSIS/Include/core_cm0plus.h ****  */
 646:../../dependencies/STM32CubeL0/Drivers/CMSIS/Include/core_cm0plus.h **** 
 647:../../dependencies/STM32CubeL0/Drivers/CMSIS/Include/core_cm0plus.h **** /* Memory mapping of Core Hardware */
 648:../../dependencies/STM32CubeL0/Drivers/CMSIS/Include/core_cm0plus.h **** #define SCS_BASE            (0xE000E000UL)                            /*!< System Control Space Bas
 649:../../dependencies/STM32CubeL0/Drivers/CMSIS/Include/core_cm0plus.h **** #define SysTick_BASE        (SCS_BASE +  0x0010UL)                    /*!< SysTick Base Address */
 650:../../dependencies/STM32CubeL0/Drivers/CMSIS/Include/core_cm0plus.h **** #define NVIC_BASE           (SCS_BASE +  0x0100UL)                    /*!< NVIC Base Address */
 651:../../dependencies/STM32CubeL0/Drivers/CMSIS/Include/core_cm0plus.h **** #define SCB_BASE            (SCS_BASE +  0x0D00UL)                    /*!< System Control Block Bas
 652:../../dependencies/STM32CubeL0/Drivers/CMSIS/Include/core_cm0plus.h **** 
 653:../../dependencies/STM32CubeL0/Drivers/CMSIS/Include/core_cm0plus.h **** #define SCB                 ((SCB_Type       *)     SCB_BASE      )   /*!< SCB configuration struct
 654:../../dependencies/STM32CubeL0/Drivers/CMSIS/Include/core_cm0plus.h **** #define SysTick             ((SysTick_Type   *)     SysTick_BASE  )   /*!< SysTick configuration st
 655:../../dependencies/STM32CubeL0/Drivers/CMSIS/Include/core_cm0plus.h **** #define NVIC                ((NVIC_Type      *)     NVIC_BASE     )   /*!< NVIC configuration struc
 656:../../dependencies/STM32CubeL0/Drivers/CMSIS/Include/core_cm0plus.h **** 
 657:../../dependencies/STM32CubeL0/Drivers/CMSIS/Include/core_cm0plus.h **** #if defined (__MPU_PRESENT) && (__MPU_PRESENT == 1U)
 658:../../dependencies/STM32CubeL0/Drivers/CMSIS/Include/core_cm0plus.h ****   #define MPU_BASE          (SCS_BASE +  0x0D90UL)                    /*!< Memory Protection Unit *
 659:../../dependencies/STM32CubeL0/Drivers/CMSIS/Include/core_cm0plus.h ****   #define MPU               ((MPU_Type       *)     MPU_BASE      )   /*!< Memory Protection Unit *
 660:../../dependencies/STM32CubeL0/Drivers/CMSIS/Include/core_cm0plus.h **** #endif
ARM GAS  /var/folders/fs/dxwfnrqj18z860lwl3d6f5t00000gn/T//ccbTeCNC.s 			page 13


 661:../../dependencies/STM32CubeL0/Drivers/CMSIS/Include/core_cm0plus.h **** 
 662:../../dependencies/STM32CubeL0/Drivers/CMSIS/Include/core_cm0plus.h **** /*@} */
 663:../../dependencies/STM32CubeL0/Drivers/CMSIS/Include/core_cm0plus.h **** 
 664:../../dependencies/STM32CubeL0/Drivers/CMSIS/Include/core_cm0plus.h **** 
 665:../../dependencies/STM32CubeL0/Drivers/CMSIS/Include/core_cm0plus.h **** 
 666:../../dependencies/STM32CubeL0/Drivers/CMSIS/Include/core_cm0plus.h **** /*******************************************************************************
 667:../../dependencies/STM32CubeL0/Drivers/CMSIS/Include/core_cm0plus.h ****  *                Hardware Abstraction Layer
 668:../../dependencies/STM32CubeL0/Drivers/CMSIS/Include/core_cm0plus.h ****   Core Function Interface contains:
 669:../../dependencies/STM32CubeL0/Drivers/CMSIS/Include/core_cm0plus.h ****   - Core NVIC Functions
 670:../../dependencies/STM32CubeL0/Drivers/CMSIS/Include/core_cm0plus.h ****   - Core SysTick Functions
 671:../../dependencies/STM32CubeL0/Drivers/CMSIS/Include/core_cm0plus.h ****   - Core Register Access Functions
 672:../../dependencies/STM32CubeL0/Drivers/CMSIS/Include/core_cm0plus.h ****  ******************************************************************************/
 673:../../dependencies/STM32CubeL0/Drivers/CMSIS/Include/core_cm0plus.h **** /**
 674:../../dependencies/STM32CubeL0/Drivers/CMSIS/Include/core_cm0plus.h ****   \defgroup CMSIS_Core_FunctionInterface Functions and Instructions Reference
 675:../../dependencies/STM32CubeL0/Drivers/CMSIS/Include/core_cm0plus.h **** */
 676:../../dependencies/STM32CubeL0/Drivers/CMSIS/Include/core_cm0plus.h **** 
 677:../../dependencies/STM32CubeL0/Drivers/CMSIS/Include/core_cm0plus.h **** 
 678:../../dependencies/STM32CubeL0/Drivers/CMSIS/Include/core_cm0plus.h **** 
 679:../../dependencies/STM32CubeL0/Drivers/CMSIS/Include/core_cm0plus.h **** /* ##########################   NVIC functions  #################################### */
 680:../../dependencies/STM32CubeL0/Drivers/CMSIS/Include/core_cm0plus.h **** /**
 681:../../dependencies/STM32CubeL0/Drivers/CMSIS/Include/core_cm0plus.h ****   \ingroup  CMSIS_Core_FunctionInterface
 682:../../dependencies/STM32CubeL0/Drivers/CMSIS/Include/core_cm0plus.h ****   \defgroup CMSIS_Core_NVICFunctions NVIC Functions
 683:../../dependencies/STM32CubeL0/Drivers/CMSIS/Include/core_cm0plus.h ****   \brief    Functions that manage interrupts and exceptions via the NVIC.
 684:../../dependencies/STM32CubeL0/Drivers/CMSIS/Include/core_cm0plus.h ****   @{
 685:../../dependencies/STM32CubeL0/Drivers/CMSIS/Include/core_cm0plus.h ****  */
 686:../../dependencies/STM32CubeL0/Drivers/CMSIS/Include/core_cm0plus.h **** 
 687:../../dependencies/STM32CubeL0/Drivers/CMSIS/Include/core_cm0plus.h **** #ifdef CMSIS_NVIC_VIRTUAL
 688:../../dependencies/STM32CubeL0/Drivers/CMSIS/Include/core_cm0plus.h ****   #ifndef CMSIS_NVIC_VIRTUAL_HEADER_FILE
 689:../../dependencies/STM32CubeL0/Drivers/CMSIS/Include/core_cm0plus.h ****     #define CMSIS_NVIC_VIRTUAL_HEADER_FILE "cmsis_nvic_virtual.h"
 690:../../dependencies/STM32CubeL0/Drivers/CMSIS/Include/core_cm0plus.h ****   #endif
 691:../../dependencies/STM32CubeL0/Drivers/CMSIS/Include/core_cm0plus.h ****   #include CMSIS_NVIC_VIRTUAL_HEADER_FILE
 692:../../dependencies/STM32CubeL0/Drivers/CMSIS/Include/core_cm0plus.h **** #else
 693:../../dependencies/STM32CubeL0/Drivers/CMSIS/Include/core_cm0plus.h ****   #define NVIC_SetPriorityGrouping    __NVIC_SetPriorityGrouping
 694:../../dependencies/STM32CubeL0/Drivers/CMSIS/Include/core_cm0plus.h ****   #define NVIC_GetPriorityGrouping    __NVIC_GetPriorityGrouping
 695:../../dependencies/STM32CubeL0/Drivers/CMSIS/Include/core_cm0plus.h ****   #define NVIC_EnableIRQ              __NVIC_EnableIRQ
 696:../../dependencies/STM32CubeL0/Drivers/CMSIS/Include/core_cm0plus.h ****   #define NVIC_GetEnableIRQ           __NVIC_GetEnableIRQ
 697:../../dependencies/STM32CubeL0/Drivers/CMSIS/Include/core_cm0plus.h ****   #define NVIC_DisableIRQ             __NVIC_DisableIRQ
 698:../../dependencies/STM32CubeL0/Drivers/CMSIS/Include/core_cm0plus.h ****   #define NVIC_GetPendingIRQ          __NVIC_GetPendingIRQ
 699:../../dependencies/STM32CubeL0/Drivers/CMSIS/Include/core_cm0plus.h ****   #define NVIC_SetPendingIRQ          __NVIC_SetPendingIRQ
 700:../../dependencies/STM32CubeL0/Drivers/CMSIS/Include/core_cm0plus.h ****   #define NVIC_ClearPendingIRQ        __NVIC_ClearPendingIRQ
 701:../../dependencies/STM32CubeL0/Drivers/CMSIS/Include/core_cm0plus.h **** /*#define NVIC_GetActive              __NVIC_GetActive             not available for Cortex-M0+ */
 702:../../dependencies/STM32CubeL0/Drivers/CMSIS/Include/core_cm0plus.h ****   #define NVIC_SetPriority            __NVIC_SetPriority
 703:../../dependencies/STM32CubeL0/Drivers/CMSIS/Include/core_cm0plus.h ****   #define NVIC_GetPriority            __NVIC_GetPriority
 704:../../dependencies/STM32CubeL0/Drivers/CMSIS/Include/core_cm0plus.h ****   #define NVIC_SystemReset            __NVIC_SystemReset
 705:../../dependencies/STM32CubeL0/Drivers/CMSIS/Include/core_cm0plus.h **** #endif /* CMSIS_NVIC_VIRTUAL */
 706:../../dependencies/STM32CubeL0/Drivers/CMSIS/Include/core_cm0plus.h **** 
 707:../../dependencies/STM32CubeL0/Drivers/CMSIS/Include/core_cm0plus.h **** #ifdef CMSIS_VECTAB_VIRTUAL
 708:../../dependencies/STM32CubeL0/Drivers/CMSIS/Include/core_cm0plus.h ****   #ifndef CMSIS_VECTAB_VIRTUAL_HEADER_FILE
 709:../../dependencies/STM32CubeL0/Drivers/CMSIS/Include/core_cm0plus.h ****     #define CMSIS_VECTAB_VIRTUAL_HEADER_FILE "cmsis_vectab_virtual.h"
 710:../../dependencies/STM32CubeL0/Drivers/CMSIS/Include/core_cm0plus.h ****   #endif
 711:../../dependencies/STM32CubeL0/Drivers/CMSIS/Include/core_cm0plus.h ****   #include CMSIS_VECTAB_VIRTUAL_HEADER_FILE
 712:../../dependencies/STM32CubeL0/Drivers/CMSIS/Include/core_cm0plus.h **** #else
 713:../../dependencies/STM32CubeL0/Drivers/CMSIS/Include/core_cm0plus.h ****   #define NVIC_SetVector              __NVIC_SetVector
 714:../../dependencies/STM32CubeL0/Drivers/CMSIS/Include/core_cm0plus.h ****   #define NVIC_GetVector              __NVIC_GetVector
 715:../../dependencies/STM32CubeL0/Drivers/CMSIS/Include/core_cm0plus.h **** #endif  /* (CMSIS_VECTAB_VIRTUAL) */
 716:../../dependencies/STM32CubeL0/Drivers/CMSIS/Include/core_cm0plus.h **** 
 717:../../dependencies/STM32CubeL0/Drivers/CMSIS/Include/core_cm0plus.h **** #define NVIC_USER_IRQ_OFFSET          16
ARM GAS  /var/folders/fs/dxwfnrqj18z860lwl3d6f5t00000gn/T//ccbTeCNC.s 			page 14


 718:../../dependencies/STM32CubeL0/Drivers/CMSIS/Include/core_cm0plus.h **** 
 719:../../dependencies/STM32CubeL0/Drivers/CMSIS/Include/core_cm0plus.h **** 
 720:../../dependencies/STM32CubeL0/Drivers/CMSIS/Include/core_cm0plus.h **** /* The following EXC_RETURN values are saved the LR on exception entry */
 721:../../dependencies/STM32CubeL0/Drivers/CMSIS/Include/core_cm0plus.h **** #define EXC_RETURN_HANDLER         (0xFFFFFFF1UL)     /* return to Handler mode, uses MSP after ret
 722:../../dependencies/STM32CubeL0/Drivers/CMSIS/Include/core_cm0plus.h **** #define EXC_RETURN_THREAD_MSP      (0xFFFFFFF9UL)     /* return to Thread mode, uses MSP after retu
 723:../../dependencies/STM32CubeL0/Drivers/CMSIS/Include/core_cm0plus.h **** #define EXC_RETURN_THREAD_PSP      (0xFFFFFFFDUL)     /* return to Thread mode, uses PSP after retu
 724:../../dependencies/STM32CubeL0/Drivers/CMSIS/Include/core_cm0plus.h **** 
 725:../../dependencies/STM32CubeL0/Drivers/CMSIS/Include/core_cm0plus.h **** 
 726:../../dependencies/STM32CubeL0/Drivers/CMSIS/Include/core_cm0plus.h **** /* Interrupt Priorities are WORD accessible only under Armv6-M                  */
 727:../../dependencies/STM32CubeL0/Drivers/CMSIS/Include/core_cm0plus.h **** /* The following MACROS handle generation of the register offset and byte masks */
 728:../../dependencies/STM32CubeL0/Drivers/CMSIS/Include/core_cm0plus.h **** #define _BIT_SHIFT(IRQn)         (  ((((uint32_t)(int32_t)(IRQn))         )      &  0x03UL) * 8UL)
 729:../../dependencies/STM32CubeL0/Drivers/CMSIS/Include/core_cm0plus.h **** #define _SHP_IDX(IRQn)           ( (((((uint32_t)(int32_t)(IRQn)) & 0x0FUL)-8UL) >>    2UL)      )
 730:../../dependencies/STM32CubeL0/Drivers/CMSIS/Include/core_cm0plus.h **** #define _IP_IDX(IRQn)            (   (((uint32_t)(int32_t)(IRQn))                >>    2UL)      )
 731:../../dependencies/STM32CubeL0/Drivers/CMSIS/Include/core_cm0plus.h **** 
 732:../../dependencies/STM32CubeL0/Drivers/CMSIS/Include/core_cm0plus.h **** #define __NVIC_SetPriorityGrouping(X) (void)(X)
 733:../../dependencies/STM32CubeL0/Drivers/CMSIS/Include/core_cm0plus.h **** #define __NVIC_GetPriorityGrouping()  (0U)
 734:../../dependencies/STM32CubeL0/Drivers/CMSIS/Include/core_cm0plus.h **** 
 735:../../dependencies/STM32CubeL0/Drivers/CMSIS/Include/core_cm0plus.h **** /**
 736:../../dependencies/STM32CubeL0/Drivers/CMSIS/Include/core_cm0plus.h ****   \brief   Enable Interrupt
 737:../../dependencies/STM32CubeL0/Drivers/CMSIS/Include/core_cm0plus.h ****   \details Enables a device specific interrupt in the NVIC interrupt controller.
 738:../../dependencies/STM32CubeL0/Drivers/CMSIS/Include/core_cm0plus.h ****   \param [in]      IRQn  Device specific interrupt number.
 739:../../dependencies/STM32CubeL0/Drivers/CMSIS/Include/core_cm0plus.h ****   \note    IRQn must not be negative.
 740:../../dependencies/STM32CubeL0/Drivers/CMSIS/Include/core_cm0plus.h ****  */
 741:../../dependencies/STM32CubeL0/Drivers/CMSIS/Include/core_cm0plus.h **** __STATIC_INLINE void __NVIC_EnableIRQ(IRQn_Type IRQn)
 742:../../dependencies/STM32CubeL0/Drivers/CMSIS/Include/core_cm0plus.h **** {
  26              		.loc 1 742 1
  27              		.cfi_startproc
  28              		@ args = 0, pretend = 0, frame = 8
  29              		@ frame_needed = 1, uses_anonymous_args = 0
  30 0000 80B5     		push	{r7, lr}
  31              		.cfi_def_cfa_offset 8
  32              		.cfi_offset 7, -8
  33              		.cfi_offset 14, -4
  34 0002 82B0     		sub	sp, sp, #8
  35              		.cfi_def_cfa_offset 16
  36 0004 00AF     		add	r7, sp, #0
  37              		.cfi_def_cfa_register 7
  38 0006 0200     		movs	r2, r0
  39 0008 FB1D     		adds	r3, r7, #7
  40 000a 1A70     		strb	r2, [r3]
 743:../../dependencies/STM32CubeL0/Drivers/CMSIS/Include/core_cm0plus.h ****   if ((int32_t)(IRQn) >= 0)
  41              		.loc 1 743 6
  42 000c FB1D     		adds	r3, r7, #7
  43 000e 1B78     		ldrb	r3, [r3]
  44 0010 7F2B     		cmp	r3, #127
  45 0012 09D8     		bhi	.L3
 744:../../dependencies/STM32CubeL0/Drivers/CMSIS/Include/core_cm0plus.h ****   {
 745:../../dependencies/STM32CubeL0/Drivers/CMSIS/Include/core_cm0plus.h ****     NVIC->ISER[0U] = (uint32_t)(1UL << (((uint32_t)IRQn) & 0x1FUL));
  46              		.loc 1 745 58
  47 0014 FB1D     		adds	r3, r7, #7
  48 0016 1B78     		ldrb	r3, [r3]
  49 0018 1A00     		movs	r2, r3
  50 001a 1F23     		movs	r3, #31
  51 001c 1A40     		ands	r2, r3
  52              		.loc 1 745 9
  53 001e 044B     		ldr	r3, .L4
  54              		.loc 1 745 22
ARM GAS  /var/folders/fs/dxwfnrqj18z860lwl3d6f5t00000gn/T//ccbTeCNC.s 			page 15


  55 0020 0121     		movs	r1, #1
  56 0022 9140     		lsls	r1, r1, r2
  57 0024 0A00     		movs	r2, r1
  58              		.loc 1 745 20
  59 0026 1A60     		str	r2, [r3]
  60              	.L3:
 746:../../dependencies/STM32CubeL0/Drivers/CMSIS/Include/core_cm0plus.h ****   }
 747:../../dependencies/STM32CubeL0/Drivers/CMSIS/Include/core_cm0plus.h **** }
  61              		.loc 1 747 1
  62 0028 C046     		nop
  63 002a BD46     		mov	sp, r7
  64 002c 02B0     		add	sp, sp, #8
  65              		@ sp needed
  66 002e 80BD     		pop	{r7, pc}
  67              	.L5:
  68              		.align	2
  69              	.L4:
  70 0030 00E100E0 		.word	-536813312
  71              		.cfi_endproc
  72              	.LFE25:
  74              		.section	.text.__NVIC_SetPriority,"ax",%progbits
  75              		.align	1
  76              		.syntax unified
  77              		.code	16
  78              		.thumb_func
  79              		.fpu softvfp
  81              	__NVIC_SetPriority:
  82              	.LFB31:
 748:../../dependencies/STM32CubeL0/Drivers/CMSIS/Include/core_cm0plus.h **** 
 749:../../dependencies/STM32CubeL0/Drivers/CMSIS/Include/core_cm0plus.h **** 
 750:../../dependencies/STM32CubeL0/Drivers/CMSIS/Include/core_cm0plus.h **** /**
 751:../../dependencies/STM32CubeL0/Drivers/CMSIS/Include/core_cm0plus.h ****   \brief   Get Interrupt Enable status
 752:../../dependencies/STM32CubeL0/Drivers/CMSIS/Include/core_cm0plus.h ****   \details Returns a device specific interrupt enable status from the NVIC interrupt controller.
 753:../../dependencies/STM32CubeL0/Drivers/CMSIS/Include/core_cm0plus.h ****   \param [in]      IRQn  Device specific interrupt number.
 754:../../dependencies/STM32CubeL0/Drivers/CMSIS/Include/core_cm0plus.h ****   \return             0  Interrupt is not enabled.
 755:../../dependencies/STM32CubeL0/Drivers/CMSIS/Include/core_cm0plus.h ****   \return             1  Interrupt is enabled.
 756:../../dependencies/STM32CubeL0/Drivers/CMSIS/Include/core_cm0plus.h ****   \note    IRQn must not be negative.
 757:../../dependencies/STM32CubeL0/Drivers/CMSIS/Include/core_cm0plus.h ****  */
 758:../../dependencies/STM32CubeL0/Drivers/CMSIS/Include/core_cm0plus.h **** __STATIC_INLINE uint32_t __NVIC_GetEnableIRQ(IRQn_Type IRQn)
 759:../../dependencies/STM32CubeL0/Drivers/CMSIS/Include/core_cm0plus.h **** {
 760:../../dependencies/STM32CubeL0/Drivers/CMSIS/Include/core_cm0plus.h ****   if ((int32_t)(IRQn) >= 0)
 761:../../dependencies/STM32CubeL0/Drivers/CMSIS/Include/core_cm0plus.h ****   {
 762:../../dependencies/STM32CubeL0/Drivers/CMSIS/Include/core_cm0plus.h ****     return((uint32_t)(((NVIC->ISER[0U] & (1UL << (((uint32_t)IRQn) & 0x1FUL))) != 0UL) ? 1UL : 0UL)
 763:../../dependencies/STM32CubeL0/Drivers/CMSIS/Include/core_cm0plus.h ****   }
 764:../../dependencies/STM32CubeL0/Drivers/CMSIS/Include/core_cm0plus.h ****   else
 765:../../dependencies/STM32CubeL0/Drivers/CMSIS/Include/core_cm0plus.h ****   {
 766:../../dependencies/STM32CubeL0/Drivers/CMSIS/Include/core_cm0plus.h ****     return(0U);
 767:../../dependencies/STM32CubeL0/Drivers/CMSIS/Include/core_cm0plus.h ****   }
 768:../../dependencies/STM32CubeL0/Drivers/CMSIS/Include/core_cm0plus.h **** }
 769:../../dependencies/STM32CubeL0/Drivers/CMSIS/Include/core_cm0plus.h **** 
 770:../../dependencies/STM32CubeL0/Drivers/CMSIS/Include/core_cm0plus.h **** 
 771:../../dependencies/STM32CubeL0/Drivers/CMSIS/Include/core_cm0plus.h **** /**
 772:../../dependencies/STM32CubeL0/Drivers/CMSIS/Include/core_cm0plus.h ****   \brief   Disable Interrupt
 773:../../dependencies/STM32CubeL0/Drivers/CMSIS/Include/core_cm0plus.h ****   \details Disables a device specific interrupt in the NVIC interrupt controller.
 774:../../dependencies/STM32CubeL0/Drivers/CMSIS/Include/core_cm0plus.h ****   \param [in]      IRQn  Device specific interrupt number.
 775:../../dependencies/STM32CubeL0/Drivers/CMSIS/Include/core_cm0plus.h ****   \note    IRQn must not be negative.
 776:../../dependencies/STM32CubeL0/Drivers/CMSIS/Include/core_cm0plus.h ****  */
ARM GAS  /var/folders/fs/dxwfnrqj18z860lwl3d6f5t00000gn/T//ccbTeCNC.s 			page 16


 777:../../dependencies/STM32CubeL0/Drivers/CMSIS/Include/core_cm0plus.h **** __STATIC_INLINE void __NVIC_DisableIRQ(IRQn_Type IRQn)
 778:../../dependencies/STM32CubeL0/Drivers/CMSIS/Include/core_cm0plus.h **** {
 779:../../dependencies/STM32CubeL0/Drivers/CMSIS/Include/core_cm0plus.h ****   if ((int32_t)(IRQn) >= 0)
 780:../../dependencies/STM32CubeL0/Drivers/CMSIS/Include/core_cm0plus.h ****   {
 781:../../dependencies/STM32CubeL0/Drivers/CMSIS/Include/core_cm0plus.h ****     NVIC->ICER[0U] = (uint32_t)(1UL << (((uint32_t)IRQn) & 0x1FUL));
 782:../../dependencies/STM32CubeL0/Drivers/CMSIS/Include/core_cm0plus.h ****     __DSB();
 783:../../dependencies/STM32CubeL0/Drivers/CMSIS/Include/core_cm0plus.h ****     __ISB();
 784:../../dependencies/STM32CubeL0/Drivers/CMSIS/Include/core_cm0plus.h ****   }
 785:../../dependencies/STM32CubeL0/Drivers/CMSIS/Include/core_cm0plus.h **** }
 786:../../dependencies/STM32CubeL0/Drivers/CMSIS/Include/core_cm0plus.h **** 
 787:../../dependencies/STM32CubeL0/Drivers/CMSIS/Include/core_cm0plus.h **** 
 788:../../dependencies/STM32CubeL0/Drivers/CMSIS/Include/core_cm0plus.h **** /**
 789:../../dependencies/STM32CubeL0/Drivers/CMSIS/Include/core_cm0plus.h ****   \brief   Get Pending Interrupt
 790:../../dependencies/STM32CubeL0/Drivers/CMSIS/Include/core_cm0plus.h ****   \details Reads the NVIC pending register and returns the pending bit for the specified device spe
 791:../../dependencies/STM32CubeL0/Drivers/CMSIS/Include/core_cm0plus.h ****   \param [in]      IRQn  Device specific interrupt number.
 792:../../dependencies/STM32CubeL0/Drivers/CMSIS/Include/core_cm0plus.h ****   \return             0  Interrupt status is not pending.
 793:../../dependencies/STM32CubeL0/Drivers/CMSIS/Include/core_cm0plus.h ****   \return             1  Interrupt status is pending.
 794:../../dependencies/STM32CubeL0/Drivers/CMSIS/Include/core_cm0plus.h ****   \note    IRQn must not be negative.
 795:../../dependencies/STM32CubeL0/Drivers/CMSIS/Include/core_cm0plus.h ****  */
 796:../../dependencies/STM32CubeL0/Drivers/CMSIS/Include/core_cm0plus.h **** __STATIC_INLINE uint32_t __NVIC_GetPendingIRQ(IRQn_Type IRQn)
 797:../../dependencies/STM32CubeL0/Drivers/CMSIS/Include/core_cm0plus.h **** {
 798:../../dependencies/STM32CubeL0/Drivers/CMSIS/Include/core_cm0plus.h ****   if ((int32_t)(IRQn) >= 0)
 799:../../dependencies/STM32CubeL0/Drivers/CMSIS/Include/core_cm0plus.h ****   {
 800:../../dependencies/STM32CubeL0/Drivers/CMSIS/Include/core_cm0plus.h ****     return((uint32_t)(((NVIC->ISPR[0U] & (1UL << (((uint32_t)IRQn) & 0x1FUL))) != 0UL) ? 1UL : 0UL)
 801:../../dependencies/STM32CubeL0/Drivers/CMSIS/Include/core_cm0plus.h ****   }
 802:../../dependencies/STM32CubeL0/Drivers/CMSIS/Include/core_cm0plus.h ****   else
 803:../../dependencies/STM32CubeL0/Drivers/CMSIS/Include/core_cm0plus.h ****   {
 804:../../dependencies/STM32CubeL0/Drivers/CMSIS/Include/core_cm0plus.h ****     return(0U);
 805:../../dependencies/STM32CubeL0/Drivers/CMSIS/Include/core_cm0plus.h ****   }
 806:../../dependencies/STM32CubeL0/Drivers/CMSIS/Include/core_cm0plus.h **** }
 807:../../dependencies/STM32CubeL0/Drivers/CMSIS/Include/core_cm0plus.h **** 
 808:../../dependencies/STM32CubeL0/Drivers/CMSIS/Include/core_cm0plus.h **** 
 809:../../dependencies/STM32CubeL0/Drivers/CMSIS/Include/core_cm0plus.h **** /**
 810:../../dependencies/STM32CubeL0/Drivers/CMSIS/Include/core_cm0plus.h ****   \brief   Set Pending Interrupt
 811:../../dependencies/STM32CubeL0/Drivers/CMSIS/Include/core_cm0plus.h ****   \details Sets the pending bit of a device specific interrupt in the NVIC pending register.
 812:../../dependencies/STM32CubeL0/Drivers/CMSIS/Include/core_cm0plus.h ****   \param [in]      IRQn  Device specific interrupt number.
 813:../../dependencies/STM32CubeL0/Drivers/CMSIS/Include/core_cm0plus.h ****   \note    IRQn must not be negative.
 814:../../dependencies/STM32CubeL0/Drivers/CMSIS/Include/core_cm0plus.h ****  */
 815:../../dependencies/STM32CubeL0/Drivers/CMSIS/Include/core_cm0plus.h **** __STATIC_INLINE void __NVIC_SetPendingIRQ(IRQn_Type IRQn)
 816:../../dependencies/STM32CubeL0/Drivers/CMSIS/Include/core_cm0plus.h **** {
 817:../../dependencies/STM32CubeL0/Drivers/CMSIS/Include/core_cm0plus.h ****   if ((int32_t)(IRQn) >= 0)
 818:../../dependencies/STM32CubeL0/Drivers/CMSIS/Include/core_cm0plus.h ****   {
 819:../../dependencies/STM32CubeL0/Drivers/CMSIS/Include/core_cm0plus.h ****     NVIC->ISPR[0U] = (uint32_t)(1UL << (((uint32_t)IRQn) & 0x1FUL));
 820:../../dependencies/STM32CubeL0/Drivers/CMSIS/Include/core_cm0plus.h ****   }
 821:../../dependencies/STM32CubeL0/Drivers/CMSIS/Include/core_cm0plus.h **** }
 822:../../dependencies/STM32CubeL0/Drivers/CMSIS/Include/core_cm0plus.h **** 
 823:../../dependencies/STM32CubeL0/Drivers/CMSIS/Include/core_cm0plus.h **** 
 824:../../dependencies/STM32CubeL0/Drivers/CMSIS/Include/core_cm0plus.h **** /**
 825:../../dependencies/STM32CubeL0/Drivers/CMSIS/Include/core_cm0plus.h ****   \brief   Clear Pending Interrupt
 826:../../dependencies/STM32CubeL0/Drivers/CMSIS/Include/core_cm0plus.h ****   \details Clears the pending bit of a device specific interrupt in the NVIC pending register.
 827:../../dependencies/STM32CubeL0/Drivers/CMSIS/Include/core_cm0plus.h ****   \param [in]      IRQn  Device specific interrupt number.
 828:../../dependencies/STM32CubeL0/Drivers/CMSIS/Include/core_cm0plus.h ****   \note    IRQn must not be negative.
 829:../../dependencies/STM32CubeL0/Drivers/CMSIS/Include/core_cm0plus.h ****  */
 830:../../dependencies/STM32CubeL0/Drivers/CMSIS/Include/core_cm0plus.h **** __STATIC_INLINE void __NVIC_ClearPendingIRQ(IRQn_Type IRQn)
 831:../../dependencies/STM32CubeL0/Drivers/CMSIS/Include/core_cm0plus.h **** {
 832:../../dependencies/STM32CubeL0/Drivers/CMSIS/Include/core_cm0plus.h ****   if ((int32_t)(IRQn) >= 0)
 833:../../dependencies/STM32CubeL0/Drivers/CMSIS/Include/core_cm0plus.h ****   {
ARM GAS  /var/folders/fs/dxwfnrqj18z860lwl3d6f5t00000gn/T//ccbTeCNC.s 			page 17


 834:../../dependencies/STM32CubeL0/Drivers/CMSIS/Include/core_cm0plus.h ****     NVIC->ICPR[0U] = (uint32_t)(1UL << (((uint32_t)IRQn) & 0x1FUL));
 835:../../dependencies/STM32CubeL0/Drivers/CMSIS/Include/core_cm0plus.h ****   }
 836:../../dependencies/STM32CubeL0/Drivers/CMSIS/Include/core_cm0plus.h **** }
 837:../../dependencies/STM32CubeL0/Drivers/CMSIS/Include/core_cm0plus.h **** 
 838:../../dependencies/STM32CubeL0/Drivers/CMSIS/Include/core_cm0plus.h **** 
 839:../../dependencies/STM32CubeL0/Drivers/CMSIS/Include/core_cm0plus.h **** /**
 840:../../dependencies/STM32CubeL0/Drivers/CMSIS/Include/core_cm0plus.h ****   \brief   Set Interrupt Priority
 841:../../dependencies/STM32CubeL0/Drivers/CMSIS/Include/core_cm0plus.h ****   \details Sets the priority of a device specific interrupt or a processor exception.
 842:../../dependencies/STM32CubeL0/Drivers/CMSIS/Include/core_cm0plus.h ****            The interrupt number can be positive to specify a device specific interrupt,
 843:../../dependencies/STM32CubeL0/Drivers/CMSIS/Include/core_cm0plus.h ****            or negative to specify a processor exception.
 844:../../dependencies/STM32CubeL0/Drivers/CMSIS/Include/core_cm0plus.h ****   \param [in]      IRQn  Interrupt number.
 845:../../dependencies/STM32CubeL0/Drivers/CMSIS/Include/core_cm0plus.h ****   \param [in]  priority  Priority to set.
 846:../../dependencies/STM32CubeL0/Drivers/CMSIS/Include/core_cm0plus.h ****   \note    The priority cannot be set for every processor exception.
 847:../../dependencies/STM32CubeL0/Drivers/CMSIS/Include/core_cm0plus.h ****  */
 848:../../dependencies/STM32CubeL0/Drivers/CMSIS/Include/core_cm0plus.h **** __STATIC_INLINE void __NVIC_SetPriority(IRQn_Type IRQn, uint32_t priority)
 849:../../dependencies/STM32CubeL0/Drivers/CMSIS/Include/core_cm0plus.h **** {
  83              		.loc 1 849 1
  84              		.cfi_startproc
  85              		@ args = 0, pretend = 0, frame = 8
  86              		@ frame_needed = 1, uses_anonymous_args = 0
  87 0000 90B5     		push	{r4, r7, lr}
  88              		.cfi_def_cfa_offset 12
  89              		.cfi_offset 4, -12
  90              		.cfi_offset 7, -8
  91              		.cfi_offset 14, -4
  92 0002 83B0     		sub	sp, sp, #12
  93              		.cfi_def_cfa_offset 24
  94 0004 00AF     		add	r7, sp, #0
  95              		.cfi_def_cfa_register 7
  96 0006 0200     		movs	r2, r0
  97 0008 3960     		str	r1, [r7]
  98 000a FB1D     		adds	r3, r7, #7
  99 000c 1A70     		strb	r2, [r3]
 850:../../dependencies/STM32CubeL0/Drivers/CMSIS/Include/core_cm0plus.h ****   if ((int32_t)(IRQn) >= 0)
 100              		.loc 1 850 6
 101 000e FB1D     		adds	r3, r7, #7
 102 0010 1B78     		ldrb	r3, [r3]
 103 0012 7F2B     		cmp	r3, #127
 104 0014 28D8     		bhi	.L7
 851:../../dependencies/STM32CubeL0/Drivers/CMSIS/Include/core_cm0plus.h ****   {
 852:../../dependencies/STM32CubeL0/Drivers/CMSIS/Include/core_cm0plus.h ****     NVIC->IP[_IP_IDX(IRQn)]  = ((uint32_t)(NVIC->IP[_IP_IDX(IRQn)]  & ~(0xFFUL << _BIT_SHIFT(IRQn))
 105              		.loc 1 852 48
 106 0016 2F4A     		ldr	r2, .L10
 107              		.loc 1 852 53
 108 0018 FB1D     		adds	r3, r7, #7
 109 001a 1B78     		ldrb	r3, [r3]
 110 001c 5BB2     		sxtb	r3, r3
 111 001e 9B08     		lsrs	r3, r3, #2
 112              		.loc 1 852 52
 113 0020 C033     		adds	r3, r3, #192
 114 0022 9B00     		lsls	r3, r3, #2
 115 0024 9B58     		ldr	r3, [r3, r2]
 116              		.loc 1 852 83
 117 0026 FA1D     		adds	r2, r7, #7
 118 0028 1278     		ldrb	r2, [r2]
 119 002a 1100     		movs	r1, r2
 120 002c 0322     		movs	r2, #3
ARM GAS  /var/folders/fs/dxwfnrqj18z860lwl3d6f5t00000gn/T//ccbTeCNC.s 			page 18


 121 002e 0A40     		ands	r2, r1
 122 0030 D200     		lsls	r2, r2, #3
 123              		.loc 1 852 80
 124 0032 FF21     		movs	r1, #255
 125 0034 9140     		lsls	r1, r1, r2
 126 0036 0A00     		movs	r2, r1
 127              		.loc 1 852 71
 128 0038 D243     		mvns	r2, r2
 129              		.loc 1 852 33
 130 003a 1A40     		ands	r2, r3
 131 003c 1100     		movs	r1, r2
 853:../../dependencies/STM32CubeL0/Drivers/CMSIS/Include/core_cm0plus.h ****        (((priority << (8U - __NVIC_PRIO_BITS)) & (uint32_t)0xFFUL) << _BIT_SHIFT(IRQn)));
 132              		.loc 1 853 20
 133 003e 3B68     		ldr	r3, [r7]
 134 0040 9B01     		lsls	r3, r3, #6
 135              		.loc 1 853 48
 136 0042 FF22     		movs	r2, #255
 137 0044 1A40     		ands	r2, r3
 138              		.loc 1 853 71
 139 0046 FB1D     		adds	r3, r7, #7
 140 0048 1B78     		ldrb	r3, [r3]
 141 004a 1800     		movs	r0, r3
 142 004c 0323     		movs	r3, #3
 143 004e 0340     		ands	r3, r0
 144 0050 DB00     		lsls	r3, r3, #3
 145              		.loc 1 853 68
 146 0052 9A40     		lsls	r2, r2, r3
 852:../../dependencies/STM32CubeL0/Drivers/CMSIS/Include/core_cm0plus.h ****        (((priority << (8U - __NVIC_PRIO_BITS)) & (uint32_t)0xFFUL) << _BIT_SHIFT(IRQn)));
 147              		.loc 1 852 9
 148 0054 1F48     		ldr	r0, .L10
 852:../../dependencies/STM32CubeL0/Drivers/CMSIS/Include/core_cm0plus.h ****        (((priority << (8U - __NVIC_PRIO_BITS)) & (uint32_t)0xFFUL) << _BIT_SHIFT(IRQn)));
 149              		.loc 1 852 14
 150 0056 FB1D     		adds	r3, r7, #7
 151 0058 1B78     		ldrb	r3, [r3]
 152 005a 5BB2     		sxtb	r3, r3
 153 005c 9B08     		lsrs	r3, r3, #2
 852:../../dependencies/STM32CubeL0/Drivers/CMSIS/Include/core_cm0plus.h ****        (((priority << (8U - __NVIC_PRIO_BITS)) & (uint32_t)0xFFUL) << _BIT_SHIFT(IRQn)));
 154              		.loc 1 852 102
 155 005e 0A43     		orrs	r2, r1
 852:../../dependencies/STM32CubeL0/Drivers/CMSIS/Include/core_cm0plus.h ****        (((priority << (8U - __NVIC_PRIO_BITS)) & (uint32_t)0xFFUL) << _BIT_SHIFT(IRQn)));
 156              		.loc 1 852 30
 157 0060 C033     		adds	r3, r3, #192
 158 0062 9B00     		lsls	r3, r3, #2
 159 0064 1A50     		str	r2, [r3, r0]
 854:../../dependencies/STM32CubeL0/Drivers/CMSIS/Include/core_cm0plus.h ****   }
 855:../../dependencies/STM32CubeL0/Drivers/CMSIS/Include/core_cm0plus.h ****   else
 856:../../dependencies/STM32CubeL0/Drivers/CMSIS/Include/core_cm0plus.h ****   {
 857:../../dependencies/STM32CubeL0/Drivers/CMSIS/Include/core_cm0plus.h ****     SCB->SHP[_SHP_IDX(IRQn)] = ((uint32_t)(SCB->SHP[_SHP_IDX(IRQn)] & ~(0xFFUL << _BIT_SHIFT(IRQn))
 858:../../dependencies/STM32CubeL0/Drivers/CMSIS/Include/core_cm0plus.h ****        (((priority << (8U - __NVIC_PRIO_BITS)) & (uint32_t)0xFFUL) << _BIT_SHIFT(IRQn)));
 859:../../dependencies/STM32CubeL0/Drivers/CMSIS/Include/core_cm0plus.h ****   }
 860:../../dependencies/STM32CubeL0/Drivers/CMSIS/Include/core_cm0plus.h **** }
 160              		.loc 1 860 1
 161 0066 31E0     		b	.L9
 162              	.L7:
 857:../../dependencies/STM32CubeL0/Drivers/CMSIS/Include/core_cm0plus.h ****        (((priority << (8U - __NVIC_PRIO_BITS)) & (uint32_t)0xFFUL) << _BIT_SHIFT(IRQn)));
 163              		.loc 1 857 47
 164 0068 1B4A     		ldr	r2, .L10+4
ARM GAS  /var/folders/fs/dxwfnrqj18z860lwl3d6f5t00000gn/T//ccbTeCNC.s 			page 19


 857:../../dependencies/STM32CubeL0/Drivers/CMSIS/Include/core_cm0plus.h ****        (((priority << (8U - __NVIC_PRIO_BITS)) & (uint32_t)0xFFUL) << _BIT_SHIFT(IRQn)));
 165              		.loc 1 857 53
 166 006a FB1D     		adds	r3, r7, #7
 167 006c 1B78     		ldrb	r3, [r3]
 168 006e 1900     		movs	r1, r3
 169 0070 0F23     		movs	r3, #15
 170 0072 0B40     		ands	r3, r1
 171 0074 083B     		subs	r3, r3, #8
 172 0076 9B08     		lsrs	r3, r3, #2
 857:../../dependencies/STM32CubeL0/Drivers/CMSIS/Include/core_cm0plus.h ****        (((priority << (8U - __NVIC_PRIO_BITS)) & (uint32_t)0xFFUL) << _BIT_SHIFT(IRQn)));
 173              		.loc 1 857 52
 174 0078 0633     		adds	r3, r3, #6
 175 007a 9B00     		lsls	r3, r3, #2
 176 007c D318     		adds	r3, r2, r3
 177 007e 0433     		adds	r3, r3, #4
 178 0080 1B68     		ldr	r3, [r3]
 857:../../dependencies/STM32CubeL0/Drivers/CMSIS/Include/core_cm0plus.h ****        (((priority << (8U - __NVIC_PRIO_BITS)) & (uint32_t)0xFFUL) << _BIT_SHIFT(IRQn)));
 179              		.loc 1 857 83
 180 0082 FA1D     		adds	r2, r7, #7
 181 0084 1278     		ldrb	r2, [r2]
 182 0086 1100     		movs	r1, r2
 183 0088 0322     		movs	r2, #3
 184 008a 0A40     		ands	r2, r1
 185 008c D200     		lsls	r2, r2, #3
 857:../../dependencies/STM32CubeL0/Drivers/CMSIS/Include/core_cm0plus.h ****        (((priority << (8U - __NVIC_PRIO_BITS)) & (uint32_t)0xFFUL) << _BIT_SHIFT(IRQn)));
 186              		.loc 1 857 80
 187 008e FF21     		movs	r1, #255
 188 0090 9140     		lsls	r1, r1, r2
 189 0092 0A00     		movs	r2, r1
 857:../../dependencies/STM32CubeL0/Drivers/CMSIS/Include/core_cm0plus.h ****        (((priority << (8U - __NVIC_PRIO_BITS)) & (uint32_t)0xFFUL) << _BIT_SHIFT(IRQn)));
 190              		.loc 1 857 71
 191 0094 D243     		mvns	r2, r2
 857:../../dependencies/STM32CubeL0/Drivers/CMSIS/Include/core_cm0plus.h ****        (((priority << (8U - __NVIC_PRIO_BITS)) & (uint32_t)0xFFUL) << _BIT_SHIFT(IRQn)));
 192              		.loc 1 857 33
 193 0096 1A40     		ands	r2, r3
 194 0098 1100     		movs	r1, r2
 858:../../dependencies/STM32CubeL0/Drivers/CMSIS/Include/core_cm0plus.h ****   }
 195              		.loc 1 858 20
 196 009a 3B68     		ldr	r3, [r7]
 197 009c 9B01     		lsls	r3, r3, #6
 858:../../dependencies/STM32CubeL0/Drivers/CMSIS/Include/core_cm0plus.h ****   }
 198              		.loc 1 858 48
 199 009e FF22     		movs	r2, #255
 200 00a0 1A40     		ands	r2, r3
 858:../../dependencies/STM32CubeL0/Drivers/CMSIS/Include/core_cm0plus.h ****   }
 201              		.loc 1 858 71
 202 00a2 FB1D     		adds	r3, r7, #7
 203 00a4 1B78     		ldrb	r3, [r3]
 204 00a6 1800     		movs	r0, r3
 205 00a8 0323     		movs	r3, #3
 206 00aa 0340     		ands	r3, r0
 207 00ac DB00     		lsls	r3, r3, #3
 858:../../dependencies/STM32CubeL0/Drivers/CMSIS/Include/core_cm0plus.h ****   }
 208              		.loc 1 858 68
 209 00ae 9A40     		lsls	r2, r2, r3
 857:../../dependencies/STM32CubeL0/Drivers/CMSIS/Include/core_cm0plus.h ****        (((priority << (8U - __NVIC_PRIO_BITS)) & (uint32_t)0xFFUL) << _BIT_SHIFT(IRQn)));
 210              		.loc 1 857 8
ARM GAS  /var/folders/fs/dxwfnrqj18z860lwl3d6f5t00000gn/T//ccbTeCNC.s 			page 20


 211 00b0 0948     		ldr	r0, .L10+4
 857:../../dependencies/STM32CubeL0/Drivers/CMSIS/Include/core_cm0plus.h ****        (((priority << (8U - __NVIC_PRIO_BITS)) & (uint32_t)0xFFUL) << _BIT_SHIFT(IRQn)));
 212              		.loc 1 857 14
 213 00b2 FB1D     		adds	r3, r7, #7
 214 00b4 1B78     		ldrb	r3, [r3]
 215 00b6 1C00     		movs	r4, r3
 216 00b8 0F23     		movs	r3, #15
 217 00ba 2340     		ands	r3, r4
 218 00bc 083B     		subs	r3, r3, #8
 219 00be 9B08     		lsrs	r3, r3, #2
 857:../../dependencies/STM32CubeL0/Drivers/CMSIS/Include/core_cm0plus.h ****        (((priority << (8U - __NVIC_PRIO_BITS)) & (uint32_t)0xFFUL) << _BIT_SHIFT(IRQn)));
 220              		.loc 1 857 102
 221 00c0 0A43     		orrs	r2, r1
 857:../../dependencies/STM32CubeL0/Drivers/CMSIS/Include/core_cm0plus.h ****        (((priority << (8U - __NVIC_PRIO_BITS)) & (uint32_t)0xFFUL) << _BIT_SHIFT(IRQn)));
 222              		.loc 1 857 30
 223 00c2 0633     		adds	r3, r3, #6
 224 00c4 9B00     		lsls	r3, r3, #2
 225 00c6 C318     		adds	r3, r0, r3
 226 00c8 0433     		adds	r3, r3, #4
 227 00ca 1A60     		str	r2, [r3]
 228              	.L9:
 229              		.loc 1 860 1
 230 00cc C046     		nop
 231 00ce BD46     		mov	sp, r7
 232 00d0 03B0     		add	sp, sp, #12
 233              		@ sp needed
 234 00d2 90BD     		pop	{r4, r7, pc}
 235              	.L11:
 236              		.align	2
 237              	.L10:
 238 00d4 00E100E0 		.word	-536813312
 239 00d8 00ED00E0 		.word	-536810240
 240              		.cfi_endproc
 241              	.LFE31:
 243              		.section	.text.LL_APB1_GRP1_EnableClock,"ax",%progbits
 244              		.align	1
 245              		.syntax unified
 246              		.code	16
 247              		.thumb_func
 248              		.fpu softvfp
 250              	LL_APB1_GRP1_EnableClock:
 251              	.LFB157:
 252              		.file 2 "../../dependencies/STM32CubeL0/Drivers/STM32L0xx_HAL_Driver/Inc/stm32l0xx_ll_bus.h"
   1:../../dependencies/STM32CubeL0/Drivers/STM32L0xx_HAL_Driver/Inc/stm32l0xx_ll_bus.h **** /**
   2:../../dependencies/STM32CubeL0/Drivers/STM32L0xx_HAL_Driver/Inc/stm32l0xx_ll_bus.h ****   ******************************************************************************
   3:../../dependencies/STM32CubeL0/Drivers/STM32L0xx_HAL_Driver/Inc/stm32l0xx_ll_bus.h ****   * @file    stm32l0xx_ll_bus.h
   4:../../dependencies/STM32CubeL0/Drivers/STM32L0xx_HAL_Driver/Inc/stm32l0xx_ll_bus.h ****   * @author  MCD Application Team
   5:../../dependencies/STM32CubeL0/Drivers/STM32L0xx_HAL_Driver/Inc/stm32l0xx_ll_bus.h ****   * @brief   Header file of BUS LL module.
   6:../../dependencies/STM32CubeL0/Drivers/STM32L0xx_HAL_Driver/Inc/stm32l0xx_ll_bus.h **** 
   7:../../dependencies/STM32CubeL0/Drivers/STM32L0xx_HAL_Driver/Inc/stm32l0xx_ll_bus.h ****   @verbatim
   8:../../dependencies/STM32CubeL0/Drivers/STM32L0xx_HAL_Driver/Inc/stm32l0xx_ll_bus.h ****                       ##### RCC Limitations #####
   9:../../dependencies/STM32CubeL0/Drivers/STM32L0xx_HAL_Driver/Inc/stm32l0xx_ll_bus.h ****   ==============================================================================
  10:../../dependencies/STM32CubeL0/Drivers/STM32L0xx_HAL_Driver/Inc/stm32l0xx_ll_bus.h ****     [..]
  11:../../dependencies/STM32CubeL0/Drivers/STM32L0xx_HAL_Driver/Inc/stm32l0xx_ll_bus.h ****       A delay between an RCC peripheral clock enable and the effective peripheral
  12:../../dependencies/STM32CubeL0/Drivers/STM32L0xx_HAL_Driver/Inc/stm32l0xx_ll_bus.h ****       enabling should be taken into account in order to manage the peripheral read/write
  13:../../dependencies/STM32CubeL0/Drivers/STM32L0xx_HAL_Driver/Inc/stm32l0xx_ll_bus.h ****       from/to registers.
  14:../../dependencies/STM32CubeL0/Drivers/STM32L0xx_HAL_Driver/Inc/stm32l0xx_ll_bus.h ****       (+) This delay depends on the peripheral mapping.
ARM GAS  /var/folders/fs/dxwfnrqj18z860lwl3d6f5t00000gn/T//ccbTeCNC.s 			page 21


  15:../../dependencies/STM32CubeL0/Drivers/STM32L0xx_HAL_Driver/Inc/stm32l0xx_ll_bus.h ****         (++) AHB & APB peripherals, 1 dummy read is necessary
  16:../../dependencies/STM32CubeL0/Drivers/STM32L0xx_HAL_Driver/Inc/stm32l0xx_ll_bus.h **** 
  17:../../dependencies/STM32CubeL0/Drivers/STM32L0xx_HAL_Driver/Inc/stm32l0xx_ll_bus.h ****     [..]
  18:../../dependencies/STM32CubeL0/Drivers/STM32L0xx_HAL_Driver/Inc/stm32l0xx_ll_bus.h ****       Workarounds:
  19:../../dependencies/STM32CubeL0/Drivers/STM32L0xx_HAL_Driver/Inc/stm32l0xx_ll_bus.h ****       (#) For AHB & APB peripherals, a dummy read to the peripheral register has been
  20:../../dependencies/STM32CubeL0/Drivers/STM32L0xx_HAL_Driver/Inc/stm32l0xx_ll_bus.h ****           inserted in each LL_{BUS}_GRP{x}_EnableClock() function.
  21:../../dependencies/STM32CubeL0/Drivers/STM32L0xx_HAL_Driver/Inc/stm32l0xx_ll_bus.h **** 
  22:../../dependencies/STM32CubeL0/Drivers/STM32L0xx_HAL_Driver/Inc/stm32l0xx_ll_bus.h ****   @endverbatim
  23:../../dependencies/STM32CubeL0/Drivers/STM32L0xx_HAL_Driver/Inc/stm32l0xx_ll_bus.h ****   ******************************************************************************
  24:../../dependencies/STM32CubeL0/Drivers/STM32L0xx_HAL_Driver/Inc/stm32l0xx_ll_bus.h ****   * @attention
  25:../../dependencies/STM32CubeL0/Drivers/STM32L0xx_HAL_Driver/Inc/stm32l0xx_ll_bus.h ****   *
  26:../../dependencies/STM32CubeL0/Drivers/STM32L0xx_HAL_Driver/Inc/stm32l0xx_ll_bus.h ****   * <h2><center>&copy; Copyright(c) 2016 STMicroelectronics.
  27:../../dependencies/STM32CubeL0/Drivers/STM32L0xx_HAL_Driver/Inc/stm32l0xx_ll_bus.h ****   * All rights reserved.</center></h2>
  28:../../dependencies/STM32CubeL0/Drivers/STM32L0xx_HAL_Driver/Inc/stm32l0xx_ll_bus.h ****   *
  29:../../dependencies/STM32CubeL0/Drivers/STM32L0xx_HAL_Driver/Inc/stm32l0xx_ll_bus.h ****   * This software component is licensed by ST under BSD 3-Clause license,
  30:../../dependencies/STM32CubeL0/Drivers/STM32L0xx_HAL_Driver/Inc/stm32l0xx_ll_bus.h ****   * the "License"; You may not use this file except in compliance with the
  31:../../dependencies/STM32CubeL0/Drivers/STM32L0xx_HAL_Driver/Inc/stm32l0xx_ll_bus.h ****   * License. You may obtain a copy of the License at:
  32:../../dependencies/STM32CubeL0/Drivers/STM32L0xx_HAL_Driver/Inc/stm32l0xx_ll_bus.h ****   *                        opensource.org/licenses/BSD-3-Clause
  33:../../dependencies/STM32CubeL0/Drivers/STM32L0xx_HAL_Driver/Inc/stm32l0xx_ll_bus.h ****   *
  34:../../dependencies/STM32CubeL0/Drivers/STM32L0xx_HAL_Driver/Inc/stm32l0xx_ll_bus.h ****   ******************************************************************************
  35:../../dependencies/STM32CubeL0/Drivers/STM32L0xx_HAL_Driver/Inc/stm32l0xx_ll_bus.h ****   */
  36:../../dependencies/STM32CubeL0/Drivers/STM32L0xx_HAL_Driver/Inc/stm32l0xx_ll_bus.h **** 
  37:../../dependencies/STM32CubeL0/Drivers/STM32L0xx_HAL_Driver/Inc/stm32l0xx_ll_bus.h **** /* Define to prevent recursive inclusion -------------------------------------*/
  38:../../dependencies/STM32CubeL0/Drivers/STM32L0xx_HAL_Driver/Inc/stm32l0xx_ll_bus.h **** #ifndef __STM32L0xx_LL_BUS_H
  39:../../dependencies/STM32CubeL0/Drivers/STM32L0xx_HAL_Driver/Inc/stm32l0xx_ll_bus.h **** #define __STM32L0xx_LL_BUS_H
  40:../../dependencies/STM32CubeL0/Drivers/STM32L0xx_HAL_Driver/Inc/stm32l0xx_ll_bus.h **** 
  41:../../dependencies/STM32CubeL0/Drivers/STM32L0xx_HAL_Driver/Inc/stm32l0xx_ll_bus.h **** #ifdef __cplusplus
  42:../../dependencies/STM32CubeL0/Drivers/STM32L0xx_HAL_Driver/Inc/stm32l0xx_ll_bus.h **** extern "C" {
  43:../../dependencies/STM32CubeL0/Drivers/STM32L0xx_HAL_Driver/Inc/stm32l0xx_ll_bus.h **** #endif
  44:../../dependencies/STM32CubeL0/Drivers/STM32L0xx_HAL_Driver/Inc/stm32l0xx_ll_bus.h **** 
  45:../../dependencies/STM32CubeL0/Drivers/STM32L0xx_HAL_Driver/Inc/stm32l0xx_ll_bus.h **** /* Includes ------------------------------------------------------------------*/
  46:../../dependencies/STM32CubeL0/Drivers/STM32L0xx_HAL_Driver/Inc/stm32l0xx_ll_bus.h **** #include "stm32l0xx.h"
  47:../../dependencies/STM32CubeL0/Drivers/STM32L0xx_HAL_Driver/Inc/stm32l0xx_ll_bus.h **** 
  48:../../dependencies/STM32CubeL0/Drivers/STM32L0xx_HAL_Driver/Inc/stm32l0xx_ll_bus.h **** /** @addtogroup STM32L0xx_LL_Driver
  49:../../dependencies/STM32CubeL0/Drivers/STM32L0xx_HAL_Driver/Inc/stm32l0xx_ll_bus.h ****   * @{
  50:../../dependencies/STM32CubeL0/Drivers/STM32L0xx_HAL_Driver/Inc/stm32l0xx_ll_bus.h ****   */
  51:../../dependencies/STM32CubeL0/Drivers/STM32L0xx_HAL_Driver/Inc/stm32l0xx_ll_bus.h **** 
  52:../../dependencies/STM32CubeL0/Drivers/STM32L0xx_HAL_Driver/Inc/stm32l0xx_ll_bus.h **** #if defined(RCC)
  53:../../dependencies/STM32CubeL0/Drivers/STM32L0xx_HAL_Driver/Inc/stm32l0xx_ll_bus.h **** 
  54:../../dependencies/STM32CubeL0/Drivers/STM32L0xx_HAL_Driver/Inc/stm32l0xx_ll_bus.h **** /** @defgroup BUS_LL BUS
  55:../../dependencies/STM32CubeL0/Drivers/STM32L0xx_HAL_Driver/Inc/stm32l0xx_ll_bus.h ****   * @{
  56:../../dependencies/STM32CubeL0/Drivers/STM32L0xx_HAL_Driver/Inc/stm32l0xx_ll_bus.h ****   */
  57:../../dependencies/STM32CubeL0/Drivers/STM32L0xx_HAL_Driver/Inc/stm32l0xx_ll_bus.h **** 
  58:../../dependencies/STM32CubeL0/Drivers/STM32L0xx_HAL_Driver/Inc/stm32l0xx_ll_bus.h **** /* Private types -------------------------------------------------------------*/
  59:../../dependencies/STM32CubeL0/Drivers/STM32L0xx_HAL_Driver/Inc/stm32l0xx_ll_bus.h **** /* Private variables ---------------------------------------------------------*/
  60:../../dependencies/STM32CubeL0/Drivers/STM32L0xx_HAL_Driver/Inc/stm32l0xx_ll_bus.h **** 
  61:../../dependencies/STM32CubeL0/Drivers/STM32L0xx_HAL_Driver/Inc/stm32l0xx_ll_bus.h **** /* Private constants ---------------------------------------------------------*/
  62:../../dependencies/STM32CubeL0/Drivers/STM32L0xx_HAL_Driver/Inc/stm32l0xx_ll_bus.h **** 
  63:../../dependencies/STM32CubeL0/Drivers/STM32L0xx_HAL_Driver/Inc/stm32l0xx_ll_bus.h **** /* Private macros ------------------------------------------------------------*/
  64:../../dependencies/STM32CubeL0/Drivers/STM32L0xx_HAL_Driver/Inc/stm32l0xx_ll_bus.h **** 
  65:../../dependencies/STM32CubeL0/Drivers/STM32L0xx_HAL_Driver/Inc/stm32l0xx_ll_bus.h **** /* Exported types ------------------------------------------------------------*/
  66:../../dependencies/STM32CubeL0/Drivers/STM32L0xx_HAL_Driver/Inc/stm32l0xx_ll_bus.h **** /* Exported constants --------------------------------------------------------*/
  67:../../dependencies/STM32CubeL0/Drivers/STM32L0xx_HAL_Driver/Inc/stm32l0xx_ll_bus.h **** /** @defgroup BUS_LL_Exported_Constants BUS Exported Constants
  68:../../dependencies/STM32CubeL0/Drivers/STM32L0xx_HAL_Driver/Inc/stm32l0xx_ll_bus.h ****   * @{
  69:../../dependencies/STM32CubeL0/Drivers/STM32L0xx_HAL_Driver/Inc/stm32l0xx_ll_bus.h ****   */
  70:../../dependencies/STM32CubeL0/Drivers/STM32L0xx_HAL_Driver/Inc/stm32l0xx_ll_bus.h **** 
  71:../../dependencies/STM32CubeL0/Drivers/STM32L0xx_HAL_Driver/Inc/stm32l0xx_ll_bus.h **** /** @defgroup BUS_LL_EC_AHB1_GRP1_PERIPH  AHB1 GRP1 PERIPH
ARM GAS  /var/folders/fs/dxwfnrqj18z860lwl3d6f5t00000gn/T//ccbTeCNC.s 			page 22


  72:../../dependencies/STM32CubeL0/Drivers/STM32L0xx_HAL_Driver/Inc/stm32l0xx_ll_bus.h ****   * @{
  73:../../dependencies/STM32CubeL0/Drivers/STM32L0xx_HAL_Driver/Inc/stm32l0xx_ll_bus.h ****   */
  74:../../dependencies/STM32CubeL0/Drivers/STM32L0xx_HAL_Driver/Inc/stm32l0xx_ll_bus.h **** #define LL_AHB1_GRP1_PERIPH_ALL            0xFFFFFFFFU
  75:../../dependencies/STM32CubeL0/Drivers/STM32L0xx_HAL_Driver/Inc/stm32l0xx_ll_bus.h **** #define LL_AHB1_GRP1_PERIPH_DMA1           RCC_AHBENR_DMA1EN      /*!< DMA1 clock enable */
  76:../../dependencies/STM32CubeL0/Drivers/STM32L0xx_HAL_Driver/Inc/stm32l0xx_ll_bus.h **** #define LL_AHB1_GRP1_PERIPH_MIF            RCC_AHBENR_MIFEN       /*!< MIF clock enable */
  77:../../dependencies/STM32CubeL0/Drivers/STM32L0xx_HAL_Driver/Inc/stm32l0xx_ll_bus.h **** #define LL_AHB1_GRP1_PERIPH_SRAM           RCC_AHBSMENR_SRAMSMEN  /*!< Sleep Mode SRAM clock enable
  78:../../dependencies/STM32CubeL0/Drivers/STM32L0xx_HAL_Driver/Inc/stm32l0xx_ll_bus.h **** #define LL_AHB1_GRP1_PERIPH_CRC            RCC_AHBENR_CRCEN       /*!< CRC clock enable */
  79:../../dependencies/STM32CubeL0/Drivers/STM32L0xx_HAL_Driver/Inc/stm32l0xx_ll_bus.h **** #if defined(TSC)
  80:../../dependencies/STM32CubeL0/Drivers/STM32L0xx_HAL_Driver/Inc/stm32l0xx_ll_bus.h **** #define LL_AHB1_GRP1_PERIPH_TSC            RCC_AHBENR_TSCEN       /*!< TSC clock enable */
  81:../../dependencies/STM32CubeL0/Drivers/STM32L0xx_HAL_Driver/Inc/stm32l0xx_ll_bus.h **** #endif /*TSC*/
  82:../../dependencies/STM32CubeL0/Drivers/STM32L0xx_HAL_Driver/Inc/stm32l0xx_ll_bus.h **** #if defined(RNG)
  83:../../dependencies/STM32CubeL0/Drivers/STM32L0xx_HAL_Driver/Inc/stm32l0xx_ll_bus.h **** #define LL_AHB1_GRP1_PERIPH_RNG            RCC_AHBENR_RNGEN       /*!< RNG clock enable */
  84:../../dependencies/STM32CubeL0/Drivers/STM32L0xx_HAL_Driver/Inc/stm32l0xx_ll_bus.h **** #endif /*RNG*/
  85:../../dependencies/STM32CubeL0/Drivers/STM32L0xx_HAL_Driver/Inc/stm32l0xx_ll_bus.h **** #if defined(AES)
  86:../../dependencies/STM32CubeL0/Drivers/STM32L0xx_HAL_Driver/Inc/stm32l0xx_ll_bus.h **** #define LL_AHB1_GRP1_PERIPH_CRYP           RCC_AHBENR_CRYPEN      /*!< CRYP clock enable */
  87:../../dependencies/STM32CubeL0/Drivers/STM32L0xx_HAL_Driver/Inc/stm32l0xx_ll_bus.h **** #endif /*AES*/
  88:../../dependencies/STM32CubeL0/Drivers/STM32L0xx_HAL_Driver/Inc/stm32l0xx_ll_bus.h **** /**
  89:../../dependencies/STM32CubeL0/Drivers/STM32L0xx_HAL_Driver/Inc/stm32l0xx_ll_bus.h ****   * @}
  90:../../dependencies/STM32CubeL0/Drivers/STM32L0xx_HAL_Driver/Inc/stm32l0xx_ll_bus.h ****   */
  91:../../dependencies/STM32CubeL0/Drivers/STM32L0xx_HAL_Driver/Inc/stm32l0xx_ll_bus.h **** 
  92:../../dependencies/STM32CubeL0/Drivers/STM32L0xx_HAL_Driver/Inc/stm32l0xx_ll_bus.h **** 
  93:../../dependencies/STM32CubeL0/Drivers/STM32L0xx_HAL_Driver/Inc/stm32l0xx_ll_bus.h **** /** @defgroup BUS_LL_EC_APB1_GRP1_PERIPH  APB1 GRP1 PERIPH
  94:../../dependencies/STM32CubeL0/Drivers/STM32L0xx_HAL_Driver/Inc/stm32l0xx_ll_bus.h ****   * @{
  95:../../dependencies/STM32CubeL0/Drivers/STM32L0xx_HAL_Driver/Inc/stm32l0xx_ll_bus.h ****   */
  96:../../dependencies/STM32CubeL0/Drivers/STM32L0xx_HAL_Driver/Inc/stm32l0xx_ll_bus.h **** #define LL_APB1_GRP1_PERIPH_ALL            0xFFFFFFFFU
  97:../../dependencies/STM32CubeL0/Drivers/STM32L0xx_HAL_Driver/Inc/stm32l0xx_ll_bus.h **** #define LL_APB1_GRP1_PERIPH_TIM2           RCC_APB1ENR_TIM2EN     /*!< TIM2 clock enable */
  98:../../dependencies/STM32CubeL0/Drivers/STM32L0xx_HAL_Driver/Inc/stm32l0xx_ll_bus.h **** #if defined(TIM3)
  99:../../dependencies/STM32CubeL0/Drivers/STM32L0xx_HAL_Driver/Inc/stm32l0xx_ll_bus.h **** #define LL_APB1_GRP1_PERIPH_TIM3           RCC_APB1ENR_TIM3EN     /*!< TIM3 clock enable */
 100:../../dependencies/STM32CubeL0/Drivers/STM32L0xx_HAL_Driver/Inc/stm32l0xx_ll_bus.h **** #endif
 101:../../dependencies/STM32CubeL0/Drivers/STM32L0xx_HAL_Driver/Inc/stm32l0xx_ll_bus.h **** #if defined(TIM6)
 102:../../dependencies/STM32CubeL0/Drivers/STM32L0xx_HAL_Driver/Inc/stm32l0xx_ll_bus.h **** #define LL_APB1_GRP1_PERIPH_TIM6           RCC_APB1ENR_TIM6EN     /*!< TIM6 clock enable */
 103:../../dependencies/STM32CubeL0/Drivers/STM32L0xx_HAL_Driver/Inc/stm32l0xx_ll_bus.h **** #endif
 104:../../dependencies/STM32CubeL0/Drivers/STM32L0xx_HAL_Driver/Inc/stm32l0xx_ll_bus.h **** #if defined(TIM7)
 105:../../dependencies/STM32CubeL0/Drivers/STM32L0xx_HAL_Driver/Inc/stm32l0xx_ll_bus.h **** #define LL_APB1_GRP1_PERIPH_TIM7           RCC_APB1ENR_TIM7EN     /*!< TIM7 clock enable */
 106:../../dependencies/STM32CubeL0/Drivers/STM32L0xx_HAL_Driver/Inc/stm32l0xx_ll_bus.h **** #endif
 107:../../dependencies/STM32CubeL0/Drivers/STM32L0xx_HAL_Driver/Inc/stm32l0xx_ll_bus.h **** #if defined(LCD)
 108:../../dependencies/STM32CubeL0/Drivers/STM32L0xx_HAL_Driver/Inc/stm32l0xx_ll_bus.h **** #define LL_APB1_GRP1_PERIPH_LCD            RCC_APB1ENR_LCDEN      /*!< LCD clock enable */
 109:../../dependencies/STM32CubeL0/Drivers/STM32L0xx_HAL_Driver/Inc/stm32l0xx_ll_bus.h **** #endif /*LCD*/
 110:../../dependencies/STM32CubeL0/Drivers/STM32L0xx_HAL_Driver/Inc/stm32l0xx_ll_bus.h **** #define LL_APB1_GRP1_PERIPH_WWDG           RCC_APB1ENR_WWDGEN     /*!< WWDG clock enable */
 111:../../dependencies/STM32CubeL0/Drivers/STM32L0xx_HAL_Driver/Inc/stm32l0xx_ll_bus.h **** #if defined(SPI2)
 112:../../dependencies/STM32CubeL0/Drivers/STM32L0xx_HAL_Driver/Inc/stm32l0xx_ll_bus.h **** #define LL_APB1_GRP1_PERIPH_SPI2           RCC_APB1ENR_SPI2EN     /*!< SPI2 clock enable */
 113:../../dependencies/STM32CubeL0/Drivers/STM32L0xx_HAL_Driver/Inc/stm32l0xx_ll_bus.h **** #endif
 114:../../dependencies/STM32CubeL0/Drivers/STM32L0xx_HAL_Driver/Inc/stm32l0xx_ll_bus.h **** #define LL_APB1_GRP1_PERIPH_USART2         RCC_APB1ENR_USART2EN   /*!< USART2 clock enable */
 115:../../dependencies/STM32CubeL0/Drivers/STM32L0xx_HAL_Driver/Inc/stm32l0xx_ll_bus.h **** #define LL_APB1_GRP1_PERIPH_LPUART1        RCC_APB1ENR_LPUART1EN  /*!< LPUART1 clock enable */
 116:../../dependencies/STM32CubeL0/Drivers/STM32L0xx_HAL_Driver/Inc/stm32l0xx_ll_bus.h **** #if defined(USART4)
 117:../../dependencies/STM32CubeL0/Drivers/STM32L0xx_HAL_Driver/Inc/stm32l0xx_ll_bus.h **** #define LL_APB1_GRP1_PERIPH_USART4         RCC_APB1ENR_USART4EN   /*!< USART4 clock enable */
 118:../../dependencies/STM32CubeL0/Drivers/STM32L0xx_HAL_Driver/Inc/stm32l0xx_ll_bus.h **** #endif
 119:../../dependencies/STM32CubeL0/Drivers/STM32L0xx_HAL_Driver/Inc/stm32l0xx_ll_bus.h **** #if defined(USART5)
 120:../../dependencies/STM32CubeL0/Drivers/STM32L0xx_HAL_Driver/Inc/stm32l0xx_ll_bus.h **** #define LL_APB1_GRP1_PERIPH_USART5         RCC_APB1ENR_USART5EN   /*!< USART5 clock enable */
 121:../../dependencies/STM32CubeL0/Drivers/STM32L0xx_HAL_Driver/Inc/stm32l0xx_ll_bus.h **** #endif
 122:../../dependencies/STM32CubeL0/Drivers/STM32L0xx_HAL_Driver/Inc/stm32l0xx_ll_bus.h **** #define LL_APB1_GRP1_PERIPH_I2C1           RCC_APB1ENR_I2C1EN     /*!< I2C1 clock enable */
 123:../../dependencies/STM32CubeL0/Drivers/STM32L0xx_HAL_Driver/Inc/stm32l0xx_ll_bus.h **** #if defined(I2C2)
 124:../../dependencies/STM32CubeL0/Drivers/STM32L0xx_HAL_Driver/Inc/stm32l0xx_ll_bus.h **** #define LL_APB1_GRP1_PERIPH_I2C2           RCC_APB1ENR_I2C2EN     /*!< I2C2 clock enable */
 125:../../dependencies/STM32CubeL0/Drivers/STM32L0xx_HAL_Driver/Inc/stm32l0xx_ll_bus.h **** #endif
 126:../../dependencies/STM32CubeL0/Drivers/STM32L0xx_HAL_Driver/Inc/stm32l0xx_ll_bus.h **** #if defined(USB)
 127:../../dependencies/STM32CubeL0/Drivers/STM32L0xx_HAL_Driver/Inc/stm32l0xx_ll_bus.h **** #define LL_APB1_GRP1_PERIPH_USB            RCC_APB1ENR_USBEN      /*!< USB clock enable */
 128:../../dependencies/STM32CubeL0/Drivers/STM32L0xx_HAL_Driver/Inc/stm32l0xx_ll_bus.h **** #endif /*USB*/
ARM GAS  /var/folders/fs/dxwfnrqj18z860lwl3d6f5t00000gn/T//ccbTeCNC.s 			page 23


 129:../../dependencies/STM32CubeL0/Drivers/STM32L0xx_HAL_Driver/Inc/stm32l0xx_ll_bus.h **** #if defined(CRS)
 130:../../dependencies/STM32CubeL0/Drivers/STM32L0xx_HAL_Driver/Inc/stm32l0xx_ll_bus.h **** #define LL_APB1_GRP1_PERIPH_CRS            RCC_APB1ENR_CRSEN      /*!< CRS clock enable */
 131:../../dependencies/STM32CubeL0/Drivers/STM32L0xx_HAL_Driver/Inc/stm32l0xx_ll_bus.h **** #endif /*CRS*/
 132:../../dependencies/STM32CubeL0/Drivers/STM32L0xx_HAL_Driver/Inc/stm32l0xx_ll_bus.h **** #define LL_APB1_GRP1_PERIPH_PWR            RCC_APB1ENR_PWREN      /*!< PWR clock enable */
 133:../../dependencies/STM32CubeL0/Drivers/STM32L0xx_HAL_Driver/Inc/stm32l0xx_ll_bus.h **** #if defined(DAC)
 134:../../dependencies/STM32CubeL0/Drivers/STM32L0xx_HAL_Driver/Inc/stm32l0xx_ll_bus.h **** #define LL_APB1_GRP1_PERIPH_DAC1           RCC_APB1ENR_DACEN      /*!< DAC clock enable */
 135:../../dependencies/STM32CubeL0/Drivers/STM32L0xx_HAL_Driver/Inc/stm32l0xx_ll_bus.h **** #endif
 136:../../dependencies/STM32CubeL0/Drivers/STM32L0xx_HAL_Driver/Inc/stm32l0xx_ll_bus.h **** #if defined(I2C3)
 137:../../dependencies/STM32CubeL0/Drivers/STM32L0xx_HAL_Driver/Inc/stm32l0xx_ll_bus.h **** #define LL_APB1_GRP1_PERIPH_I2C3           RCC_APB1ENR_I2C3EN     /*!< I2C3 clock enable */
 138:../../dependencies/STM32CubeL0/Drivers/STM32L0xx_HAL_Driver/Inc/stm32l0xx_ll_bus.h **** #endif
 139:../../dependencies/STM32CubeL0/Drivers/STM32L0xx_HAL_Driver/Inc/stm32l0xx_ll_bus.h **** #define LL_APB1_GRP1_PERIPH_LPTIM1         RCC_APB1ENR_LPTIM1EN   /*!< LPTIM1 clock enable */
 140:../../dependencies/STM32CubeL0/Drivers/STM32L0xx_HAL_Driver/Inc/stm32l0xx_ll_bus.h **** /**
 141:../../dependencies/STM32CubeL0/Drivers/STM32L0xx_HAL_Driver/Inc/stm32l0xx_ll_bus.h ****   * @}
 142:../../dependencies/STM32CubeL0/Drivers/STM32L0xx_HAL_Driver/Inc/stm32l0xx_ll_bus.h ****   */
 143:../../dependencies/STM32CubeL0/Drivers/STM32L0xx_HAL_Driver/Inc/stm32l0xx_ll_bus.h **** 
 144:../../dependencies/STM32CubeL0/Drivers/STM32L0xx_HAL_Driver/Inc/stm32l0xx_ll_bus.h **** 
 145:../../dependencies/STM32CubeL0/Drivers/STM32L0xx_HAL_Driver/Inc/stm32l0xx_ll_bus.h **** 
 146:../../dependencies/STM32CubeL0/Drivers/STM32L0xx_HAL_Driver/Inc/stm32l0xx_ll_bus.h **** 
 147:../../dependencies/STM32CubeL0/Drivers/STM32L0xx_HAL_Driver/Inc/stm32l0xx_ll_bus.h **** /** @defgroup BUS_LL_EC_APB2_GRP1_PERIPH  APB2 GRP1 PERIPH
 148:../../dependencies/STM32CubeL0/Drivers/STM32L0xx_HAL_Driver/Inc/stm32l0xx_ll_bus.h ****   * @{
 149:../../dependencies/STM32CubeL0/Drivers/STM32L0xx_HAL_Driver/Inc/stm32l0xx_ll_bus.h ****   */
 150:../../dependencies/STM32CubeL0/Drivers/STM32L0xx_HAL_Driver/Inc/stm32l0xx_ll_bus.h **** #define LL_APB2_GRP1_PERIPH_ALL            0xFFFFFFFFU
 151:../../dependencies/STM32CubeL0/Drivers/STM32L0xx_HAL_Driver/Inc/stm32l0xx_ll_bus.h **** #define LL_APB2_GRP1_PERIPH_SYSCFG         RCC_APB2ENR_SYSCFGEN  /*!< SYSCFG clock enable */
 152:../../dependencies/STM32CubeL0/Drivers/STM32L0xx_HAL_Driver/Inc/stm32l0xx_ll_bus.h **** #define LL_APB2_GRP1_PERIPH_TIM21          RCC_APB2ENR_TIM21EN   /*!< TIM21 clock enable */
 153:../../dependencies/STM32CubeL0/Drivers/STM32L0xx_HAL_Driver/Inc/stm32l0xx_ll_bus.h **** #if defined(TIM22)
 154:../../dependencies/STM32CubeL0/Drivers/STM32L0xx_HAL_Driver/Inc/stm32l0xx_ll_bus.h **** #define LL_APB2_GRP1_PERIPH_TIM22          RCC_APB2ENR_TIM22EN   /*!< TIM22 clock enable */
 155:../../dependencies/STM32CubeL0/Drivers/STM32L0xx_HAL_Driver/Inc/stm32l0xx_ll_bus.h **** #endif
 156:../../dependencies/STM32CubeL0/Drivers/STM32L0xx_HAL_Driver/Inc/stm32l0xx_ll_bus.h **** #define LL_APB2_GRP1_PERIPH_FW             RCC_APB2ENR_FWEN      /*!< FireWall clock enable */
 157:../../dependencies/STM32CubeL0/Drivers/STM32L0xx_HAL_Driver/Inc/stm32l0xx_ll_bus.h **** #define LL_APB2_GRP1_PERIPH_ADC1           RCC_APB2ENR_ADC1EN    /*!< ADC1 clock enable */
 158:../../dependencies/STM32CubeL0/Drivers/STM32L0xx_HAL_Driver/Inc/stm32l0xx_ll_bus.h **** #define LL_APB2_GRP1_PERIPH_SPI1           RCC_APB2ENR_SPI1EN    /*!< SPI1 clock enable */
 159:../../dependencies/STM32CubeL0/Drivers/STM32L0xx_HAL_Driver/Inc/stm32l0xx_ll_bus.h **** #if defined(USART1)
 160:../../dependencies/STM32CubeL0/Drivers/STM32L0xx_HAL_Driver/Inc/stm32l0xx_ll_bus.h **** #define LL_APB2_GRP1_PERIPH_USART1         RCC_APB2ENR_USART1EN  /*!< USART1 clock enable */
 161:../../dependencies/STM32CubeL0/Drivers/STM32L0xx_HAL_Driver/Inc/stm32l0xx_ll_bus.h **** #endif
 162:../../dependencies/STM32CubeL0/Drivers/STM32L0xx_HAL_Driver/Inc/stm32l0xx_ll_bus.h **** #define LL_APB2_GRP1_PERIPH_DBGMCU         RCC_APB2ENR_DBGMCUEN  /*!< DBGMCU clock enable */
 163:../../dependencies/STM32CubeL0/Drivers/STM32L0xx_HAL_Driver/Inc/stm32l0xx_ll_bus.h **** 
 164:../../dependencies/STM32CubeL0/Drivers/STM32L0xx_HAL_Driver/Inc/stm32l0xx_ll_bus.h **** /**
 165:../../dependencies/STM32CubeL0/Drivers/STM32L0xx_HAL_Driver/Inc/stm32l0xx_ll_bus.h ****   * @}
 166:../../dependencies/STM32CubeL0/Drivers/STM32L0xx_HAL_Driver/Inc/stm32l0xx_ll_bus.h ****   */
 167:../../dependencies/STM32CubeL0/Drivers/STM32L0xx_HAL_Driver/Inc/stm32l0xx_ll_bus.h **** 
 168:../../dependencies/STM32CubeL0/Drivers/STM32L0xx_HAL_Driver/Inc/stm32l0xx_ll_bus.h **** 
 169:../../dependencies/STM32CubeL0/Drivers/STM32L0xx_HAL_Driver/Inc/stm32l0xx_ll_bus.h **** 
 170:../../dependencies/STM32CubeL0/Drivers/STM32L0xx_HAL_Driver/Inc/stm32l0xx_ll_bus.h **** /** @defgroup BUS_LL_EC_IOP_GRP1_PERIPH  IOP GRP1 PERIPH
 171:../../dependencies/STM32CubeL0/Drivers/STM32L0xx_HAL_Driver/Inc/stm32l0xx_ll_bus.h ****   * @{
 172:../../dependencies/STM32CubeL0/Drivers/STM32L0xx_HAL_Driver/Inc/stm32l0xx_ll_bus.h ****   */
 173:../../dependencies/STM32CubeL0/Drivers/STM32L0xx_HAL_Driver/Inc/stm32l0xx_ll_bus.h **** #define LL_IOP_GRP1_PERIPH_ALL             0xFFFFFFFFU
 174:../../dependencies/STM32CubeL0/Drivers/STM32L0xx_HAL_Driver/Inc/stm32l0xx_ll_bus.h **** #define LL_IOP_GRP1_PERIPH_GPIOA           RCC_IOPENR_GPIOAEN    /*!< GPIO port A control */
 175:../../dependencies/STM32CubeL0/Drivers/STM32L0xx_HAL_Driver/Inc/stm32l0xx_ll_bus.h **** #define LL_IOP_GRP1_PERIPH_GPIOB           RCC_IOPENR_GPIOBEN    /*!< GPIO port B control */
 176:../../dependencies/STM32CubeL0/Drivers/STM32L0xx_HAL_Driver/Inc/stm32l0xx_ll_bus.h **** #define LL_IOP_GRP1_PERIPH_GPIOC           RCC_IOPENR_GPIOCEN    /*!< GPIO port C control */
 177:../../dependencies/STM32CubeL0/Drivers/STM32L0xx_HAL_Driver/Inc/stm32l0xx_ll_bus.h **** #if defined(GPIOD)
 178:../../dependencies/STM32CubeL0/Drivers/STM32L0xx_HAL_Driver/Inc/stm32l0xx_ll_bus.h **** #define LL_IOP_GRP1_PERIPH_GPIOD           RCC_IOPENR_GPIODEN    /*!< GPIO port D control */
 179:../../dependencies/STM32CubeL0/Drivers/STM32L0xx_HAL_Driver/Inc/stm32l0xx_ll_bus.h **** #endif /*GPIOD*/
 180:../../dependencies/STM32CubeL0/Drivers/STM32L0xx_HAL_Driver/Inc/stm32l0xx_ll_bus.h **** #if defined(GPIOE)
 181:../../dependencies/STM32CubeL0/Drivers/STM32L0xx_HAL_Driver/Inc/stm32l0xx_ll_bus.h **** #define LL_IOP_GRP1_PERIPH_GPIOE           RCC_IOPENR_GPIOEEN    /*!< GPIO port H control */
 182:../../dependencies/STM32CubeL0/Drivers/STM32L0xx_HAL_Driver/Inc/stm32l0xx_ll_bus.h **** #endif /*GPIOE*/
 183:../../dependencies/STM32CubeL0/Drivers/STM32L0xx_HAL_Driver/Inc/stm32l0xx_ll_bus.h **** #if defined(GPIOH)
 184:../../dependencies/STM32CubeL0/Drivers/STM32L0xx_HAL_Driver/Inc/stm32l0xx_ll_bus.h **** #define LL_IOP_GRP1_PERIPH_GPIOH           RCC_IOPENR_GPIOHEN    /*!< GPIO port H control */
 185:../../dependencies/STM32CubeL0/Drivers/STM32L0xx_HAL_Driver/Inc/stm32l0xx_ll_bus.h **** #endif /*GPIOH*/
ARM GAS  /var/folders/fs/dxwfnrqj18z860lwl3d6f5t00000gn/T//ccbTeCNC.s 			page 24


 186:../../dependencies/STM32CubeL0/Drivers/STM32L0xx_HAL_Driver/Inc/stm32l0xx_ll_bus.h **** /**
 187:../../dependencies/STM32CubeL0/Drivers/STM32L0xx_HAL_Driver/Inc/stm32l0xx_ll_bus.h ****   * @}
 188:../../dependencies/STM32CubeL0/Drivers/STM32L0xx_HAL_Driver/Inc/stm32l0xx_ll_bus.h ****   */
 189:../../dependencies/STM32CubeL0/Drivers/STM32L0xx_HAL_Driver/Inc/stm32l0xx_ll_bus.h **** 
 190:../../dependencies/STM32CubeL0/Drivers/STM32L0xx_HAL_Driver/Inc/stm32l0xx_ll_bus.h **** 
 191:../../dependencies/STM32CubeL0/Drivers/STM32L0xx_HAL_Driver/Inc/stm32l0xx_ll_bus.h **** /**
 192:../../dependencies/STM32CubeL0/Drivers/STM32L0xx_HAL_Driver/Inc/stm32l0xx_ll_bus.h ****   * @}
 193:../../dependencies/STM32CubeL0/Drivers/STM32L0xx_HAL_Driver/Inc/stm32l0xx_ll_bus.h ****   */
 194:../../dependencies/STM32CubeL0/Drivers/STM32L0xx_HAL_Driver/Inc/stm32l0xx_ll_bus.h **** 
 195:../../dependencies/STM32CubeL0/Drivers/STM32L0xx_HAL_Driver/Inc/stm32l0xx_ll_bus.h **** /* Exported macro ------------------------------------------------------------*/
 196:../../dependencies/STM32CubeL0/Drivers/STM32L0xx_HAL_Driver/Inc/stm32l0xx_ll_bus.h **** /* Exported functions --------------------------------------------------------*/
 197:../../dependencies/STM32CubeL0/Drivers/STM32L0xx_HAL_Driver/Inc/stm32l0xx_ll_bus.h **** /** @defgroup BUS_LL_Exported_Functions BUS Exported Functions
 198:../../dependencies/STM32CubeL0/Drivers/STM32L0xx_HAL_Driver/Inc/stm32l0xx_ll_bus.h ****   * @{
 199:../../dependencies/STM32CubeL0/Drivers/STM32L0xx_HAL_Driver/Inc/stm32l0xx_ll_bus.h ****   */
 200:../../dependencies/STM32CubeL0/Drivers/STM32L0xx_HAL_Driver/Inc/stm32l0xx_ll_bus.h **** 
 201:../../dependencies/STM32CubeL0/Drivers/STM32L0xx_HAL_Driver/Inc/stm32l0xx_ll_bus.h **** /** @defgroup BUS_LL_EF_AHB1 AHB1
 202:../../dependencies/STM32CubeL0/Drivers/STM32L0xx_HAL_Driver/Inc/stm32l0xx_ll_bus.h ****   * @{
 203:../../dependencies/STM32CubeL0/Drivers/STM32L0xx_HAL_Driver/Inc/stm32l0xx_ll_bus.h ****   */
 204:../../dependencies/STM32CubeL0/Drivers/STM32L0xx_HAL_Driver/Inc/stm32l0xx_ll_bus.h **** 
 205:../../dependencies/STM32CubeL0/Drivers/STM32L0xx_HAL_Driver/Inc/stm32l0xx_ll_bus.h **** /**
 206:../../dependencies/STM32CubeL0/Drivers/STM32L0xx_HAL_Driver/Inc/stm32l0xx_ll_bus.h ****   * @brief  Enable AHB1 peripherals clock.
 207:../../dependencies/STM32CubeL0/Drivers/STM32L0xx_HAL_Driver/Inc/stm32l0xx_ll_bus.h ****   * @rmtoll AHBENR      DMAEN        LL_AHB1_GRP1_EnableClock\n
 208:../../dependencies/STM32CubeL0/Drivers/STM32L0xx_HAL_Driver/Inc/stm32l0xx_ll_bus.h ****   *         AHBENR      MIFEN        LL_AHB1_GRP1_EnableClock\n
 209:../../dependencies/STM32CubeL0/Drivers/STM32L0xx_HAL_Driver/Inc/stm32l0xx_ll_bus.h ****   *         AHBENR      CRCEN        LL_AHB1_GRP1_EnableClock\n
 210:../../dependencies/STM32CubeL0/Drivers/STM32L0xx_HAL_Driver/Inc/stm32l0xx_ll_bus.h ****   *         AHBENR      TSCEN        LL_AHB1_GRP1_EnableClock\n
 211:../../dependencies/STM32CubeL0/Drivers/STM32L0xx_HAL_Driver/Inc/stm32l0xx_ll_bus.h ****   *         AHBENR      RNGEN        LL_AHB1_GRP1_EnableClock\n
 212:../../dependencies/STM32CubeL0/Drivers/STM32L0xx_HAL_Driver/Inc/stm32l0xx_ll_bus.h ****   *         AHBENR      CRYPEN       LL_AHB1_GRP1_EnableClock
 213:../../dependencies/STM32CubeL0/Drivers/STM32L0xx_HAL_Driver/Inc/stm32l0xx_ll_bus.h ****   * @param  Periphs This parameter can be a combination of the following values:
 214:../../dependencies/STM32CubeL0/Drivers/STM32L0xx_HAL_Driver/Inc/stm32l0xx_ll_bus.h ****   *         @arg @ref LL_AHB1_GRP1_PERIPH_DMA1
 215:../../dependencies/STM32CubeL0/Drivers/STM32L0xx_HAL_Driver/Inc/stm32l0xx_ll_bus.h ****   *         @arg @ref LL_AHB1_GRP1_PERIPH_MIF
 216:../../dependencies/STM32CubeL0/Drivers/STM32L0xx_HAL_Driver/Inc/stm32l0xx_ll_bus.h ****   *         @arg @ref LL_AHB1_GRP1_PERIPH_CRC
 217:../../dependencies/STM32CubeL0/Drivers/STM32L0xx_HAL_Driver/Inc/stm32l0xx_ll_bus.h ****   *         @arg @ref LL_AHB1_GRP1_PERIPH_TSC (*)
 218:../../dependencies/STM32CubeL0/Drivers/STM32L0xx_HAL_Driver/Inc/stm32l0xx_ll_bus.h ****   *         @arg @ref LL_AHB1_GRP1_PERIPH_RNG (*)
 219:../../dependencies/STM32CubeL0/Drivers/STM32L0xx_HAL_Driver/Inc/stm32l0xx_ll_bus.h ****   *         @arg @ref LL_AHB1_GRP1_PERIPH_CRYP (*)
 220:../../dependencies/STM32CubeL0/Drivers/STM32L0xx_HAL_Driver/Inc/stm32l0xx_ll_bus.h ****   *
 221:../../dependencies/STM32CubeL0/Drivers/STM32L0xx_HAL_Driver/Inc/stm32l0xx_ll_bus.h ****   *         (*) value not defined in all devices.
 222:../../dependencies/STM32CubeL0/Drivers/STM32L0xx_HAL_Driver/Inc/stm32l0xx_ll_bus.h ****   * @retval None
 223:../../dependencies/STM32CubeL0/Drivers/STM32L0xx_HAL_Driver/Inc/stm32l0xx_ll_bus.h **** */
 224:../../dependencies/STM32CubeL0/Drivers/STM32L0xx_HAL_Driver/Inc/stm32l0xx_ll_bus.h **** __STATIC_INLINE void LL_AHB1_GRP1_EnableClock(uint32_t Periphs)
 225:../../dependencies/STM32CubeL0/Drivers/STM32L0xx_HAL_Driver/Inc/stm32l0xx_ll_bus.h **** {
 226:../../dependencies/STM32CubeL0/Drivers/STM32L0xx_HAL_Driver/Inc/stm32l0xx_ll_bus.h ****   __IO uint32_t tmpreg;
 227:../../dependencies/STM32CubeL0/Drivers/STM32L0xx_HAL_Driver/Inc/stm32l0xx_ll_bus.h ****   SET_BIT(RCC->AHBENR, Periphs);
 228:../../dependencies/STM32CubeL0/Drivers/STM32L0xx_HAL_Driver/Inc/stm32l0xx_ll_bus.h ****   /* Delay after an RCC peripheral clock enabling */
 229:../../dependencies/STM32CubeL0/Drivers/STM32L0xx_HAL_Driver/Inc/stm32l0xx_ll_bus.h ****   tmpreg = READ_BIT(RCC->AHBENR, Periphs);
 230:../../dependencies/STM32CubeL0/Drivers/STM32L0xx_HAL_Driver/Inc/stm32l0xx_ll_bus.h ****   (void)tmpreg;
 231:../../dependencies/STM32CubeL0/Drivers/STM32L0xx_HAL_Driver/Inc/stm32l0xx_ll_bus.h **** }
 232:../../dependencies/STM32CubeL0/Drivers/STM32L0xx_HAL_Driver/Inc/stm32l0xx_ll_bus.h **** 
 233:../../dependencies/STM32CubeL0/Drivers/STM32L0xx_HAL_Driver/Inc/stm32l0xx_ll_bus.h **** /**
 234:../../dependencies/STM32CubeL0/Drivers/STM32L0xx_HAL_Driver/Inc/stm32l0xx_ll_bus.h ****   * @brief  Check if AHB1 peripheral clock is enabled or not
 235:../../dependencies/STM32CubeL0/Drivers/STM32L0xx_HAL_Driver/Inc/stm32l0xx_ll_bus.h ****   * @rmtoll AHBENR      DMAEN        LL_AHB1_GRP1_IsEnabledClock\n
 236:../../dependencies/STM32CubeL0/Drivers/STM32L0xx_HAL_Driver/Inc/stm32l0xx_ll_bus.h ****   *         AHBENR      MIFEN        LL_AHB1_GRP1_IsEnabledClock\n
 237:../../dependencies/STM32CubeL0/Drivers/STM32L0xx_HAL_Driver/Inc/stm32l0xx_ll_bus.h ****   *         AHBENR      CRCEN        LL_AHB1_GRP1_IsEnabledClock\n
 238:../../dependencies/STM32CubeL0/Drivers/STM32L0xx_HAL_Driver/Inc/stm32l0xx_ll_bus.h ****   *         AHBENR      TSCEN        LL_AHB1_GRP1_IsEnabledClock\n
 239:../../dependencies/STM32CubeL0/Drivers/STM32L0xx_HAL_Driver/Inc/stm32l0xx_ll_bus.h ****   *         AHBENR      RNGEN        LL_AHB1_GRP1_IsEnabledClock\n
 240:../../dependencies/STM32CubeL0/Drivers/STM32L0xx_HAL_Driver/Inc/stm32l0xx_ll_bus.h ****   *         AHBENR      CRYPEN       LL_AHB1_GRP1_IsEnabledClock
 241:../../dependencies/STM32CubeL0/Drivers/STM32L0xx_HAL_Driver/Inc/stm32l0xx_ll_bus.h ****   * @param  Periphs This parameter can be a combination of the following values:
 242:../../dependencies/STM32CubeL0/Drivers/STM32L0xx_HAL_Driver/Inc/stm32l0xx_ll_bus.h ****   *         @arg @ref LL_AHB1_GRP1_PERIPH_DMA1
ARM GAS  /var/folders/fs/dxwfnrqj18z860lwl3d6f5t00000gn/T//ccbTeCNC.s 			page 25


 243:../../dependencies/STM32CubeL0/Drivers/STM32L0xx_HAL_Driver/Inc/stm32l0xx_ll_bus.h ****   *         @arg @ref LL_AHB1_GRP1_PERIPH_MIF
 244:../../dependencies/STM32CubeL0/Drivers/STM32L0xx_HAL_Driver/Inc/stm32l0xx_ll_bus.h ****   *         @arg @ref LL_AHB1_GRP1_PERIPH_CRC
 245:../../dependencies/STM32CubeL0/Drivers/STM32L0xx_HAL_Driver/Inc/stm32l0xx_ll_bus.h ****   *         @arg @ref LL_AHB1_GRP1_PERIPH_TSC (*)
 246:../../dependencies/STM32CubeL0/Drivers/STM32L0xx_HAL_Driver/Inc/stm32l0xx_ll_bus.h ****   *         @arg @ref LL_AHB1_GRP1_PERIPH_RNG (*)
 247:../../dependencies/STM32CubeL0/Drivers/STM32L0xx_HAL_Driver/Inc/stm32l0xx_ll_bus.h ****   *         @arg @ref LL_AHB1_GRP1_PERIPH_CRYP (*)
 248:../../dependencies/STM32CubeL0/Drivers/STM32L0xx_HAL_Driver/Inc/stm32l0xx_ll_bus.h ****   *
 249:../../dependencies/STM32CubeL0/Drivers/STM32L0xx_HAL_Driver/Inc/stm32l0xx_ll_bus.h ****   *         (*) value not defined in all devices.
 250:../../dependencies/STM32CubeL0/Drivers/STM32L0xx_HAL_Driver/Inc/stm32l0xx_ll_bus.h ****   * @retval State of Periphs (1 or 0).
 251:../../dependencies/STM32CubeL0/Drivers/STM32L0xx_HAL_Driver/Inc/stm32l0xx_ll_bus.h **** */
 252:../../dependencies/STM32CubeL0/Drivers/STM32L0xx_HAL_Driver/Inc/stm32l0xx_ll_bus.h **** __STATIC_INLINE uint32_t LL_AHB1_GRP1_IsEnabledClock(uint32_t Periphs)
 253:../../dependencies/STM32CubeL0/Drivers/STM32L0xx_HAL_Driver/Inc/stm32l0xx_ll_bus.h **** {
 254:../../dependencies/STM32CubeL0/Drivers/STM32L0xx_HAL_Driver/Inc/stm32l0xx_ll_bus.h ****   return ((READ_BIT(RCC->AHBENR, Periphs) == (Periphs)) ? 1UL : 0UL);
 255:../../dependencies/STM32CubeL0/Drivers/STM32L0xx_HAL_Driver/Inc/stm32l0xx_ll_bus.h **** }
 256:../../dependencies/STM32CubeL0/Drivers/STM32L0xx_HAL_Driver/Inc/stm32l0xx_ll_bus.h **** 
 257:../../dependencies/STM32CubeL0/Drivers/STM32L0xx_HAL_Driver/Inc/stm32l0xx_ll_bus.h **** /**
 258:../../dependencies/STM32CubeL0/Drivers/STM32L0xx_HAL_Driver/Inc/stm32l0xx_ll_bus.h ****   * @brief  Disable AHB1 peripherals clock.
 259:../../dependencies/STM32CubeL0/Drivers/STM32L0xx_HAL_Driver/Inc/stm32l0xx_ll_bus.h ****   * @rmtoll AHBENR      DMAEN        LL_AHB1_GRP1_DisableClock\n
 260:../../dependencies/STM32CubeL0/Drivers/STM32L0xx_HAL_Driver/Inc/stm32l0xx_ll_bus.h ****   *         AHBENR      MIFEN        LL_AHB1_GRP1_DisableClock\n
 261:../../dependencies/STM32CubeL0/Drivers/STM32L0xx_HAL_Driver/Inc/stm32l0xx_ll_bus.h ****   *         AHBENR      CRCEN        LL_AHB1_GRP1_DisableClock\n
 262:../../dependencies/STM32CubeL0/Drivers/STM32L0xx_HAL_Driver/Inc/stm32l0xx_ll_bus.h ****   *         AHBENR      TSCEN        LL_AHB1_GRP1_DisableClock\n
 263:../../dependencies/STM32CubeL0/Drivers/STM32L0xx_HAL_Driver/Inc/stm32l0xx_ll_bus.h ****   *         AHBENR      RNGEN        LL_AHB1_GRP1_DisableClock\n
 264:../../dependencies/STM32CubeL0/Drivers/STM32L0xx_HAL_Driver/Inc/stm32l0xx_ll_bus.h ****   *         AHBENR      CRYPEN       LL_AHB1_GRP1_DisableClock
 265:../../dependencies/STM32CubeL0/Drivers/STM32L0xx_HAL_Driver/Inc/stm32l0xx_ll_bus.h ****   * @param  Periphs This parameter can be a combination of the following values:
 266:../../dependencies/STM32CubeL0/Drivers/STM32L0xx_HAL_Driver/Inc/stm32l0xx_ll_bus.h ****   *         @arg @ref LL_AHB1_GRP1_PERIPH_DMA1
 267:../../dependencies/STM32CubeL0/Drivers/STM32L0xx_HAL_Driver/Inc/stm32l0xx_ll_bus.h ****   *         @arg @ref LL_AHB1_GRP1_PERIPH_MIF
 268:../../dependencies/STM32CubeL0/Drivers/STM32L0xx_HAL_Driver/Inc/stm32l0xx_ll_bus.h ****   *         @arg @ref LL_AHB1_GRP1_PERIPH_CRC
 269:../../dependencies/STM32CubeL0/Drivers/STM32L0xx_HAL_Driver/Inc/stm32l0xx_ll_bus.h ****   *         @arg @ref LL_AHB1_GRP1_PERIPH_TSC (*)
 270:../../dependencies/STM32CubeL0/Drivers/STM32L0xx_HAL_Driver/Inc/stm32l0xx_ll_bus.h ****   *         @arg @ref LL_AHB1_GRP1_PERIPH_RNG (*)
 271:../../dependencies/STM32CubeL0/Drivers/STM32L0xx_HAL_Driver/Inc/stm32l0xx_ll_bus.h ****   *         @arg @ref LL_AHB1_GRP1_PERIPH_CRYP (*)
 272:../../dependencies/STM32CubeL0/Drivers/STM32L0xx_HAL_Driver/Inc/stm32l0xx_ll_bus.h ****   *
 273:../../dependencies/STM32CubeL0/Drivers/STM32L0xx_HAL_Driver/Inc/stm32l0xx_ll_bus.h ****   *         (*) value not defined in all devices.
 274:../../dependencies/STM32CubeL0/Drivers/STM32L0xx_HAL_Driver/Inc/stm32l0xx_ll_bus.h ****   * @retval None
 275:../../dependencies/STM32CubeL0/Drivers/STM32L0xx_HAL_Driver/Inc/stm32l0xx_ll_bus.h **** */
 276:../../dependencies/STM32CubeL0/Drivers/STM32L0xx_HAL_Driver/Inc/stm32l0xx_ll_bus.h **** __STATIC_INLINE void LL_AHB1_GRP1_DisableClock(uint32_t Periphs)
 277:../../dependencies/STM32CubeL0/Drivers/STM32L0xx_HAL_Driver/Inc/stm32l0xx_ll_bus.h **** {
 278:../../dependencies/STM32CubeL0/Drivers/STM32L0xx_HAL_Driver/Inc/stm32l0xx_ll_bus.h ****   CLEAR_BIT(RCC->AHBENR, Periphs);
 279:../../dependencies/STM32CubeL0/Drivers/STM32L0xx_HAL_Driver/Inc/stm32l0xx_ll_bus.h **** }
 280:../../dependencies/STM32CubeL0/Drivers/STM32L0xx_HAL_Driver/Inc/stm32l0xx_ll_bus.h **** 
 281:../../dependencies/STM32CubeL0/Drivers/STM32L0xx_HAL_Driver/Inc/stm32l0xx_ll_bus.h **** /**
 282:../../dependencies/STM32CubeL0/Drivers/STM32L0xx_HAL_Driver/Inc/stm32l0xx_ll_bus.h ****   * @brief  Force AHB1 peripherals reset.
 283:../../dependencies/STM32CubeL0/Drivers/STM32L0xx_HAL_Driver/Inc/stm32l0xx_ll_bus.h ****   * @rmtoll AHBRSTR      DMARST        LL_AHB1_GRP1_ForceReset\n
 284:../../dependencies/STM32CubeL0/Drivers/STM32L0xx_HAL_Driver/Inc/stm32l0xx_ll_bus.h ****   *         AHBRSTR      MIFRST        LL_AHB1_GRP1_ForceReset\n
 285:../../dependencies/STM32CubeL0/Drivers/STM32L0xx_HAL_Driver/Inc/stm32l0xx_ll_bus.h ****   *         AHBRSTR      CRCRST        LL_AHB1_GRP1_ForceReset\n
 286:../../dependencies/STM32CubeL0/Drivers/STM32L0xx_HAL_Driver/Inc/stm32l0xx_ll_bus.h ****   *         AHBRSTR      TSCRST        LL_AHB1_GRP1_ForceReset\n
 287:../../dependencies/STM32CubeL0/Drivers/STM32L0xx_HAL_Driver/Inc/stm32l0xx_ll_bus.h ****   *         AHBRSTR      RNGRST        LL_AHB1_GRP1_ForceReset\n
 288:../../dependencies/STM32CubeL0/Drivers/STM32L0xx_HAL_Driver/Inc/stm32l0xx_ll_bus.h ****   *         AHBRSTR      CRYPRST       LL_AHB1_GRP1_ForceReset
 289:../../dependencies/STM32CubeL0/Drivers/STM32L0xx_HAL_Driver/Inc/stm32l0xx_ll_bus.h ****   * @param  Periphs This parameter can be a combination of the following values:
 290:../../dependencies/STM32CubeL0/Drivers/STM32L0xx_HAL_Driver/Inc/stm32l0xx_ll_bus.h ****   *         @arg @ref LL_AHB1_GRP1_PERIPH_ALL
 291:../../dependencies/STM32CubeL0/Drivers/STM32L0xx_HAL_Driver/Inc/stm32l0xx_ll_bus.h ****   *         @arg @ref LL_AHB1_GRP1_PERIPH_DMA1
 292:../../dependencies/STM32CubeL0/Drivers/STM32L0xx_HAL_Driver/Inc/stm32l0xx_ll_bus.h ****   *         @arg @ref LL_AHB1_GRP1_PERIPH_MIF
 293:../../dependencies/STM32CubeL0/Drivers/STM32L0xx_HAL_Driver/Inc/stm32l0xx_ll_bus.h ****   *         @arg @ref LL_AHB1_GRP1_PERIPH_CRC
 294:../../dependencies/STM32CubeL0/Drivers/STM32L0xx_HAL_Driver/Inc/stm32l0xx_ll_bus.h ****   *         @arg @ref LL_AHB1_GRP1_PERIPH_TSC (*)
 295:../../dependencies/STM32CubeL0/Drivers/STM32L0xx_HAL_Driver/Inc/stm32l0xx_ll_bus.h ****   *         @arg @ref LL_AHB1_GRP1_PERIPH_RNG (*)
 296:../../dependencies/STM32CubeL0/Drivers/STM32L0xx_HAL_Driver/Inc/stm32l0xx_ll_bus.h ****   *         @arg @ref LL_AHB1_GRP1_PERIPH_CRYP (*)
 297:../../dependencies/STM32CubeL0/Drivers/STM32L0xx_HAL_Driver/Inc/stm32l0xx_ll_bus.h ****   *
 298:../../dependencies/STM32CubeL0/Drivers/STM32L0xx_HAL_Driver/Inc/stm32l0xx_ll_bus.h ****   *         (*) value not defined in all devices.
 299:../../dependencies/STM32CubeL0/Drivers/STM32L0xx_HAL_Driver/Inc/stm32l0xx_ll_bus.h ****   * @retval None
ARM GAS  /var/folders/fs/dxwfnrqj18z860lwl3d6f5t00000gn/T//ccbTeCNC.s 			page 26


 300:../../dependencies/STM32CubeL0/Drivers/STM32L0xx_HAL_Driver/Inc/stm32l0xx_ll_bus.h **** */
 301:../../dependencies/STM32CubeL0/Drivers/STM32L0xx_HAL_Driver/Inc/stm32l0xx_ll_bus.h **** __STATIC_INLINE void LL_AHB1_GRP1_ForceReset(uint32_t Periphs)
 302:../../dependencies/STM32CubeL0/Drivers/STM32L0xx_HAL_Driver/Inc/stm32l0xx_ll_bus.h **** {
 303:../../dependencies/STM32CubeL0/Drivers/STM32L0xx_HAL_Driver/Inc/stm32l0xx_ll_bus.h ****   SET_BIT(RCC->AHBRSTR, Periphs);
 304:../../dependencies/STM32CubeL0/Drivers/STM32L0xx_HAL_Driver/Inc/stm32l0xx_ll_bus.h **** }
 305:../../dependencies/STM32CubeL0/Drivers/STM32L0xx_HAL_Driver/Inc/stm32l0xx_ll_bus.h **** 
 306:../../dependencies/STM32CubeL0/Drivers/STM32L0xx_HAL_Driver/Inc/stm32l0xx_ll_bus.h **** /**
 307:../../dependencies/STM32CubeL0/Drivers/STM32L0xx_HAL_Driver/Inc/stm32l0xx_ll_bus.h ****   * @brief  Release AHB1 peripherals reset.
 308:../../dependencies/STM32CubeL0/Drivers/STM32L0xx_HAL_Driver/Inc/stm32l0xx_ll_bus.h ****   * @rmtoll AHBRSTR      DMARST        LL_AHB1_GRP1_ReleaseReset\n
 309:../../dependencies/STM32CubeL0/Drivers/STM32L0xx_HAL_Driver/Inc/stm32l0xx_ll_bus.h ****   *         AHBRSTR      MIFRST        LL_AHB1_GRP1_ReleaseReset\n
 310:../../dependencies/STM32CubeL0/Drivers/STM32L0xx_HAL_Driver/Inc/stm32l0xx_ll_bus.h ****   *         AHBRSTR      CRCRST        LL_AHB1_GRP1_ReleaseReset\n
 311:../../dependencies/STM32CubeL0/Drivers/STM32L0xx_HAL_Driver/Inc/stm32l0xx_ll_bus.h ****   *         AHBRSTR      TSCRST        LL_AHB1_GRP1_ReleaseReset\n
 312:../../dependencies/STM32CubeL0/Drivers/STM32L0xx_HAL_Driver/Inc/stm32l0xx_ll_bus.h ****   *         AHBRSTR      RNGRST        LL_AHB1_GRP1_ReleaseReset\n
 313:../../dependencies/STM32CubeL0/Drivers/STM32L0xx_HAL_Driver/Inc/stm32l0xx_ll_bus.h ****   *         AHBRSTR      CRYPRST       LL_AHB1_GRP1_ReleaseReset
 314:../../dependencies/STM32CubeL0/Drivers/STM32L0xx_HAL_Driver/Inc/stm32l0xx_ll_bus.h ****   * @param  Periphs This parameter can be a combination of the following values:
 315:../../dependencies/STM32CubeL0/Drivers/STM32L0xx_HAL_Driver/Inc/stm32l0xx_ll_bus.h ****   *         @arg @ref LL_AHB1_GRP1_PERIPH_ALL
 316:../../dependencies/STM32CubeL0/Drivers/STM32L0xx_HAL_Driver/Inc/stm32l0xx_ll_bus.h ****   *         @arg @ref LL_AHB1_GRP1_PERIPH_DMA1
 317:../../dependencies/STM32CubeL0/Drivers/STM32L0xx_HAL_Driver/Inc/stm32l0xx_ll_bus.h ****   *         @arg @ref LL_AHB1_GRP1_PERIPH_MIF
 318:../../dependencies/STM32CubeL0/Drivers/STM32L0xx_HAL_Driver/Inc/stm32l0xx_ll_bus.h ****   *         @arg @ref LL_AHB1_GRP1_PERIPH_CRC
 319:../../dependencies/STM32CubeL0/Drivers/STM32L0xx_HAL_Driver/Inc/stm32l0xx_ll_bus.h ****   *         @arg @ref LL_AHB1_GRP1_PERIPH_TSC (*)
 320:../../dependencies/STM32CubeL0/Drivers/STM32L0xx_HAL_Driver/Inc/stm32l0xx_ll_bus.h ****   *         @arg @ref LL_AHB1_GRP1_PERIPH_RNG (*)
 321:../../dependencies/STM32CubeL0/Drivers/STM32L0xx_HAL_Driver/Inc/stm32l0xx_ll_bus.h ****   *         @arg @ref LL_AHB1_GRP1_PERIPH_CRYP (*)
 322:../../dependencies/STM32CubeL0/Drivers/STM32L0xx_HAL_Driver/Inc/stm32l0xx_ll_bus.h ****   *
 323:../../dependencies/STM32CubeL0/Drivers/STM32L0xx_HAL_Driver/Inc/stm32l0xx_ll_bus.h ****   *         (*) value not defined in all devices.
 324:../../dependencies/STM32CubeL0/Drivers/STM32L0xx_HAL_Driver/Inc/stm32l0xx_ll_bus.h ****   * @retval None
 325:../../dependencies/STM32CubeL0/Drivers/STM32L0xx_HAL_Driver/Inc/stm32l0xx_ll_bus.h **** */
 326:../../dependencies/STM32CubeL0/Drivers/STM32L0xx_HAL_Driver/Inc/stm32l0xx_ll_bus.h **** __STATIC_INLINE void LL_AHB1_GRP1_ReleaseReset(uint32_t Periphs)
 327:../../dependencies/STM32CubeL0/Drivers/STM32L0xx_HAL_Driver/Inc/stm32l0xx_ll_bus.h **** {
 328:../../dependencies/STM32CubeL0/Drivers/STM32L0xx_HAL_Driver/Inc/stm32l0xx_ll_bus.h ****   CLEAR_BIT(RCC->AHBRSTR, Periphs);
 329:../../dependencies/STM32CubeL0/Drivers/STM32L0xx_HAL_Driver/Inc/stm32l0xx_ll_bus.h **** }
 330:../../dependencies/STM32CubeL0/Drivers/STM32L0xx_HAL_Driver/Inc/stm32l0xx_ll_bus.h **** 
 331:../../dependencies/STM32CubeL0/Drivers/STM32L0xx_HAL_Driver/Inc/stm32l0xx_ll_bus.h **** /**
 332:../../dependencies/STM32CubeL0/Drivers/STM32L0xx_HAL_Driver/Inc/stm32l0xx_ll_bus.h ****   * @brief  Enable AHB1 peripherals clock during Low Power (Sleep) mode.
 333:../../dependencies/STM32CubeL0/Drivers/STM32L0xx_HAL_Driver/Inc/stm32l0xx_ll_bus.h ****   * @rmtoll AHBSMENR     DMASMEN       LL_AHB1_GRP1_EnableClockSleep\n
 334:../../dependencies/STM32CubeL0/Drivers/STM32L0xx_HAL_Driver/Inc/stm32l0xx_ll_bus.h ****   *         AHBSMENR     MIFSMEN       LL_AHB1_GRP1_EnableClockSleep\n
 335:../../dependencies/STM32CubeL0/Drivers/STM32L0xx_HAL_Driver/Inc/stm32l0xx_ll_bus.h ****   *         AHBSMENR     SRAMSMEN      LL_AHB1_GRP1_EnableClockSleep\n
 336:../../dependencies/STM32CubeL0/Drivers/STM32L0xx_HAL_Driver/Inc/stm32l0xx_ll_bus.h ****   *         AHBSMENR     CRCSMEN       LL_AHB1_GRP1_EnableClockSleep\n
 337:../../dependencies/STM32CubeL0/Drivers/STM32L0xx_HAL_Driver/Inc/stm32l0xx_ll_bus.h ****   *         AHBSMENR     TSCSMEN       LL_AHB1_GRP1_EnableClockSleep\n
 338:../../dependencies/STM32CubeL0/Drivers/STM32L0xx_HAL_Driver/Inc/stm32l0xx_ll_bus.h ****   *         AHBSMENR     RNGSMEN       LL_AHB1_GRP1_EnableClockSleep\n
 339:../../dependencies/STM32CubeL0/Drivers/STM32L0xx_HAL_Driver/Inc/stm32l0xx_ll_bus.h ****   *         AHBSMENR     CRYPSMEN      LL_AHB1_GRP1_EnableClockSleep
 340:../../dependencies/STM32CubeL0/Drivers/STM32L0xx_HAL_Driver/Inc/stm32l0xx_ll_bus.h ****   * @param  Periphs This parameter can be a combination of the following values:
 341:../../dependencies/STM32CubeL0/Drivers/STM32L0xx_HAL_Driver/Inc/stm32l0xx_ll_bus.h ****   *         @arg @ref LL_AHB1_GRP1_PERIPH_DMA1
 342:../../dependencies/STM32CubeL0/Drivers/STM32L0xx_HAL_Driver/Inc/stm32l0xx_ll_bus.h ****   *         @arg @ref LL_AHB1_GRP1_PERIPH_MIF
 343:../../dependencies/STM32CubeL0/Drivers/STM32L0xx_HAL_Driver/Inc/stm32l0xx_ll_bus.h ****   *         @arg @ref LL_AHB1_GRP1_PERIPH_SRAM
 344:../../dependencies/STM32CubeL0/Drivers/STM32L0xx_HAL_Driver/Inc/stm32l0xx_ll_bus.h ****   *         @arg @ref LL_AHB1_GRP1_PERIPH_CRC
 345:../../dependencies/STM32CubeL0/Drivers/STM32L0xx_HAL_Driver/Inc/stm32l0xx_ll_bus.h ****   *         @arg @ref LL_AHB1_GRP1_PERIPH_TSC (*)
 346:../../dependencies/STM32CubeL0/Drivers/STM32L0xx_HAL_Driver/Inc/stm32l0xx_ll_bus.h ****   *         @arg @ref LL_AHB1_GRP1_PERIPH_RNG (*)
 347:../../dependencies/STM32CubeL0/Drivers/STM32L0xx_HAL_Driver/Inc/stm32l0xx_ll_bus.h ****   *         @arg @ref LL_AHB1_GRP1_PERIPH_CRYP (*)
 348:../../dependencies/STM32CubeL0/Drivers/STM32L0xx_HAL_Driver/Inc/stm32l0xx_ll_bus.h ****   *
 349:../../dependencies/STM32CubeL0/Drivers/STM32L0xx_HAL_Driver/Inc/stm32l0xx_ll_bus.h ****   *         (*) value not defined in all devices.
 350:../../dependencies/STM32CubeL0/Drivers/STM32L0xx_HAL_Driver/Inc/stm32l0xx_ll_bus.h ****   * @retval None
 351:../../dependencies/STM32CubeL0/Drivers/STM32L0xx_HAL_Driver/Inc/stm32l0xx_ll_bus.h **** */
 352:../../dependencies/STM32CubeL0/Drivers/STM32L0xx_HAL_Driver/Inc/stm32l0xx_ll_bus.h **** __STATIC_INLINE void LL_AHB1_GRP1_EnableClockSleep(uint32_t Periphs)
 353:../../dependencies/STM32CubeL0/Drivers/STM32L0xx_HAL_Driver/Inc/stm32l0xx_ll_bus.h **** {
 354:../../dependencies/STM32CubeL0/Drivers/STM32L0xx_HAL_Driver/Inc/stm32l0xx_ll_bus.h ****   __IO uint32_t tmpreg;
 355:../../dependencies/STM32CubeL0/Drivers/STM32L0xx_HAL_Driver/Inc/stm32l0xx_ll_bus.h ****   SET_BIT(RCC->AHBSMENR, Periphs);
 356:../../dependencies/STM32CubeL0/Drivers/STM32L0xx_HAL_Driver/Inc/stm32l0xx_ll_bus.h ****   /* Delay after an RCC peripheral clock enabling */
ARM GAS  /var/folders/fs/dxwfnrqj18z860lwl3d6f5t00000gn/T//ccbTeCNC.s 			page 27


 357:../../dependencies/STM32CubeL0/Drivers/STM32L0xx_HAL_Driver/Inc/stm32l0xx_ll_bus.h ****   tmpreg = READ_BIT(RCC->AHBSMENR, Periphs);
 358:../../dependencies/STM32CubeL0/Drivers/STM32L0xx_HAL_Driver/Inc/stm32l0xx_ll_bus.h ****   (void)tmpreg;
 359:../../dependencies/STM32CubeL0/Drivers/STM32L0xx_HAL_Driver/Inc/stm32l0xx_ll_bus.h **** }
 360:../../dependencies/STM32CubeL0/Drivers/STM32L0xx_HAL_Driver/Inc/stm32l0xx_ll_bus.h **** 
 361:../../dependencies/STM32CubeL0/Drivers/STM32L0xx_HAL_Driver/Inc/stm32l0xx_ll_bus.h **** /**
 362:../../dependencies/STM32CubeL0/Drivers/STM32L0xx_HAL_Driver/Inc/stm32l0xx_ll_bus.h ****   * @brief  Disable AHB1 peripherals clock during Low Power (Sleep) mode.
 363:../../dependencies/STM32CubeL0/Drivers/STM32L0xx_HAL_Driver/Inc/stm32l0xx_ll_bus.h ****   * @rmtoll AHBSMENR     DMASMEN       LL_AHB1_GRP1_DisableClockSleep\n
 364:../../dependencies/STM32CubeL0/Drivers/STM32L0xx_HAL_Driver/Inc/stm32l0xx_ll_bus.h ****   *         AHBSMENR     MIFSMEN       LL_AHB1_GRP1_DisableClockSleep\n
 365:../../dependencies/STM32CubeL0/Drivers/STM32L0xx_HAL_Driver/Inc/stm32l0xx_ll_bus.h ****   *         AHBSMENR     SRAMSMEN      LL_AHB1_GRP1_DisableClockSleep\n
 366:../../dependencies/STM32CubeL0/Drivers/STM32L0xx_HAL_Driver/Inc/stm32l0xx_ll_bus.h ****   *         AHBSMENR     CRCSMEN       LL_AHB1_GRP1_DisableClockSleep\n
 367:../../dependencies/STM32CubeL0/Drivers/STM32L0xx_HAL_Driver/Inc/stm32l0xx_ll_bus.h ****   *         AHBSMENR     TSCSMEN       LL_AHB1_GRP1_DisableClockSleep\n
 368:../../dependencies/STM32CubeL0/Drivers/STM32L0xx_HAL_Driver/Inc/stm32l0xx_ll_bus.h ****   *         AHBSMENR     RNGSMEN       LL_AHB1_GRP1_DisableClockSleep\n
 369:../../dependencies/STM32CubeL0/Drivers/STM32L0xx_HAL_Driver/Inc/stm32l0xx_ll_bus.h ****   *         AHBSMENR     CRYPSMEN      LL_AHB1_GRP1_DisableClockSleep
 370:../../dependencies/STM32CubeL0/Drivers/STM32L0xx_HAL_Driver/Inc/stm32l0xx_ll_bus.h ****   * @param  Periphs This parameter can be a combination of the following values:
 371:../../dependencies/STM32CubeL0/Drivers/STM32L0xx_HAL_Driver/Inc/stm32l0xx_ll_bus.h ****   *         @arg @ref LL_AHB1_GRP1_PERIPH_DMA1
 372:../../dependencies/STM32CubeL0/Drivers/STM32L0xx_HAL_Driver/Inc/stm32l0xx_ll_bus.h ****   *         @arg @ref LL_AHB1_GRP1_PERIPH_MIF
 373:../../dependencies/STM32CubeL0/Drivers/STM32L0xx_HAL_Driver/Inc/stm32l0xx_ll_bus.h ****   *         @arg @ref LL_AHB1_GRP1_PERIPH_SRAM
 374:../../dependencies/STM32CubeL0/Drivers/STM32L0xx_HAL_Driver/Inc/stm32l0xx_ll_bus.h ****   *         @arg @ref LL_AHB1_GRP1_PERIPH_CRC
 375:../../dependencies/STM32CubeL0/Drivers/STM32L0xx_HAL_Driver/Inc/stm32l0xx_ll_bus.h ****   *         @arg @ref LL_AHB1_GRP1_PERIPH_TSC (*)
 376:../../dependencies/STM32CubeL0/Drivers/STM32L0xx_HAL_Driver/Inc/stm32l0xx_ll_bus.h ****   *         @arg @ref LL_AHB1_GRP1_PERIPH_RNG (*)
 377:../../dependencies/STM32CubeL0/Drivers/STM32L0xx_HAL_Driver/Inc/stm32l0xx_ll_bus.h ****   *         @arg @ref LL_AHB1_GRP1_PERIPH_CRYP (*)
 378:../../dependencies/STM32CubeL0/Drivers/STM32L0xx_HAL_Driver/Inc/stm32l0xx_ll_bus.h ****   *
 379:../../dependencies/STM32CubeL0/Drivers/STM32L0xx_HAL_Driver/Inc/stm32l0xx_ll_bus.h ****   *         (*) value not defined in all devices.
 380:../../dependencies/STM32CubeL0/Drivers/STM32L0xx_HAL_Driver/Inc/stm32l0xx_ll_bus.h ****   * @retval None
 381:../../dependencies/STM32CubeL0/Drivers/STM32L0xx_HAL_Driver/Inc/stm32l0xx_ll_bus.h **** */
 382:../../dependencies/STM32CubeL0/Drivers/STM32L0xx_HAL_Driver/Inc/stm32l0xx_ll_bus.h **** __STATIC_INLINE void LL_AHB1_GRP1_DisableClockSleep(uint32_t Periphs)
 383:../../dependencies/STM32CubeL0/Drivers/STM32L0xx_HAL_Driver/Inc/stm32l0xx_ll_bus.h **** {
 384:../../dependencies/STM32CubeL0/Drivers/STM32L0xx_HAL_Driver/Inc/stm32l0xx_ll_bus.h ****   CLEAR_BIT(RCC->AHBSMENR, Periphs);
 385:../../dependencies/STM32CubeL0/Drivers/STM32L0xx_HAL_Driver/Inc/stm32l0xx_ll_bus.h **** }
 386:../../dependencies/STM32CubeL0/Drivers/STM32L0xx_HAL_Driver/Inc/stm32l0xx_ll_bus.h **** 
 387:../../dependencies/STM32CubeL0/Drivers/STM32L0xx_HAL_Driver/Inc/stm32l0xx_ll_bus.h **** /**
 388:../../dependencies/STM32CubeL0/Drivers/STM32L0xx_HAL_Driver/Inc/stm32l0xx_ll_bus.h ****   * @}
 389:../../dependencies/STM32CubeL0/Drivers/STM32L0xx_HAL_Driver/Inc/stm32l0xx_ll_bus.h ****   */
 390:../../dependencies/STM32CubeL0/Drivers/STM32L0xx_HAL_Driver/Inc/stm32l0xx_ll_bus.h **** 
 391:../../dependencies/STM32CubeL0/Drivers/STM32L0xx_HAL_Driver/Inc/stm32l0xx_ll_bus.h **** /** @defgroup BUS_LL_EF_APB1 APB1
 392:../../dependencies/STM32CubeL0/Drivers/STM32L0xx_HAL_Driver/Inc/stm32l0xx_ll_bus.h ****   * @{
 393:../../dependencies/STM32CubeL0/Drivers/STM32L0xx_HAL_Driver/Inc/stm32l0xx_ll_bus.h ****   */
 394:../../dependencies/STM32CubeL0/Drivers/STM32L0xx_HAL_Driver/Inc/stm32l0xx_ll_bus.h **** 
 395:../../dependencies/STM32CubeL0/Drivers/STM32L0xx_HAL_Driver/Inc/stm32l0xx_ll_bus.h **** /**
 396:../../dependencies/STM32CubeL0/Drivers/STM32L0xx_HAL_Driver/Inc/stm32l0xx_ll_bus.h ****   * @brief  Enable APB1 peripherals clock.
 397:../../dependencies/STM32CubeL0/Drivers/STM32L0xx_HAL_Driver/Inc/stm32l0xx_ll_bus.h ****   * @rmtoll APB1ENR     TIM2EN        LL_APB1_GRP1_EnableClock\n
 398:../../dependencies/STM32CubeL0/Drivers/STM32L0xx_HAL_Driver/Inc/stm32l0xx_ll_bus.h ****   *         APB1ENR     TIM3EN        LL_APB1_GRP1_EnableClock\n
 399:../../dependencies/STM32CubeL0/Drivers/STM32L0xx_HAL_Driver/Inc/stm32l0xx_ll_bus.h ****   *         APB1ENR     TIM6EN        LL_APB1_GRP1_EnableClock\n
 400:../../dependencies/STM32CubeL0/Drivers/STM32L0xx_HAL_Driver/Inc/stm32l0xx_ll_bus.h ****   *         APB1ENR     TIM7EN        LL_APB1_GRP1_EnableClock\n
 401:../../dependencies/STM32CubeL0/Drivers/STM32L0xx_HAL_Driver/Inc/stm32l0xx_ll_bus.h ****   *         APB1ENR     LCDEN         LL_APB1_GRP1_EnableClock\n
 402:../../dependencies/STM32CubeL0/Drivers/STM32L0xx_HAL_Driver/Inc/stm32l0xx_ll_bus.h ****   *         APB1ENR     WWDGEN        LL_APB1_GRP1_EnableClock\n
 403:../../dependencies/STM32CubeL0/Drivers/STM32L0xx_HAL_Driver/Inc/stm32l0xx_ll_bus.h ****   *         APB1ENR     SPI2EN        LL_APB1_GRP1_EnableClock\n
 404:../../dependencies/STM32CubeL0/Drivers/STM32L0xx_HAL_Driver/Inc/stm32l0xx_ll_bus.h ****   *         APB1ENR     USART2EN      LL_APB1_GRP1_EnableClock\n
 405:../../dependencies/STM32CubeL0/Drivers/STM32L0xx_HAL_Driver/Inc/stm32l0xx_ll_bus.h ****   *         APB1ENR     LPUART1EN     LL_APB1_GRP1_EnableClock\n
 406:../../dependencies/STM32CubeL0/Drivers/STM32L0xx_HAL_Driver/Inc/stm32l0xx_ll_bus.h ****   *         APB1ENR     USART4EN      LL_APB1_GRP1_EnableClock\n
 407:../../dependencies/STM32CubeL0/Drivers/STM32L0xx_HAL_Driver/Inc/stm32l0xx_ll_bus.h ****   *         APB1ENR     USART5EN      LL_APB1_GRP1_EnableClock\n
 408:../../dependencies/STM32CubeL0/Drivers/STM32L0xx_HAL_Driver/Inc/stm32l0xx_ll_bus.h ****   *         APB1ENR     I2C1EN        LL_APB1_GRP1_EnableClock\n
 409:../../dependencies/STM32CubeL0/Drivers/STM32L0xx_HAL_Driver/Inc/stm32l0xx_ll_bus.h ****   *         APB1ENR     I2C2EN        LL_APB1_GRP1_EnableClock\n
 410:../../dependencies/STM32CubeL0/Drivers/STM32L0xx_HAL_Driver/Inc/stm32l0xx_ll_bus.h ****   *         APB1ENR     USBEN         LL_APB1_GRP1_EnableClock\n
 411:../../dependencies/STM32CubeL0/Drivers/STM32L0xx_HAL_Driver/Inc/stm32l0xx_ll_bus.h ****   *         APB1ENR     CRSEN         LL_APB1_GRP1_EnableClock\n
 412:../../dependencies/STM32CubeL0/Drivers/STM32L0xx_HAL_Driver/Inc/stm32l0xx_ll_bus.h ****   *         APB1ENR     PWREN         LL_APB1_GRP1_EnableClock\n
 413:../../dependencies/STM32CubeL0/Drivers/STM32L0xx_HAL_Driver/Inc/stm32l0xx_ll_bus.h ****   *         APB1ENR     DACEN         LL_APB1_GRP1_EnableClock\n
ARM GAS  /var/folders/fs/dxwfnrqj18z860lwl3d6f5t00000gn/T//ccbTeCNC.s 			page 28


 414:../../dependencies/STM32CubeL0/Drivers/STM32L0xx_HAL_Driver/Inc/stm32l0xx_ll_bus.h ****   *         APB1ENR     I2C3EN        LL_APB1_GRP1_EnableClock\n
 415:../../dependencies/STM32CubeL0/Drivers/STM32L0xx_HAL_Driver/Inc/stm32l0xx_ll_bus.h ****   *         APB1ENR     LPTIM1EN      LL_APB1_GRP1_EnableClock
 416:../../dependencies/STM32CubeL0/Drivers/STM32L0xx_HAL_Driver/Inc/stm32l0xx_ll_bus.h ****   * @param  Periphs This parameter can be a combination of the following values:
 417:../../dependencies/STM32CubeL0/Drivers/STM32L0xx_HAL_Driver/Inc/stm32l0xx_ll_bus.h ****   *         @arg @ref LL_APB1_GRP1_PERIPH_TIM2
 418:../../dependencies/STM32CubeL0/Drivers/STM32L0xx_HAL_Driver/Inc/stm32l0xx_ll_bus.h ****   *         @arg @ref LL_APB1_GRP1_PERIPH_TIM3 (*)
 419:../../dependencies/STM32CubeL0/Drivers/STM32L0xx_HAL_Driver/Inc/stm32l0xx_ll_bus.h ****   *         @arg @ref LL_APB1_GRP1_PERIPH_TIM6 (*)
 420:../../dependencies/STM32CubeL0/Drivers/STM32L0xx_HAL_Driver/Inc/stm32l0xx_ll_bus.h ****   *         @arg @ref LL_APB1_GRP1_PERIPH_TIM7 (*)
 421:../../dependencies/STM32CubeL0/Drivers/STM32L0xx_HAL_Driver/Inc/stm32l0xx_ll_bus.h ****   *         @arg @ref LL_APB1_GRP1_PERIPH_LCD (*)
 422:../../dependencies/STM32CubeL0/Drivers/STM32L0xx_HAL_Driver/Inc/stm32l0xx_ll_bus.h ****   *         @arg @ref LL_APB1_GRP1_PERIPH_WWDG
 423:../../dependencies/STM32CubeL0/Drivers/STM32L0xx_HAL_Driver/Inc/stm32l0xx_ll_bus.h ****   *         @arg @ref LL_APB1_GRP1_PERIPH_SPI2 (*)
 424:../../dependencies/STM32CubeL0/Drivers/STM32L0xx_HAL_Driver/Inc/stm32l0xx_ll_bus.h ****   *         @arg @ref LL_APB1_GRP1_PERIPH_USART2
 425:../../dependencies/STM32CubeL0/Drivers/STM32L0xx_HAL_Driver/Inc/stm32l0xx_ll_bus.h ****   *         @arg @ref LL_APB1_GRP1_PERIPH_LPUART1
 426:../../dependencies/STM32CubeL0/Drivers/STM32L0xx_HAL_Driver/Inc/stm32l0xx_ll_bus.h ****   *         @arg @ref LL_APB1_GRP1_PERIPH_USART4 (*)
 427:../../dependencies/STM32CubeL0/Drivers/STM32L0xx_HAL_Driver/Inc/stm32l0xx_ll_bus.h ****   *         @arg @ref LL_APB1_GRP1_PERIPH_USART5 (*)
 428:../../dependencies/STM32CubeL0/Drivers/STM32L0xx_HAL_Driver/Inc/stm32l0xx_ll_bus.h ****   *         @arg @ref LL_APB1_GRP1_PERIPH_I2C1
 429:../../dependencies/STM32CubeL0/Drivers/STM32L0xx_HAL_Driver/Inc/stm32l0xx_ll_bus.h ****   *         @arg @ref LL_APB1_GRP1_PERIPH_I2C2 (*)
 430:../../dependencies/STM32CubeL0/Drivers/STM32L0xx_HAL_Driver/Inc/stm32l0xx_ll_bus.h ****   *         @arg @ref LL_APB1_GRP1_PERIPH_USB (*)
 431:../../dependencies/STM32CubeL0/Drivers/STM32L0xx_HAL_Driver/Inc/stm32l0xx_ll_bus.h ****   *         @arg @ref LL_APB1_GRP1_PERIPH_CRS (*)
 432:../../dependencies/STM32CubeL0/Drivers/STM32L0xx_HAL_Driver/Inc/stm32l0xx_ll_bus.h ****   *         @arg @ref LL_APB1_GRP1_PERIPH_PWR
 433:../../dependencies/STM32CubeL0/Drivers/STM32L0xx_HAL_Driver/Inc/stm32l0xx_ll_bus.h ****   *         @arg @ref LL_APB1_GRP1_PERIPH_DAC1 (*)
 434:../../dependencies/STM32CubeL0/Drivers/STM32L0xx_HAL_Driver/Inc/stm32l0xx_ll_bus.h ****   *         @arg @ref LL_APB1_GRP1_PERIPH_I2C3 (*)
 435:../../dependencies/STM32CubeL0/Drivers/STM32L0xx_HAL_Driver/Inc/stm32l0xx_ll_bus.h ****   *         @arg @ref LL_APB1_GRP1_PERIPH_LPTIM1
 436:../../dependencies/STM32CubeL0/Drivers/STM32L0xx_HAL_Driver/Inc/stm32l0xx_ll_bus.h ****   *
 437:../../dependencies/STM32CubeL0/Drivers/STM32L0xx_HAL_Driver/Inc/stm32l0xx_ll_bus.h ****   *         (*) value not defined in all devices.
 438:../../dependencies/STM32CubeL0/Drivers/STM32L0xx_HAL_Driver/Inc/stm32l0xx_ll_bus.h ****   * @retval None
 439:../../dependencies/STM32CubeL0/Drivers/STM32L0xx_HAL_Driver/Inc/stm32l0xx_ll_bus.h **** */
 440:../../dependencies/STM32CubeL0/Drivers/STM32L0xx_HAL_Driver/Inc/stm32l0xx_ll_bus.h **** __STATIC_INLINE void LL_APB1_GRP1_EnableClock(uint32_t Periphs)
 441:../../dependencies/STM32CubeL0/Drivers/STM32L0xx_HAL_Driver/Inc/stm32l0xx_ll_bus.h **** {
 253              		.loc 2 441 1
 254              		.cfi_startproc
 255              		@ args = 0, pretend = 0, frame = 16
 256              		@ frame_needed = 1, uses_anonymous_args = 0
 257 0000 80B5     		push	{r7, lr}
 258              		.cfi_def_cfa_offset 8
 259              		.cfi_offset 7, -8
 260              		.cfi_offset 14, -4
 261 0002 84B0     		sub	sp, sp, #16
 262              		.cfi_def_cfa_offset 24
 263 0004 00AF     		add	r7, sp, #0
 264              		.cfi_def_cfa_register 7
 265 0006 7860     		str	r0, [r7, #4]
 442:../../dependencies/STM32CubeL0/Drivers/STM32L0xx_HAL_Driver/Inc/stm32l0xx_ll_bus.h ****   __IO uint32_t tmpreg;
 443:../../dependencies/STM32CubeL0/Drivers/STM32L0xx_HAL_Driver/Inc/stm32l0xx_ll_bus.h ****   SET_BIT(RCC->APB1ENR, Periphs);
 266              		.loc 2 443 3
 267 0008 074B     		ldr	r3, .L13
 268 000a 996B     		ldr	r1, [r3, #56]
 269 000c 064B     		ldr	r3, .L13
 270 000e 7A68     		ldr	r2, [r7, #4]
 271 0010 0A43     		orrs	r2, r1
 272 0012 9A63     		str	r2, [r3, #56]
 444:../../dependencies/STM32CubeL0/Drivers/STM32L0xx_HAL_Driver/Inc/stm32l0xx_ll_bus.h ****   /* Delay after an RCC peripheral clock enabling */
 445:../../dependencies/STM32CubeL0/Drivers/STM32L0xx_HAL_Driver/Inc/stm32l0xx_ll_bus.h ****   tmpreg = READ_BIT(RCC->APB1ENR, Periphs);
 273              		.loc 2 445 12
 274 0014 044B     		ldr	r3, .L13
 275 0016 9B6B     		ldr	r3, [r3, #56]
 276 0018 7A68     		ldr	r2, [r7, #4]
 277 001a 1340     		ands	r3, r2
ARM GAS  /var/folders/fs/dxwfnrqj18z860lwl3d6f5t00000gn/T//ccbTeCNC.s 			page 29


 278              		.loc 2 445 10
 279 001c FB60     		str	r3, [r7, #12]
 446:../../dependencies/STM32CubeL0/Drivers/STM32L0xx_HAL_Driver/Inc/stm32l0xx_ll_bus.h ****   (void)tmpreg;
 280              		.loc 2 446 3
 281 001e FB68     		ldr	r3, [r7, #12]
 447:../../dependencies/STM32CubeL0/Drivers/STM32L0xx_HAL_Driver/Inc/stm32l0xx_ll_bus.h **** }
 282              		.loc 2 447 1
 283 0020 C046     		nop
 284 0022 BD46     		mov	sp, r7
 285 0024 04B0     		add	sp, sp, #16
 286              		@ sp needed
 287 0026 80BD     		pop	{r7, pc}
 288              	.L14:
 289              		.align	2
 290              	.L13:
 291 0028 00100240 		.word	1073876992
 292              		.cfi_endproc
 293              	.LFE157:
 295              		.section	.rodata.CHANNEL_OFFSET_TAB,"a"
 296              		.align	2
 299              	CHANNEL_OFFSET_TAB:
 300 0000 081C3044 		.ascii	"\010\0340DXl\200"
 300      586C80
 301              		.section	.rodata.OFFSET_TAB_CCMRx,"a"
 302              		.align	2
 305              	OFFSET_TAB_CCMRx:
 306 0000 00000000 		.ascii	"\000\000\000\000\004\000\004"
 306      040004
 307              		.section	.rodata.SHIFT_TAB_OCxx,"a"
 308              		.align	2
 311              	SHIFT_TAB_OCxx:
 312 0000 00000800 		.ascii	"\000\000\010\000\000\000\010"
 312      000008
 313              		.section	.rodata.SHIFT_TAB_ICxx,"a"
 314              		.align	2
 317              	SHIFT_TAB_ICxx:
 318 0000 00000800 		.ascii	"\000\000\010\000\000\000\010"
 318      000008
 319              		.section	.rodata.SHIFT_TAB_CCxP,"a"
 320              		.align	2
 323              	SHIFT_TAB_CCxP:
 324 0000 00000400 		.ascii	"\000\000\004\000\010\000\014"
 324      08000C
 325              		.section	.text.LL_TIM_EnableCounter,"ax",%progbits
 326              		.align	1
 327              		.syntax unified
 328              		.code	16
 329              		.thumb_func
 330              		.fpu softvfp
 332              	LL_TIM_EnableCounter:
 333              	.LFB826:
 334              		.file 3 "../../dependencies/STM32CubeL0/Drivers/STM32L0xx_HAL_Driver/Inc/stm32l0xx_ll_tim.h"
   1:../../dependencies/STM32CubeL0/Drivers/STM32L0xx_HAL_Driver/Inc/stm32l0xx_ll_tim.h **** /**
   2:../../dependencies/STM32CubeL0/Drivers/STM32L0xx_HAL_Driver/Inc/stm32l0xx_ll_tim.h ****   ******************************************************************************
   3:../../dependencies/STM32CubeL0/Drivers/STM32L0xx_HAL_Driver/Inc/stm32l0xx_ll_tim.h ****   * @file    stm32l0xx_ll_tim.h
   4:../../dependencies/STM32CubeL0/Drivers/STM32L0xx_HAL_Driver/Inc/stm32l0xx_ll_tim.h ****   * @author  MCD Application Team
   5:../../dependencies/STM32CubeL0/Drivers/STM32L0xx_HAL_Driver/Inc/stm32l0xx_ll_tim.h ****   * @brief   Header file of TIM LL module.
ARM GAS  /var/folders/fs/dxwfnrqj18z860lwl3d6f5t00000gn/T//ccbTeCNC.s 			page 30


   6:../../dependencies/STM32CubeL0/Drivers/STM32L0xx_HAL_Driver/Inc/stm32l0xx_ll_tim.h ****   ******************************************************************************
   7:../../dependencies/STM32CubeL0/Drivers/STM32L0xx_HAL_Driver/Inc/stm32l0xx_ll_tim.h ****   * @attention
   8:../../dependencies/STM32CubeL0/Drivers/STM32L0xx_HAL_Driver/Inc/stm32l0xx_ll_tim.h ****   *
   9:../../dependencies/STM32CubeL0/Drivers/STM32L0xx_HAL_Driver/Inc/stm32l0xx_ll_tim.h ****   * <h2><center>&copy; Copyright (c) 2016 STMicroelectronics.
  10:../../dependencies/STM32CubeL0/Drivers/STM32L0xx_HAL_Driver/Inc/stm32l0xx_ll_tim.h ****   * All rights reserved.</center></h2>
  11:../../dependencies/STM32CubeL0/Drivers/STM32L0xx_HAL_Driver/Inc/stm32l0xx_ll_tim.h ****   *
  12:../../dependencies/STM32CubeL0/Drivers/STM32L0xx_HAL_Driver/Inc/stm32l0xx_ll_tim.h ****   * This software component is licensed by ST under BSD 3-Clause license,
  13:../../dependencies/STM32CubeL0/Drivers/STM32L0xx_HAL_Driver/Inc/stm32l0xx_ll_tim.h ****   * the "License"; You may not use this file except in compliance with the
  14:../../dependencies/STM32CubeL0/Drivers/STM32L0xx_HAL_Driver/Inc/stm32l0xx_ll_tim.h ****   * License. You may obtain a copy of the License at:
  15:../../dependencies/STM32CubeL0/Drivers/STM32L0xx_HAL_Driver/Inc/stm32l0xx_ll_tim.h ****   *                        opensource.org/licenses/BSD-3-Clause
  16:../../dependencies/STM32CubeL0/Drivers/STM32L0xx_HAL_Driver/Inc/stm32l0xx_ll_tim.h ****   *
  17:../../dependencies/STM32CubeL0/Drivers/STM32L0xx_HAL_Driver/Inc/stm32l0xx_ll_tim.h ****   ******************************************************************************
  18:../../dependencies/STM32CubeL0/Drivers/STM32L0xx_HAL_Driver/Inc/stm32l0xx_ll_tim.h ****   */
  19:../../dependencies/STM32CubeL0/Drivers/STM32L0xx_HAL_Driver/Inc/stm32l0xx_ll_tim.h **** 
  20:../../dependencies/STM32CubeL0/Drivers/STM32L0xx_HAL_Driver/Inc/stm32l0xx_ll_tim.h **** /* Define to prevent recursive inclusion -------------------------------------*/
  21:../../dependencies/STM32CubeL0/Drivers/STM32L0xx_HAL_Driver/Inc/stm32l0xx_ll_tim.h **** #ifndef __STM32L0xx_LL_TIM_H
  22:../../dependencies/STM32CubeL0/Drivers/STM32L0xx_HAL_Driver/Inc/stm32l0xx_ll_tim.h **** #define __STM32L0xx_LL_TIM_H
  23:../../dependencies/STM32CubeL0/Drivers/STM32L0xx_HAL_Driver/Inc/stm32l0xx_ll_tim.h **** 
  24:../../dependencies/STM32CubeL0/Drivers/STM32L0xx_HAL_Driver/Inc/stm32l0xx_ll_tim.h **** #ifdef __cplusplus
  25:../../dependencies/STM32CubeL0/Drivers/STM32L0xx_HAL_Driver/Inc/stm32l0xx_ll_tim.h **** extern "C" {
  26:../../dependencies/STM32CubeL0/Drivers/STM32L0xx_HAL_Driver/Inc/stm32l0xx_ll_tim.h **** #endif
  27:../../dependencies/STM32CubeL0/Drivers/STM32L0xx_HAL_Driver/Inc/stm32l0xx_ll_tim.h **** 
  28:../../dependencies/STM32CubeL0/Drivers/STM32L0xx_HAL_Driver/Inc/stm32l0xx_ll_tim.h **** /* Includes ------------------------------------------------------------------*/
  29:../../dependencies/STM32CubeL0/Drivers/STM32L0xx_HAL_Driver/Inc/stm32l0xx_ll_tim.h **** #include "stm32l0xx.h"
  30:../../dependencies/STM32CubeL0/Drivers/STM32L0xx_HAL_Driver/Inc/stm32l0xx_ll_tim.h **** 
  31:../../dependencies/STM32CubeL0/Drivers/STM32L0xx_HAL_Driver/Inc/stm32l0xx_ll_tim.h **** /** @addtogroup STM32L0xx_LL_Driver
  32:../../dependencies/STM32CubeL0/Drivers/STM32L0xx_HAL_Driver/Inc/stm32l0xx_ll_tim.h ****   * @{
  33:../../dependencies/STM32CubeL0/Drivers/STM32L0xx_HAL_Driver/Inc/stm32l0xx_ll_tim.h ****   */
  34:../../dependencies/STM32CubeL0/Drivers/STM32L0xx_HAL_Driver/Inc/stm32l0xx_ll_tim.h **** 
  35:../../dependencies/STM32CubeL0/Drivers/STM32L0xx_HAL_Driver/Inc/stm32l0xx_ll_tim.h **** #if defined (TIM2) || defined (TIM3) || defined (TIM21) || defined (TIM22) || defined (TIM6) || def
  36:../../dependencies/STM32CubeL0/Drivers/STM32L0xx_HAL_Driver/Inc/stm32l0xx_ll_tim.h **** 
  37:../../dependencies/STM32CubeL0/Drivers/STM32L0xx_HAL_Driver/Inc/stm32l0xx_ll_tim.h **** /** @defgroup TIM_LL TIM
  38:../../dependencies/STM32CubeL0/Drivers/STM32L0xx_HAL_Driver/Inc/stm32l0xx_ll_tim.h ****   * @{
  39:../../dependencies/STM32CubeL0/Drivers/STM32L0xx_HAL_Driver/Inc/stm32l0xx_ll_tim.h ****   */
  40:../../dependencies/STM32CubeL0/Drivers/STM32L0xx_HAL_Driver/Inc/stm32l0xx_ll_tim.h **** 
  41:../../dependencies/STM32CubeL0/Drivers/STM32L0xx_HAL_Driver/Inc/stm32l0xx_ll_tim.h **** /* Private types -------------------------------------------------------------*/
  42:../../dependencies/STM32CubeL0/Drivers/STM32L0xx_HAL_Driver/Inc/stm32l0xx_ll_tim.h **** /* Private variables ---------------------------------------------------------*/
  43:../../dependencies/STM32CubeL0/Drivers/STM32L0xx_HAL_Driver/Inc/stm32l0xx_ll_tim.h **** /** @defgroup TIM_LL_Private_Variables TIM Private Variables
  44:../../dependencies/STM32CubeL0/Drivers/STM32L0xx_HAL_Driver/Inc/stm32l0xx_ll_tim.h ****   * @{
  45:../../dependencies/STM32CubeL0/Drivers/STM32L0xx_HAL_Driver/Inc/stm32l0xx_ll_tim.h ****   */
  46:../../dependencies/STM32CubeL0/Drivers/STM32L0xx_HAL_Driver/Inc/stm32l0xx_ll_tim.h **** static const uint8_t OFFSET_TAB_CCMRx[] =
  47:../../dependencies/STM32CubeL0/Drivers/STM32L0xx_HAL_Driver/Inc/stm32l0xx_ll_tim.h **** {
  48:../../dependencies/STM32CubeL0/Drivers/STM32L0xx_HAL_Driver/Inc/stm32l0xx_ll_tim.h ****   0x00U,   /* 0: TIMx_CH1  */
  49:../../dependencies/STM32CubeL0/Drivers/STM32L0xx_HAL_Driver/Inc/stm32l0xx_ll_tim.h ****   0x00U,   /* 1: NA */
  50:../../dependencies/STM32CubeL0/Drivers/STM32L0xx_HAL_Driver/Inc/stm32l0xx_ll_tim.h ****   0x00U,   /* 2: TIMx_CH2  */
  51:../../dependencies/STM32CubeL0/Drivers/STM32L0xx_HAL_Driver/Inc/stm32l0xx_ll_tim.h ****   0x00U,   /* 3: NA */
  52:../../dependencies/STM32CubeL0/Drivers/STM32L0xx_HAL_Driver/Inc/stm32l0xx_ll_tim.h ****   0x04U,   /* 4: TIMx_CH3  */
  53:../../dependencies/STM32CubeL0/Drivers/STM32L0xx_HAL_Driver/Inc/stm32l0xx_ll_tim.h ****   0x00U,   /* 5: NA */
  54:../../dependencies/STM32CubeL0/Drivers/STM32L0xx_HAL_Driver/Inc/stm32l0xx_ll_tim.h ****   0x04U    /* 6: TIMx_CH4  */
  55:../../dependencies/STM32CubeL0/Drivers/STM32L0xx_HAL_Driver/Inc/stm32l0xx_ll_tim.h **** };
  56:../../dependencies/STM32CubeL0/Drivers/STM32L0xx_HAL_Driver/Inc/stm32l0xx_ll_tim.h **** 
  57:../../dependencies/STM32CubeL0/Drivers/STM32L0xx_HAL_Driver/Inc/stm32l0xx_ll_tim.h **** static const uint8_t SHIFT_TAB_OCxx[] =
  58:../../dependencies/STM32CubeL0/Drivers/STM32L0xx_HAL_Driver/Inc/stm32l0xx_ll_tim.h **** {
  59:../../dependencies/STM32CubeL0/Drivers/STM32L0xx_HAL_Driver/Inc/stm32l0xx_ll_tim.h ****   0U,            /* 0: OC1M, OC1FE, OC1PE */
  60:../../dependencies/STM32CubeL0/Drivers/STM32L0xx_HAL_Driver/Inc/stm32l0xx_ll_tim.h ****   0U,            /* 1: - NA */
  61:../../dependencies/STM32CubeL0/Drivers/STM32L0xx_HAL_Driver/Inc/stm32l0xx_ll_tim.h ****   8U,            /* 2: OC2M, OC2FE, OC2PE */
  62:../../dependencies/STM32CubeL0/Drivers/STM32L0xx_HAL_Driver/Inc/stm32l0xx_ll_tim.h ****   0U,            /* 3: - NA */
ARM GAS  /var/folders/fs/dxwfnrqj18z860lwl3d6f5t00000gn/T//ccbTeCNC.s 			page 31


  63:../../dependencies/STM32CubeL0/Drivers/STM32L0xx_HAL_Driver/Inc/stm32l0xx_ll_tim.h ****   0U,            /* 4: OC3M, OC3FE, OC3PE */
  64:../../dependencies/STM32CubeL0/Drivers/STM32L0xx_HAL_Driver/Inc/stm32l0xx_ll_tim.h ****   0U,            /* 5: - NA */
  65:../../dependencies/STM32CubeL0/Drivers/STM32L0xx_HAL_Driver/Inc/stm32l0xx_ll_tim.h ****   8U             /* 6: OC4M, OC4FE, OC4PE */
  66:../../dependencies/STM32CubeL0/Drivers/STM32L0xx_HAL_Driver/Inc/stm32l0xx_ll_tim.h **** };
  67:../../dependencies/STM32CubeL0/Drivers/STM32L0xx_HAL_Driver/Inc/stm32l0xx_ll_tim.h **** 
  68:../../dependencies/STM32CubeL0/Drivers/STM32L0xx_HAL_Driver/Inc/stm32l0xx_ll_tim.h **** static const uint8_t SHIFT_TAB_ICxx[] =
  69:../../dependencies/STM32CubeL0/Drivers/STM32L0xx_HAL_Driver/Inc/stm32l0xx_ll_tim.h **** {
  70:../../dependencies/STM32CubeL0/Drivers/STM32L0xx_HAL_Driver/Inc/stm32l0xx_ll_tim.h ****   0U,            /* 0: CC1S, IC1PSC, IC1F */
  71:../../dependencies/STM32CubeL0/Drivers/STM32L0xx_HAL_Driver/Inc/stm32l0xx_ll_tim.h ****   0U,            /* 1: - NA */
  72:../../dependencies/STM32CubeL0/Drivers/STM32L0xx_HAL_Driver/Inc/stm32l0xx_ll_tim.h ****   8U,            /* 2: CC2S, IC2PSC, IC2F */
  73:../../dependencies/STM32CubeL0/Drivers/STM32L0xx_HAL_Driver/Inc/stm32l0xx_ll_tim.h ****   0U,            /* 3: - NA */
  74:../../dependencies/STM32CubeL0/Drivers/STM32L0xx_HAL_Driver/Inc/stm32l0xx_ll_tim.h ****   0U,            /* 4: CC3S, IC3PSC, IC3F */
  75:../../dependencies/STM32CubeL0/Drivers/STM32L0xx_HAL_Driver/Inc/stm32l0xx_ll_tim.h ****   0U,            /* 5: - NA */
  76:../../dependencies/STM32CubeL0/Drivers/STM32L0xx_HAL_Driver/Inc/stm32l0xx_ll_tim.h ****   8U             /* 6: CC4S, IC4PSC, IC4F */
  77:../../dependencies/STM32CubeL0/Drivers/STM32L0xx_HAL_Driver/Inc/stm32l0xx_ll_tim.h **** };
  78:../../dependencies/STM32CubeL0/Drivers/STM32L0xx_HAL_Driver/Inc/stm32l0xx_ll_tim.h **** 
  79:../../dependencies/STM32CubeL0/Drivers/STM32L0xx_HAL_Driver/Inc/stm32l0xx_ll_tim.h **** static const uint8_t SHIFT_TAB_CCxP[] =
  80:../../dependencies/STM32CubeL0/Drivers/STM32L0xx_HAL_Driver/Inc/stm32l0xx_ll_tim.h **** {
  81:../../dependencies/STM32CubeL0/Drivers/STM32L0xx_HAL_Driver/Inc/stm32l0xx_ll_tim.h ****   0U,            /* 0: CC1P */
  82:../../dependencies/STM32CubeL0/Drivers/STM32L0xx_HAL_Driver/Inc/stm32l0xx_ll_tim.h ****   0U,            /* 1: NA */
  83:../../dependencies/STM32CubeL0/Drivers/STM32L0xx_HAL_Driver/Inc/stm32l0xx_ll_tim.h ****   4U,            /* 2: CC2P */
  84:../../dependencies/STM32CubeL0/Drivers/STM32L0xx_HAL_Driver/Inc/stm32l0xx_ll_tim.h ****   0U,            /* 3: NA */
  85:../../dependencies/STM32CubeL0/Drivers/STM32L0xx_HAL_Driver/Inc/stm32l0xx_ll_tim.h ****   8U,            /* 4: CC3P */
  86:../../dependencies/STM32CubeL0/Drivers/STM32L0xx_HAL_Driver/Inc/stm32l0xx_ll_tim.h ****   0U,            /* 5: NA */
  87:../../dependencies/STM32CubeL0/Drivers/STM32L0xx_HAL_Driver/Inc/stm32l0xx_ll_tim.h ****   12U            /* 6: CC4P */
  88:../../dependencies/STM32CubeL0/Drivers/STM32L0xx_HAL_Driver/Inc/stm32l0xx_ll_tim.h **** };
  89:../../dependencies/STM32CubeL0/Drivers/STM32L0xx_HAL_Driver/Inc/stm32l0xx_ll_tim.h **** 
  90:../../dependencies/STM32CubeL0/Drivers/STM32L0xx_HAL_Driver/Inc/stm32l0xx_ll_tim.h **** /**
  91:../../dependencies/STM32CubeL0/Drivers/STM32L0xx_HAL_Driver/Inc/stm32l0xx_ll_tim.h ****   * @}
  92:../../dependencies/STM32CubeL0/Drivers/STM32L0xx_HAL_Driver/Inc/stm32l0xx_ll_tim.h ****   */
  93:../../dependencies/STM32CubeL0/Drivers/STM32L0xx_HAL_Driver/Inc/stm32l0xx_ll_tim.h **** 
  94:../../dependencies/STM32CubeL0/Drivers/STM32L0xx_HAL_Driver/Inc/stm32l0xx_ll_tim.h **** /* Private constants ---------------------------------------------------------*/
  95:../../dependencies/STM32CubeL0/Drivers/STM32L0xx_HAL_Driver/Inc/stm32l0xx_ll_tim.h **** /** @defgroup TIM_LL_Private_Constants TIM Private Constants
  96:../../dependencies/STM32CubeL0/Drivers/STM32L0xx_HAL_Driver/Inc/stm32l0xx_ll_tim.h ****   * @{
  97:../../dependencies/STM32CubeL0/Drivers/STM32L0xx_HAL_Driver/Inc/stm32l0xx_ll_tim.h ****   */
  98:../../dependencies/STM32CubeL0/Drivers/STM32L0xx_HAL_Driver/Inc/stm32l0xx_ll_tim.h **** 
  99:../../dependencies/STM32CubeL0/Drivers/STM32L0xx_HAL_Driver/Inc/stm32l0xx_ll_tim.h **** 
 100:../../dependencies/STM32CubeL0/Drivers/STM32L0xx_HAL_Driver/Inc/stm32l0xx_ll_tim.h **** /* Remap mask definitions */
 101:../../dependencies/STM32CubeL0/Drivers/STM32L0xx_HAL_Driver/Inc/stm32l0xx_ll_tim.h **** #define TIMx_OR_RMP_SHIFT  16U
 102:../../dependencies/STM32CubeL0/Drivers/STM32L0xx_HAL_Driver/Inc/stm32l0xx_ll_tim.h **** #define TIMx_OR_RMP_MASK   0x0000FFFFU
 103:../../dependencies/STM32CubeL0/Drivers/STM32L0xx_HAL_Driver/Inc/stm32l0xx_ll_tim.h **** #define TIM2_OR_RMP_MASK   ((TIM2_OR_ETR_RMP | TIM2_OR_TI4_RMP ) << TIMx_OR_RMP_SHIFT)
 104:../../dependencies/STM32CubeL0/Drivers/STM32L0xx_HAL_Driver/Inc/stm32l0xx_ll_tim.h **** #define TIM21_OR_RMP_MASK  ((TIM21_OR_ETR_RMP | TIM21_OR_TI1_RMP | TIM21_OR_TI2_RMP) << TIMx_OR_RMP
 105:../../dependencies/STM32CubeL0/Drivers/STM32L0xx_HAL_Driver/Inc/stm32l0xx_ll_tim.h **** #define TIM22_OR_RMP_MASK  ((TIM22_OR_ETR_RMP | TIM22_OR_TI1_RMP) << TIMx_OR_RMP_SHIFT)
 106:../../dependencies/STM32CubeL0/Drivers/STM32L0xx_HAL_Driver/Inc/stm32l0xx_ll_tim.h **** #if defined(TIM3)
 107:../../dependencies/STM32CubeL0/Drivers/STM32L0xx_HAL_Driver/Inc/stm32l0xx_ll_tim.h **** #define TIM3_OR_RMP_MASK   ((TIM3_OR_ETR_RMP | TIM3_OR_TI1_RMP | TIM3_OR_TI2_RMP | \
 108:../../dependencies/STM32CubeL0/Drivers/STM32L0xx_HAL_Driver/Inc/stm32l0xx_ll_tim.h ****                              TIM3_OR_TI4_RMP) << TIMx_OR_RMP_SHIFT)
 109:../../dependencies/STM32CubeL0/Drivers/STM32L0xx_HAL_Driver/Inc/stm32l0xx_ll_tim.h **** #endif /* TIM3 */
 110:../../dependencies/STM32CubeL0/Drivers/STM32L0xx_HAL_Driver/Inc/stm32l0xx_ll_tim.h **** 
 111:../../dependencies/STM32CubeL0/Drivers/STM32L0xx_HAL_Driver/Inc/stm32l0xx_ll_tim.h **** 
 112:../../dependencies/STM32CubeL0/Drivers/STM32L0xx_HAL_Driver/Inc/stm32l0xx_ll_tim.h **** 
 113:../../dependencies/STM32CubeL0/Drivers/STM32L0xx_HAL_Driver/Inc/stm32l0xx_ll_tim.h **** /**
 114:../../dependencies/STM32CubeL0/Drivers/STM32L0xx_HAL_Driver/Inc/stm32l0xx_ll_tim.h ****   * @}
 115:../../dependencies/STM32CubeL0/Drivers/STM32L0xx_HAL_Driver/Inc/stm32l0xx_ll_tim.h ****   */
 116:../../dependencies/STM32CubeL0/Drivers/STM32L0xx_HAL_Driver/Inc/stm32l0xx_ll_tim.h **** 
 117:../../dependencies/STM32CubeL0/Drivers/STM32L0xx_HAL_Driver/Inc/stm32l0xx_ll_tim.h **** /* Private macros ------------------------------------------------------------*/
 118:../../dependencies/STM32CubeL0/Drivers/STM32L0xx_HAL_Driver/Inc/stm32l0xx_ll_tim.h **** /** @defgroup TIM_LL_Private_Macros TIM Private Macros
 119:../../dependencies/STM32CubeL0/Drivers/STM32L0xx_HAL_Driver/Inc/stm32l0xx_ll_tim.h ****   * @{
ARM GAS  /var/folders/fs/dxwfnrqj18z860lwl3d6f5t00000gn/T//ccbTeCNC.s 			page 32


 120:../../dependencies/STM32CubeL0/Drivers/STM32L0xx_HAL_Driver/Inc/stm32l0xx_ll_tim.h ****   */
 121:../../dependencies/STM32CubeL0/Drivers/STM32L0xx_HAL_Driver/Inc/stm32l0xx_ll_tim.h **** /** @brief  Convert channel id into channel index.
 122:../../dependencies/STM32CubeL0/Drivers/STM32L0xx_HAL_Driver/Inc/stm32l0xx_ll_tim.h ****   * @param  __CHANNEL__ This parameter can be one of the following values:
 123:../../dependencies/STM32CubeL0/Drivers/STM32L0xx_HAL_Driver/Inc/stm32l0xx_ll_tim.h ****   *         @arg @ref LL_TIM_CHANNEL_CH1
 124:../../dependencies/STM32CubeL0/Drivers/STM32L0xx_HAL_Driver/Inc/stm32l0xx_ll_tim.h ****   *         @arg @ref LL_TIM_CHANNEL_CH2
 125:../../dependencies/STM32CubeL0/Drivers/STM32L0xx_HAL_Driver/Inc/stm32l0xx_ll_tim.h ****   *         @arg @ref LL_TIM_CHANNEL_CH3
 126:../../dependencies/STM32CubeL0/Drivers/STM32L0xx_HAL_Driver/Inc/stm32l0xx_ll_tim.h ****   *         @arg @ref LL_TIM_CHANNEL_CH4
 127:../../dependencies/STM32CubeL0/Drivers/STM32L0xx_HAL_Driver/Inc/stm32l0xx_ll_tim.h ****   * @retval none
 128:../../dependencies/STM32CubeL0/Drivers/STM32L0xx_HAL_Driver/Inc/stm32l0xx_ll_tim.h ****   */
 129:../../dependencies/STM32CubeL0/Drivers/STM32L0xx_HAL_Driver/Inc/stm32l0xx_ll_tim.h **** #define TIM_GET_CHANNEL_INDEX( __CHANNEL__) \
 130:../../dependencies/STM32CubeL0/Drivers/STM32L0xx_HAL_Driver/Inc/stm32l0xx_ll_tim.h ****   (((__CHANNEL__) == LL_TIM_CHANNEL_CH1) ? 0U :\
 131:../../dependencies/STM32CubeL0/Drivers/STM32L0xx_HAL_Driver/Inc/stm32l0xx_ll_tim.h ****    ((__CHANNEL__) == LL_TIM_CHANNEL_CH2) ? 2U :\
 132:../../dependencies/STM32CubeL0/Drivers/STM32L0xx_HAL_Driver/Inc/stm32l0xx_ll_tim.h ****    ((__CHANNEL__) == LL_TIM_CHANNEL_CH3) ? 4U : 6U)
 133:../../dependencies/STM32CubeL0/Drivers/STM32L0xx_HAL_Driver/Inc/stm32l0xx_ll_tim.h **** 
 134:../../dependencies/STM32CubeL0/Drivers/STM32L0xx_HAL_Driver/Inc/stm32l0xx_ll_tim.h **** /**
 135:../../dependencies/STM32CubeL0/Drivers/STM32L0xx_HAL_Driver/Inc/stm32l0xx_ll_tim.h ****   * @}
 136:../../dependencies/STM32CubeL0/Drivers/STM32L0xx_HAL_Driver/Inc/stm32l0xx_ll_tim.h ****   */
 137:../../dependencies/STM32CubeL0/Drivers/STM32L0xx_HAL_Driver/Inc/stm32l0xx_ll_tim.h **** 
 138:../../dependencies/STM32CubeL0/Drivers/STM32L0xx_HAL_Driver/Inc/stm32l0xx_ll_tim.h **** 
 139:../../dependencies/STM32CubeL0/Drivers/STM32L0xx_HAL_Driver/Inc/stm32l0xx_ll_tim.h **** /* Exported types ------------------------------------------------------------*/
 140:../../dependencies/STM32CubeL0/Drivers/STM32L0xx_HAL_Driver/Inc/stm32l0xx_ll_tim.h **** #if defined(USE_FULL_LL_DRIVER)
 141:../../dependencies/STM32CubeL0/Drivers/STM32L0xx_HAL_Driver/Inc/stm32l0xx_ll_tim.h **** /** @defgroup TIM_LL_ES_INIT TIM Exported Init structure
 142:../../dependencies/STM32CubeL0/Drivers/STM32L0xx_HAL_Driver/Inc/stm32l0xx_ll_tim.h ****   * @{
 143:../../dependencies/STM32CubeL0/Drivers/STM32L0xx_HAL_Driver/Inc/stm32l0xx_ll_tim.h ****   */
 144:../../dependencies/STM32CubeL0/Drivers/STM32L0xx_HAL_Driver/Inc/stm32l0xx_ll_tim.h **** 
 145:../../dependencies/STM32CubeL0/Drivers/STM32L0xx_HAL_Driver/Inc/stm32l0xx_ll_tim.h **** /**
 146:../../dependencies/STM32CubeL0/Drivers/STM32L0xx_HAL_Driver/Inc/stm32l0xx_ll_tim.h ****   * @brief  TIM Time Base configuration structure definition.
 147:../../dependencies/STM32CubeL0/Drivers/STM32L0xx_HAL_Driver/Inc/stm32l0xx_ll_tim.h ****   */
 148:../../dependencies/STM32CubeL0/Drivers/STM32L0xx_HAL_Driver/Inc/stm32l0xx_ll_tim.h **** typedef struct
 149:../../dependencies/STM32CubeL0/Drivers/STM32L0xx_HAL_Driver/Inc/stm32l0xx_ll_tim.h **** {
 150:../../dependencies/STM32CubeL0/Drivers/STM32L0xx_HAL_Driver/Inc/stm32l0xx_ll_tim.h ****   uint16_t Prescaler;         /*!< Specifies the prescaler value used to divide the TIM clock.
 151:../../dependencies/STM32CubeL0/Drivers/STM32L0xx_HAL_Driver/Inc/stm32l0xx_ll_tim.h ****                                    This parameter can be a number between Min_Data=0x0000 and Max_D
 152:../../dependencies/STM32CubeL0/Drivers/STM32L0xx_HAL_Driver/Inc/stm32l0xx_ll_tim.h **** 
 153:../../dependencies/STM32CubeL0/Drivers/STM32L0xx_HAL_Driver/Inc/stm32l0xx_ll_tim.h ****                                    This feature can be modified afterwards using unitary function
 154:../../dependencies/STM32CubeL0/Drivers/STM32L0xx_HAL_Driver/Inc/stm32l0xx_ll_tim.h ****                                    @ref LL_TIM_SetPrescaler().*/
 155:../../dependencies/STM32CubeL0/Drivers/STM32L0xx_HAL_Driver/Inc/stm32l0xx_ll_tim.h **** 
 156:../../dependencies/STM32CubeL0/Drivers/STM32L0xx_HAL_Driver/Inc/stm32l0xx_ll_tim.h ****   uint32_t CounterMode;       /*!< Specifies the counter mode.
 157:../../dependencies/STM32CubeL0/Drivers/STM32L0xx_HAL_Driver/Inc/stm32l0xx_ll_tim.h ****                                    This parameter can be a value of @ref TIM_LL_EC_COUNTERMODE.
 158:../../dependencies/STM32CubeL0/Drivers/STM32L0xx_HAL_Driver/Inc/stm32l0xx_ll_tim.h **** 
 159:../../dependencies/STM32CubeL0/Drivers/STM32L0xx_HAL_Driver/Inc/stm32l0xx_ll_tim.h ****                                    This feature can be modified afterwards using unitary function
 160:../../dependencies/STM32CubeL0/Drivers/STM32L0xx_HAL_Driver/Inc/stm32l0xx_ll_tim.h ****                                    @ref LL_TIM_SetCounterMode().*/
 161:../../dependencies/STM32CubeL0/Drivers/STM32L0xx_HAL_Driver/Inc/stm32l0xx_ll_tim.h **** 
 162:../../dependencies/STM32CubeL0/Drivers/STM32L0xx_HAL_Driver/Inc/stm32l0xx_ll_tim.h ****   uint32_t Autoreload;        /*!< Specifies the auto reload value to be loaded into the active
 163:../../dependencies/STM32CubeL0/Drivers/STM32L0xx_HAL_Driver/Inc/stm32l0xx_ll_tim.h ****                                    Auto-Reload Register at the next update event.
 164:../../dependencies/STM32CubeL0/Drivers/STM32L0xx_HAL_Driver/Inc/stm32l0xx_ll_tim.h ****                                    This parameter must be a number between Min_Data=0x0000 and Max_
 165:../../dependencies/STM32CubeL0/Drivers/STM32L0xx_HAL_Driver/Inc/stm32l0xx_ll_tim.h ****                                    Some timer instances may support 32 bits counters. In that case 
 166:../../dependencies/STM32CubeL0/Drivers/STM32L0xx_HAL_Driver/Inc/stm32l0xx_ll_tim.h ****                                    be a number between 0x0000 and 0xFFFFFFFF.
 167:../../dependencies/STM32CubeL0/Drivers/STM32L0xx_HAL_Driver/Inc/stm32l0xx_ll_tim.h **** 
 168:../../dependencies/STM32CubeL0/Drivers/STM32L0xx_HAL_Driver/Inc/stm32l0xx_ll_tim.h ****                                    This feature can be modified afterwards using unitary function
 169:../../dependencies/STM32CubeL0/Drivers/STM32L0xx_HAL_Driver/Inc/stm32l0xx_ll_tim.h ****                                    @ref LL_TIM_SetAutoReload().*/
 170:../../dependencies/STM32CubeL0/Drivers/STM32L0xx_HAL_Driver/Inc/stm32l0xx_ll_tim.h **** 
 171:../../dependencies/STM32CubeL0/Drivers/STM32L0xx_HAL_Driver/Inc/stm32l0xx_ll_tim.h ****   uint32_t ClockDivision;     /*!< Specifies the clock division.
 172:../../dependencies/STM32CubeL0/Drivers/STM32L0xx_HAL_Driver/Inc/stm32l0xx_ll_tim.h ****                                    This parameter can be a value of @ref TIM_LL_EC_CLOCKDIVISION.
 173:../../dependencies/STM32CubeL0/Drivers/STM32L0xx_HAL_Driver/Inc/stm32l0xx_ll_tim.h **** 
 174:../../dependencies/STM32CubeL0/Drivers/STM32L0xx_HAL_Driver/Inc/stm32l0xx_ll_tim.h ****                                    This feature can be modified afterwards using unitary function
 175:../../dependencies/STM32CubeL0/Drivers/STM32L0xx_HAL_Driver/Inc/stm32l0xx_ll_tim.h ****                                    @ref LL_TIM_SetClockDivision().*/
 176:../../dependencies/STM32CubeL0/Drivers/STM32L0xx_HAL_Driver/Inc/stm32l0xx_ll_tim.h **** } LL_TIM_InitTypeDef;
ARM GAS  /var/folders/fs/dxwfnrqj18z860lwl3d6f5t00000gn/T//ccbTeCNC.s 			page 33


 177:../../dependencies/STM32CubeL0/Drivers/STM32L0xx_HAL_Driver/Inc/stm32l0xx_ll_tim.h **** 
 178:../../dependencies/STM32CubeL0/Drivers/STM32L0xx_HAL_Driver/Inc/stm32l0xx_ll_tim.h **** /**
 179:../../dependencies/STM32CubeL0/Drivers/STM32L0xx_HAL_Driver/Inc/stm32l0xx_ll_tim.h ****   * @brief  TIM Output Compare configuration structure definition.
 180:../../dependencies/STM32CubeL0/Drivers/STM32L0xx_HAL_Driver/Inc/stm32l0xx_ll_tim.h ****   */
 181:../../dependencies/STM32CubeL0/Drivers/STM32L0xx_HAL_Driver/Inc/stm32l0xx_ll_tim.h **** typedef struct
 182:../../dependencies/STM32CubeL0/Drivers/STM32L0xx_HAL_Driver/Inc/stm32l0xx_ll_tim.h **** {
 183:../../dependencies/STM32CubeL0/Drivers/STM32L0xx_HAL_Driver/Inc/stm32l0xx_ll_tim.h ****   uint32_t OCMode;        /*!< Specifies the output mode.
 184:../../dependencies/STM32CubeL0/Drivers/STM32L0xx_HAL_Driver/Inc/stm32l0xx_ll_tim.h ****                                This parameter can be a value of @ref TIM_LL_EC_OCMODE.
 185:../../dependencies/STM32CubeL0/Drivers/STM32L0xx_HAL_Driver/Inc/stm32l0xx_ll_tim.h **** 
 186:../../dependencies/STM32CubeL0/Drivers/STM32L0xx_HAL_Driver/Inc/stm32l0xx_ll_tim.h ****                                This feature can be modified afterwards using unitary function
 187:../../dependencies/STM32CubeL0/Drivers/STM32L0xx_HAL_Driver/Inc/stm32l0xx_ll_tim.h ****                                @ref LL_TIM_OC_SetMode().*/
 188:../../dependencies/STM32CubeL0/Drivers/STM32L0xx_HAL_Driver/Inc/stm32l0xx_ll_tim.h **** 
 189:../../dependencies/STM32CubeL0/Drivers/STM32L0xx_HAL_Driver/Inc/stm32l0xx_ll_tim.h ****   uint32_t OCState;       /*!< Specifies the TIM Output Compare state.
 190:../../dependencies/STM32CubeL0/Drivers/STM32L0xx_HAL_Driver/Inc/stm32l0xx_ll_tim.h ****                                This parameter can be a value of @ref TIM_LL_EC_OCSTATE.
 191:../../dependencies/STM32CubeL0/Drivers/STM32L0xx_HAL_Driver/Inc/stm32l0xx_ll_tim.h **** 
 192:../../dependencies/STM32CubeL0/Drivers/STM32L0xx_HAL_Driver/Inc/stm32l0xx_ll_tim.h ****                                This feature can be modified afterwards using unitary functions
 193:../../dependencies/STM32CubeL0/Drivers/STM32L0xx_HAL_Driver/Inc/stm32l0xx_ll_tim.h ****                                @ref LL_TIM_CC_EnableChannel() or @ref LL_TIM_CC_DisableChannel().*/
 194:../../dependencies/STM32CubeL0/Drivers/STM32L0xx_HAL_Driver/Inc/stm32l0xx_ll_tim.h **** 
 195:../../dependencies/STM32CubeL0/Drivers/STM32L0xx_HAL_Driver/Inc/stm32l0xx_ll_tim.h ****   uint32_t CompareValue;  /*!< Specifies the Compare value to be loaded into the Capture Compare Re
 196:../../dependencies/STM32CubeL0/Drivers/STM32L0xx_HAL_Driver/Inc/stm32l0xx_ll_tim.h ****                                This parameter can be a number between Min_Data=0x0000 and Max_Data=
 197:../../dependencies/STM32CubeL0/Drivers/STM32L0xx_HAL_Driver/Inc/stm32l0xx_ll_tim.h **** 
 198:../../dependencies/STM32CubeL0/Drivers/STM32L0xx_HAL_Driver/Inc/stm32l0xx_ll_tim.h ****                                This feature can be modified afterwards using unitary function
 199:../../dependencies/STM32CubeL0/Drivers/STM32L0xx_HAL_Driver/Inc/stm32l0xx_ll_tim.h ****                                LL_TIM_OC_SetCompareCHx (x=1..6).*/
 200:../../dependencies/STM32CubeL0/Drivers/STM32L0xx_HAL_Driver/Inc/stm32l0xx_ll_tim.h **** 
 201:../../dependencies/STM32CubeL0/Drivers/STM32L0xx_HAL_Driver/Inc/stm32l0xx_ll_tim.h ****   uint32_t OCPolarity;    /*!< Specifies the output polarity.
 202:../../dependencies/STM32CubeL0/Drivers/STM32L0xx_HAL_Driver/Inc/stm32l0xx_ll_tim.h ****                                This parameter can be a value of @ref TIM_LL_EC_OCPOLARITY.
 203:../../dependencies/STM32CubeL0/Drivers/STM32L0xx_HAL_Driver/Inc/stm32l0xx_ll_tim.h **** 
 204:../../dependencies/STM32CubeL0/Drivers/STM32L0xx_HAL_Driver/Inc/stm32l0xx_ll_tim.h ****                                This feature can be modified afterwards using unitary function
 205:../../dependencies/STM32CubeL0/Drivers/STM32L0xx_HAL_Driver/Inc/stm32l0xx_ll_tim.h ****                                @ref LL_TIM_OC_SetPolarity().*/
 206:../../dependencies/STM32CubeL0/Drivers/STM32L0xx_HAL_Driver/Inc/stm32l0xx_ll_tim.h **** 
 207:../../dependencies/STM32CubeL0/Drivers/STM32L0xx_HAL_Driver/Inc/stm32l0xx_ll_tim.h **** 
 208:../../dependencies/STM32CubeL0/Drivers/STM32L0xx_HAL_Driver/Inc/stm32l0xx_ll_tim.h **** } LL_TIM_OC_InitTypeDef;
 209:../../dependencies/STM32CubeL0/Drivers/STM32L0xx_HAL_Driver/Inc/stm32l0xx_ll_tim.h **** 
 210:../../dependencies/STM32CubeL0/Drivers/STM32L0xx_HAL_Driver/Inc/stm32l0xx_ll_tim.h **** /**
 211:../../dependencies/STM32CubeL0/Drivers/STM32L0xx_HAL_Driver/Inc/stm32l0xx_ll_tim.h ****   * @brief  TIM Input Capture configuration structure definition.
 212:../../dependencies/STM32CubeL0/Drivers/STM32L0xx_HAL_Driver/Inc/stm32l0xx_ll_tim.h ****   */
 213:../../dependencies/STM32CubeL0/Drivers/STM32L0xx_HAL_Driver/Inc/stm32l0xx_ll_tim.h **** 
 214:../../dependencies/STM32CubeL0/Drivers/STM32L0xx_HAL_Driver/Inc/stm32l0xx_ll_tim.h **** typedef struct
 215:../../dependencies/STM32CubeL0/Drivers/STM32L0xx_HAL_Driver/Inc/stm32l0xx_ll_tim.h **** {
 216:../../dependencies/STM32CubeL0/Drivers/STM32L0xx_HAL_Driver/Inc/stm32l0xx_ll_tim.h **** 
 217:../../dependencies/STM32CubeL0/Drivers/STM32L0xx_HAL_Driver/Inc/stm32l0xx_ll_tim.h ****   uint32_t ICPolarity;    /*!< Specifies the active edge of the input signal.
 218:../../dependencies/STM32CubeL0/Drivers/STM32L0xx_HAL_Driver/Inc/stm32l0xx_ll_tim.h ****                                This parameter can be a value of @ref TIM_LL_EC_IC_POLARITY.
 219:../../dependencies/STM32CubeL0/Drivers/STM32L0xx_HAL_Driver/Inc/stm32l0xx_ll_tim.h **** 
 220:../../dependencies/STM32CubeL0/Drivers/STM32L0xx_HAL_Driver/Inc/stm32l0xx_ll_tim.h ****                                This feature can be modified afterwards using unitary function
 221:../../dependencies/STM32CubeL0/Drivers/STM32L0xx_HAL_Driver/Inc/stm32l0xx_ll_tim.h ****                                @ref LL_TIM_IC_SetPolarity().*/
 222:../../dependencies/STM32CubeL0/Drivers/STM32L0xx_HAL_Driver/Inc/stm32l0xx_ll_tim.h **** 
 223:../../dependencies/STM32CubeL0/Drivers/STM32L0xx_HAL_Driver/Inc/stm32l0xx_ll_tim.h ****   uint32_t ICActiveInput; /*!< Specifies the input.
 224:../../dependencies/STM32CubeL0/Drivers/STM32L0xx_HAL_Driver/Inc/stm32l0xx_ll_tim.h ****                                This parameter can be a value of @ref TIM_LL_EC_ACTIVEINPUT.
 225:../../dependencies/STM32CubeL0/Drivers/STM32L0xx_HAL_Driver/Inc/stm32l0xx_ll_tim.h **** 
 226:../../dependencies/STM32CubeL0/Drivers/STM32L0xx_HAL_Driver/Inc/stm32l0xx_ll_tim.h ****                                This feature can be modified afterwards using unitary function
 227:../../dependencies/STM32CubeL0/Drivers/STM32L0xx_HAL_Driver/Inc/stm32l0xx_ll_tim.h ****                                @ref LL_TIM_IC_SetActiveInput().*/
 228:../../dependencies/STM32CubeL0/Drivers/STM32L0xx_HAL_Driver/Inc/stm32l0xx_ll_tim.h **** 
 229:../../dependencies/STM32CubeL0/Drivers/STM32L0xx_HAL_Driver/Inc/stm32l0xx_ll_tim.h ****   uint32_t ICPrescaler;   /*!< Specifies the Input Capture Prescaler.
 230:../../dependencies/STM32CubeL0/Drivers/STM32L0xx_HAL_Driver/Inc/stm32l0xx_ll_tim.h ****                                This parameter can be a value of @ref TIM_LL_EC_ICPSC.
 231:../../dependencies/STM32CubeL0/Drivers/STM32L0xx_HAL_Driver/Inc/stm32l0xx_ll_tim.h **** 
 232:../../dependencies/STM32CubeL0/Drivers/STM32L0xx_HAL_Driver/Inc/stm32l0xx_ll_tim.h ****                                This feature can be modified afterwards using unitary function
 233:../../dependencies/STM32CubeL0/Drivers/STM32L0xx_HAL_Driver/Inc/stm32l0xx_ll_tim.h ****                                @ref LL_TIM_IC_SetPrescaler().*/
ARM GAS  /var/folders/fs/dxwfnrqj18z860lwl3d6f5t00000gn/T//ccbTeCNC.s 			page 34


 234:../../dependencies/STM32CubeL0/Drivers/STM32L0xx_HAL_Driver/Inc/stm32l0xx_ll_tim.h **** 
 235:../../dependencies/STM32CubeL0/Drivers/STM32L0xx_HAL_Driver/Inc/stm32l0xx_ll_tim.h ****   uint32_t ICFilter;      /*!< Specifies the input capture filter.
 236:../../dependencies/STM32CubeL0/Drivers/STM32L0xx_HAL_Driver/Inc/stm32l0xx_ll_tim.h ****                                This parameter can be a value of @ref TIM_LL_EC_IC_FILTER.
 237:../../dependencies/STM32CubeL0/Drivers/STM32L0xx_HAL_Driver/Inc/stm32l0xx_ll_tim.h **** 
 238:../../dependencies/STM32CubeL0/Drivers/STM32L0xx_HAL_Driver/Inc/stm32l0xx_ll_tim.h ****                                This feature can be modified afterwards using unitary function
 239:../../dependencies/STM32CubeL0/Drivers/STM32L0xx_HAL_Driver/Inc/stm32l0xx_ll_tim.h ****                                @ref LL_TIM_IC_SetFilter().*/
 240:../../dependencies/STM32CubeL0/Drivers/STM32L0xx_HAL_Driver/Inc/stm32l0xx_ll_tim.h **** } LL_TIM_IC_InitTypeDef;
 241:../../dependencies/STM32CubeL0/Drivers/STM32L0xx_HAL_Driver/Inc/stm32l0xx_ll_tim.h **** 
 242:../../dependencies/STM32CubeL0/Drivers/STM32L0xx_HAL_Driver/Inc/stm32l0xx_ll_tim.h **** 
 243:../../dependencies/STM32CubeL0/Drivers/STM32L0xx_HAL_Driver/Inc/stm32l0xx_ll_tim.h **** /**
 244:../../dependencies/STM32CubeL0/Drivers/STM32L0xx_HAL_Driver/Inc/stm32l0xx_ll_tim.h ****   * @brief  TIM Encoder interface configuration structure definition.
 245:../../dependencies/STM32CubeL0/Drivers/STM32L0xx_HAL_Driver/Inc/stm32l0xx_ll_tim.h ****   */
 246:../../dependencies/STM32CubeL0/Drivers/STM32L0xx_HAL_Driver/Inc/stm32l0xx_ll_tim.h **** typedef struct
 247:../../dependencies/STM32CubeL0/Drivers/STM32L0xx_HAL_Driver/Inc/stm32l0xx_ll_tim.h **** {
 248:../../dependencies/STM32CubeL0/Drivers/STM32L0xx_HAL_Driver/Inc/stm32l0xx_ll_tim.h ****   uint32_t EncoderMode;     /*!< Specifies the encoder resolution (x2 or x4).
 249:../../dependencies/STM32CubeL0/Drivers/STM32L0xx_HAL_Driver/Inc/stm32l0xx_ll_tim.h ****                                  This parameter can be a value of @ref TIM_LL_EC_ENCODERMODE.
 250:../../dependencies/STM32CubeL0/Drivers/STM32L0xx_HAL_Driver/Inc/stm32l0xx_ll_tim.h **** 
 251:../../dependencies/STM32CubeL0/Drivers/STM32L0xx_HAL_Driver/Inc/stm32l0xx_ll_tim.h ****                                  This feature can be modified afterwards using unitary function
 252:../../dependencies/STM32CubeL0/Drivers/STM32L0xx_HAL_Driver/Inc/stm32l0xx_ll_tim.h ****                                  @ref LL_TIM_SetEncoderMode().*/
 253:../../dependencies/STM32CubeL0/Drivers/STM32L0xx_HAL_Driver/Inc/stm32l0xx_ll_tim.h **** 
 254:../../dependencies/STM32CubeL0/Drivers/STM32L0xx_HAL_Driver/Inc/stm32l0xx_ll_tim.h ****   uint32_t IC1Polarity;     /*!< Specifies the active edge of TI1 input.
 255:../../dependencies/STM32CubeL0/Drivers/STM32L0xx_HAL_Driver/Inc/stm32l0xx_ll_tim.h ****                                  This parameter can be a value of @ref TIM_LL_EC_IC_POLARITY.
 256:../../dependencies/STM32CubeL0/Drivers/STM32L0xx_HAL_Driver/Inc/stm32l0xx_ll_tim.h **** 
 257:../../dependencies/STM32CubeL0/Drivers/STM32L0xx_HAL_Driver/Inc/stm32l0xx_ll_tim.h ****                                  This feature can be modified afterwards using unitary function
 258:../../dependencies/STM32CubeL0/Drivers/STM32L0xx_HAL_Driver/Inc/stm32l0xx_ll_tim.h ****                                  @ref LL_TIM_IC_SetPolarity().*/
 259:../../dependencies/STM32CubeL0/Drivers/STM32L0xx_HAL_Driver/Inc/stm32l0xx_ll_tim.h **** 
 260:../../dependencies/STM32CubeL0/Drivers/STM32L0xx_HAL_Driver/Inc/stm32l0xx_ll_tim.h ****   uint32_t IC1ActiveInput;  /*!< Specifies the TI1 input source
 261:../../dependencies/STM32CubeL0/Drivers/STM32L0xx_HAL_Driver/Inc/stm32l0xx_ll_tim.h ****                                  This parameter can be a value of @ref TIM_LL_EC_ACTIVEINPUT.
 262:../../dependencies/STM32CubeL0/Drivers/STM32L0xx_HAL_Driver/Inc/stm32l0xx_ll_tim.h **** 
 263:../../dependencies/STM32CubeL0/Drivers/STM32L0xx_HAL_Driver/Inc/stm32l0xx_ll_tim.h ****                                  This feature can be modified afterwards using unitary function
 264:../../dependencies/STM32CubeL0/Drivers/STM32L0xx_HAL_Driver/Inc/stm32l0xx_ll_tim.h ****                                  @ref LL_TIM_IC_SetActiveInput().*/
 265:../../dependencies/STM32CubeL0/Drivers/STM32L0xx_HAL_Driver/Inc/stm32l0xx_ll_tim.h **** 
 266:../../dependencies/STM32CubeL0/Drivers/STM32L0xx_HAL_Driver/Inc/stm32l0xx_ll_tim.h ****   uint32_t IC1Prescaler;    /*!< Specifies the TI1 input prescaler value.
 267:../../dependencies/STM32CubeL0/Drivers/STM32L0xx_HAL_Driver/Inc/stm32l0xx_ll_tim.h ****                                  This parameter can be a value of @ref TIM_LL_EC_ICPSC.
 268:../../dependencies/STM32CubeL0/Drivers/STM32L0xx_HAL_Driver/Inc/stm32l0xx_ll_tim.h **** 
 269:../../dependencies/STM32CubeL0/Drivers/STM32L0xx_HAL_Driver/Inc/stm32l0xx_ll_tim.h ****                                  This feature can be modified afterwards using unitary function
 270:../../dependencies/STM32CubeL0/Drivers/STM32L0xx_HAL_Driver/Inc/stm32l0xx_ll_tim.h ****                                  @ref LL_TIM_IC_SetPrescaler().*/
 271:../../dependencies/STM32CubeL0/Drivers/STM32L0xx_HAL_Driver/Inc/stm32l0xx_ll_tim.h **** 
 272:../../dependencies/STM32CubeL0/Drivers/STM32L0xx_HAL_Driver/Inc/stm32l0xx_ll_tim.h ****   uint32_t IC1Filter;       /*!< Specifies the TI1 input filter.
 273:../../dependencies/STM32CubeL0/Drivers/STM32L0xx_HAL_Driver/Inc/stm32l0xx_ll_tim.h ****                                  This parameter can be a value of @ref TIM_LL_EC_IC_FILTER.
 274:../../dependencies/STM32CubeL0/Drivers/STM32L0xx_HAL_Driver/Inc/stm32l0xx_ll_tim.h **** 
 275:../../dependencies/STM32CubeL0/Drivers/STM32L0xx_HAL_Driver/Inc/stm32l0xx_ll_tim.h ****                                  This feature can be modified afterwards using unitary function
 276:../../dependencies/STM32CubeL0/Drivers/STM32L0xx_HAL_Driver/Inc/stm32l0xx_ll_tim.h ****                                  @ref LL_TIM_IC_SetFilter().*/
 277:../../dependencies/STM32CubeL0/Drivers/STM32L0xx_HAL_Driver/Inc/stm32l0xx_ll_tim.h **** 
 278:../../dependencies/STM32CubeL0/Drivers/STM32L0xx_HAL_Driver/Inc/stm32l0xx_ll_tim.h ****   uint32_t IC2Polarity;      /*!< Specifies the active edge of TI2 input.
 279:../../dependencies/STM32CubeL0/Drivers/STM32L0xx_HAL_Driver/Inc/stm32l0xx_ll_tim.h ****                                  This parameter can be a value of @ref TIM_LL_EC_IC_POLARITY.
 280:../../dependencies/STM32CubeL0/Drivers/STM32L0xx_HAL_Driver/Inc/stm32l0xx_ll_tim.h **** 
 281:../../dependencies/STM32CubeL0/Drivers/STM32L0xx_HAL_Driver/Inc/stm32l0xx_ll_tim.h ****                                  This feature can be modified afterwards using unitary function
 282:../../dependencies/STM32CubeL0/Drivers/STM32L0xx_HAL_Driver/Inc/stm32l0xx_ll_tim.h ****                                  @ref LL_TIM_IC_SetPolarity().*/
 283:../../dependencies/STM32CubeL0/Drivers/STM32L0xx_HAL_Driver/Inc/stm32l0xx_ll_tim.h **** 
 284:../../dependencies/STM32CubeL0/Drivers/STM32L0xx_HAL_Driver/Inc/stm32l0xx_ll_tim.h ****   uint32_t IC2ActiveInput;  /*!< Specifies the TI2 input source
 285:../../dependencies/STM32CubeL0/Drivers/STM32L0xx_HAL_Driver/Inc/stm32l0xx_ll_tim.h ****                                  This parameter can be a value of @ref TIM_LL_EC_ACTIVEINPUT.
 286:../../dependencies/STM32CubeL0/Drivers/STM32L0xx_HAL_Driver/Inc/stm32l0xx_ll_tim.h **** 
 287:../../dependencies/STM32CubeL0/Drivers/STM32L0xx_HAL_Driver/Inc/stm32l0xx_ll_tim.h ****                                  This feature can be modified afterwards using unitary function
 288:../../dependencies/STM32CubeL0/Drivers/STM32L0xx_HAL_Driver/Inc/stm32l0xx_ll_tim.h ****                                  @ref LL_TIM_IC_SetActiveInput().*/
 289:../../dependencies/STM32CubeL0/Drivers/STM32L0xx_HAL_Driver/Inc/stm32l0xx_ll_tim.h **** 
 290:../../dependencies/STM32CubeL0/Drivers/STM32L0xx_HAL_Driver/Inc/stm32l0xx_ll_tim.h ****   uint32_t IC2Prescaler;    /*!< Specifies the TI2 input prescaler value.
ARM GAS  /var/folders/fs/dxwfnrqj18z860lwl3d6f5t00000gn/T//ccbTeCNC.s 			page 35


 291:../../dependencies/STM32CubeL0/Drivers/STM32L0xx_HAL_Driver/Inc/stm32l0xx_ll_tim.h ****                                  This parameter can be a value of @ref TIM_LL_EC_ICPSC.
 292:../../dependencies/STM32CubeL0/Drivers/STM32L0xx_HAL_Driver/Inc/stm32l0xx_ll_tim.h **** 
 293:../../dependencies/STM32CubeL0/Drivers/STM32L0xx_HAL_Driver/Inc/stm32l0xx_ll_tim.h ****                                  This feature can be modified afterwards using unitary function
 294:../../dependencies/STM32CubeL0/Drivers/STM32L0xx_HAL_Driver/Inc/stm32l0xx_ll_tim.h ****                                  @ref LL_TIM_IC_SetPrescaler().*/
 295:../../dependencies/STM32CubeL0/Drivers/STM32L0xx_HAL_Driver/Inc/stm32l0xx_ll_tim.h **** 
 296:../../dependencies/STM32CubeL0/Drivers/STM32L0xx_HAL_Driver/Inc/stm32l0xx_ll_tim.h ****   uint32_t IC2Filter;       /*!< Specifies the TI2 input filter.
 297:../../dependencies/STM32CubeL0/Drivers/STM32L0xx_HAL_Driver/Inc/stm32l0xx_ll_tim.h ****                                  This parameter can be a value of @ref TIM_LL_EC_IC_FILTER.
 298:../../dependencies/STM32CubeL0/Drivers/STM32L0xx_HAL_Driver/Inc/stm32l0xx_ll_tim.h **** 
 299:../../dependencies/STM32CubeL0/Drivers/STM32L0xx_HAL_Driver/Inc/stm32l0xx_ll_tim.h ****                                  This feature can be modified afterwards using unitary function
 300:../../dependencies/STM32CubeL0/Drivers/STM32L0xx_HAL_Driver/Inc/stm32l0xx_ll_tim.h ****                                  @ref LL_TIM_IC_SetFilter().*/
 301:../../dependencies/STM32CubeL0/Drivers/STM32L0xx_HAL_Driver/Inc/stm32l0xx_ll_tim.h **** 
 302:../../dependencies/STM32CubeL0/Drivers/STM32L0xx_HAL_Driver/Inc/stm32l0xx_ll_tim.h **** } LL_TIM_ENCODER_InitTypeDef;
 303:../../dependencies/STM32CubeL0/Drivers/STM32L0xx_HAL_Driver/Inc/stm32l0xx_ll_tim.h **** 
 304:../../dependencies/STM32CubeL0/Drivers/STM32L0xx_HAL_Driver/Inc/stm32l0xx_ll_tim.h **** 
 305:../../dependencies/STM32CubeL0/Drivers/STM32L0xx_HAL_Driver/Inc/stm32l0xx_ll_tim.h **** /**
 306:../../dependencies/STM32CubeL0/Drivers/STM32L0xx_HAL_Driver/Inc/stm32l0xx_ll_tim.h ****   * @}
 307:../../dependencies/STM32CubeL0/Drivers/STM32L0xx_HAL_Driver/Inc/stm32l0xx_ll_tim.h ****   */
 308:../../dependencies/STM32CubeL0/Drivers/STM32L0xx_HAL_Driver/Inc/stm32l0xx_ll_tim.h **** #endif /* USE_FULL_LL_DRIVER */
 309:../../dependencies/STM32CubeL0/Drivers/STM32L0xx_HAL_Driver/Inc/stm32l0xx_ll_tim.h **** 
 310:../../dependencies/STM32CubeL0/Drivers/STM32L0xx_HAL_Driver/Inc/stm32l0xx_ll_tim.h **** /* Exported constants --------------------------------------------------------*/
 311:../../dependencies/STM32CubeL0/Drivers/STM32L0xx_HAL_Driver/Inc/stm32l0xx_ll_tim.h **** /** @defgroup TIM_LL_Exported_Constants TIM Exported Constants
 312:../../dependencies/STM32CubeL0/Drivers/STM32L0xx_HAL_Driver/Inc/stm32l0xx_ll_tim.h ****   * @{
 313:../../dependencies/STM32CubeL0/Drivers/STM32L0xx_HAL_Driver/Inc/stm32l0xx_ll_tim.h ****   */
 314:../../dependencies/STM32CubeL0/Drivers/STM32L0xx_HAL_Driver/Inc/stm32l0xx_ll_tim.h **** 
 315:../../dependencies/STM32CubeL0/Drivers/STM32L0xx_HAL_Driver/Inc/stm32l0xx_ll_tim.h **** /** @defgroup TIM_LL_EC_GET_FLAG Get Flags Defines
 316:../../dependencies/STM32CubeL0/Drivers/STM32L0xx_HAL_Driver/Inc/stm32l0xx_ll_tim.h ****   * @brief    Flags defines which can be used with LL_TIM_ReadReg function.
 317:../../dependencies/STM32CubeL0/Drivers/STM32L0xx_HAL_Driver/Inc/stm32l0xx_ll_tim.h ****   * @{
 318:../../dependencies/STM32CubeL0/Drivers/STM32L0xx_HAL_Driver/Inc/stm32l0xx_ll_tim.h ****   */
 319:../../dependencies/STM32CubeL0/Drivers/STM32L0xx_HAL_Driver/Inc/stm32l0xx_ll_tim.h **** #define LL_TIM_SR_UIF                          TIM_SR_UIF           /*!< Update interrupt flag */
 320:../../dependencies/STM32CubeL0/Drivers/STM32L0xx_HAL_Driver/Inc/stm32l0xx_ll_tim.h **** #define LL_TIM_SR_CC1IF                        TIM_SR_CC1IF         /*!< Capture/compare 1 interrup
 321:../../dependencies/STM32CubeL0/Drivers/STM32L0xx_HAL_Driver/Inc/stm32l0xx_ll_tim.h **** #define LL_TIM_SR_CC2IF                        TIM_SR_CC2IF         /*!< Capture/compare 2 interrup
 322:../../dependencies/STM32CubeL0/Drivers/STM32L0xx_HAL_Driver/Inc/stm32l0xx_ll_tim.h **** #define LL_TIM_SR_CC3IF                        TIM_SR_CC3IF         /*!< Capture/compare 3 interrup
 323:../../dependencies/STM32CubeL0/Drivers/STM32L0xx_HAL_Driver/Inc/stm32l0xx_ll_tim.h **** #define LL_TIM_SR_CC4IF                        TIM_SR_CC4IF         /*!< Capture/compare 4 interrup
 324:../../dependencies/STM32CubeL0/Drivers/STM32L0xx_HAL_Driver/Inc/stm32l0xx_ll_tim.h **** #define LL_TIM_SR_TIF                          TIM_SR_TIF           /*!< Trigger interrupt flag */
 325:../../dependencies/STM32CubeL0/Drivers/STM32L0xx_HAL_Driver/Inc/stm32l0xx_ll_tim.h **** #define LL_TIM_SR_CC1OF                        TIM_SR_CC1OF         /*!< Capture/Compare 1 overcapt
 326:../../dependencies/STM32CubeL0/Drivers/STM32L0xx_HAL_Driver/Inc/stm32l0xx_ll_tim.h **** #define LL_TIM_SR_CC2OF                        TIM_SR_CC2OF         /*!< Capture/Compare 2 overcapt
 327:../../dependencies/STM32CubeL0/Drivers/STM32L0xx_HAL_Driver/Inc/stm32l0xx_ll_tim.h **** #define LL_TIM_SR_CC3OF                        TIM_SR_CC3OF         /*!< Capture/Compare 3 overcapt
 328:../../dependencies/STM32CubeL0/Drivers/STM32L0xx_HAL_Driver/Inc/stm32l0xx_ll_tim.h **** #define LL_TIM_SR_CC4OF                        TIM_SR_CC4OF         /*!< Capture/Compare 4 overcapt
 329:../../dependencies/STM32CubeL0/Drivers/STM32L0xx_HAL_Driver/Inc/stm32l0xx_ll_tim.h **** /**
 330:../../dependencies/STM32CubeL0/Drivers/STM32L0xx_HAL_Driver/Inc/stm32l0xx_ll_tim.h ****   * @}
 331:../../dependencies/STM32CubeL0/Drivers/STM32L0xx_HAL_Driver/Inc/stm32l0xx_ll_tim.h ****   */
 332:../../dependencies/STM32CubeL0/Drivers/STM32L0xx_HAL_Driver/Inc/stm32l0xx_ll_tim.h **** 
 333:../../dependencies/STM32CubeL0/Drivers/STM32L0xx_HAL_Driver/Inc/stm32l0xx_ll_tim.h **** /** @defgroup TIM_LL_EC_IT IT Defines
 334:../../dependencies/STM32CubeL0/Drivers/STM32L0xx_HAL_Driver/Inc/stm32l0xx_ll_tim.h ****   * @brief    IT defines which can be used with LL_TIM_ReadReg and  LL_TIM_WriteReg functions.
 335:../../dependencies/STM32CubeL0/Drivers/STM32L0xx_HAL_Driver/Inc/stm32l0xx_ll_tim.h ****   * @{
 336:../../dependencies/STM32CubeL0/Drivers/STM32L0xx_HAL_Driver/Inc/stm32l0xx_ll_tim.h ****   */
 337:../../dependencies/STM32CubeL0/Drivers/STM32L0xx_HAL_Driver/Inc/stm32l0xx_ll_tim.h **** #define LL_TIM_DIER_UIE                        TIM_DIER_UIE         /*!< Update interrupt enable */
 338:../../dependencies/STM32CubeL0/Drivers/STM32L0xx_HAL_Driver/Inc/stm32l0xx_ll_tim.h **** #define LL_TIM_DIER_CC1IE                      TIM_DIER_CC1IE       /*!< Capture/compare 1 interrup
 339:../../dependencies/STM32CubeL0/Drivers/STM32L0xx_HAL_Driver/Inc/stm32l0xx_ll_tim.h **** #define LL_TIM_DIER_CC2IE                      TIM_DIER_CC2IE       /*!< Capture/compare 2 interrup
 340:../../dependencies/STM32CubeL0/Drivers/STM32L0xx_HAL_Driver/Inc/stm32l0xx_ll_tim.h **** #define LL_TIM_DIER_CC3IE                      TIM_DIER_CC3IE       /*!< Capture/compare 3 interrup
 341:../../dependencies/STM32CubeL0/Drivers/STM32L0xx_HAL_Driver/Inc/stm32l0xx_ll_tim.h **** #define LL_TIM_DIER_CC4IE                      TIM_DIER_CC4IE       /*!< Capture/compare 4 interrup
 342:../../dependencies/STM32CubeL0/Drivers/STM32L0xx_HAL_Driver/Inc/stm32l0xx_ll_tim.h **** #define LL_TIM_DIER_TIE                        TIM_DIER_TIE         /*!< Trigger interrupt enable *
 343:../../dependencies/STM32CubeL0/Drivers/STM32L0xx_HAL_Driver/Inc/stm32l0xx_ll_tim.h **** /**
 344:../../dependencies/STM32CubeL0/Drivers/STM32L0xx_HAL_Driver/Inc/stm32l0xx_ll_tim.h ****   * @}
 345:../../dependencies/STM32CubeL0/Drivers/STM32L0xx_HAL_Driver/Inc/stm32l0xx_ll_tim.h ****   */
 346:../../dependencies/STM32CubeL0/Drivers/STM32L0xx_HAL_Driver/Inc/stm32l0xx_ll_tim.h **** 
 347:../../dependencies/STM32CubeL0/Drivers/STM32L0xx_HAL_Driver/Inc/stm32l0xx_ll_tim.h **** /** @defgroup TIM_LL_EC_UPDATESOURCE Update Source
ARM GAS  /var/folders/fs/dxwfnrqj18z860lwl3d6f5t00000gn/T//ccbTeCNC.s 			page 36


 348:../../dependencies/STM32CubeL0/Drivers/STM32L0xx_HAL_Driver/Inc/stm32l0xx_ll_tim.h ****   * @{
 349:../../dependencies/STM32CubeL0/Drivers/STM32L0xx_HAL_Driver/Inc/stm32l0xx_ll_tim.h ****   */
 350:../../dependencies/STM32CubeL0/Drivers/STM32L0xx_HAL_Driver/Inc/stm32l0xx_ll_tim.h **** #define LL_TIM_UPDATESOURCE_REGULAR            0x00000000U          /*!< Counter overflow/underflow
 351:../../dependencies/STM32CubeL0/Drivers/STM32L0xx_HAL_Driver/Inc/stm32l0xx_ll_tim.h **** #define LL_TIM_UPDATESOURCE_COUNTER            TIM_CR1_URS          /*!< Only counter overflow/unde
 352:../../dependencies/STM32CubeL0/Drivers/STM32L0xx_HAL_Driver/Inc/stm32l0xx_ll_tim.h **** /**
 353:../../dependencies/STM32CubeL0/Drivers/STM32L0xx_HAL_Driver/Inc/stm32l0xx_ll_tim.h ****   * @}
 354:../../dependencies/STM32CubeL0/Drivers/STM32L0xx_HAL_Driver/Inc/stm32l0xx_ll_tim.h ****   */
 355:../../dependencies/STM32CubeL0/Drivers/STM32L0xx_HAL_Driver/Inc/stm32l0xx_ll_tim.h **** 
 356:../../dependencies/STM32CubeL0/Drivers/STM32L0xx_HAL_Driver/Inc/stm32l0xx_ll_tim.h **** /** @defgroup TIM_LL_EC_ONEPULSEMODE One Pulse Mode
 357:../../dependencies/STM32CubeL0/Drivers/STM32L0xx_HAL_Driver/Inc/stm32l0xx_ll_tim.h ****   * @{
 358:../../dependencies/STM32CubeL0/Drivers/STM32L0xx_HAL_Driver/Inc/stm32l0xx_ll_tim.h ****   */
 359:../../dependencies/STM32CubeL0/Drivers/STM32L0xx_HAL_Driver/Inc/stm32l0xx_ll_tim.h **** #define LL_TIM_ONEPULSEMODE_SINGLE             TIM_CR1_OPM          /*!< Counter stops counting at 
 360:../../dependencies/STM32CubeL0/Drivers/STM32L0xx_HAL_Driver/Inc/stm32l0xx_ll_tim.h **** #define LL_TIM_ONEPULSEMODE_REPETITIVE         0x00000000U          /*!< Counter is not stopped at 
 361:../../dependencies/STM32CubeL0/Drivers/STM32L0xx_HAL_Driver/Inc/stm32l0xx_ll_tim.h **** /**
 362:../../dependencies/STM32CubeL0/Drivers/STM32L0xx_HAL_Driver/Inc/stm32l0xx_ll_tim.h ****   * @}
 363:../../dependencies/STM32CubeL0/Drivers/STM32L0xx_HAL_Driver/Inc/stm32l0xx_ll_tim.h ****   */
 364:../../dependencies/STM32CubeL0/Drivers/STM32L0xx_HAL_Driver/Inc/stm32l0xx_ll_tim.h **** 
 365:../../dependencies/STM32CubeL0/Drivers/STM32L0xx_HAL_Driver/Inc/stm32l0xx_ll_tim.h **** /** @defgroup TIM_LL_EC_COUNTERMODE Counter Mode
 366:../../dependencies/STM32CubeL0/Drivers/STM32L0xx_HAL_Driver/Inc/stm32l0xx_ll_tim.h ****   * @{
 367:../../dependencies/STM32CubeL0/Drivers/STM32L0xx_HAL_Driver/Inc/stm32l0xx_ll_tim.h ****   */
 368:../../dependencies/STM32CubeL0/Drivers/STM32L0xx_HAL_Driver/Inc/stm32l0xx_ll_tim.h **** #define LL_TIM_COUNTERMODE_UP                  0x00000000U          /*!<Counter used as upcounter *
 369:../../dependencies/STM32CubeL0/Drivers/STM32L0xx_HAL_Driver/Inc/stm32l0xx_ll_tim.h **** #define LL_TIM_COUNTERMODE_DOWN                TIM_CR1_DIR          /*!< Counter used as downcounte
 370:../../dependencies/STM32CubeL0/Drivers/STM32L0xx_HAL_Driver/Inc/stm32l0xx_ll_tim.h **** #define LL_TIM_COUNTERMODE_CENTER_DOWN         TIM_CR1_CMS_0        /*!< The counter counts up and 
 371:../../dependencies/STM32CubeL0/Drivers/STM32L0xx_HAL_Driver/Inc/stm32l0xx_ll_tim.h **** #define LL_TIM_COUNTERMODE_CENTER_UP           TIM_CR1_CMS_1        /*!<The counter counts up and d
 372:../../dependencies/STM32CubeL0/Drivers/STM32L0xx_HAL_Driver/Inc/stm32l0xx_ll_tim.h **** #define LL_TIM_COUNTERMODE_CENTER_UP_DOWN      TIM_CR1_CMS          /*!< The counter counts up and 
 373:../../dependencies/STM32CubeL0/Drivers/STM32L0xx_HAL_Driver/Inc/stm32l0xx_ll_tim.h **** /**
 374:../../dependencies/STM32CubeL0/Drivers/STM32L0xx_HAL_Driver/Inc/stm32l0xx_ll_tim.h ****   * @}
 375:../../dependencies/STM32CubeL0/Drivers/STM32L0xx_HAL_Driver/Inc/stm32l0xx_ll_tim.h ****   */
 376:../../dependencies/STM32CubeL0/Drivers/STM32L0xx_HAL_Driver/Inc/stm32l0xx_ll_tim.h **** 
 377:../../dependencies/STM32CubeL0/Drivers/STM32L0xx_HAL_Driver/Inc/stm32l0xx_ll_tim.h **** /** @defgroup TIM_LL_EC_CLOCKDIVISION Clock Division
 378:../../dependencies/STM32CubeL0/Drivers/STM32L0xx_HAL_Driver/Inc/stm32l0xx_ll_tim.h ****   * @{
 379:../../dependencies/STM32CubeL0/Drivers/STM32L0xx_HAL_Driver/Inc/stm32l0xx_ll_tim.h ****   */
 380:../../dependencies/STM32CubeL0/Drivers/STM32L0xx_HAL_Driver/Inc/stm32l0xx_ll_tim.h **** #define LL_TIM_CLOCKDIVISION_DIV1              0x00000000U          /*!< tDTS=tCK_INT */
 381:../../dependencies/STM32CubeL0/Drivers/STM32L0xx_HAL_Driver/Inc/stm32l0xx_ll_tim.h **** #define LL_TIM_CLOCKDIVISION_DIV2              TIM_CR1_CKD_0        /*!< tDTS=2*tCK_INT */
 382:../../dependencies/STM32CubeL0/Drivers/STM32L0xx_HAL_Driver/Inc/stm32l0xx_ll_tim.h **** #define LL_TIM_CLOCKDIVISION_DIV4              TIM_CR1_CKD_1        /*!< tDTS=4*tCK_INT */
 383:../../dependencies/STM32CubeL0/Drivers/STM32L0xx_HAL_Driver/Inc/stm32l0xx_ll_tim.h **** /**
 384:../../dependencies/STM32CubeL0/Drivers/STM32L0xx_HAL_Driver/Inc/stm32l0xx_ll_tim.h ****   * @}
 385:../../dependencies/STM32CubeL0/Drivers/STM32L0xx_HAL_Driver/Inc/stm32l0xx_ll_tim.h ****   */
 386:../../dependencies/STM32CubeL0/Drivers/STM32L0xx_HAL_Driver/Inc/stm32l0xx_ll_tim.h **** 
 387:../../dependencies/STM32CubeL0/Drivers/STM32L0xx_HAL_Driver/Inc/stm32l0xx_ll_tim.h **** /** @defgroup TIM_LL_EC_COUNTERDIRECTION Counter Direction
 388:../../dependencies/STM32CubeL0/Drivers/STM32L0xx_HAL_Driver/Inc/stm32l0xx_ll_tim.h ****   * @{
 389:../../dependencies/STM32CubeL0/Drivers/STM32L0xx_HAL_Driver/Inc/stm32l0xx_ll_tim.h ****   */
 390:../../dependencies/STM32CubeL0/Drivers/STM32L0xx_HAL_Driver/Inc/stm32l0xx_ll_tim.h **** #define LL_TIM_COUNTERDIRECTION_UP             0x00000000U          /*!< Timer counter counts up */
 391:../../dependencies/STM32CubeL0/Drivers/STM32L0xx_HAL_Driver/Inc/stm32l0xx_ll_tim.h **** #define LL_TIM_COUNTERDIRECTION_DOWN           TIM_CR1_DIR          /*!< Timer counter counts down 
 392:../../dependencies/STM32CubeL0/Drivers/STM32L0xx_HAL_Driver/Inc/stm32l0xx_ll_tim.h **** /**
 393:../../dependencies/STM32CubeL0/Drivers/STM32L0xx_HAL_Driver/Inc/stm32l0xx_ll_tim.h ****   * @}
 394:../../dependencies/STM32CubeL0/Drivers/STM32L0xx_HAL_Driver/Inc/stm32l0xx_ll_tim.h ****   */
 395:../../dependencies/STM32CubeL0/Drivers/STM32L0xx_HAL_Driver/Inc/stm32l0xx_ll_tim.h **** 
 396:../../dependencies/STM32CubeL0/Drivers/STM32L0xx_HAL_Driver/Inc/stm32l0xx_ll_tim.h **** 
 397:../../dependencies/STM32CubeL0/Drivers/STM32L0xx_HAL_Driver/Inc/stm32l0xx_ll_tim.h **** /** @defgroup TIM_LL_EC_CCDMAREQUEST Capture Compare DMA Request
 398:../../dependencies/STM32CubeL0/Drivers/STM32L0xx_HAL_Driver/Inc/stm32l0xx_ll_tim.h ****   * @{
 399:../../dependencies/STM32CubeL0/Drivers/STM32L0xx_HAL_Driver/Inc/stm32l0xx_ll_tim.h ****   */
 400:../../dependencies/STM32CubeL0/Drivers/STM32L0xx_HAL_Driver/Inc/stm32l0xx_ll_tim.h **** #define LL_TIM_CCDMAREQUEST_CC                 0x00000000U          /*!< CCx DMA request sent when 
 401:../../dependencies/STM32CubeL0/Drivers/STM32L0xx_HAL_Driver/Inc/stm32l0xx_ll_tim.h **** #define LL_TIM_CCDMAREQUEST_UPDATE             TIM_CR2_CCDS         /*!< CCx DMA requests sent when
 402:../../dependencies/STM32CubeL0/Drivers/STM32L0xx_HAL_Driver/Inc/stm32l0xx_ll_tim.h **** /**
 403:../../dependencies/STM32CubeL0/Drivers/STM32L0xx_HAL_Driver/Inc/stm32l0xx_ll_tim.h ****   * @}
 404:../../dependencies/STM32CubeL0/Drivers/STM32L0xx_HAL_Driver/Inc/stm32l0xx_ll_tim.h ****   */
ARM GAS  /var/folders/fs/dxwfnrqj18z860lwl3d6f5t00000gn/T//ccbTeCNC.s 			page 37


 405:../../dependencies/STM32CubeL0/Drivers/STM32L0xx_HAL_Driver/Inc/stm32l0xx_ll_tim.h **** 
 406:../../dependencies/STM32CubeL0/Drivers/STM32L0xx_HAL_Driver/Inc/stm32l0xx_ll_tim.h **** 
 407:../../dependencies/STM32CubeL0/Drivers/STM32L0xx_HAL_Driver/Inc/stm32l0xx_ll_tim.h **** /** @defgroup TIM_LL_EC_CHANNEL Channel
 408:../../dependencies/STM32CubeL0/Drivers/STM32L0xx_HAL_Driver/Inc/stm32l0xx_ll_tim.h ****   * @{
 409:../../dependencies/STM32CubeL0/Drivers/STM32L0xx_HAL_Driver/Inc/stm32l0xx_ll_tim.h ****   */
 410:../../dependencies/STM32CubeL0/Drivers/STM32L0xx_HAL_Driver/Inc/stm32l0xx_ll_tim.h **** #define LL_TIM_CHANNEL_CH1                     TIM_CCER_CC1E     /*!< Timer input/output channel 1 
 411:../../dependencies/STM32CubeL0/Drivers/STM32L0xx_HAL_Driver/Inc/stm32l0xx_ll_tim.h **** #define LL_TIM_CHANNEL_CH2                     TIM_CCER_CC2E     /*!< Timer input/output channel 2 
 412:../../dependencies/STM32CubeL0/Drivers/STM32L0xx_HAL_Driver/Inc/stm32l0xx_ll_tim.h **** #define LL_TIM_CHANNEL_CH3                     TIM_CCER_CC3E     /*!< Timer input/output channel 3 
 413:../../dependencies/STM32CubeL0/Drivers/STM32L0xx_HAL_Driver/Inc/stm32l0xx_ll_tim.h **** #define LL_TIM_CHANNEL_CH4                     TIM_CCER_CC4E     /*!< Timer input/output channel 4 
 414:../../dependencies/STM32CubeL0/Drivers/STM32L0xx_HAL_Driver/Inc/stm32l0xx_ll_tim.h **** /**
 415:../../dependencies/STM32CubeL0/Drivers/STM32L0xx_HAL_Driver/Inc/stm32l0xx_ll_tim.h ****   * @}
 416:../../dependencies/STM32CubeL0/Drivers/STM32L0xx_HAL_Driver/Inc/stm32l0xx_ll_tim.h ****   */
 417:../../dependencies/STM32CubeL0/Drivers/STM32L0xx_HAL_Driver/Inc/stm32l0xx_ll_tim.h **** 
 418:../../dependencies/STM32CubeL0/Drivers/STM32L0xx_HAL_Driver/Inc/stm32l0xx_ll_tim.h **** #if defined(USE_FULL_LL_DRIVER)
 419:../../dependencies/STM32CubeL0/Drivers/STM32L0xx_HAL_Driver/Inc/stm32l0xx_ll_tim.h **** /** @defgroup TIM_LL_EC_OCSTATE Output Configuration State
 420:../../dependencies/STM32CubeL0/Drivers/STM32L0xx_HAL_Driver/Inc/stm32l0xx_ll_tim.h ****   * @{
 421:../../dependencies/STM32CubeL0/Drivers/STM32L0xx_HAL_Driver/Inc/stm32l0xx_ll_tim.h ****   */
 422:../../dependencies/STM32CubeL0/Drivers/STM32L0xx_HAL_Driver/Inc/stm32l0xx_ll_tim.h **** #define LL_TIM_OCSTATE_DISABLE                 0x00000000U             /*!< OCx is not active */
 423:../../dependencies/STM32CubeL0/Drivers/STM32L0xx_HAL_Driver/Inc/stm32l0xx_ll_tim.h **** #define LL_TIM_OCSTATE_ENABLE                  TIM_CCER_CC1E           /*!< OCx signal is output on
 424:../../dependencies/STM32CubeL0/Drivers/STM32L0xx_HAL_Driver/Inc/stm32l0xx_ll_tim.h **** /**
 425:../../dependencies/STM32CubeL0/Drivers/STM32L0xx_HAL_Driver/Inc/stm32l0xx_ll_tim.h ****   * @}
 426:../../dependencies/STM32CubeL0/Drivers/STM32L0xx_HAL_Driver/Inc/stm32l0xx_ll_tim.h ****   */
 427:../../dependencies/STM32CubeL0/Drivers/STM32L0xx_HAL_Driver/Inc/stm32l0xx_ll_tim.h **** #endif /* USE_FULL_LL_DRIVER */
 428:../../dependencies/STM32CubeL0/Drivers/STM32L0xx_HAL_Driver/Inc/stm32l0xx_ll_tim.h **** 
 429:../../dependencies/STM32CubeL0/Drivers/STM32L0xx_HAL_Driver/Inc/stm32l0xx_ll_tim.h **** /** @defgroup TIM_LL_EC_OCMODE Output Configuration Mode
 430:../../dependencies/STM32CubeL0/Drivers/STM32L0xx_HAL_Driver/Inc/stm32l0xx_ll_tim.h ****   * @{
 431:../../dependencies/STM32CubeL0/Drivers/STM32L0xx_HAL_Driver/Inc/stm32l0xx_ll_tim.h ****   */
 432:../../dependencies/STM32CubeL0/Drivers/STM32L0xx_HAL_Driver/Inc/stm32l0xx_ll_tim.h **** #define LL_TIM_OCMODE_FROZEN                   0x00000000U                                         
 433:../../dependencies/STM32CubeL0/Drivers/STM32L0xx_HAL_Driver/Inc/stm32l0xx_ll_tim.h **** #define LL_TIM_OCMODE_ACTIVE                   TIM_CCMR1_OC1M_0                                    
 434:../../dependencies/STM32CubeL0/Drivers/STM32L0xx_HAL_Driver/Inc/stm32l0xx_ll_tim.h **** #define LL_TIM_OCMODE_INACTIVE                 TIM_CCMR1_OC1M_1                                    
 435:../../dependencies/STM32CubeL0/Drivers/STM32L0xx_HAL_Driver/Inc/stm32l0xx_ll_tim.h **** #define LL_TIM_OCMODE_TOGGLE                   (TIM_CCMR1_OC1M_1 | TIM_CCMR1_OC1M_0)               
 436:../../dependencies/STM32CubeL0/Drivers/STM32L0xx_HAL_Driver/Inc/stm32l0xx_ll_tim.h **** #define LL_TIM_OCMODE_FORCED_INACTIVE          TIM_CCMR1_OC1M_2                                    
 437:../../dependencies/STM32CubeL0/Drivers/STM32L0xx_HAL_Driver/Inc/stm32l0xx_ll_tim.h **** #define LL_TIM_OCMODE_FORCED_ACTIVE            (TIM_CCMR1_OC1M_2 | TIM_CCMR1_OC1M_0)               
 438:../../dependencies/STM32CubeL0/Drivers/STM32L0xx_HAL_Driver/Inc/stm32l0xx_ll_tim.h **** #define LL_TIM_OCMODE_PWM1                     (TIM_CCMR1_OC1M_2 | TIM_CCMR1_OC1M_1)               
 439:../../dependencies/STM32CubeL0/Drivers/STM32L0xx_HAL_Driver/Inc/stm32l0xx_ll_tim.h **** #define LL_TIM_OCMODE_PWM2                     (TIM_CCMR1_OC1M_2 | TIM_CCMR1_OC1M_1 | TIM_CCMR1_OC1
 440:../../dependencies/STM32CubeL0/Drivers/STM32L0xx_HAL_Driver/Inc/stm32l0xx_ll_tim.h **** /**
 441:../../dependencies/STM32CubeL0/Drivers/STM32L0xx_HAL_Driver/Inc/stm32l0xx_ll_tim.h ****   * @}
 442:../../dependencies/STM32CubeL0/Drivers/STM32L0xx_HAL_Driver/Inc/stm32l0xx_ll_tim.h ****   */
 443:../../dependencies/STM32CubeL0/Drivers/STM32L0xx_HAL_Driver/Inc/stm32l0xx_ll_tim.h **** 
 444:../../dependencies/STM32CubeL0/Drivers/STM32L0xx_HAL_Driver/Inc/stm32l0xx_ll_tim.h **** /** @defgroup TIM_LL_EC_OCPOLARITY Output Configuration Polarity
 445:../../dependencies/STM32CubeL0/Drivers/STM32L0xx_HAL_Driver/Inc/stm32l0xx_ll_tim.h ****   * @{
 446:../../dependencies/STM32CubeL0/Drivers/STM32L0xx_HAL_Driver/Inc/stm32l0xx_ll_tim.h ****   */
 447:../../dependencies/STM32CubeL0/Drivers/STM32L0xx_HAL_Driver/Inc/stm32l0xx_ll_tim.h **** #define LL_TIM_OCPOLARITY_HIGH                 0x00000000U                 /*!< OCxactive high*/
 448:../../dependencies/STM32CubeL0/Drivers/STM32L0xx_HAL_Driver/Inc/stm32l0xx_ll_tim.h **** #define LL_TIM_OCPOLARITY_LOW                  TIM_CCER_CC1P               /*!< OCxactive low*/
 449:../../dependencies/STM32CubeL0/Drivers/STM32L0xx_HAL_Driver/Inc/stm32l0xx_ll_tim.h **** /**
 450:../../dependencies/STM32CubeL0/Drivers/STM32L0xx_HAL_Driver/Inc/stm32l0xx_ll_tim.h ****   * @}
 451:../../dependencies/STM32CubeL0/Drivers/STM32L0xx_HAL_Driver/Inc/stm32l0xx_ll_tim.h ****   */
 452:../../dependencies/STM32CubeL0/Drivers/STM32L0xx_HAL_Driver/Inc/stm32l0xx_ll_tim.h **** 
 453:../../dependencies/STM32CubeL0/Drivers/STM32L0xx_HAL_Driver/Inc/stm32l0xx_ll_tim.h **** 
 454:../../dependencies/STM32CubeL0/Drivers/STM32L0xx_HAL_Driver/Inc/stm32l0xx_ll_tim.h **** 
 455:../../dependencies/STM32CubeL0/Drivers/STM32L0xx_HAL_Driver/Inc/stm32l0xx_ll_tim.h **** /** @defgroup TIM_LL_EC_ACTIVEINPUT Active Input Selection
 456:../../dependencies/STM32CubeL0/Drivers/STM32L0xx_HAL_Driver/Inc/stm32l0xx_ll_tim.h ****   * @{
 457:../../dependencies/STM32CubeL0/Drivers/STM32L0xx_HAL_Driver/Inc/stm32l0xx_ll_tim.h ****   */
 458:../../dependencies/STM32CubeL0/Drivers/STM32L0xx_HAL_Driver/Inc/stm32l0xx_ll_tim.h **** #define LL_TIM_ACTIVEINPUT_DIRECTTI            (TIM_CCMR1_CC1S_0 << 16U) /*!< ICx is mapped on TIx 
 459:../../dependencies/STM32CubeL0/Drivers/STM32L0xx_HAL_Driver/Inc/stm32l0xx_ll_tim.h **** #define LL_TIM_ACTIVEINPUT_INDIRECTTI          (TIM_CCMR1_CC1S_1 << 16U) /*!< ICx is mapped on TIy 
 460:../../dependencies/STM32CubeL0/Drivers/STM32L0xx_HAL_Driver/Inc/stm32l0xx_ll_tim.h **** #define LL_TIM_ACTIVEINPUT_TRC                 (TIM_CCMR1_CC1S << 16U)   /*!< ICx is mapped on TRC 
 461:../../dependencies/STM32CubeL0/Drivers/STM32L0xx_HAL_Driver/Inc/stm32l0xx_ll_tim.h **** /**
ARM GAS  /var/folders/fs/dxwfnrqj18z860lwl3d6f5t00000gn/T//ccbTeCNC.s 			page 38


 462:../../dependencies/STM32CubeL0/Drivers/STM32L0xx_HAL_Driver/Inc/stm32l0xx_ll_tim.h ****   * @}
 463:../../dependencies/STM32CubeL0/Drivers/STM32L0xx_HAL_Driver/Inc/stm32l0xx_ll_tim.h ****   */
 464:../../dependencies/STM32CubeL0/Drivers/STM32L0xx_HAL_Driver/Inc/stm32l0xx_ll_tim.h **** 
 465:../../dependencies/STM32CubeL0/Drivers/STM32L0xx_HAL_Driver/Inc/stm32l0xx_ll_tim.h **** /** @defgroup TIM_LL_EC_ICPSC Input Configuration Prescaler
 466:../../dependencies/STM32CubeL0/Drivers/STM32L0xx_HAL_Driver/Inc/stm32l0xx_ll_tim.h ****   * @{
 467:../../dependencies/STM32CubeL0/Drivers/STM32L0xx_HAL_Driver/Inc/stm32l0xx_ll_tim.h ****   */
 468:../../dependencies/STM32CubeL0/Drivers/STM32L0xx_HAL_Driver/Inc/stm32l0xx_ll_tim.h **** #define LL_TIM_ICPSC_DIV1                      0x00000000U                    /*!< No prescaler, ca
 469:../../dependencies/STM32CubeL0/Drivers/STM32L0xx_HAL_Driver/Inc/stm32l0xx_ll_tim.h **** #define LL_TIM_ICPSC_DIV2                      (TIM_CCMR1_IC1PSC_0 << 16U)    /*!< Capture is done 
 470:../../dependencies/STM32CubeL0/Drivers/STM32L0xx_HAL_Driver/Inc/stm32l0xx_ll_tim.h **** #define LL_TIM_ICPSC_DIV4                      (TIM_CCMR1_IC1PSC_1 << 16U)    /*!< Capture is done 
 471:../../dependencies/STM32CubeL0/Drivers/STM32L0xx_HAL_Driver/Inc/stm32l0xx_ll_tim.h **** #define LL_TIM_ICPSC_DIV8                      (TIM_CCMR1_IC1PSC << 16U)      /*!< Capture is done 
 472:../../dependencies/STM32CubeL0/Drivers/STM32L0xx_HAL_Driver/Inc/stm32l0xx_ll_tim.h **** /**
 473:../../dependencies/STM32CubeL0/Drivers/STM32L0xx_HAL_Driver/Inc/stm32l0xx_ll_tim.h ****   * @}
 474:../../dependencies/STM32CubeL0/Drivers/STM32L0xx_HAL_Driver/Inc/stm32l0xx_ll_tim.h ****   */
 475:../../dependencies/STM32CubeL0/Drivers/STM32L0xx_HAL_Driver/Inc/stm32l0xx_ll_tim.h **** 
 476:../../dependencies/STM32CubeL0/Drivers/STM32L0xx_HAL_Driver/Inc/stm32l0xx_ll_tim.h **** /** @defgroup TIM_LL_EC_IC_FILTER Input Configuration Filter
 477:../../dependencies/STM32CubeL0/Drivers/STM32L0xx_HAL_Driver/Inc/stm32l0xx_ll_tim.h ****   * @{
 478:../../dependencies/STM32CubeL0/Drivers/STM32L0xx_HAL_Driver/Inc/stm32l0xx_ll_tim.h ****   */
 479:../../dependencies/STM32CubeL0/Drivers/STM32L0xx_HAL_Driver/Inc/stm32l0xx_ll_tim.h **** #define LL_TIM_IC_FILTER_FDIV1                 0x00000000U                                         
 480:../../dependencies/STM32CubeL0/Drivers/STM32L0xx_HAL_Driver/Inc/stm32l0xx_ll_tim.h **** #define LL_TIM_IC_FILTER_FDIV1_N2              (TIM_CCMR1_IC1F_0 << 16U)                           
 481:../../dependencies/STM32CubeL0/Drivers/STM32L0xx_HAL_Driver/Inc/stm32l0xx_ll_tim.h **** #define LL_TIM_IC_FILTER_FDIV1_N4              (TIM_CCMR1_IC1F_1 << 16U)                           
 482:../../dependencies/STM32CubeL0/Drivers/STM32L0xx_HAL_Driver/Inc/stm32l0xx_ll_tim.h **** #define LL_TIM_IC_FILTER_FDIV1_N8              ((TIM_CCMR1_IC1F_1 | TIM_CCMR1_IC1F_0) << 16U)      
 483:../../dependencies/STM32CubeL0/Drivers/STM32L0xx_HAL_Driver/Inc/stm32l0xx_ll_tim.h **** #define LL_TIM_IC_FILTER_FDIV2_N6              (TIM_CCMR1_IC1F_2 << 16U)                           
 484:../../dependencies/STM32CubeL0/Drivers/STM32L0xx_HAL_Driver/Inc/stm32l0xx_ll_tim.h **** #define LL_TIM_IC_FILTER_FDIV2_N8              ((TIM_CCMR1_IC1F_2 | TIM_CCMR1_IC1F_0) << 16U)      
 485:../../dependencies/STM32CubeL0/Drivers/STM32L0xx_HAL_Driver/Inc/stm32l0xx_ll_tim.h **** #define LL_TIM_IC_FILTER_FDIV4_N6              ((TIM_CCMR1_IC1F_2 | TIM_CCMR1_IC1F_1) << 16U)      
 486:../../dependencies/STM32CubeL0/Drivers/STM32L0xx_HAL_Driver/Inc/stm32l0xx_ll_tim.h **** #define LL_TIM_IC_FILTER_FDIV4_N8              ((TIM_CCMR1_IC1F_2 | TIM_CCMR1_IC1F_1 | TIM_CCMR1_IC
 487:../../dependencies/STM32CubeL0/Drivers/STM32L0xx_HAL_Driver/Inc/stm32l0xx_ll_tim.h **** #define LL_TIM_IC_FILTER_FDIV8_N6              (TIM_CCMR1_IC1F_3 << 16U)                           
 488:../../dependencies/STM32CubeL0/Drivers/STM32L0xx_HAL_Driver/Inc/stm32l0xx_ll_tim.h **** #define LL_TIM_IC_FILTER_FDIV8_N8              ((TIM_CCMR1_IC1F_3 | TIM_CCMR1_IC1F_0) << 16U)      
 489:../../dependencies/STM32CubeL0/Drivers/STM32L0xx_HAL_Driver/Inc/stm32l0xx_ll_tim.h **** #define LL_TIM_IC_FILTER_FDIV16_N5             ((TIM_CCMR1_IC1F_3 | TIM_CCMR1_IC1F_1) << 16U)      
 490:../../dependencies/STM32CubeL0/Drivers/STM32L0xx_HAL_Driver/Inc/stm32l0xx_ll_tim.h **** #define LL_TIM_IC_FILTER_FDIV16_N6             ((TIM_CCMR1_IC1F_3 | TIM_CCMR1_IC1F_1 | TIM_CCMR1_IC
 491:../../dependencies/STM32CubeL0/Drivers/STM32L0xx_HAL_Driver/Inc/stm32l0xx_ll_tim.h **** #define LL_TIM_IC_FILTER_FDIV16_N8             ((TIM_CCMR1_IC1F_3 | TIM_CCMR1_IC1F_2) << 16U)      
 492:../../dependencies/STM32CubeL0/Drivers/STM32L0xx_HAL_Driver/Inc/stm32l0xx_ll_tim.h **** #define LL_TIM_IC_FILTER_FDIV32_N5             ((TIM_CCMR1_IC1F_3 | TIM_CCMR1_IC1F_2 | TIM_CCMR1_IC
 493:../../dependencies/STM32CubeL0/Drivers/STM32L0xx_HAL_Driver/Inc/stm32l0xx_ll_tim.h **** #define LL_TIM_IC_FILTER_FDIV32_N6             ((TIM_CCMR1_IC1F_3 | TIM_CCMR1_IC1F_2 | TIM_CCMR1_IC
 494:../../dependencies/STM32CubeL0/Drivers/STM32L0xx_HAL_Driver/Inc/stm32l0xx_ll_tim.h **** #define LL_TIM_IC_FILTER_FDIV32_N8             (TIM_CCMR1_IC1F << 16U)                             
 495:../../dependencies/STM32CubeL0/Drivers/STM32L0xx_HAL_Driver/Inc/stm32l0xx_ll_tim.h **** /**
 496:../../dependencies/STM32CubeL0/Drivers/STM32L0xx_HAL_Driver/Inc/stm32l0xx_ll_tim.h ****   * @}
 497:../../dependencies/STM32CubeL0/Drivers/STM32L0xx_HAL_Driver/Inc/stm32l0xx_ll_tim.h ****   */
 498:../../dependencies/STM32CubeL0/Drivers/STM32L0xx_HAL_Driver/Inc/stm32l0xx_ll_tim.h **** 
 499:../../dependencies/STM32CubeL0/Drivers/STM32L0xx_HAL_Driver/Inc/stm32l0xx_ll_tim.h **** /** @defgroup TIM_LL_EC_IC_POLARITY Input Configuration Polarity
 500:../../dependencies/STM32CubeL0/Drivers/STM32L0xx_HAL_Driver/Inc/stm32l0xx_ll_tim.h ****   * @{
 501:../../dependencies/STM32CubeL0/Drivers/STM32L0xx_HAL_Driver/Inc/stm32l0xx_ll_tim.h ****   */
 502:../../dependencies/STM32CubeL0/Drivers/STM32L0xx_HAL_Driver/Inc/stm32l0xx_ll_tim.h **** #define LL_TIM_IC_POLARITY_RISING              0x00000000U                      /*!< The circuit is
 503:../../dependencies/STM32CubeL0/Drivers/STM32L0xx_HAL_Driver/Inc/stm32l0xx_ll_tim.h **** #define LL_TIM_IC_POLARITY_FALLING             TIM_CCER_CC1P                    /*!< The circuit is
 504:../../dependencies/STM32CubeL0/Drivers/STM32L0xx_HAL_Driver/Inc/stm32l0xx_ll_tim.h **** #define LL_TIM_IC_POLARITY_BOTHEDGE            (TIM_CCER_CC1P | TIM_CCER_CC1NP) /*!< The circuit is
 505:../../dependencies/STM32CubeL0/Drivers/STM32L0xx_HAL_Driver/Inc/stm32l0xx_ll_tim.h **** /**
 506:../../dependencies/STM32CubeL0/Drivers/STM32L0xx_HAL_Driver/Inc/stm32l0xx_ll_tim.h ****   * @}
 507:../../dependencies/STM32CubeL0/Drivers/STM32L0xx_HAL_Driver/Inc/stm32l0xx_ll_tim.h ****   */
 508:../../dependencies/STM32CubeL0/Drivers/STM32L0xx_HAL_Driver/Inc/stm32l0xx_ll_tim.h **** 
 509:../../dependencies/STM32CubeL0/Drivers/STM32L0xx_HAL_Driver/Inc/stm32l0xx_ll_tim.h **** /** @defgroup TIM_LL_EC_CLOCKSOURCE Clock Source
